   1              		.file	"FreeTypeGX.cpp"
   2              		.section	.debug_abbrev,"",@progbits
   3              	.Ldebug_abbrev0:
   4              		.section	.debug_info,"",@progbits
   5              	.Ldebug_info0:
   6              		.section	.debug_line,"",@progbits
   7              	.Ldebug_line0:
   8 0000 00000EA0 		.section	".text"
   8      00020000 
   8      05FF0401 
   8      FB0E0D00 
   8      01010101 
   9              	.Ltext0:
  10              		.section	.ctors,"aw",@progbits
  11              		.align 2
  12 0000 0000013C 		.long	_GLOBAL__I__ZN10FreeTypeGXC2Ehh
  13              		.section	".text"
  14              		.align 2
  15              		.globl _ZN10FreeTypeGX20setCompatibilityModeEj
  16              		.type	_ZN10FreeTypeGX20setCompatibilityModeEj, @function
  17              	_ZN10FreeTypeGX20setCompatibilityModeEj:
  18              	.LFB571:
  19              		.file 1 "d:/code/dasdd/source/FreeTypeGX.cpp"
  20              		.loc 1 101 0
  21              	.LVL0:
  22              		.loc 1 102 0
  23 0000 90830014 		stw 4,20(3)
  24              		.loc 1 103 0
  25 0004 4E800020 		blr
  26              	.LFE571:
  27              		.size	_ZN10FreeTypeGX20setCompatibilityModeEj, .-_ZN10FreeTypeGX20setCompatibilityModeEj
  28              		.globl __gxx_personality_v0
  29              		.align 2
  30              		.globl _ZN10FreeTypeGX18adjustTextureWidthEth
  31              		.type	_ZN10FreeTypeGX18adjustTextureWidthEth, @function
  32              	_ZN10FreeTypeGX18adjustTextureWidthEth:
  33              	.LFB577:
  34              		.loc 1 223 0
  35              	.LVL1:
  36              	.LBB537:
  37              		.loc 1 226 0
  38 0008 2B840002 		cmplwi 7,4,2
  39 000c 39400008 		li 10,8
  40              	.LVL2:
  41 0010 39200008 		li 9,8
  42 0014 409D000C 		ble- 7,.L6
  43 0018 39400004 		li 10,4
  44 001c 39200004 		li 9,4
  45              	.L6:
  46              		.loc 1 241 0
  47 0020 7C034B96 		divwu 0,3,9
  48 0024 7C6B1B78 		mr 11,3
  49 0028 7C0049D6 		mullw 0,0,9
  50 002c 7D201851 		subf. 9,0,3
  51 0030 41820010 		beq- 0,.L9
  52 0034 7C0A1A14 		add 0,10,3
  53 0038 7C090050 		subf 0,9,0
  54 003c 540B043E 		rlwinm 11,0,0,0xffff
  55              	.L9:
  56              	.LBE537:
  57              		.loc 1 243 0
  58 0040 7D635B78 		mr 3,11
  59              	.LVL3:
  60 0044 4E800020 		blr
  61              	.LFE577:
  62              		.size	_ZN10FreeTypeGX18adjustTextureWidthEth, .-_ZN10FreeTypeGX18adjustTextureWidthEth
  63              		.align 2
  64              		.globl _ZN10FreeTypeGX19adjustTextureHeightEth
  65              		.type	_ZN10FreeTypeGX19adjustTextureHeightEth, @function
  66              	_ZN10FreeTypeGX19adjustTextureHeightEth:
  67              	.LFB578:
  68              		.loc 1 254 0
  69              	.LVL4:
  70              	.LBB538:
  71              		.loc 1 257 0
  72 0048 2F840000 		cmpwi 7,4,0
  73 004c 39400008 		li 10,8
  74              	.LVL5:
  75 0050 39200008 		li 9,8
  76 0054 419E000C 		beq- 7,.L15
  77 0058 39400004 		li 10,4
  78 005c 39200004 		li 9,4
  79              	.L15:
  80              		.loc 1 272 0
  81 0060 7C034B96 		divwu 0,3,9
  82 0064 7C6B1B78 		mr 11,3
  83 0068 7C0049D6 		mullw 0,0,9
  84 006c 7D201851 		subf. 9,0,3
  85 0070 41820010 		beq- 0,.L18
  86 0074 7C0A1A14 		add 0,10,3
  87 0078 7C090050 		subf 0,9,0
  88 007c 540B043E 		rlwinm 11,0,0,0xffff
  89              	.L18:
  90              	.LBE538:
  91              		.loc 1 274 0
  92 0080 7D635B78 		mr 3,11
  93              	.LVL6:
  94 0084 4E800020 		blr
  95              	.LFE578:
  96              		.size	_ZN10FreeTypeGX19adjustTextureHeightEth, .-_ZN10FreeTypeGX19adjustTextureHeightEth
  97              		.align 2
  98              		.globl _ZN10FreeTypeGX19getStyleOffsetWidthEtt
  99              		.type	_ZN10FreeTypeGX19getStyleOffsetWidthEtt, @function
 100              	_ZN10FreeTypeGX19getStyleOffsetWidthEtt:
 101              	.LFB582:
 102              		.loc 1 397 0
 103              	.LVL7:
 104              		.loc 1 399 0
 105 0088 70800001 		andi. 0,4,1
 106              	.LVL8:
 107              		.loc 1 397 0
 108 008c 7C601B78 		mr 0,3
 109              		.loc 1 399 0
 110 0090 4082001C 		bne- 0,.L21
 111              	.LVL9:
 112              		.loc 1 402 0
 113 0094 70890002 		andi. 9,4,2
 114              		.loc 1 403 0
 115 0098 5463F87E 		srwi 3,3,1
 116              		.loc 1 402 0
 117 009c 4C820020 		bnelr- 0
 118              		.loc 1 405 0
 119 00a0 70890004 		andi. 9,4,4
 120              		.loc 1 406 0
 121 00a4 7C030378 		mr 3,0
 122              		.loc 1 405 0
 123 00a8 4CA20020 		bnelr+ 0
 124              	.LVL10:
 125              	.L21:
 126              		.loc 1 406 0
 127 00ac 38600000 		li 3,0
 128              		.loc 1 410 0
 129 00b0 4E800020 		blr
 130              	.LFE582:
 131              		.size	_ZN10FreeTypeGX19getStyleOffsetWidthEtt, .-_ZN10FreeTypeGX19getStyleOffsetWidthEtt
 132              		.align 2
 133              		.globl _ZN10FreeTypeGX20getStyleOffsetHeightE15ftgxDataOffset_t
 134              		.type	_ZN10FreeTypeGX20getStyleOffsetHeightE15ftgxDataOffset_t, @function
 135              	_ZN10FreeTypeGX20getStyleOffsetHeightE15ftgxDataOffset_t:
 136              	.LFB583:
 137              		.loc 1 420 0
 138              	.LVL11:
 139              		.loc 1 420 0
 140 00b4 80030000 		lwz 0,0(3)
 141              		.loc 1 421 0
 142 00b8 70890010 		andi. 9,4,16
 143              		.loc 1 420 0
 144 00bc 7C0B8670 		srawi 11,0,16
 145              		.loc 1 422 0
 146 00c0 7D2B00D0 		neg 9,11
 147 00c4 5523043E 		rlwinm 3,9,0,0xffff
 148              	.LVL12:
 149              		.loc 1 420 0
 150 00c8 7C090734 		extsh 9,0
 151              	.LVL13:
 152              		.loc 1 421 0
 153 00cc 4C820020 		bnelr- 0
 154              		.loc 1 424 0
 155 00d0 70800020 		andi. 0,4,32
 156              	.LVL14:
 157              		.loc 1 425 0
 158 00d4 7C0B00D0 		neg 0,11
 159 00d8 5403043E 		rlwinm 3,0,0,0xffff
 160              		.loc 1 424 0
 161 00dc 4C820020 		bnelr- 0
 162              		.loc 1 427 0
 163 00e0 70800040 		andi. 0,4,64
 164 00e4 38600000 		li 3,0
 165 00e8 4D820020 		beqlr- 0
 166              		.loc 1 428 0
 167 00ec 5523043E 		rlwinm 3,9,0,0xffff
 168              		.loc 1 432 0
 169 00f0 4E800020 		blr
 170              	.LFE583:
 171              		.size	_ZN10FreeTypeGX20getStyleOffsetHeightE15ftgxDataOffset_t, .-_ZN10FreeTypeGX20getStyleOffsetH
 172              		.align 2
 173              		.globl _ZN10FreeTypeGX9getOffsetEPKw
 174              		.type	_ZN10FreeTypeGX9getOffsetEPKw, @function
 175              	_ZN10FreeTypeGX9getOffsetEPKw:
 176              	.LFB592:
 177              		.loc 1 642 0
 178              	.LVL15:
 179 00f4 7C0802A6 		mflr 0
 180              	.LCFI0:
 181 00f8 9421FFF8 		stwu 1,-8(1)
 182              	.LCFI1:
 183 00fc 9001000C 		stw 0,12(1)
 184              	.LCFI2:
 185              		.loc 1 643 0
 186 0100 48000001 		bl _ZN10FreeTypeGX9getOffsetEPKw
 187              	.LVL16:
 188              		.loc 1 644 0
 189 0104 8001000C 		lwz 0,12(1)
 190 0108 38210008 		addi 1,1,8
 191 010c 7C0803A6 		mtlr 0
 192 0110 4E800020 		blr
 193              	.LFE592:
 194              		.size	_ZN10FreeTypeGX9getOffsetEPKw, .-_ZN10FreeTypeGX9getOffsetEPKw
 195              		.section	.text._ZNSt8_Rb_treeIwSt4pairIKw13ftgxCharData_ESt10_Select1stIS3_ESt4lessIwESaIS3_EE4fin
 196              		.align 2
 197              		.weak	_ZNSt8_Rb_treeIwSt4pairIKw13ftgxCharData_ESt10_Select1stIS3_ESt4lessIwESaIS3_EE4findERS1_
 198              		.type	_ZNSt8_Rb_treeIwSt4pairIKw13ftgxCharData_ESt10_Select1stIS3_ESt4lessIwESaIS3_EE4findERS1_, @
 199              	_ZNSt8_Rb_treeIwSt4pairIKw13ftgxCharData_ESt10_Select1stIS3_ESt4lessIwESaIS3_EE4findERS1_:
 200              	.LFB644:
 201              		.file 2 "c:\\programme\\devkitpro\\devkitppc\\bin\\../lib/gcc/powerpc-gekko/4.2.4/../../../../powe
 202              		.loc 2 1370 0
 203              	.LVL17:
 204              	.LBB539:
 205              	.LBB540:
 206              	.LBB541:
 207              		.loc 2 475 0
 208 0000 80030008 		lwz 0,8(3)
 209              	.LBE541:
 210              	.LBE540:
 211              	.LBB543:
 212              	.LBB544:
 213              		.loc 2 486 0
 214 0004 38630004 		addi 3,3,4
 215              	.LVL18:
 216 0008 7C6A1B78 		mr 10,3
 217              	.LVL19:
 218              	.LBE544:
 219              	.LBE543:
 220              		.loc 2 1375 0
 221 000c 2F800000 		cmpwi 7,0,0
 222 0010 419E0038 		beq- 7,.L40
 223              	.LBB545:
 224              	.LBB542:
 225              		.loc 2 475 0
 226 0014 81640000 		lwz 11,0(4)
 227 0018 7C090378 		mr 9,0
 228              	.LVL20:
 229 001c 48000014 		b .L42
 230              	.L51:
 231              	.LBE542:
 232              	.LBE545:
 233              	.LBB546:
 234              	.LBB547:
 235              		.loc 2 502 0
 236 0020 7D2A4B78 		mr 10,9
 237 0024 81290008 		lwz 9,8(9)
 238              	.LBE547:
 239              	.LBE546:
 240              		.loc 2 1375 0
 241 0028 2F890000 		cmpwi 7,9,0
 242 002c 419E001C 		beq- 7,.L40
 243              	.L42:
 244              		.loc 2 1376 0
 245 0030 80090010 		lwz 0,16(9)
 246 0034 7F805800 		cmpw 7,0,11
 247 0038 40BCFFE8 		bge- 7,.L51
 248              	.LBB548:
 249              	.LBB549:
 250              		.loc 2 510 0
 251 003c 8129000C 		lwz 9,12(9)
 252              	.LBE549:
 253              	.LBE548:
 254              		.loc 2 1375 0
 255 0040 2F890000 		cmpwi 7,9,0
 256 0044 409EFFEC 		bne+ 7,.L42
 257              	.L40:
 258              		.loc 2 1384 0
 259 0048 7F835000 		cmpw 7,3,10
 260 004c 4D9E0020 		beqlr- 7
 261 0050 80040000 		lwz 0,0(4)
 262 0054 812A0010 		lwz 9,16(10)
 263              	.LVL21:
 264 0058 7F804800 		cmpw 7,0,9
 265 005c 4D9C0020 		bltlr- 7
 266 0060 7D435378 		mr 3,10
 267              	.LBE539:
 268 0064 4E800020 		blr
 269              	.LFE644:
 270              		.size	_ZNSt8_Rb_treeIwSt4pairIKw13ftgxCharData_ESt10_Select1stIS3_ESt4lessIwESaIS3_EE4findERS1_, .
 271              		.section	.text._ZNSt8_Rb_treeIwSt4pairIKw13ftgxCharData_ESt10_Select1stIS3_ESt4lessIwESaIS3_EE11lo
 272              		.align 2
 273              		.weak	_ZNSt8_Rb_treeIwSt4pairIKw13ftgxCharData_ESt10_Select1stIS3_ESt4lessIwESaIS3_EE11lower_bound
 274              		.type	_ZNSt8_Rb_treeIwSt4pairIKw13ftgxCharData_ESt10_Select1stIS3_ESt4lessIwESaIS3_EE11lower_bound
 275              	_ZNSt8_Rb_treeIwSt4pairIKw13ftgxCharData_ESt10_Select1stIS3_ESt4lessIwESaIS3_EE11lower_boundERS1_:
 276              	.LFB673:
 277              		.loc 2 1424 0
 278              	.LVL22:
 279              	.LBB550:
 280              	.LBB551:
 281              	.LBB552:
 282              		.loc 2 475 0
 283 0000 80030008 		lwz 0,8(3)
 284              	.LBE552:
 285              	.LBE551:
 286              	.LBB554:
 287              	.LBB555:
 288              		.loc 2 486 0
 289 0004 38630004 		addi 3,3,4
 290              	.LVL23:
 291              	.LBE555:
 292              	.LBE554:
 293              		.loc 2 1429 0
 294 0008 2F800000 		cmpwi 7,0,0
 295 000c 4D9E0020 		beqlr- 7
 296              	.LBB556:
 297              	.LBB553:
 298              		.loc 2 475 0
 299 0010 80840000 		lwz 4,0(4)
 300              	.LVL24:
 301 0014 7C090378 		mr 9,0
 302              	.LVL25:
 303 0018 48000014 		b .L55
 304              	.L62:
 305              	.LBE553:
 306              	.LBE556:
 307              	.LBB557:
 308              	.LBB558:
 309              		.loc 2 502 0
 310 001c 7D234B78 		mr 3,9
 311 0020 81290008 		lwz 9,8(9)
 312              	.LBE558:
 313              	.LBE557:
 314              		.loc 2 1429 0
 315 0024 2F890000 		cmpwi 7,9,0
 316 0028 419E001C 		beq- 7,.L61
 317              	.L55:
 318              		.loc 2 1430 0
 319 002c 80090010 		lwz 0,16(9)
 320 0030 7F802000 		cmpw 7,0,4
 321 0034 40BCFFE8 		bge- 7,.L62
 322              	.LBB559:
 323              	.LBB560:
 324              		.loc 2 510 0
 325 0038 8129000C 		lwz 9,12(9)
 326              	.LBE560:
 327              	.LBE559:
 328              		.loc 2 1429 0
 329 003c 2F890000 		cmpwi 7,9,0
 330 0040 409EFFEC 		bne+ 7,.L55
 331              	.L61:
 332              	.LVL26:
 333              	.LBE550:
 334              		.loc 2 1435 0
 335 0044 4E800020 		blr
 336              	.LFE673:
 337              		.size	_ZNSt8_Rb_treeIwSt4pairIKw13ftgxCharData_ESt10_Select1stIS3_ESt4lessIwESaIS3_EE11lower_bound
 338              		.section	".text"
 339              		.align 2
 340              		.type	_Z41__static_initialization_and_destruction_0ii, @function
 341              	_Z41__static_initialization_and_destruction_0ii:
 342              	.LFB713:
 343              		.loc 1 718 0
 344              	.LVL27:
 345              		.loc 1 718 0
 346 0114 2F830001 		cmpwi 7,3,1
 347 0118 4C9E0020 		bnelr- 7
 348 011c 6C80FFFF 		xoris 0,4,0xffff
 349 0120 2F80FFFF 		cmpwi 7,0,-1
 350 0124 4C9E0020 		bnelr 7
 351              		.file 3 "d:/code/dasdd/source/FreeTypeGX.h"
 352              		.loc 3 220 0
 353 0128 3D200000 		lis 9,.LANCHOR1@ha
 354 012c 3D600000 		lis 11,.LANCHOR0@ha
 355 0130 8009005C 		lwz 0,.LANCHOR1@l(9)
 356 0134 900B0000 		stw 0,.LANCHOR0@l(11)
 357 0138 4E800020 		blr
 358              	.LFE713:
 359              		.size	_Z41__static_initialization_and_destruction_0ii, .-_Z41__static_initialization_and_destructi
 360              		.align 2
 361              		.type	_GLOBAL__I__ZN10FreeTypeGXC2Ehh, @function
 362              	_GLOBAL__I__ZN10FreeTypeGXC2Ehh:
 363              	.LFB714:
 364              		.loc 1 719 0
 365              		.loc 1 719 0
 366 013c 38800000 		li 4,0
 367 0140 38600001 		li 3,1
 368 0144 6084FFFF 		ori 4,4,65535
 369 0148 4BFFFFCC 		b _Z41__static_initialization_and_destruction_0ii
 370              	.LFE714:
 371              		.size	_GLOBAL__I__ZN10FreeTypeGXC2Ehh, .-_GLOBAL__I__ZN10FreeTypeGXC2Ehh
 372              		.align 2
 373              		.globl _ZN10FreeTypeGX14setDefaultModeEv
 374              		.type	_ZN10FreeTypeGX14setDefaultModeEv, @function
 375              	_ZN10FreeTypeGX14setDefaultModeEv:
 376              	.LFB572:
 377              		.loc 1 111 0
 378              	.LVL28:
 379 014c 7C0802A6 		mflr 0
 380              	.LCFI3:
 381 0150 9421FFF0 		stwu 1,-16(1)
 382              	.LCFI4:
 383 0154 93E1000C 		stw 31,12(1)
 384              	.LCFI5:
 385 0158 7C7F1B78 		mr 31,3
 386 015c 90010014 		stw 0,20(1)
 387              	.LCFI6:
 388              		.loc 1 112 0
 389 0160 81430014 		lwz 10,20(3)
 390 0164 2F8A0000 		cmpwi 7,10,0
 391 0168 419E002C 		beq- 7,.L85
 392              		.loc 1 113 0
 393 016c 5540063E 		rlwinm 0,10,0,24,31
 394 0170 2B800010 		cmplwi 7,0,16
 395 0174 409D0034 		ble- 7,.L86
 396              	.L73:
 397              		.loc 1 133 0
 398 0178 5540042E 		rlwinm 0,10,0,16,23
 399 017c 2F800200 		cmpwi 7,0,512
 400 0180 419E0074 		beq- 7,.L81
 401              	.LVL29:
 402              	.L88:
 403 0184 2B800200 		cmplwi 7,0,512
 404 0188 419D003C 		bgt- 7,.L84
 405 018c 2F800100 		cmpwi 7,0,256
 406 0190 419E00A4 		beq- 7,.L87
 407              	.L85:
 408              		.loc 1 150 0
 409 0194 80010014 		lwz 0,20(1)
 410 0198 83E1000C 		lwz 31,12(1)
 411              	.LVL30:
 412 019c 38210010 		addi 1,1,16
 413 01a0 7C0803A6 		mtlr 0
 414 01a4 4E800020 		blr
 415              	.LVL31:
 416              	.L86:
 417              		.loc 1 113 0
 418 01a8 3D200000 		lis 9,.L79@ha
 419 01ac 5400103A 		slwi 0,0,2
 420 01b0 39290000 		la 9,.L79@l(9)
 421 01b4 7D69002E 		lwzx 11,9,0
 422 01b8 7D6B4A14 		add 11,11,9
 423 01bc 7D6903A6 		mtctr 11
 424 01c0 4E800420 		bctr
 425              		.section	.rodata
 426              		.align 2
 427              		.align 2
 428              	.L79:
 429 0000 00000178 		.long .L73-.L79
 430 0004 00000258 		.long .L74-.L79
 431 0008 000002DC 		.long .L75-.L79
 432 000c 00000184 		.long .L73-.L79
 433 0010 000002C4 		.long .L76-.L79
 434 0014 0000018C 		.long .L73-.L79
 435 0018 00000190 		.long .L73-.L79
 436 001c 00000194 		.long .L73-.L79
 437 0020 000002B4 		.long .L77-.L79
 438 0024 0000019C 		.long .L73-.L79
 439 0028 000001A0 		.long .L73-.L79
 440 002c 000001A4 		.long .L73-.L79
 441 0030 000001A8 		.long .L73-.L79
 442 0034 000001AC 		.long .L73-.L79
 443 0038 000001B0 		.long .L73-.L79
 444 003c 000001B4 		.long .L73-.L79
 445 0040 000002B4 		.long .L78-.L79
 446              		.section	".text"
 447              	.LVL32:
 448              	.L84:
 449              		.loc 1 133 0
 450 01c4 2F800400 		cmpwi 7,0,1024
 451 01c8 419E004C 		beq- 7,.L82
 452 01cc 2F800800 		cmpwi 7,0,2048
 453 01d0 409EFFC4 		bne+ 7,.L85
 454              		.loc 1 144 0
 455 01d4 3860000D 		li 3,13
 456 01d8 38800003 		li 4,3
 457 01dc 48000001 		bl GX_SetVtxDesc
 458              		.loc 1 150 0
 459 01e0 80010014 		lwz 0,20(1)
 460 01e4 83E1000C 		lwz 31,12(1)
 461              	.LVL33:
 462 01e8 38210010 		addi 1,1,16
 463 01ec 7C0803A6 		mtlr 0
 464 01f0 4E800020 		blr
 465              	.LVL34:
 466              	.L81:
 467              		.loc 1 138 0
 468 01f4 3860000D 		li 3,13
 469 01f8 38800001 		li 4,1
 470 01fc 48000001 		bl GX_SetVtxDesc
 471              		.loc 1 150 0
 472 0200 80010014 		lwz 0,20(1)
 473 0204 83E1000C 		lwz 31,12(1)
 474              	.LVL35:
 475 0208 38210010 		addi 1,1,16
 476 020c 7C0803A6 		mtlr 0
 477 0210 4E800020 		blr
 478              	.LVL36:
 479              	.L82:
 480              		.loc 1 141 0
 481 0214 3860000D 		li 3,13
 482 0218 38800002 		li 4,2
 483 021c 48000001 		bl GX_SetVtxDesc
 484              		.loc 1 150 0
 485 0220 80010014 		lwz 0,20(1)
 486 0224 83E1000C 		lwz 31,12(1)
 487              	.LVL37:
 488 0228 38210010 		addi 1,1,16
 489 022c 7C0803A6 		mtlr 0
 490 0230 4E800020 		blr
 491              	.LVL38:
 492              	.L87:
 493              		.loc 1 135 0
 494 0234 3860000D 		li 3,13
 495 0238 38800000 		li 4,0
 496 023c 48000001 		bl GX_SetVtxDesc
 497              		.loc 1 150 0
 498 0240 80010014 		lwz 0,20(1)
 499 0244 83E1000C 		lwz 31,12(1)
 500              	.LVL39:
 501 0248 38210010 		addi 1,1,16
 502 024c 7C0803A6 		mtlr 0
 503 0250 4E800020 		blr
 504              	.LVL40:
 505              	.L74:
 506              		.loc 1 115 0
 507 0254 38600000 		li 3,0
 508              	.LVL41:
 509 0258 38800000 		li 4,0
 510 025c 48000001 		bl GX_SetTevOp
 511 0260 815F0014 		lwz 10,20(31)
 512              		.loc 1 133 0
 513 0264 5540042E 		rlwinm 0,10,0,16,23
 514 0268 2F800200 		cmpwi 7,0,512
 515 026c 409EFF18 		bne+ 7,.L88
 516 0270 4BFFFF84 		b .L81
 517              	.LVL42:
 518              	.L78:
 519              		.loc 1 127 0
 520 0274 38600000 		li 3,0
 521              	.LVL43:
 522 0278 38800004 		li 4,4
 523 027c 48000001 		bl GX_SetTevOp
 524 0280 815F0014 		lwz 10,20(31)
 525              		.loc 1 133 0
 526 0284 5540042E 		rlwinm 0,10,0,16,23
 527 0288 2F800200 		cmpwi 7,0,512
 528 028c 409EFEF8 		bne+ 7,.L88
 529 0290 4BFFFF64 		b .L81
 530              	.LVL44:
 531              	.L77:
 532              		.loc 1 124 0
 533 0294 38600000 		li 3,0
 534              	.LVL45:
 535 0298 38800003 		li 4,3
 536 029c 48000001 		bl GX_SetTevOp
 537 02a0 815F0014 		lwz 10,20(31)
 538              		.loc 1 133 0
 539 02a4 5540042E 		rlwinm 0,10,0,16,23
 540 02a8 2F800200 		cmpwi 7,0,512
 541 02ac 409EFED8 		bne+ 7,.L88
 542 02b0 4BFFFF44 		b .L81
 543              	.LVL46:
 544              	.L76:
 545              		.loc 1 121 0
 546 02b4 38600000 		li 3,0
 547              	.LVL47:
 548 02b8 38800002 		li 4,2
 549 02bc 48000001 		bl GX_SetTevOp
 550 02c0 815F0014 		lwz 10,20(31)
 551              		.loc 1 133 0
 552 02c4 5540042E 		rlwinm 0,10,0,16,23
 553 02c8 2F800200 		cmpwi 7,0,512
 554 02cc 409EFEB8 		bne+ 7,.L88
 555 02d0 4BFFFF24 		b .L81
 556              	.LVL48:
 557              	.L75:
 558              		.loc 1 118 0
 559 02d4 38600000 		li 3,0
 560              	.LVL49:
 561 02d8 38800001 		li 4,1
 562 02dc 48000001 		bl GX_SetTevOp
 563 02e0 815F0014 		lwz 10,20(31)
 564              		.loc 1 133 0
 565 02e4 5540042E 		rlwinm 0,10,0,16,23
 566 02e8 2F800200 		cmpwi 7,0,512
 567 02ec 409EFE98 		bne+ 7,.L88
 568 02f0 4BFFFF04 		b .L81
 569              	.LFE572:
 570              		.size	_ZN10FreeTypeGX14setDefaultModeEv, .-_ZN10FreeTypeGX14setDefaultModeEv
 571              		.align 2
 572              		.globl _ZN10FreeTypeGX24copyFeatureToFramebufferEffss9_gx_color
 573              		.type	_ZN10FreeTypeGX24copyFeatureToFramebufferEffss9_gx_color, @function
 574              	_ZN10FreeTypeGX24copyFeatureToFramebufferEffss9_gx_color:
 575              	.LFB594:
 576              		.loc 1 698 0
 577              	.LVL50:
 578 02f4 9421FFB0 		stwu 1,-80(1)
 579              	.LCFI7:
 580 02f8 7C0802A6 		mflr 0
 581              	.LCFI8:
 582 02fc 92E1001C 		stw 23,28(1)
 583              	.LCFI9:
 584 0300 7C771B78 		mr 23,3
 585 0304 93010020 		stw 24,32(1)
 586              	.LCFI10:
 587              		.loc 1 700 0
 588 0308 38600000 		li 3,0
 589              	.LVL51:
 590              		.loc 1 698 0
 591 030c 7C982378 		mr 24,4
 592              		.loc 1 700 0
 593 0310 38800004 		li 4,4
 594              	.LVL52:
 595              		.loc 1 698 0
 596 0314 90010054 		stw 0,84(1)
 597              	.LCFI11:
 598 0318 DBC10040 		stfd 30,64(1)
 599              	.LCFI12:
 600 031c FFC01090 		fmr 30,2
 601 0320 DBE10048 		stfd 31,72(1)
 602              	.LCFI13:
 603 0324 FFE00890 		fmr 31,1
 604 0328 93210024 		stw 25,36(1)
 605              	.LCFI14:
 606 032c 93410028 		stw 26,40(1)
 607              	.LCFI15:
 608 0330 9361002C 		stw 27,44(1)
 609              	.LCFI16:
 610 0334 93810030 		stw 28,48(1)
 611              	.LCFI17:
 612 0338 7CBC2B78 		mr 28,5
 613 033c 93A10034 		stw 29,52(1)
 614              	.LCFI18:
 615              		.loc 1 698 0
 616 0340 83A60000 		lwz 29,0(6)
 617              		.loc 1 700 0
 618 0344 48000001 		bl GX_SetTevOp
 619              	.LVL53:
 620              		.loc 1 701 0
 621 0348 3860000D 		li 3,13
 622 034c 38800000 		li 4,0
 623 0350 48000001 		bl GX_SetVtxDesc
 624              		.loc 1 703 0
 625 0354 88970012 		lbz 4,18(23)
 626 0358 38600080 		li 3,128
 627 035c 38A00004 		li 5,4
 628 0360 48000001 		bl GX_Begin
 629              	.LBB561:
 630              	.LBB562:
 631              		.file 4 "c:/Programme/devkitPro/libogc/include/ogc/gx.h"
 632              		.loc 4 1188 0
 633 0364 3D20CC00 		lis 9,0xcc00
 634 0368 61298000 		ori 9,9,32768
 635              	.LBE562:
 636              	.LBE561:
 637              		.loc 1 698 0
 638 036c 57BA463E 		srwi 26,29,24
 639 0370 57B9063E 		rlwinm 25,29,0,0xff
 640              	.LVL54:
 641 0374 57BBC63E 		rlwinm 27,29,24,24,31
 642              		.loc 1 707 0
 643 0378 6F008000 		xoris 0,24,0x8000
 644              		.loc 1 698 0
 645 037c 57BD863E 		rlwinm 29,29,16,24,31
 646              	.LVL55:
 647              		.loc 1 707 0
 648 0380 3D004330 		lis 8,0x4330
 649              	.LBB564:
 650              	.LBB563:
 651              		.loc 4 1188 0
 652 0384 B3090000 		sth 24,0(9)
 653              		.loc 4 1189 0
 654 0388 B3890000 		sth 28,0(9)
 655              	.LBE563:
 656              	.LBE564:
 657              		.loc 1 707 0
 658 038c 3D600000 		lis 11,.LC1@ha
 659              	.LBB565:
 660              	.LBB567:
 661              		.loc 4 1247 0
 662 0390 9B490000 		stb 26,0(9)
 663              	.LBE567:
 664              	.LBE565:
 665              		.loc 1 710 0
 666 0394 6F8A8000 		xoris 10,28,0x8000
 667              	.LBB569:
 668              	.LBB566:
 669              		.loc 4 1248 0
 670 0398 9BA90000 		stb 29,0(9)
 671              	.LBE566:
 672              	.LBE569:
 673              		.loc 1 717 0
 674 039c 7EE3BB78 		mr 3,23
 675              	.LBB570:
 676              	.LBB568:
 677              		.loc 4 1249 0
 678 03a0 9B690000 		stb 27,0(9)
 679              		.loc 4 1250 0
 680 03a4 9B290000 		stb 25,0(9)
 681              	.LBE568:
 682              	.LBE570:
 683              		.loc 1 707 0
 684 03a8 9001000C 		stw 0,12(1)
 685 03ac 91010008 		stw 8,8(1)
 686 03b0 C16B0000 		lfs 11,.LC1@l(11)
 687 03b4 39610010 		addi 11,1,16
 688 03b8 C8010008 		lfd 0,8(1)
 689 03bc FC005828 		fsub 0,0,11
 690 03c0 FC000018 		frsp 0,0
 691 03c4 EC00F82A 		fadds 0,0,31
 692 03c8 FDA00090 		fmr 13,0
 693 03cc FD80681E 		fctiwz 12,13
 694 03d0 7D805FAE 		stfiwx 12,0,11
 695 03d4 A8010012 		lha 0,18(1)
 696              	.LVL56:
 697              	.LBB571:
 698              	.LBB572:
 699              		.loc 4 1188 0
 700 03d8 B0090000 		sth 0,0(9)
 701              		.loc 4 1189 0
 702 03dc B3890000 		sth 28,0(9)
 703              	.LBE572:
 704              	.LBE571:
 705              	.LBB573:
 706              	.LBB574:
 707              		.loc 4 1247 0
 708 03e0 9B490000 		stb 26,0(9)
 709              		.loc 4 1248 0
 710 03e4 9BA90000 		stb 29,0(9)
 711              		.loc 4 1249 0
 712 03e8 9B690000 		stb 27,0(9)
 713              		.loc 4 1250 0
 714 03ec 9B290000 		stb 25,0(9)
 715              	.LBE574:
 716              	.LBE573:
 717              		.loc 1 710 0
 718 03f0 9141000C 		stw 10,12(1)
 719 03f4 91010008 		stw 8,8(1)
 720              	.LBB575:
 721              	.LBB576:
 722              		.loc 4 1188 0
 723 03f8 B0090000 		sth 0,0(9)
 724              	.LBE576:
 725              	.LBE575:
 726              		.loc 1 710 0
 727 03fc C8010008 		lfd 0,8(1)
 728 0400 FC005828 		fsub 0,0,11
 729 0404 FC000018 		frsp 0,0
 730 0408 EC00F02A 		fadds 0,0,30
 731 040c FDA00090 		fmr 13,0
 732 0410 FD80681E 		fctiwz 12,13
 733 0414 7D805FAE 		stfiwx 12,0,11
 734 0418 A8010012 		lha 0,18(1)
 735              	.LVL57:
 736              	.LBB578:
 737              	.LBB577:
 738              		.loc 4 1189 0
 739 041c B0090000 		sth 0,0(9)
 740              	.LBE577:
 741              	.LBE578:
 742              	.LBB579:
 743              	.LBB580:
 744              		.loc 4 1247 0
 745 0420 9B490000 		stb 26,0(9)
 746              		.loc 4 1248 0
 747 0424 9BA90000 		stb 29,0(9)
 748              		.loc 4 1249 0
 749 0428 9B690000 		stb 27,0(9)
 750              		.loc 4 1250 0
 751 042c 9B290000 		stb 25,0(9)
 752              	.LBE580:
 753              	.LBE579:
 754              	.LBB581:
 755              	.LBB582:
 756              		.loc 4 1188 0
 757 0430 B3090000 		sth 24,0(9)
 758              		.loc 4 1189 0
 759 0434 B0090000 		sth 0,0(9)
 760              	.LBE582:
 761              	.LBE581:
 762              	.LBB583:
 763              	.LBB584:
 764              		.loc 4 1247 0
 765 0438 9B490000 		stb 26,0(9)
 766              		.loc 4 1248 0
 767 043c 9BA90000 		stb 29,0(9)
 768              		.loc 4 1249 0
 769 0440 9B690000 		stb 27,0(9)
 770              		.loc 4 1250 0
 771 0444 9B290000 		stb 25,0(9)
 772              	.LBE584:
 773              	.LBE583:
 774              		.loc 1 718 0
 775 0448 80010054 		lwz 0,84(1)
 776              	.LVL58:
 777 044c 82E1001C 		lwz 23,28(1)
 778              	.LVL59:
 779 0450 7C0803A6 		mtlr 0
 780 0454 83010020 		lwz 24,32(1)
 781              	.LVL60:
 782 0458 83210024 		lwz 25,36(1)
 783 045c 83410028 		lwz 26,40(1)
 784 0460 8361002C 		lwz 27,44(1)
 785 0464 83810030 		lwz 28,48(1)
 786              	.LVL61:
 787 0468 83A10034 		lwz 29,52(1)
 788 046c CBC10040 		lfd 30,64(1)
 789              	.LVL62:
 790 0470 CBE10048 		lfd 31,72(1)
 791              	.LVL63:
 792 0474 38210050 		addi 1,1,80
 793              		.loc 1 717 0
 794 0478 48000000 		b _ZN10FreeTypeGX14setDefaultModeEv
 795              	.LVL64:
 796              	.LFE594:
 797              		.size	_ZN10FreeTypeGX24copyFeatureToFramebufferEffss9_gx_color, .-_ZN10FreeTypeGX24copyFeatureToFr
 798              		.align 2
 799              		.globl _ZN10FreeTypeGX15drawTextFeatureEsst15ftgxDataOffset_t9_gx_color
 800              		.type	_ZN10FreeTypeGX15drawTextFeatureEsst15ftgxDataOffset_t9_gx_color, @function
 801              	_ZN10FreeTypeGX15drawTextFeatureEsst15ftgxDataOffset_t9_gx_color:
 802              	.LFB586:
 803              		.loc 1 500 0
 804              	.LVL65:
 805 047c 7C0802A6 		mflr 0
 806              	.LCFI19:
 807 0480 9421FFC0 		stwu 1,-64(1)
 808              	.LCFI20:
 809 0484 81670000 		lwz 11,0(7)
 810 0488 92E1001C 		stw 23,28(1)
 811              	.LCFI21:
 812 048c 90010044 		stw 0,68(1)
 813              	.LCFI22:
 814 0490 7D778670 		srawi 23,11,16
 815 0494 93010020 		stw 24,32(1)
 816              	.LCFI23:
 817 0498 7D780734 		extsh 24,11
 818              	.LVL66:
 819              	.LBB585:
 820              		.loc 1 501 0
 821 049c 8003000C 		lwz 0,12(3)
 822              	.LBE585:
 823              		.loc 1 500 0
 824 04a0 93210024 		stw 25,36(1)
 825              	.LCFI24:
 826              	.LBB586:
 827              		.loc 1 501 0
 828 04a4 3B200001 		li 25,1
 829              	.LVL67:
 830 04a8 5400E13F 		srwi. 0,0,4
 831              	.LBE586:
 832              		.loc 1 500 0
 833 04ac 9361002C 		stw 27,44(1)
 834              	.LCFI25:
 835 04b0 93810030 		stw 28,48(1)
 836              	.LCFI26:
 837 04b4 7C9B2378 		mr 27,4
 838 04b8 93A10034 		stw 29,52(1)
 839              	.LCFI27:
 840 04bc 7CBC2B78 		mr 28,5
 841 04c0 93C10038 		stw 30,56(1)
 842              	.LCFI28:
 843 04c4 7C7D1B78 		mr 29,3
 844 04c8 93E1003C 		stw 31,60(1)
 845              	.LCFI29:
 846 04cc 7CDE3378 		mr 30,6
 847 04d0 93410028 		stw 26,40(1)
 848              	.LCFI30:
 849              		.loc 1 500 0
 850 04d4 7D1F4378 		mr 31,8
 851 04d8 83490000 		lwz 26,0(9)
 852              	.LBB587:
 853              		.loc 1 501 0
 854 04dc 41820008 		beq- 0,.L94
 855              	.LVL68:
 856 04e0 5419043E 		rlwinm 25,0,0,0xffff
 857              	.L94:
 858              		.loc 1 503 0
 859 04e4 73E00100 		andi. 0,31,256
 860 04e8 4182006C 		beq- 0,.L95
 861              		.loc 1 504 0
 862 04ec 57E00636 		rlwinm 0,31,0,24,27
 863 04f0 2F800020 		cmpwi 7,0,32
 864 04f4 419E0188 		beq- 7,.L99
 865 04f8 2F800040 		cmpwi 7,0,64
 866 04fc 419E026C 		beq- 7,.L100
 867 0500 2F800010 		cmpwi 7,0,16
 868 0504 419E01C0 		beq- 7,.L112
 869              		.loc 1 515 0
 870 0508 3C004330 		lis 0,0x4330
 871 050c 93C10014 		stw 30,20(1)
 872 0510 90010010 		stw 0,16(1)
 873 0514 3D200000 		lis 9,.LC3@ha
 874 0518 C0090004 		lfs 0,.LC3@l(9)
 875 051c 38BC0001 		addi 5,28,1
 876 0520 C8210010 		lfd 1,16(1)
 877 0524 93210014 		stw 25,20(1)
 878              	.L110:
 879 0528 C8410010 		lfd 2,16(1)
 880 052c FC210028 		fsub 1,1,0
 881 0530 7CA50734 		extsh 5,5
 882 0534 FC420028 		fsub 2,2,0
 883 0538 FC200818 		frsp 1,1
 884 053c FC401018 		frsp 2,2
 885              	.L108:
 886 0540 7FA3EB78 		mr 3,29
 887 0544 7F64DB78 		mr 4,27
 888 0548 38C10008 		addi 6,1,8
 889 054c 93410008 		stw 26,8(1)
 890 0550 48000001 		bl _ZN10FreeTypeGX24copyFeatureToFramebufferEffss9_gx_color
 891              	.LVL69:
 892              	.L95:
 893              		.loc 1 520 0
 894 0554 73E00200 		andi. 0,31,512
 895 0558 41820074 		beq- 0,.L107
 896              		.loc 1 521 0
 897 055c 57E80636 		rlwinm 8,31,0,24,27
 898 0560 2F880020 		cmpwi 7,8,32
 899 0564 419E009C 		beq- 7,.L105
 900 0568 2F880040 		cmpwi 7,8,64
 901 056c 419E0198 		beq- 7,.L106
 902 0570 2F880010 		cmpwi 7,8,16
 903 0574 419E01B4 		beq- 7,.L113
 904              		.loc 1 532 0
 905 0578 3C004330 		lis 0,0x4330
 906 057c 93C10014 		stw 30,20(1)
 907 0580 90010010 		stw 0,16(1)
 908 0584 3D200000 		lis 9,.LC3@ha
 909 0588 C0090004 		lfs 0,.LC3@l(9)
 910 058c 7CB8B850 		subf 5,24,23
 911 0590 C8210010 		lfd 1,16(1)
 912 0594 93210014 		stw 25,20(1)
 913              	.L111:
 914 0598 C8410010 		lfd 2,16(1)
 915 059c FC210028 		fsub 1,1,0
 916 05a0 7CA50E70 		srawi 5,5,1
 917 05a4 FC420028 		fsub 2,2,0
 918 05a8 7CA5E050 		subf 5,5,28
 919 05ac FC200818 		frsp 1,1
 920 05b0 FC401018 		frsp 2,2
 921              	.L109:
 922 05b4 7FA3EB78 		mr 3,29
 923 05b8 7F64DB78 		mr 4,27
 924 05bc 7CA50734 		extsh 5,5
 925 05c0 38C10008 		addi 6,1,8
 926 05c4 93410008 		stw 26,8(1)
 927 05c8 48000001 		bl _ZN10FreeTypeGX24copyFeatureToFramebufferEffss9_gx_color
 928              	.LVL70:
 929              	.LVL71:
 930              	.L107:
 931              	.LBE587:
 932              		.loc 1 536 0
 933 05cc 80010044 		lwz 0,68(1)
 934 05d0 82E1001C 		lwz 23,28(1)
 935 05d4 83010020 		lwz 24,32(1)
 936 05d8 7C0803A6 		mtlr 0
 937 05dc 83210024 		lwz 25,36(1)
 938              	.LVL72:
 939 05e0 83410028 		lwz 26,40(1)
 940              	.LVL73:
 941 05e4 8361002C 		lwz 27,44(1)
 942              	.LVL74:
 943 05e8 83810030 		lwz 28,48(1)
 944              	.LVL75:
 945 05ec 83A10034 		lwz 29,52(1)
 946              	.LVL76:
 947 05f0 83C10038 		lwz 30,56(1)
 948              	.LVL77:
 949 05f4 83E1003C 		lwz 31,60(1)
 950              	.LVL78:
 951 05f8 38210040 		addi 1,1,64
 952 05fc 4E800020 		blr
 953              	.LVL79:
 954              	.L105:
 955              	.LBB588:
 956              		.loc 1 526 0
 957 0600 3C004330 		lis 0,0x4330
 958 0604 93C10014 		stw 30,20(1)
 959 0608 90010010 		stw 0,16(1)
 960 060c 3D200000 		lis 9,.LC3@ha
 961 0610 C0090004 		lfs 0,.LC3@l(9)
 962 0614 7FA3EB78 		mr 3,29
 963 0618 C8210010 		lfd 1,16(1)
 964 061c 7F64DB78 		mr 4,27
 965 0620 93210014 		stw 25,20(1)
 966 0624 7F85E378 		mr 5,28
 967 0628 FC210028 		fsub 1,1,0
 968 062c 38C10008 		addi 6,1,8
 969 0630 C8410010 		lfd 2,16(1)
 970 0634 93410008 		stw 26,8(1)
 971 0638 FC420028 		fsub 2,2,0
 972 063c FC200818 		frsp 1,1
 973 0640 FC401018 		frsp 2,2
 974 0644 48000001 		bl _ZN10FreeTypeGX24copyFeatureToFramebufferEffss9_gx_color
 975              	.LVL80:
 976              	.LBE588:
 977              		.loc 1 536 0
 978 0648 80010044 		lwz 0,68(1)
 979 064c 82E1001C 		lwz 23,28(1)
 980 0650 83010020 		lwz 24,32(1)
 981 0654 7C0803A6 		mtlr 0
 982 0658 83210024 		lwz 25,36(1)
 983              	.LVL81:
 984 065c 83410028 		lwz 26,40(1)
 985              	.LVL82:
 986 0660 8361002C 		lwz 27,44(1)
 987              	.LVL83:
 988 0664 83810030 		lwz 28,48(1)
 989              	.LVL84:
 990 0668 83A10034 		lwz 29,52(1)
 991              	.LVL85:
 992 066c 83C10038 		lwz 30,56(1)
 993              	.LVL86:
 994 0670 83E1003C 		lwz 31,60(1)
 995              	.LVL87:
 996 0674 38210040 		addi 1,1,64
 997 0678 4E800020 		blr
 998              	.LVL88:
 999              	.L99:
 1000              	.LBB589:
 1001              		.loc 1 509 0
 1002 067c 3C004330 		lis 0,0x4330
 1003 0680 93C10014 		stw 30,20(1)
 1004 0684 90010010 		stw 0,16(1)
 1005 0688 3D200000 		lis 9,.LC3@ha
 1006 068c C0090004 		lfs 0,.LC3@l(9)
 1007 0690 7CB8B850 		subf 5,24,23
 1008 0694 C8210010 		lfd 1,16(1)
 1009 0698 7CA50E70 		srawi 5,5,1
 1010 069c 93210014 		stw 25,20(1)
 1011 06a0 38A50001 		addi 5,5,1
 1012 06a4 FC210028 		fsub 1,1,0
 1013 06a8 7CA5E214 		add 5,5,28
 1014 06ac C8410010 		lfd 2,16(1)
 1015 06b0 7CA50734 		extsh 5,5
 1016 06b4 FC420028 		fsub 2,2,0
 1017 06b8 FC200818 		frsp 1,1
 1018 06bc FC401018 		frsp 2,2
 1019 06c0 4BFFFE80 		b .L108
 1020              	.LVL89:
 1021              	.L112:
 1022              		.loc 1 506 0
 1023 06c4 3C004330 		lis 0,0x4330
 1024 06c8 93C10014 		stw 30,20(1)
 1025 06cc 90010010 		stw 0,16(1)
 1026 06d0 3D200000 		lis 9,.LC3@ha
 1027 06d4 C0090004 		lfs 0,.LC3@l(9)
 1028 06d8 38B70001 		addi 5,23,1
 1029 06dc C8210010 		lfd 1,16(1)
 1030 06e0 7CA5E214 		add 5,5,28
 1031 06e4 93210014 		stw 25,20(1)
 1032 06e8 7CA50734 		extsh 5,5
 1033 06ec FC210028 		fsub 1,1,0
 1034 06f0 C8410010 		lfd 2,16(1)
 1035 06f4 FC420028 		fsub 2,2,0
 1036 06f8 FC200818 		frsp 1,1
 1037 06fc FC401018 		frsp 2,2
 1038 0700 4BFFFE40 		b .L108
 1039              	.LVL90:
 1040              	.L106:
 1041              		.loc 1 529 0
 1042 0704 3C004330 		lis 0,0x4330
 1043 0708 93C10014 		stw 30,20(1)
 1044 070c 90010010 		stw 0,16(1)
 1045 0710 3D200000 		lis 9,.LC3@ha
 1046 0714 C0090004 		lfs 0,.LC3@l(9)
 1047 0718 7CB8BA14 		add 5,24,23
 1048 071c C8210010 		lfd 1,16(1)
 1049 0720 93210014 		stw 25,20(1)
 1050 0724 4BFFFE74 		b .L111
 1051              	.LVL91:
 1052              	.L113:
 1053              		.loc 1 523 0
 1054 0728 3C004330 		lis 0,0x4330
 1055 072c 93C10014 		stw 30,20(1)
 1056 0730 90010010 		stw 0,16(1)
 1057 0734 3D200000 		lis 9,.LC3@ha
 1058 0738 C0090004 		lfs 0,.LC3@l(9)
 1059 073c 7CB8BA14 		add 5,24,23
 1060 0740 C8210010 		lfd 1,16(1)
 1061 0744 7CA50E70 		srawi 5,5,1
 1062 0748 93210014 		stw 25,20(1)
 1063 074c 7CBC2A14 		add 5,28,5
 1064 0750 FC210028 		fsub 1,1,0
 1065 0754 C8410010 		lfd 2,16(1)
 1066 0758 FC420028 		fsub 2,2,0
 1067 075c FC200818 		frsp 1,1
 1068 0760 FC401018 		frsp 2,2
 1069 0764 4BFFFE50 		b .L109
 1070              	.LVL92:
 1071              	.L100:
 1072              		.loc 1 512 0
 1073 0768 3C004330 		lis 0,0x4330
 1074 076c 93C10014 		stw 30,20(1)
 1075 0770 90010010 		stw 0,16(1)
 1076 0774 3D200000 		lis 9,.LC3@ha
 1077 0778 C0090004 		lfs 0,.LC3@l(9)
 1078 077c 7CB8E050 		subf 5,24,28
 1079 0780 C8210010 		lfd 1,16(1)
 1080 0784 93210014 		stw 25,20(1)
 1081 0788 4BFFFDA0 		b .L110
 1082              	.LBE589:
 1083              	.LFE586:
 1084              		.size	_ZN10FreeTypeGX15drawTextFeatureEsst15ftgxDataOffset_t9_gx_color, .-_ZN10FreeTypeGX15drawTex
 1085              		.align 2
 1086              		.globl _ZN10FreeTypeGX24copyTextureToFramebufferEP10_gx_texobjffss9_gx_color
 1087              		.type	_ZN10FreeTypeGX24copyTextureToFramebufferEP10_gx_texobjffss9_gx_color, @function
 1088              	_ZN10FreeTypeGX24copyTextureToFramebufferEP10_gx_texobjffss9_gx_color:
 1089              	.LFB593:
 1090              		.loc 1 658 0
 1091              	.LVL93:
 1092 078c 7C0802A6 		mflr 0
 1093              	.LCFI31:
 1094 0790 9421FFB0 		stwu 1,-80(1)
 1095              	.LCFI32:
 1096 0794 DBC10040 		stfd 30,64(1)
 1097              	.LCFI33:
 1098 0798 FFC01090 		fmr 30,2
 1099 079c 90010054 		stw 0,84(1)
 1100              	.LCFI34:
 1101 07a0 DBE10048 		stfd 31,72(1)
 1102              	.LCFI35:
 1103 07a4 FFE00890 		fmr 31,1
 1104 07a8 92E1001C 		stw 23,28(1)
 1105              	.LCFI36:
 1106 07ac 7C771B78 		mr 23,3
 1107 07b0 93010020 		stw 24,32(1)
 1108              	.LCFI37:
 1109              		.loc 1 660 0
 1110 07b4 7C832378 		mr 3,4
 1111              	.LVL94:
 1112              		.loc 1 658 0
 1113 07b8 93210024 		stw 25,36(1)
 1114              	.LCFI38:
 1115              		.loc 1 660 0
 1116 07bc 38800000 		li 4,0
 1117              	.LVL95:
 1118              		.loc 1 658 0
 1119 07c0 93410028 		stw 26,40(1)
 1120              	.LCFI39:
 1121 07c4 7CB82B78 		mr 24,5
 1122 07c8 9361002C 		stw 27,44(1)
 1123              	.LCFI40:
 1124 07cc 93810030 		stw 28,48(1)
 1125              	.LCFI41:
 1126 07d0 7CDC3378 		mr 28,6
 1127 07d4 93A10034 		stw 29,52(1)
 1128              	.LCFI42:
 1129              		.loc 1 658 0
 1130 07d8 83A70000 		lwz 29,0(7)
 1131              		.loc 1 660 0
 1132 07dc 48000001 		bl GX_LoadTexObj
 1133              	.LVL96:
 1134              		.loc 1 661 0
 1135 07e0 48000001 		bl GX_InvalidateTexAll
 1136              		.loc 1 663 0
 1137 07e4 38600000 		li 3,0
 1138 07e8 38800000 		li 4,0
 1139              		.loc 1 658 0
 1140 07ec 57BB463E 		srwi 27,29,24
 1141              		.loc 1 663 0
 1142 07f0 48000001 		bl GX_SetTevOp
 1143              		.loc 1 664 0
 1144 07f4 3860000D 		li 3,13
 1145 07f8 38800001 		li 4,1
 1146              		.loc 1 658 0
 1147 07fc 57B9063E 		rlwinm 25,29,0,0xff
 1148              	.LVL97:
 1149              		.loc 1 664 0
 1150 0800 48000001 		bl GX_SetVtxDesc
 1151              		.loc 1 666 0
 1152 0804 88970012 		lbz 4,18(23)
 1153 0808 38600080 		li 3,128
 1154 080c 38A00004 		li 5,4
 1155 0810 48000001 		bl GX_Begin
 1156              	.LBB590:
 1157              	.LBB591:
 1158              		.loc 4 1188 0
 1159 0814 3D20CC00 		lis 9,0xcc00
 1160 0818 61298000 		ori 9,9,32768
 1161              	.LBE591:
 1162              	.LBE590:
 1163              		.loc 1 658 0
 1164 081c 57BAC63E 		rlwinm 26,29,24,24,31
 1165              		.loc 1 671 0
 1166 0820 6F008000 		xoris 0,24,0x8000
 1167              		.loc 1 658 0
 1168 0824 57BD863E 		rlwinm 29,29,16,24,31
 1169              	.LVL98:
 1170              		.loc 1 671 0
 1171 0828 3CE04330 		lis 7,0x4330
 1172              	.LBB593:
 1173              	.LBB592:
 1174              		.loc 4 1188 0
 1175 082c B3090000 		sth 24,0(9)
 1176              		.loc 4 1189 0
 1177 0830 B3890000 		sth 28,0(9)
 1178              	.LBE592:
 1179              	.LBE593:
 1180              		.loc 1 671 0
 1181 0834 3D600000 		lis 11,.LC1@ha
 1182              	.LBB594:
 1183              	.LBB596:
 1184              		.loc 4 1247 0
 1185 0838 9B690000 		stb 27,0(9)
 1186              	.LBE596:
 1187              	.LBE594:
 1188              	.LBB599:
 1189              	.LBB600:
 1190              		.loc 4 1292 0
 1191 083c 39400000 		li 10,0
 1192              	.LBE600:
 1193              	.LBE599:
 1194              	.LBB602:
 1195              	.LBB597:
 1196              		.loc 4 1248 0
 1197 0840 9BA90000 		stb 29,0(9)
 1198              	.LBE597:
 1199              	.LBE602:
 1200              		.loc 1 675 0
 1201 0844 6F888000 		xoris 8,28,0x8000
 1202              	.LBB603:
 1203              	.LBB595:
 1204              		.loc 4 1249 0
 1205 0848 9B490000 		stb 26,0(9)
 1206              	.LBE595:
 1207              	.LBE603:
 1208              		.loc 1 684 0
 1209 084c 7EE3BB78 		mr 3,23
 1210              	.LBB604:
 1211              	.LBB598:
 1212              		.loc 4 1250 0
 1213 0850 9B290000 		stb 25,0(9)
 1214              	.LBE598:
 1215              	.LBE604:
 1216              		.loc 1 671 0
 1217 0854 9001000C 		stw 0,12(1)
 1218 0858 90E10008 		stw 7,8(1)
 1219 085c C14B0000 		lfs 10,.LC1@l(11)
 1220              	.LBB605:
 1221              	.LBB607:
 1222              		.loc 4 1292 0
 1223 0860 3D600000 		lis 11,.LC5@ha
 1224              	.LBE607:
 1225              	.LBE605:
 1226              		.loc 1 671 0
 1227 0864 C8010008 		lfd 0,8(1)
 1228              	.LBB610:
 1229              	.LBB608:
 1230              		.loc 4 1292 0
 1231 0868 C16B0008 		lfs 11,.LC5@l(11)
 1232              	.LBE608:
 1233              	.LBE610:
 1234              		.loc 1 671 0
 1235 086c 39610010 		addi 11,1,16
 1236 0870 FC005028 		fsub 0,0,10
 1237              	.LBB611:
 1238              	.LBB601:
 1239              		.loc 4 1292 0
 1240 0874 91490000 		stw 10,0(9)
 1241              		.loc 4 1293 0
 1242 0878 91490000 		stw 10,0(9)
 1243              	.LBE601:
 1244              	.LBE611:
 1245              		.loc 1 671 0
 1246 087c FC000018 		frsp 0,0
 1247 0880 EC00F82A 		fadds 0,0,31
 1248 0884 FDA00090 		fmr 13,0
 1249 0888 FD80681E 		fctiwz 12,13
 1250 088c 7D805FAE 		stfiwx 12,0,11
 1251 0890 A8010012 		lha 0,18(1)
 1252              	.LVL99:
 1253              	.LBB612:
 1254              	.LBB613:
 1255              		.loc 4 1188 0
 1256 0894 B0090000 		sth 0,0(9)
 1257              		.loc 4 1189 0
 1258 0898 B3890000 		sth 28,0(9)
 1259              	.LBE613:
 1260              	.LBE612:
 1261              	.LBB614:
 1262              	.LBB615:
 1263              		.loc 4 1247 0
 1264 089c 9B690000 		stb 27,0(9)
 1265              		.loc 4 1248 0
 1266 08a0 9BA90000 		stb 29,0(9)
 1267              		.loc 4 1249 0
 1268 08a4 9B490000 		stb 26,0(9)
 1269              		.loc 4 1250 0
 1270 08a8 9B290000 		stb 25,0(9)
 1271              	.LBE615:
 1272              	.LBE614:
 1273              		.loc 1 675 0
 1274 08ac 9101000C 		stw 8,12(1)
 1275 08b0 90E10008 		stw 7,8(1)
 1276              	.LBB616:
 1277              	.LBB606:
 1278              		.loc 4 1292 0
 1279 08b4 D1690000 		stfs 11,0(9)
 1280              	.LBE606:
 1281              	.LBE616:
 1282              		.loc 1 675 0
 1283 08b8 C8010008 		lfd 0,8(1)
 1284              	.LBB617:
 1285              	.LBB609:
 1286              		.loc 4 1293 0
 1287 08bc 91490000 		stw 10,0(9)
 1288              	.LBE609:
 1289              	.LBE617:
 1290              		.loc 1 675 0
 1291 08c0 FC005028 		fsub 0,0,10
 1292              	.LBB618:
 1293              	.LBB619:
 1294              		.loc 4 1188 0
 1295 08c4 B0090000 		sth 0,0(9)
 1296              	.LBE619:
 1297              	.LBE618:
 1298              		.loc 1 675 0
 1299 08c8 FC000018 		frsp 0,0
 1300 08cc EC00F02A 		fadds 0,0,30
 1301 08d0 FDA00090 		fmr 13,0
 1302 08d4 FD80681E 		fctiwz 12,13
 1303 08d8 7D805FAE 		stfiwx 12,0,11
 1304 08dc A8010012 		lha 0,18(1)
 1305              	.LVL100:
 1306              	.LBB621:
 1307              	.LBB620:
 1308              		.loc 4 1189 0
 1309 08e0 B0090000 		sth 0,0(9)
 1310              	.LBE620:
 1311              	.LBE621:
 1312              	.LBB622:
 1313              	.LBB623:
 1314              		.loc 4 1247 0
 1315 08e4 9B690000 		stb 27,0(9)
 1316              		.loc 4 1248 0
 1317 08e8 9BA90000 		stb 29,0(9)
 1318              		.loc 4 1249 0
 1319 08ec 9B490000 		stb 26,0(9)
 1320              		.loc 4 1250 0
 1321 08f0 9B290000 		stb 25,0(9)
 1322              	.LBE623:
 1323              	.LBE622:
 1324              	.LBB624:
 1325              	.LBB625:
 1326              		.loc 4 1292 0
 1327 08f4 D1690000 		stfs 11,0(9)
 1328              		.loc 4 1293 0
 1329 08f8 D1690000 		stfs 11,0(9)
 1330              	.LBE625:
 1331              	.LBE624:
 1332              	.LBB626:
 1333              	.LBB627:
 1334              		.loc 4 1188 0
 1335 08fc B3090000 		sth 24,0(9)
 1336              		.loc 4 1189 0
 1337 0900 B0090000 		sth 0,0(9)
 1338              	.LBE627:
 1339              	.LBE626:
 1340              	.LBB628:
 1341              	.LBB629:
 1342              		.loc 4 1247 0
 1343 0904 9B690000 		stb 27,0(9)
 1344              		.loc 4 1248 0
 1345 0908 9BA90000 		stb 29,0(9)
 1346              		.loc 4 1249 0
 1347 090c 9B490000 		stb 26,0(9)
 1348              		.loc 4 1250 0
 1349 0910 9B290000 		stb 25,0(9)
 1350              	.LBE629:
 1351              	.LBE628:
 1352              	.LBB630:
 1353              	.LBB631:
 1354              		.loc 4 1292 0
 1355 0914 91490000 		stw 10,0(9)
 1356              	.LBE631:
 1357              	.LBE630:
 1358              		.loc 1 685 0
 1359 0918 80010054 		lwz 0,84(1)
 1360              	.LVL101:
 1361              	.LBB633:
 1362              	.LBB632:
 1363              		.loc 4 1293 0
 1364 091c D1690000 		stfs 11,0(9)
 1365              	.LBE632:
 1366              	.LBE633:
 1367              		.loc 1 685 0
 1368 0920 7C0803A6 		mtlr 0
 1369 0924 82E1001C 		lwz 23,28(1)
 1370              	.LVL102:
 1371 0928 83010020 		lwz 24,32(1)
 1372              	.LVL103:
 1373 092c 83210024 		lwz 25,36(1)
 1374 0930 83410028 		lwz 26,40(1)
 1375 0934 8361002C 		lwz 27,44(1)
 1376 0938 83810030 		lwz 28,48(1)
 1377              	.LVL104:
 1378 093c 83A10034 		lwz 29,52(1)
 1379 0940 CBC10040 		lfd 30,64(1)
 1380              	.LVL105:
 1381 0944 CBE10048 		lfd 31,72(1)
 1382              	.LVL106:
 1383 0948 38210050 		addi 1,1,80
 1384              		.loc 1 684 0
 1385 094c 48000000 		b _ZN10FreeTypeGX14setDefaultModeEv
 1386              	.LVL107:
 1387              	.LFE593:
 1388              		.size	_ZN10FreeTypeGX24copyTextureToFramebufferEP10_gx_texobjffss9_gx_color, .-_ZN10FreeTypeGX24co
 1389              		.section	.text._ZNSt8_Rb_treeIwSt4pairIKw13ftgxCharData_ESt10_Select1stIS3_ESt4lessIwESaIS3_EE9_M_
 1390              		.align 2
 1391              		.weak	_ZNSt8_Rb_treeIwSt4pairIKw13ftgxCharData_ESt10_Select1stIS3_ESt4lessIwESaIS3_EE9_M_insertEPS
 1392              		.type	_ZNSt8_Rb_treeIwSt4pairIKw13ftgxCharData_ESt10_Select1stIS3_ESt4lessIwESaIS3_EE9_M_insertEPS
 1393              	_ZNSt8_Rb_treeIwSt4pairIKw13ftgxCharData_ESt10_Select1stIS3_ESt4lessIwESaIS3_EE9_M_insertEPSt18_Rb_
 1394              	.LFB691:
 1395              		.loc 2 832 0
 1396              	.LVL108:
 1397              	.LBB679:
 1398              		.loc 2 836 0
 1399 0000 2F840000 		cmpwi 7,4,0
 1400              	.LBE679:
 1401              		.loc 2 832 0
 1402 0004 7C0802A6 		mflr 0
 1403              	.LCFI43:
 1404 0008 9421FFE0 		stwu 1,-32(1)
 1405              	.LCFI44:
 1406 000c 9361000C 		stw 27,12(1)
 1407              	.LCFI45:
 1408 0010 7CBB2B78 		mr 27,5
 1409 0014 93810010 		stw 28,16(1)
 1410              	.LCFI46:
 1411 0018 3B830004 		addi 28,3,4
 1412 001c 93A10014 		stw 29,20(1)
 1413              	.LCFI47:
 1414 0020 7C7D1B78 		mr 29,3
 1415 0024 93C10018 		stw 30,24(1)
 1416              	.LCFI48:
 1417 0028 7CDE3378 		mr 30,6
 1418 002c 93410008 		stw 26,8(1)
 1419              	.LCFI49:
 1420 0030 93E1001C 		stw 31,28(1)
 1421              	.LCFI50:
 1422 0034 90010024 		stw 0,36(1)
 1423              	.LCFI51:
 1424              	.LBB693:
 1425              		.loc 2 836 0
 1426 0038 419E0098 		beq- 7,.L125
 1427              	.LVL109:
 1428              	.L117:
 1429 003c 3B400001 		li 26,1
 1430              	.LVL110:
 1431              	.L120:
 1432              	.LBB680:
 1433              	.LBB681:
 1434              	.LBB682:
 1435              	.LBB683:
 1436              	.LBB684:
 1437              	.LBB685:
 1438              		.file 5 "c:\\programme\\devkitpro\\devkitppc\\bin\\../lib/gcc/powerpc-gekko/4.2.4/../../../../powe
 1439              		.loc 5 91 0
 1440 0040 38600028 		li 3,40
 1441 0044 48000001 		bl _Znwj
 1442              	.LVL111:
 1443              	.LBE685:
 1444              	.LBE684:
 1445              	.LBE683:
 1446              	.LBB688:
 1447              	.LBB689:
 1448              		.loc 5 107 0
 1449 0048 2F83FFF0 		cmpwi 7,3,-16
 1450              	.LVL112:
 1451              	.LBE689:
 1452              	.LBE688:
 1453              	.LBB691:
 1454              	.LBB687:
 1455              	.LBB686:
 1456              		.loc 5 91 0
 1457 004c 7C7F1B78 		mr 31,3
 1458              	.LVL113:
 1459              	.LBE686:
 1460              	.LBE687:
 1461              	.LBE691:
 1462              	.LBB692:
 1463              	.LBB690:
 1464              		.loc 5 107 0
 1465 0050 419E0034 		beq- 7,.L121
 1466 0054 801E0000 		lwz 0,0(30)
 1467 0058 813E0004 		lwz 9,4(30)
 1468 005c 817E0008 		lwz 11,8(30)
 1469 0060 815E000C 		lwz 10,12(30)
 1470 0064 90030010 		stw 0,16(3)
 1471 0068 91230014 		stw 9,20(3)
 1472 006c 91630018 		stw 11,24(3)
 1473 0070 9143001C 		stw 10,28(3)
 1474 0074 801E0014 		lwz 0,20(30)
 1475 0078 813E0010 		lwz 9,16(30)
 1476 007c 90030024 		stw 0,36(3)
 1477 0080 91230020 		stw 9,32(3)
 1478              	.L121:
 1479              	.LBE690:
 1480              	.LBE692:
 1481              	.LBE682:
 1482              	.LBE681:
 1483              	.LBE680:
 1484              		.loc 2 840 0
 1485 0084 7F43D378 		mr 3,26
 1486 0088 7F65DB78 		mr 5,27
 1487 008c 7F86E378 		mr 6,28
 1488 0090 7FE4FB78 		mr 4,31
 1489 0094 48000001 		bl _ZSt29_Rb_tree_insert_and_rebalancebPSt18_Rb_tree_node_baseS0_RS_
 1490              		.loc 2 842 0
 1491 0098 813D0014 		lwz 9,20(29)
 1492              	.LBE693:
 1493              		.loc 2 843 0
 1494 009c 80010024 		lwz 0,36(1)
 1495 00a0 7FE3FB78 		mr 3,31
 1496              	.LBB694:
 1497              		.loc 2 842 0
 1498 00a4 39290001 		addi 9,9,1
 1499              	.LBE694:
 1500              		.loc 2 843 0
 1501 00a8 83410008 		lwz 26,8(1)
 1502              	.LVL114:
 1503              	.LBB695:
 1504              		.loc 2 842 0
 1505 00ac 913D0014 		stw 9,20(29)
 1506              	.LBE695:
 1507              		.loc 2 843 0
 1508 00b0 7C0803A6 		mtlr 0
 1509 00b4 8361000C 		lwz 27,12(1)
 1510              	.LVL115:
 1511 00b8 83810010 		lwz 28,16(1)
 1512 00bc 83A10014 		lwz 29,20(1)
 1513              	.LVL116:
 1514 00c0 83C10018 		lwz 30,24(1)
 1515              	.LVL117:
 1516 00c4 83E1001C 		lwz 31,28(1)
 1517              	.LVL118:
 1518 00c8 38210020 		addi 1,1,32
 1519 00cc 4E800020 		blr
 1520              	.LVL119:
 1521              	.L125:
 1522              	.LBB696:
 1523              		.loc 2 836 0
 1524 00d0 7F9C2800 		cmpw 7,28,5
 1525 00d4 41BEFF68 		beq- 7,.L117
 1526              	.LVL120:
 1527 00d8 80060000 		lwz 0,0(6)
 1528 00dc 81250010 		lwz 9,16(5)
 1529 00e0 7F804800 		cmpw 7,0,9
 1530 00e4 7F400026 		mfcr 26
 1531 00e8 575AEFFE 		rlwinm 26,26,29,1
 1532              	.LVL121:
 1533 00ec 4BFFFF54 		b .L120
 1534              	.LBE696:
 1535              	.LFE691:
 1536              		.size	_ZNSt8_Rb_treeIwSt4pairIKw13ftgxCharData_ESt10_Select1stIS3_ESt4lessIwESaIS3_EE9_M_insertEPS
 1537              		.section	.text._ZNSt8_Rb_treeIwSt4pairIKw13ftgxCharData_ESt10_Select1stIS3_ESt4lessIwESaIS3_EE8_M_
 1538              		.align 2
 1539              		.weak	_ZNSt8_Rb_treeIwSt4pairIKw13ftgxCharData_ESt10_Select1stIS3_ESt4lessIwESaIS3_EE8_M_eraseEPSt
 1540              		.type	_ZNSt8_Rb_treeIwSt4pairIKw13ftgxCharData_ESt10_Select1stIS3_ESt4lessIwESaIS3_EE8_M_eraseEPSt
 1541              	_ZNSt8_Rb_treeIwSt4pairIKw13ftgxCharData_ESt10_Select1stIS3_ESt4lessIwESaIS3_EE8_M_eraseEPSt13_Rb_t
 1542              	.LFB629:
 1543              		.loc 2 1318 0
 1544              	.LVL122:
 1545 0000 9421FFF0 		stwu 1,-16(1)
 1546              	.LCFI52:
 1547 0004 7C0802A6 		mflr 0
 1548              	.LCFI53:
 1549 0008 93E1000C 		stw 31,12(1)
 1550              	.LCFI54:
 1551              	.LBB697:
 1552              		.loc 2 1321 0
 1553 000c 7C9F2379 		mr. 31,4
 1554              	.LBE697:
 1555              		.loc 2 1318 0
 1556 0010 93C10008 		stw 30,8(1)
 1557              	.LCFI55:
 1558 0014 7C7E1B78 		mr 30,3
 1559 0018 90010014 		stw 0,20(1)
 1560              	.LCFI56:
 1561              	.LBB707:
 1562              		.loc 2 1321 0
 1563 001c 41820028 		beq- 0,.L129
 1564              	.LVL123:
 1565              	.L130:
 1566              	.LBB698:
 1567              		.loc 2 1323 0
 1568 0020 809F000C 		lwz 4,12(31)
 1569 0024 7FC3F378 		mr 3,30
 1570 0028 48000001 		bl _ZNSt8_Rb_treeIwSt4pairIKw13ftgxCharData_ESt10_Select1stIS3_ESt4lessIwESaIS3_EE8_M_eraseEPSt13_
 1571              	.LBB699:
 1572              	.LBB700:
 1573              		.loc 2 502 0
 1574 002c 801F0008 		lwz 0,8(31)
 1575              	.LBE700:
 1576              	.LBE699:
 1577              	.LBB701:
 1578              	.LBB702:
 1579              	.LBB703:
 1580              	.LBB704:
 1581              	.LBB705:
 1582              	.LBB706:
 1583              		.loc 5 97 0
 1584 0030 7FE3FB78 		mr 3,31
 1585 0034 7C1F0378 		mr 31,0
 1586 0038 48000001 		bl _ZdlPv
 1587              	.LBE706:
 1588              	.LBE705:
 1589              	.LBE704:
 1590              	.LBE703:
 1591              	.LBE702:
 1592              	.LBE701:
 1593              	.LBE698:
 1594              		.loc 2 1321 0
 1595 003c 2F9F0000 		cmpwi 7,31,0
 1596 0040 409EFFE0 		bne+ 7,.L130
 1597              	.LVL124:
 1598              	.L129:
 1599              	.LBE707:
 1600              		.loc 2 1326 0
 1601 0044 80010014 		lwz 0,20(1)
 1602 0048 83C10008 		lwz 30,8(1)
 1603              	.LVL125:
 1604 004c 83E1000C 		lwz 31,12(1)
 1605              	.LVL126:
 1606 0050 7C0803A6 		mtlr 0
 1607 0054 38210010 		addi 1,1,16
 1608 0058 4E800020 		blr
 1609              	.LFE629:
 1610              		.size	_ZNSt8_Rb_treeIwSt4pairIKw13ftgxCharData_ESt10_Select1stIS3_ESt4lessIwESaIS3_EE8_M_eraseEPSt
 1611              		.section	".text"
 1612              		.align 2
 1613              		.globl _ZN10FreeTypeGX13loadGlyphDataEP10FT_Bitmap_P13ftgxCharData_
 1614              		.type	_ZN10FreeTypeGX13loadGlyphDataEP10FT_Bitmap_P13ftgxCharData_, @function
 1615              	_ZN10FreeTypeGX13loadGlyphDataEP10FT_Bitmap_P13ftgxCharData_:
 1616              	.LFB581:
 1617              		.loc 1 349 0
 1618              	.LVL127:
 1619 0950 7C0802A6 		mflr 0
 1620              	.LCFI57:
 1621 0954 9421FFE0 		stwu 1,-32(1)
 1622              	.LCFI58:
 1623 0958 93410008 		stw 26,8(1)
 1624              	.LCFI59:
 1625 095c 7C7A1B78 		mr 26,3
 1626 0960 90010024 		stw 0,36(1)
 1627              	.LCFI60:
 1628              	.LBB708:
 1629              		.loc 1 351 0
 1630 0964 38600020 		li 3,32
 1631              	.LVL128:
 1632              	.LBE708:
 1633              		.loc 1 349 0
 1634 0968 93A10014 		stw 29,20(1)
 1635              	.LCFI61:
 1636 096c 7CBD2B78 		mr 29,5
 1637              	.LBB717:
 1638              		.loc 1 351 0
 1639 0970 A1250006 		lhz 9,6(5)
 1640 0974 A0050004 		lhz 0,4(5)
 1641              	.LBE717:
 1642              		.loc 1 349 0
 1643 0978 93E1001C 		stw 31,28(1)
 1644              	.LCFI62:
 1645 097c 7C9F2378 		mr 31,4
 1646              	.LBB718:
 1647              		.loc 1 351 0
 1648 0980 7C0049D6 		mullw 0,0,9
 1649              	.LBE718:
 1650              		.loc 1 349 0
 1651 0984 93C10018 		stw 30,24(1)
 1652              	.LCFI63:
 1653 0988 9361000C 		stw 27,12(1)
 1654              	.LCFI64:
 1655 098c 93810010 		stw 28,16(1)
 1656              	.LCFI65:
 1657              	.LBB719:
 1658              		.loc 1 351 0
 1659 0990 5404103A 		slwi 4,0,2
 1660              	.LVL129:
 1661 0994 48000001 		bl memalign
 1662              	.LVL130:
 1663              		.loc 1 352 0
 1664 0998 A0BD0004 		lhz 5,4(29)
 1665 099c A01D0006 		lhz 0,6(29)
 1666 09a0 38800000 		li 4,0
 1667              		.loc 1 351 0
 1668 09a4 7C7E1B78 		mr 30,3
 1669              	.LVL131:
 1670              		.loc 1 352 0
 1671 09a8 7CA501D6 		mullw 5,5,0
 1672 09ac 54A5103A 		slwi 5,5,2
 1673 09b0 48000001 		bl memset
 1674              	.LBB709:
 1675              		.loc 1 354 0
 1676 09b4 813F0000 		lwz 9,0(31)
 1677 09b8 2F890000 		cmpwi 7,9,0
 1678 09bc 409D0294 		ble- 7,.L149
 1679 09c0 A37D0004 		lhz 27,4(29)
 1680 09c4 38800000 		li 4,0
 1681              	.LVL132:
 1682 09c8 811F0004 		lwz 8,4(31)
 1683 09cc 39800000 		li 12,0
 1684              	.LBB710:
 1685              	.LBB712:
 1686              		.loc 1 357 0
 1687 09d0 577C043E 		rlwinm 28,27,0,0xffff
 1688              	.LVL133:
 1689              	.L135:
 1690              	.LBE712:
 1691              		.loc 1 355 0
 1692 09d4 2F880000 		cmpwi 7,8,0
 1693 09d8 409D0060 		ble- 7,.L138
 1694              	.LBB711:
 1695              		.loc 1 357 0
 1696 09dc 7C6CE1D6 		mullw 3,12,28
 1697 09e0 80BF000C 		lwz 5,12(31)
 1698              	.LBE711:
 1699              	.LBE710:
 1700              		.loc 1 354 0
 1701 09e4 38C00000 		li 6,0
 1702 09e8 38E00000 		li 7,0
 1703              	.L137:
 1704              	.LBB716:
 1705              	.LBB713:
 1706              		.loc 1 356 0
 1707 09ec 7D0861D6 		mullw 8,8,12
 1708 09f0 7D653A14 		add 11,5,7
 1709              		.loc 1 357 0
 1710 09f4 7D471A14 		add 10,7,3
 1711 09f8 554A103A 		slwi 10,10,2
 1712              	.LBE713:
 1713              		.loc 1 355 0
 1714 09fc 38E60001 		addi 7,6,1
 1715              	.LBB714:
 1716              		.loc 1 356 0
 1717 0a00 7D2B40AE 		lbzx 9,11,8
 1718              	.LVL134:
 1719              	.LBE714:
 1720              		.loc 1 355 0
 1721 0a04 54E7043E 		rlwinm 7,7,0,0xffff
 1722 0a08 7CE63B78 		mr 6,7
 1723              	.LBB715:
 1724              		.loc 1 357 0
 1725 0a0c 5520C00E 		slwi 0,9,24
 1726 0a10 552B801E 		slwi 11,9,16
 1727 0a14 7C005B78 		or 0,0,11
 1728 0a18 7C004B78 		or 0,0,9
 1729 0a1c 5529402E 		slwi 9,9,8
 1730              	.LVL135:
 1731 0a20 7C004B78 		or 0,0,9
 1732 0a24 7C0AF12E 		stwx 0,10,30
 1733              	.LBE715:
 1734              		.loc 1 355 0
 1735 0a28 811F0004 		lwz 8,4(31)
 1736 0a2c 7F874000 		cmpw 7,7,8
 1737 0a30 419CFFBC 		blt+ 7,.L137
 1738 0a34 813F0000 		lwz 9,0(31)
 1739              	.L138:
 1740              	.LBE716:
 1741              		.loc 1 354 0
 1742 0a38 38040001 		addi 0,4,1
 1743 0a3c 540C043E 		rlwinm 12,0,0,0xffff
 1744 0a40 7F8C4800 		cmpw 7,12,9
 1745 0a44 7D846378 		mr 4,12
 1746 0a48 419CFF8C 		blt+ 7,.L135
 1747              	.L133:
 1748              	.LBE709:
 1749              		.loc 1 361 0
 1750 0a4c 881A0011 		lbz 0,17(26)
 1751 0a50 2B800005 		cmplwi 7,0,5
 1752 0a54 409D0048 		ble- 7,.L152
 1753              		.loc 1 382 0
 1754 0a58 A0BD0006 		lhz 5,6(29)
 1755 0a5c 5764043E 		rlwinm 4,27,0,0xffff
 1756              	.LVL136:
 1757 0a60 7FC3F378 		mr 3,30
 1758 0a64 48000001 		bl _ZN11Metaphrasis20convertBufferToRGBA8EPjtt
 1759              	.LVL137:
 1760 0a68 907D0010 		stw 3,16(29)
 1761              		.loc 1 386 0
 1762 0a6c 7FC3F378 		mr 3,30
 1763 0a70 48000001 		bl free
 1764              	.LBE719:
 1765              		.loc 1 387 0
 1766 0a74 80010024 		lwz 0,36(1)
 1767 0a78 83410008 		lwz 26,8(1)
 1768              	.LVL138:
 1769 0a7c 8361000C 		lwz 27,12(1)
 1770 0a80 7C0803A6 		mtlr 0
 1771 0a84 83810010 		lwz 28,16(1)
 1772 0a88 83A10014 		lwz 29,20(1)
 1773              	.LVL139:
 1774 0a8c 83C10018 		lwz 30,24(1)
 1775              	.LVL140:
 1776 0a90 83E1001C 		lwz 31,28(1)
 1777              	.LVL141:
 1778 0a94 38210020 		addi 1,1,32
 1779 0a98 4E800020 		blr
 1780              	.LVL142:
 1781              	.L152:
 1782              	.LBB720:
 1783              		.loc 1 361 0
 1784 0a9c 3D200000 		lis 9,.L146@ha
 1785 0aa0 5400103A 		slwi 0,0,2
 1786 0aa4 39290044 		la 9,.L146@l(9)
 1787 0aa8 7D69002E 		lwzx 11,9,0
 1788 0aac 7D6B4A14 		add 11,11,9
 1789 0ab0 7D6903A6 		mtctr 11
 1790 0ab4 4E800420 		bctr
 1791              		.section	.rodata
 1792              		.align 2
 1793              		.align 2
 1794              	.L146:
 1795 0044 00000AFC 		.long .L140-.L146
 1796 0048 00000B44 		.long .L141-.L146
 1797 004c 00000B8C 		.long .L142-.L146
 1798 0050 00000BD4 		.long .L143-.L146
 1799 0054 00000C1C 		.long .L144-.L146
 1800 0058 00000ACC 		.long .L145-.L146
 1801              		.section	".text"
 1802              	.L145:
 1803              		.loc 1 378 0
 1804 0ab8 A0BD0006 		lhz 5,6(29)
 1805 0abc 5764043E 		rlwinm 4,27,0,0xffff
 1806              	.LVL143:
 1807 0ac0 7FC3F378 		mr 3,30
 1808 0ac4 48000001 		bl _ZN11Metaphrasis21convertBufferToRGB5A3EPjtt
 1809              	.LVL144:
 1810 0ac8 907D0010 		stw 3,16(29)
 1811              		.loc 1 386 0
 1812 0acc 7FC3F378 		mr 3,30
 1813 0ad0 48000001 		bl free
 1814              	.LBE720:
 1815              		.loc 1 387 0
 1816 0ad4 80010024 		lwz 0,36(1)
 1817 0ad8 83410008 		lwz 26,8(1)
 1818              	.LVL145:
 1819 0adc 8361000C 		lwz 27,12(1)
 1820 0ae0 7C0803A6 		mtlr 0
 1821 0ae4 83810010 		lwz 28,16(1)
 1822 0ae8 83A10014 		lwz 29,20(1)
 1823              	.LVL146:
 1824 0aec 83C10018 		lwz 30,24(1)
 1825              	.LVL147:
 1826 0af0 83E1001C 		lwz 31,28(1)
 1827              	.LVL148:
 1828 0af4 38210020 		addi 1,1,32
 1829 0af8 4E800020 		blr
 1830              	.LVL149:
 1831              	.L140:
 1832              	.LBB721:
 1833              		.loc 1 363 0
 1834 0afc A0BD0006 		lhz 5,6(29)
 1835 0b00 5764043E 		rlwinm 4,27,0,0xffff
 1836              	.LVL150:
 1837 0b04 7FC3F378 		mr 3,30
 1838 0b08 48000001 		bl _ZN11Metaphrasis17convertBufferToI4EPjtt
 1839              	.LVL151:
 1840 0b0c 907D0010 		stw 3,16(29)
 1841              		.loc 1 386 0
 1842 0b10 7FC3F378 		mr 3,30
 1843 0b14 48000001 		bl free
 1844              	.LBE721:
 1845              		.loc 1 387 0
 1846 0b18 80010024 		lwz 0,36(1)
 1847 0b1c 83410008 		lwz 26,8(1)
 1848              	.LVL152:
 1849 0b20 8361000C 		lwz 27,12(1)
 1850 0b24 7C0803A6 		mtlr 0
 1851 0b28 83810010 		lwz 28,16(1)
 1852 0b2c 83A10014 		lwz 29,20(1)
 1853              	.LVL153:
 1854 0b30 83C10018 		lwz 30,24(1)
 1855              	.LVL154:
 1856 0b34 83E1001C 		lwz 31,28(1)
 1857              	.LVL155:
 1858 0b38 38210020 		addi 1,1,32
 1859 0b3c 4E800020 		blr
 1860              	.LVL156:
 1861              	.L141:
 1862              	.LBB722:
 1863              		.loc 1 366 0
 1864 0b40 A0BD0006 		lhz 5,6(29)
 1865 0b44 5764043E 		rlwinm 4,27,0,0xffff
 1866              	.LVL157:
 1867 0b48 7FC3F378 		mr 3,30
 1868 0b4c 48000001 		bl _ZN11Metaphrasis17convertBufferToI8EPjtt
 1869              	.LVL158:
 1870 0b50 907D0010 		stw 3,16(29)
 1871              		.loc 1 386 0
 1872 0b54 7FC3F378 		mr 3,30
 1873 0b58 48000001 		bl free
 1874              	.LBE722:
 1875              		.loc 1 387 0
 1876 0b5c 80010024 		lwz 0,36(1)
 1877 0b60 83410008 		lwz 26,8(1)
 1878              	.LVL159:
 1879 0b64 8361000C 		lwz 27,12(1)
 1880 0b68 7C0803A6 		mtlr 0
 1881 0b6c 83810010 		lwz 28,16(1)
 1882 0b70 83A10014 		lwz 29,20(1)
 1883              	.LVL160:
 1884 0b74 83C10018 		lwz 30,24(1)
 1885              	.LVL161:
 1886 0b78 83E1001C 		lwz 31,28(1)
 1887              	.LVL162:
 1888 0b7c 38210020 		addi 1,1,32
 1889 0b80 4E800020 		blr
 1890              	.LVL163:
 1891              	.L142:
 1892              	.LBB723:
 1893              		.loc 1 369 0
 1894 0b84 A0BD0006 		lhz 5,6(29)
 1895 0b88 5764043E 		rlwinm 4,27,0,0xffff
 1896              	.LVL164:
 1897 0b8c 7FC3F378 		mr 3,30
 1898 0b90 48000001 		bl _ZN11Metaphrasis18convertBufferToIA4EPjtt
 1899              	.LVL165:
 1900 0b94 907D0010 		stw 3,16(29)
 1901              		.loc 1 386 0
 1902 0b98 7FC3F378 		mr 3,30
 1903 0b9c 48000001 		bl free
 1904              	.LBE723:
 1905              		.loc 1 387 0
 1906 0ba0 80010024 		lwz 0,36(1)
 1907 0ba4 83410008 		lwz 26,8(1)
 1908              	.LVL166:
 1909 0ba8 8361000C 		lwz 27,12(1)
 1910 0bac 7C0803A6 		mtlr 0
 1911 0bb0 83810010 		lwz 28,16(1)
 1912 0bb4 83A10014 		lwz 29,20(1)
 1913              	.LVL167:
 1914 0bb8 83C10018 		lwz 30,24(1)
 1915              	.LVL168:
 1916 0bbc 83E1001C 		lwz 31,28(1)
 1917              	.LVL169:
 1918 0bc0 38210020 		addi 1,1,32
 1919 0bc4 4E800020 		blr
 1920              	.LVL170:
 1921              	.L143:
 1922              	.LBB724:
 1923              		.loc 1 372 0
 1924 0bc8 A0BD0006 		lhz 5,6(29)
 1925 0bcc 5764043E 		rlwinm 4,27,0,0xffff
 1926              	.LVL171:
 1927 0bd0 7FC3F378 		mr 3,30
 1928 0bd4 48000001 		bl _ZN11Metaphrasis18convertBufferToIA8EPjtt
 1929              	.LVL172:
 1930 0bd8 907D0010 		stw 3,16(29)
 1931              		.loc 1 386 0
 1932 0bdc 7FC3F378 		mr 3,30
 1933 0be0 48000001 		bl free
 1934              	.LBE724:
 1935              		.loc 1 387 0
 1936 0be4 80010024 		lwz 0,36(1)
 1937 0be8 83410008 		lwz 26,8(1)
 1938              	.LVL173:
 1939 0bec 8361000C 		lwz 27,12(1)
 1940 0bf0 7C0803A6 		mtlr 0
 1941 0bf4 83810010 		lwz 28,16(1)
 1942 0bf8 83A10014 		lwz 29,20(1)
 1943              	.LVL174:
 1944 0bfc 83C10018 		lwz 30,24(1)
 1945              	.LVL175:
 1946 0c00 83E1001C 		lwz 31,28(1)
 1947              	.LVL176:
 1948 0c04 38210020 		addi 1,1,32
 1949 0c08 4E800020 		blr
 1950              	.LVL177:
 1951              	.L144:
 1952              	.LBB725:
 1953              		.loc 1 375 0
 1954 0c0c A0BD0006 		lhz 5,6(29)
 1955 0c10 5764043E 		rlwinm 4,27,0,0xffff
 1956              	.LVL178:
 1957 0c14 7FC3F378 		mr 3,30
 1958 0c18 48000001 		bl _ZN11Metaphrasis21convertBufferToRGB565EPjtt
 1959              	.LVL179:
 1960 0c1c 907D0010 		stw 3,16(29)
 1961              		.loc 1 386 0
 1962 0c20 7FC3F378 		mr 3,30
 1963 0c24 48000001 		bl free
 1964              	.LBE725:
 1965              		.loc 1 387 0
 1966 0c28 80010024 		lwz 0,36(1)
 1967 0c2c 83410008 		lwz 26,8(1)
 1968              	.LVL180:
 1969 0c30 8361000C 		lwz 27,12(1)
 1970 0c34 7C0803A6 		mtlr 0
 1971 0c38 83810010 		lwz 28,16(1)
 1972 0c3c 83A10014 		lwz 29,20(1)
 1973              	.LVL181:
 1974 0c40 83C10018 		lwz 30,24(1)
 1975              	.LVL182:
 1976 0c44 83E1001C 		lwz 31,28(1)
 1977              	.LVL183:
 1978 0c48 38210020 		addi 1,1,32
 1979 0c4c 4E800020 		blr
 1980              	.LVL184:
 1981              	.L149:
 1982 0c50 A37D0004 		lhz 27,4(29)
 1983 0c54 4BFFFDF8 		b .L133
 1984              	.LFE581:
 1985              		.size	_ZN10FreeTypeGX13loadGlyphDataEP10FT_Bitmap_P13ftgxCharData_, .-_ZN10FreeTypeGX13loadGlyphDa
 1986              		.align 2
 1987              		.globl _ZN10FreeTypeGX10unloadFontEv
 1988              		.type	_ZN10FreeTypeGX10unloadFontEv, @function
 1989              	_ZN10FreeTypeGX10unloadFontEv:
 1990              	.LFB575:
 1991              		.loc 1 194 0
 1992              	.LVL185:
 1993 0c58 7C0802A6 		mflr 0
 1994              	.LCFI66:
 1995 0c5c 9421FFE8 		stwu 1,-24(1)
 1996              	.LCFI67:
 1997 0c60 93C10010 		stw 30,16(1)
 1998              	.LCFI68:
 1999 0c64 7C7E1B78 		mr 30,3
 2000 0c68 9001001C 		stw 0,28(1)
 2001              	.LCFI69:
 2002 0c6c 93A1000C 		stw 29,12(1)
 2003              	.LCFI70:
 2004              	.LBB769:
 2005              		.loc 1 195 0
 2006 0c70 8003002C 		lwz 0,44(3)
 2007              	.LBE769:
 2008              		.loc 1 194 0
 2009 0c74 93E10014 		stw 31,20(1)
 2010              	.LCFI71:
 2011              	.LBB793:
 2012              		.loc 1 195 0
 2013 0c78 2F800000 		cmpwi 7,0,0
 2014 0c7c 409E0020 		bne- 7,.L161
 2015              	.LBE793:
 2016              		.loc 1 206 0
 2017 0c80 8001001C 		lwz 0,28(1)
 2018 0c84 83A1000C 		lwz 29,12(1)
 2019 0c88 83C10010 		lwz 30,16(1)
 2020 0c8c 7C0803A6 		mtlr 0
 2021 0c90 83E10014 		lwz 31,20(1)
 2022 0c94 38210018 		addi 1,1,24
 2023 0c98 4E800020 		blr
 2024              	.LVL186:
 2025              	.L161:
 2026              	.LBB794:
 2027              		.loc 1 198 0
 2028 0c9c 48000001 		bl GX_DrawDone
 2029              	.LVL187:
 2030              	.LBB778:
 2031              	.LBB779:
 2032              	.LBB780:
 2033              	.LBB781:
 2034              	.LBB782:
 2035              	.LBB783:
 2036              	.LBB784:
 2037              	.LBB785:
 2038              		.loc 2 170 0
 2039 0ca0 3BBE001C 		addi 29,30,28
 2040              	.LBE785:
 2041              	.LBE784:
 2042              	.LBE783:
 2043              	.LBE782:
 2044              	.LBE781:
 2045              	.LBE780:
 2046              	.LBE779:
 2047              	.LBE778:
 2048              		.loc 1 199 0
 2049 0ca4 48000001 		bl GX_Flush
 2050              	.LBB777:
 2051              	.LBB786:
 2052              	.LBB787:
 2053              	.LBB788:
 2054              	.LBB789:
 2055              		.loc 2 606 0
 2056 0ca8 813E0024 		lwz 9,36(30)
 2057              	.LBE789:
 2058              	.LBE788:
 2059              	.LBE787:
 2060              	.LBE786:
 2061              		.loc 1 201 0
 2062 0cac 7F89E800 		cmpw 7,9,29
 2063 0cb0 419E0028 		beq- 7,.L156
 2064 0cb4 7D3F4B78 		mr 31,9
 2065              	.L158:
 2066              		.loc 1 202 0
 2067 0cb8 80690024 		lwz 3,36(9)
 2068 0cbc 48000001 		bl free
 2069              	.LBB790:
 2070              		.loc 2 191 0
 2071 0cc0 7FE3FB78 		mr 3,31
 2072 0cc4 48000001 		bl _ZSt18_Rb_tree_incrementPSt18_Rb_tree_node_base
 2073              	.LBE790:
 2074              		.loc 1 201 0
 2075 0cc8 7F9D1800 		cmpw 7,29,3
 2076              	.LBB791:
 2077              		.loc 2 191 0
 2078 0ccc 7C7F1B78 		mr 31,3
 2079              	.LBE791:
 2080              		.loc 1 201 0
 2081 0cd0 7C691B78 		mr 9,3
 2082 0cd4 409EFFE4 		bne+ 7,.L158
 2083              	.L156:
 2084              	.LBE777:
 2085              	.LBB770:
 2086              	.LBB771:
 2087              	.LBB772:
 2088              	.LBB773:
 2089              		.loc 2 711 0
 2090 0cd8 809E0020 		lwz 4,32(30)
 2091 0cdc 387E0018 		addi 3,30,24
 2092 0ce0 48000001 		bl _ZNSt8_Rb_treeIwSt4pairIKw13ftgxCharData_ESt10_Select1stIS3_ESt4lessIwESaIS3_EE8_M_eraseEPSt13_
 2093              		.loc 2 713 0
 2094 0ce4 38000000 		li 0,0
 2095              		.loc 2 715 0
 2096 0ce8 901E002C 		stw 0,44(30)
 2097              		.loc 2 713 0
 2098 0cec 901E0020 		stw 0,32(30)
 2099              	.LBE773:
 2100              	.LBE772:
 2101              	.LBE771:
 2102              	.LBE770:
 2103              	.LBE794:
 2104              		.loc 1 206 0
 2105 0cf0 8001001C 		lwz 0,28(1)
 2106              	.LBB795:
 2107              	.LBB792:
 2108              	.LBB776:
 2109              	.LBB775:
 2110              	.LBB774:
 2111              		.loc 2 714 0
 2112 0cf4 93BE0028 		stw 29,40(30)
 2113              		.loc 2 712 0
 2114 0cf8 93BE0024 		stw 29,36(30)
 2115              	.LBE774:
 2116              	.LBE775:
 2117              	.LBE776:
 2118              	.LBE792:
 2119              	.LBE795:
 2120              		.loc 1 206 0
 2121 0cfc 7C0803A6 		mtlr 0
 2122 0d00 83A1000C 		lwz 29,12(1)
 2123 0d04 83C10010 		lwz 30,16(1)
 2124              	.LVL188:
 2125 0d08 83E10014 		lwz 31,20(1)
 2126 0d0c 38210018 		addi 1,1,24
 2127 0d10 4E800020 		blr
 2128              	.LFE575:
 2129              		.size	_ZN10FreeTypeGX10unloadFontEv, .-_ZN10FreeTypeGX10unloadFontEv
 2130              		.align 2
 2131              		.globl _ZN10FreeTypeGX10changeSizeEj
 2132              		.type	_ZN10FreeTypeGX10changeSizeEj, @function
 2133              	_ZN10FreeTypeGX10changeSizeEj:
 2134              	.LFB576:
 2135              		.loc 1 208 0
 2136              	.LVL189:
 2137 0d14 9421FFE8 		stwu 1,-24(1)
 2138              	.LCFI72:
 2139 0d18 7C0802A6 		mflr 0
 2140              	.LCFI73:
 2141 0d1c 93810008 		stw 28,8(1)
 2142              	.LCFI74:
 2143 0d20 7C9C2378 		mr 28,4
 2144 0d24 93A1000C 		stw 29,12(1)
 2145              	.LCFI75:
 2146 0d28 7C7D1B78 		mr 29,3
 2147 0d2c 9001001C 		stw 0,28(1)
 2148              	.LCFI76:
 2149              		.loc 1 209 0
 2150 0d30 48000001 		bl _ZN10FreeTypeGX10unloadFontEv
 2151              	.LVL190:
 2152              		.loc 1 210 0
 2153 0d34 939D000C 		stw 28,12(29)
 2154              		.loc 1 211 0
 2155 0d38 7F85E378 		mr 5,28
 2156 0d3c 807D0004 		lwz 3,4(29)
 2157 0d40 38800000 		li 4,0
 2158 0d44 48000001 		bl FT_Set_Pixel_Sizes
 2159              		.loc 1 212 0
 2160 0d48 8001001C 		lwz 0,28(1)
 2161 0d4c 83810008 		lwz 28,8(1)
 2162              	.LVL191:
 2163 0d50 83A1000C 		lwz 29,12(1)
 2164              	.LVL192:
 2165 0d54 7C0803A6 		mtlr 0
 2166 0d58 38210018 		addi 1,1,24
 2167 0d5c 4E800020 		blr
 2168              	.LFE576:
 2169              		.size	_ZN10FreeTypeGX10changeSizeEj, .-_ZN10FreeTypeGX10changeSizeEj
 2170              		.align 2
 2171              		.globl _ZN10FreeTypeGX15setVertexFormatEh
 2172              		.type	_ZN10FreeTypeGX15setVertexFormatEh, @function
 2173              	_ZN10FreeTypeGX15setVertexFormatEh:
 2174              	.LFB570:
 2175              		.loc 1 83 0
 2176              	.LVL193:
 2177 0d60 7C0802A6 		mflr 0
 2178              	.LCFI77:
 2179 0d64 9421FFE8 		stwu 1,-24(1)
 2180              	.LCFI78:
 2181              		.loc 1 86 0
 2182 0d68 38A00000 		li 5,0
 2183 0d6c 38C00003 		li 6,3
 2184              		.loc 1 83 0
 2185 0d70 93A1000C 		stw 29,12(1)
 2186              	.LCFI79:
 2187              		.loc 1 86 0
 2188 0d74 38E00000 		li 7,0
 2189              		.loc 1 83 0
 2190 0d78 9001001C 		stw 0,28(1)
 2191              	.LCFI80:
 2192              		.loc 1 83 0
 2193 0d7c 7C7D1B78 		mr 29,3
 2194              		.loc 1 84 0
 2195 0d80 98830012 		stb 4,18(3)
 2196              		.loc 1 86 0
 2197 0d84 7C832378 		mr 3,4
 2198              	.LVL194:
 2199 0d88 38800009 		li 4,9
 2200              	.LVL195:
 2201 0d8c 48000001 		bl GX_SetVtxAttrFmt
 2202              	.LVL196:
 2203              		.loc 1 87 0
 2204 0d90 887D0012 		lbz 3,18(29)
 2205 0d94 3880000D 		li 4,13
 2206 0d98 38A00001 		li 5,1
 2207 0d9c 38C00004 		li 6,4
 2208 0da0 38E00000 		li 7,0
 2209 0da4 48000001 		bl GX_SetVtxAttrFmt
 2210              		.loc 1 88 0
 2211 0da8 887D0012 		lbz 3,18(29)
 2212 0dac 3880000B 		li 4,11
 2213 0db0 38A00001 		li 5,1
 2214 0db4 38C00005 		li 6,5
 2215 0db8 38E00000 		li 7,0
 2216 0dbc 48000001 		bl GX_SetVtxAttrFmt
 2217              		.loc 1 89 0
 2218 0dc0 8001001C 		lwz 0,28(1)
 2219 0dc4 83A1000C 		lwz 29,12(1)
 2220              	.LVL197:
 2221 0dc8 38210018 		addi 1,1,24
 2222 0dcc 7C0803A6 		mtlr 0
 2223 0dd0 4E800020 		blr
 2224              	.LFE570:
 2225              		.size	_ZN10FreeTypeGX15setVertexFormatEh, .-_ZN10FreeTypeGX15setVertexFormatEh
 2226              		.align 2
 2227              		.globl _ZN10FreeTypeGX14charToWideCharEPc
 2228              		.type	_ZN10FreeTypeGX14charToWideCharEPc, @function
 2229              	_ZN10FreeTypeGX14charToWideCharEPc:
 2230              	.LFB568:
 2231              		.loc 1 55 0
 2232              	.LVL198:
 2233 0dd4 7C0802A6 		mflr 0
 2234              	.LCFI81:
 2235 0dd8 9421FFE8 		stwu 1,-24(1)
 2236              	.LCFI82:
 2237 0ddc 93A1000C 		stw 29,12(1)
 2238              	.LCFI83:
 2239 0de0 7C7D1B78 		mr 29,3
 2240 0de4 9001001C 		stw 0,28(1)
 2241              	.LCFI84:
 2242              	.LBB796:
 2243              		.loc 1 57 0
 2244 0de8 48000001 		bl strlen
 2245              	.LVL199:
 2246 0dec 38630001 		addi 3,3,1
 2247 0df0 5463103A 		slwi 3,3,2
 2248 0df4 48000001 		bl _Znaj
 2249 0df8 7C691B78 		mr 9,3
 2250              	.LVL200:
 2251              	.L167:
 2252              		.loc 1 61 0
 2253 0dfc 881D0000 		lbz 0,0(29)
 2254              	.LVL201:
 2255 0e00 3BBD0001 		addi 29,29,1
 2256              	.LVL202:
 2257 0e04 2F800000 		cmpwi 7,0,0
 2258 0e08 90090000 		stw 0,0(9)
 2259 0e0c 39290004 		addi 9,9,4
 2260 0e10 409EFFEC 		bne+ 7,.L167
 2261              	.LBE796:
 2262              		.loc 1 64 0
 2263 0e14 8001001C 		lwz 0,28(1)
 2264 0e18 83A1000C 		lwz 29,12(1)
 2265              	.LVL203:
 2266 0e1c 38210018 		addi 1,1,24
 2267 0e20 7C0803A6 		mtlr 0
 2268 0e24 4E800020 		blr
 2269              	.LFE568:
 2270              		.size	_ZN10FreeTypeGX14charToWideCharEPc, .-_ZN10FreeTypeGX14charToWideCharEPc
 2271              		.align 2
 2272              		.globl _ZN10FreeTypeGX14charToWideCharEPKc
 2273              		.type	_ZN10FreeTypeGX14charToWideCharEPKc, @function
 2274              	_ZN10FreeTypeGX14charToWideCharEPKc:
 2275              	.LFB569:
 2276              		.loc 1 70 0
 2277              	.LVL204:
 2278              		.loc 1 71 0
 2279 0e28 48000000 		b _ZN10FreeTypeGX14charToWideCharEPc
 2280              	.LVL205:
 2281              	.LFE569:
 2282              		.size	_ZN10FreeTypeGX14charToWideCharEPKc, .-_ZN10FreeTypeGX14charToWideCharEPKc
 2283              		.globl _Unwind_Resume
 2284              		.align 2
 2285              		.globl _ZN10FreeTypeGXC2Ehh
 2286              		.type	_ZN10FreeTypeGXC2Ehh, @function
 2287              	_ZN10FreeTypeGXC2Ehh:
 2288              	.LFB563:
 2289              		.loc 1 31 0
 2290              	.LVL206:
 2291 0e2c 7C0802A6 		mflr 0
 2292              	.LCFI85:
 2293 0e30 9421FFE8 		stwu 1,-24(1)
 2294              	.LCFI86:
 2295              	.LBB849:
 2296              	.LBB850:
 2297              	.LBB851:
 2298              	.LBB852:
 2299              	.LBB853:
 2300              	.LBB854:
 2301              	.LBB855:
 2302              	.LBB856:
 2303              	.LBB857:
 2304              	.LBB858:
 2305              		.loc 2 420 0
 2306 0e34 3923001C 		addi 9,3,28
 2307              	.LBE858:
 2308              	.LBE857:
 2309              	.LBE856:
 2310              	.LBE855:
 2311              	.LBE854:
 2312              	.LBE853:
 2313              	.LBE852:
 2314              	.LBE851:
 2315              	.LBE850:
 2316              	.LBE849:
 2317              		.loc 1 31 0
 2318 0e38 93A1000C 		stw 29,12(1)
 2319              	.LCFI87:
 2320 0e3c 7CBD2B78 		mr 29,5
 2321 0e40 9001001C 		stw 0,28(1)
 2322              	.LCFI88:
 2323              	.LBB872:
 2324              	.LBB867:
 2325              	.LBB866:
 2326              	.LBB865:
 2327              	.LBB864:
 2328              	.LBB863:
 2329              	.LBB862:
 2330              	.LBB861:
 2331              	.LBB860:
 2332              	.LBB859:
 2333              		.loc 2 416 0
 2334 0e44 38000000 		li 0,0
 2335              		.loc 2 419 0
 2336 0e48 90030020 		stw 0,32(3)
 2337              		.loc 2 421 0
 2338 0e4c 91230028 		stw 9,40(3)
 2339              		.loc 2 416 0
 2340 0e50 9003002C 		stw 0,44(3)
 2341              		.loc 2 418 0
 2342 0e54 9003001C 		stw 0,28(3)
 2343              		.loc 2 420 0
 2344 0e58 91230024 		stw 9,36(3)
 2345              	.LBE859:
 2346              	.LBE860:
 2347              	.LBE861:
 2348              	.LBE862:
 2349              	.LBE863:
 2350              	.LBE864:
 2351              	.LBE865:
 2352              	.LBE866:
 2353              	.LBE867:
 2354              	.LBE872:
 2355              		.loc 1 31 0
 2356 0e5c 93C10010 		stw 30,16(1)
 2357              	.LCFI89:
 2358 0e60 7C9E2378 		mr 30,4
 2359 0e64 93E10014 		stw 31,20(1)
 2360              	.LCFI90:
 2361              		.loc 1 31 0
 2362 0e68 7C7F1B78 		mr 31,3
 2363              	.LEHB0:
 2364              	.LBB873:
 2365              		.loc 1 32 0
 2366 0e6c 48000001 		bl FT_Init_FreeType
 2367              	.LVL207:
 2368              		.loc 1 34 0
 2369 0e70 9BDF0011 		stb 30,17(31)
 2370              		.loc 1 35 0
 2371 0e74 7FA4EB78 		mr 4,29
 2372 0e78 7FE3FB78 		mr 3,31
 2373 0e7c 48000001 		bl _ZN10FreeTypeGX15setVertexFormatEh
 2374              	.LEHE0:
 2375              	.LBE873:
 2376              		.loc 1 37 0
 2377 0e80 8001001C 		lwz 0,28(1)
 2378              	.LBB874:
 2379              		.loc 1 36 0
 2380 0e84 7FE3FB78 		mr 3,31
 2381              	.LBE874:
 2382              		.loc 1 37 0
 2383 0e88 83A1000C 		lwz 29,12(1)
 2384              	.LVL208:
 2385              	.LBB875:
 2386              		.loc 1 36 0
 2387 0e8c 38800000 		li 4,0
 2388              	.LBE875:
 2389              		.loc 1 37 0
 2390 0e90 7C0803A6 		mtlr 0
 2391 0e94 83C10010 		lwz 30,16(1)
 2392              	.LVL209:
 2393 0e98 83E10014 		lwz 31,20(1)
 2394              	.LVL210:
 2395 0e9c 38210018 		addi 1,1,24
 2396              	.LBB876:
 2397              		.loc 1 36 0
 2398 0ea0 48000000 		b _ZN10FreeTypeGX20setCompatibilityModeEj
 2399              	.LVL211:
 2400              	.L180:
 2401              	.L175:
 2402 0ea4 7C7E1B78 		mr 30,3
 2403              	.LVL212:
 2404              	.LBB868:
 2405              	.LBB869:
 2406              	.LBB870:
 2407              	.LBB871:
 2408              		.loc 2 592 0
 2409 0ea8 809F0020 		lwz 4,32(31)
 2410 0eac 387F0018 		addi 3,31,24
 2411              	.LEHB1:
 2412 0eb0 48000001 		bl _ZNSt8_Rb_treeIwSt4pairIKw13ftgxCharData_ESt10_Select1stIS3_ESt4lessIwESaIS3_EE8_M_eraseEPSt13_
 2413              	.LEHE1:
 2414              	.L177:
 2415 0eb4 7FC3F378 		mr 3,30
 2416              	.L182:
 2417              	.LEHB2:
 2418 0eb8 48000001 		bl _Unwind_Resume
 2419              	.LEHE2:
 2420              	.L179:
 2421 0ebc 4BFFFFFC 		b .L182
 2422              	.LBE871:
 2423              	.LBE870:
 2424              	.LBE869:
 2425              	.LBE868:
 2426              	.LBE876:
 2427              	.LFE563:
 2428              		.size	_ZN10FreeTypeGXC2Ehh, .-_ZN10FreeTypeGXC2Ehh
 2429              		.section	.gcc_except_table,"a",@progbits
 2430              	.LLSDA563:
 2431 0000 FF       		.byte	0xff
 2432 0001 FF       		.byte	0xff
 2433 0002 01       		.byte	0x1
 2434 0003 0F       		.uleb128 .LLSDACSE563-.LLSDACSB563
 2435              	.LLSDACSB563:
 2436 0004 40       		.uleb128 .LEHB0-.LFB563
 2437 0005 14       		.uleb128 .LEHE0-.LEHB0
 2438 0006 78       		.uleb128 .L180-.LFB563
 2439 0007 00       		.uleb128 0x0
 2440 0008 8401     		.uleb128 .LEHB1-.LFB563
 2441 000a 04       		.uleb128 .LEHE1-.LEHB1
 2442 000b 9001     		.uleb128 .L179-.LFB563
 2443 000d 00       		.uleb128 0x0
 2444 000e 8C01     		.uleb128 .LEHB2-.LFB563
 2445 0010 04       		.uleb128 .LEHE2-.LEHB2
 2446 0011 00       		.uleb128 0x0
 2447 0012 00       		.uleb128 0x0
 2448              	.LLSDACSE563:
 2449              		.section	".text"
 2450              		.section	.text._ZNSt8_Rb_treeIwSt4pairIKw13ftgxCharData_ESt10_Select1stIS3_ESt4lessIwESaIS3_EE16_M
 2451              		.align 2
 2452              		.weak	_ZNSt8_Rb_treeIwSt4pairIKw13ftgxCharData_ESt10_Select1stIS3_ESt4lessIwESaIS3_EE16_M_insert_u
 2453              		.type	_ZNSt8_Rb_treeIwSt4pairIKw13ftgxCharData_ESt10_Select1stIS3_ESt4lessIwESaIS3_EE16_M_insert_u
 2454              	_ZNSt8_Rb_treeIwSt4pairIKw13ftgxCharData_ESt10_Select1stIS3_ESt4lessIwESaIS3_EE16_M_insert_uniqueER
 2455              	.LFB692:
 2456              		.loc 2 972 0
 2457              	.LVL213:
 2458 0000 7C0802A6 		mflr 0
 2459              	.LCFI91:
 2460 0004 9421FFE0 		stwu 1,-32(1)
 2461              	.LCFI92:
 2462 0008 9361000C 		stw 27,12(1)
 2463              	.LCFI93:
 2464 000c 7C9B2378 		mr 27,4
 2465 0010 90010024 		stw 0,36(1)
 2466              	.LCFI94:
 2467 0014 93810010 		stw 28,16(1)
 2468              	.LCFI95:
 2469 0018 7C7C1B78 		mr 28,3
 2470              	.LBB927:
 2471              	.LBB940:
 2472              	.LBB942:
 2473              		.loc 2 475 0
 2474 001c 80030008 		lwz 0,8(3)
 2475              	.LBE942:
 2476              	.LBE940:
 2477              	.LBE927:
 2478              		.loc 2 972 0
 2479 0020 93C10018 		stw 30,24(1)
 2480              	.LCFI96:
 2481 0024 3BC00000 		li 30,0
 2482              	.LBB944:
 2483              		.loc 2 977 0
 2484 0028 2F800000 		cmpwi 7,0,0
 2485              	.LBE944:
 2486              		.loc 2 972 0
 2487 002c 93E1001C 		stw 31,28(1)
 2488              	.LCFI97:
 2489 0030 93A10014 		stw 29,20(1)
 2490              	.LCFI98:
 2491              	.LBB945:
 2492              	.LBB938:
 2493              	.LBB939:
 2494              		.loc 2 486 0
 2495 0034 3BE30004 		addi 31,3,4
 2496              	.LBE939:
 2497              	.LBE938:
 2498              		.loc 2 977 0
 2499 0038 419E008C 		beq- 7,.L184
 2500              	.LVL214:
 2501              	.LBB937:
 2502              	.LBB941:
 2503              		.loc 2 475 0
 2504 003c 81640000 		lwz 11,0(4)
 2505 0040 48000010 		b .L200
 2506              	.LVL215:
 2507              	.L203:
 2508              	.LBE941:
 2509              	.LBE937:
 2510              	.LBB935:
 2511              	.LBB936:
 2512              		.loc 2 502 0
 2513 0044 80030008 		lwz 0,8(3)
 2514              	.LVL216:
 2515              	.LBE936:
 2516              	.LBE935:
 2517              		.loc 2 977 0
 2518 0048 2F800000 		cmpwi 7,0,0
 2519 004c 419E002C 		beq- 7,.L202
 2520              	.LVL217:
 2521              	.L200:
 2522              	.LBB934:
 2523              	.LBB943:
 2524              		.loc 2 475 0
 2525 0050 7C030378 		mr 3,0
 2526              	.LVL218:
 2527              	.LBE943:
 2528              	.LBE934:
 2529              		.loc 2 980 0
 2530 0054 80030010 		lwz 0,16(3)
 2531 0058 7F805800 		cmpw 7,0,11
 2532 005c 7D200026 		mfcr 9
 2533 0060 5529F7FE 		rlwinm 9,9,30,1
 2534              		.loc 2 981 0
 2535 0064 2F090000 		cmpwi 6,9,0
 2536 0068 40BAFFDC 		bne- 6,.L203
 2537              	.LBB932:
 2538              	.LBB933:
 2539              		.loc 2 510 0
 2540 006c 8003000C 		lwz 0,12(3)
 2541              	.LVL219:
 2542              	.LBE933:
 2543              	.LBE932:
 2544              		.loc 2 977 0
 2545 0070 2F800000 		cmpwi 7,0,0
 2546 0074 409EFFDC 		bne+ 7,.L200
 2547              	.L202:
 2548              	.LBB929:
 2549              	.LBB930:
 2550              	.LBB931:
 2551              		.loc 2 170 0
 2552 0078 7C7F1B78 		mr 31,3
 2553              	.LBE931:
 2554              	.LBE930:
 2555              	.LBE929:
 2556              		.loc 2 984 0
 2557 007c 409A0048 		bne- 6,.L184
 2558              	.LVL220:
 2559              		.loc 2 989 0
 2560 0080 801F0010 		lwz 0,16(31)
 2561              		.loc 2 984 0
 2562 0084 7C651B78 		mr 5,3
 2563              	.LVL221:
 2564              		.loc 2 989 0
 2565 0088 39200000 		li 9,0
 2566              	.LVL222:
 2567 008c 7F8B0000 		cmpw 7,11,0
 2568 0090 419D006C 		bgt- 7,.L204
 2569              	.LVL223:
 2570              	.L196:
 2571              	.LBE945:
 2572              		.loc 2 991 0
 2573 0094 80010024 		lwz 0,36(1)
 2574              	.LBB946:
 2575              		.loc 2 990 0
 2576 0098 513EC00E 		rlwimi 30,9,24,0,7
 2577              	.LBE946:
 2578              		.loc 2 991 0
 2579 009c 7FE3FB78 		mr 3,31
 2580 00a0 7FC4F378 		mr 4,30
 2581 00a4 8361000C 		lwz 27,12(1)
 2582              	.LVL224:
 2583 00a8 7C0803A6 		mtlr 0
 2584 00ac 83810010 		lwz 28,16(1)
 2585              	.LVL225:
 2586 00b0 83A10014 		lwz 29,20(1)
 2587 00b4 83C10018 		lwz 30,24(1)
 2588 00b8 83E1001C 		lwz 31,28(1)
 2589 00bc 38210020 		addi 1,1,32
 2590 00c0 4E800020 		blr
 2591              	.LVL226:
 2592              	.L184:
 2593              	.LBB947:
 2594              		.loc 2 985 0
 2595 00c4 801C000C 		lwz 0,12(28)
 2596              		.loc 2 986 0
 2597 00c8 7F83E378 		mr 3,28
 2598              	.LVL227:
 2599 00cc 7FE5FB78 		mr 5,31
 2600              		.loc 2 985 0
 2601 00d0 7F9F0000 		cmpw 7,31,0
 2602 00d4 419E002C 		beq- 7,.L201
 2603              	.LVL228:
 2604              	.LBB928:
 2605              		.loc 2 198 0
 2606 00d8 7FE3FB78 		mr 3,31
 2607              	.LVL229:
 2608 00dc 48000001 		bl _ZSt18_Rb_tree_decrementPSt18_Rb_tree_node_base
 2609              	.LVL230:
 2610 00e0 7FE5FB78 		mr 5,31
 2611 00e4 7C7F1B78 		mr 31,3
 2612 00e8 817B0000 		lwz 11,0(27)
 2613              	.LBE928:
 2614              		.loc 2 989 0
 2615 00ec 801F0010 		lwz 0,16(31)
 2616 00f0 39200000 		li 9,0
 2617 00f4 7F8B0000 		cmpw 7,11,0
 2618 00f8 409DFF9C 		ble+ 7,.L196
 2619              	.LVL231:
 2620              	.L204:
 2621              		.loc 2 990 0
 2622 00fc 7F83E378 		mr 3,28
 2623              	.LVL232:
 2624              	.L201:
 2625 0100 7F66DB78 		mr 6,27
 2626 0104 38800000 		li 4,0
 2627 0108 48000001 		bl _ZNSt8_Rb_treeIwSt4pairIKw13ftgxCharData_ESt10_Select1stIS3_ESt4lessIwESaIS3_EE9_M_insertEPSt18
 2628              	.LVL233:
 2629              	.LBE947:
 2630              		.loc 2 991 0
 2631 010c 80010024 		lwz 0,36(1)
 2632              	.LBB948:
 2633              		.loc 2 990 0
 2634 0110 39200001 		li 9,1
 2635 0114 7C7F1B78 		mr 31,3
 2636 0118 513EC00E 		rlwimi 30,9,24,0,7
 2637              	.LBE948:
 2638              		.loc 2 991 0
 2639 011c 7FE3FB78 		mr 3,31
 2640 0120 7FC4F378 		mr 4,30
 2641 0124 8361000C 		lwz 27,12(1)
 2642              	.LVL234:
 2643 0128 83810010 		lwz 28,16(1)
 2644              	.LVL235:
 2645 012c 7C0803A6 		mtlr 0
 2646 0130 83A10014 		lwz 29,20(1)
 2647 0134 83C10018 		lwz 30,24(1)
 2648 0138 83E1001C 		lwz 31,28(1)
 2649 013c 38210020 		addi 1,1,32
 2650 0140 4E800020 		blr
 2651              	.LFE692:
 2652              		.size	_ZNSt8_Rb_treeIwSt4pairIKw13ftgxCharData_ESt10_Select1stIS3_ESt4lessIwESaIS3_EE16_M_insert_u
 2653              		.section	.text._ZNSt8_Rb_treeIwSt4pairIKw13ftgxCharData_ESt10_Select1stIS3_ESt4lessIwESaIS3_EE16_M
 2654              		.align 2
 2655              		.weak	_ZNSt8_Rb_treeIwSt4pairIKw13ftgxCharData_ESt10_Select1stIS3_ESt4lessIwESaIS3_EE16_M_insert_u
 2656              		.type	_ZNSt8_Rb_treeIwSt4pairIKw13ftgxCharData_ESt10_Select1stIS3_ESt4lessIwESaIS3_EE16_M_insert_u
 2657              	_ZNSt8_Rb_treeIwSt4pairIKw13ftgxCharData_ESt10_Select1stIS3_ESt4lessIwESaIS3_EE16_M_insert_uniqueES
 2658              	.LFB675:
 2659              		.loc 2 998 0
 2660              	.LVL236:
 2661 0000 7C0802A6 		mflr 0
 2662              	.LCFI99:
 2663 0004 9421FFE8 		stwu 1,-24(1)
 2664              	.LCFI100:
 2665 0008 93E10014 		stw 31,20(1)
 2666              	.LCFI101:
 2667 000c 9001001C 		stw 0,28(1)
 2668              	.LCFI102:
 2669              	.LBB1028:
 2670              		.loc 2 1001 0
 2671 0010 38030004 		addi 0,3,4
 2672              	.LBE1028:
 2673              		.loc 2 998 0
 2674 0014 93A1000C 		stw 29,12(1)
 2675              	.LCFI103:
 2676 0018 7CBD2B78 		mr 29,5
 2677 001c 83E40000 		lwz 31,0(4)
 2678 0020 93C10010 		stw 30,16(1)
 2679              	.LCFI104:
 2680              		.loc 2 998 0
 2681 0024 7C7E1B78 		mr 30,3
 2682              	.LBB1039:
 2683              		.loc 2 1001 0
 2684 0028 7F80F800 		cmpw 7,0,31
 2685 002c 419E00F4 		beq- 7,.L232
 2686              	.LVL237:
 2687              	.LBB1035:
 2688              	.LBB1036:
 2689              		.file 6 "c:\\programme\\devkitpro\\devkitppc\\bin\\../lib/gcc/powerpc-gekko/4.2.4/../../../../powe
 2690              		.loc 6 227 0
 2691 0030 81250000 		lwz 9,0(5)
 2692 0034 801F0010 		lwz 0,16(31)
 2693              	.LBE1036:
 2694              	.LBE1035:
 2695              		.loc 2 1010 0
 2696 0038 7F890000 		cmpw 7,9,0
 2697 003c 409C0074 		bge- 7,.L212
 2698              	.LVL238:
 2699              	.LBB1032:
 2700              		.loc 2 1015 0
 2701 0040 8003000C 		lwz 0,12(3)
 2702 0044 7F80F800 		cmpw 7,0,31
 2703 0048 419E0128 		beq- 7,.L233
 2704              	.LVL239:
 2705              	.LBB1034:
 2706              		.loc 2 198 0
 2707 004c 7FE3FB78 		mr 3,31
 2708              	.LVL240:
 2709 0050 48000001 		bl _ZSt18_Rb_tree_decrementPSt18_Rb_tree_node_base
 2710              	.LVL241:
 2711              	.LBE1034:
 2712              		.loc 2 1017 0
 2713 0054 813D0000 		lwz 9,0(29)
 2714 0058 80030010 		lwz 0,16(3)
 2715              	.LBB1033:
 2716              		.loc 2 198 0
 2717 005c 7C651B78 		mr 5,3
 2718              	.LBE1033:
 2719              		.loc 2 1017 0
 2720 0060 7F804800 		cmpw 7,0,9
 2721 0064 409C00DC 		bge- 7,.L208
 2722              		.loc 2 1020 0
 2723 0068 8003000C 		lwz 0,12(3)
 2724              		.loc 2 1024 0
 2725 006c 7FE4FB78 		mr 4,31
 2726              		.loc 2 1021 0
 2727 0070 7FC3F378 		mr 3,30
 2728              		.loc 2 1020 0
 2729 0074 2F800000 		cmpwi 7,0,0
 2730 0078 419E0078 		beq- 7,.L231
 2731              	.L229:
 2732              	.LBE1032:
 2733              	.LBB1030:
 2734              		.loc 2 1042 0
 2735 007c 7FC3F378 		mr 3,30
 2736 0080 7FA6EB78 		mr 6,29
 2737 0084 7C852378 		mr 5,4
 2738 0088 48000001 		bl _ZNSt8_Rb_treeIwSt4pairIKw13ftgxCharData_ESt10_Select1stIS3_ESt4lessIwESaIS3_EE9_M_insertEPSt18
 2739 008c 7C7F1B78 		mr 31,3
 2740              	.LVL242:
 2741              	.L211:
 2742              	.LBE1030:
 2743              	.LBE1039:
 2744              		.loc 2 1048 0
 2745 0090 8001001C 		lwz 0,28(1)
 2746 0094 7FE3FB78 		mr 3,31
 2747 0098 83A1000C 		lwz 29,12(1)
 2748              	.LVL243:
 2749 009c 83C10010 		lwz 30,16(1)
 2750              	.LVL244:
 2751 00a0 7C0803A6 		mtlr 0
 2752 00a4 83E10014 		lwz 31,20(1)
 2753 00a8 38210018 		addi 1,1,24
 2754 00ac 4E800020 		blr
 2755              	.LVL245:
 2756              	.L212:
 2757              	.LBB1040:
 2758              		.loc 2 1029 0
 2759 00b0 40BDFFE0 		ble- 7,.L211
 2760              	.LBB1037:
 2761              		.loc 2 1034 0
 2762 00b4 80030010 		lwz 0,16(3)
 2763 00b8 7F9F0000 		cmpw 7,31,0
 2764 00bc 419E0030 		beq- 7,.L230
 2765              	.LVL246:
 2766              	.LBB1031:
 2767              		.loc 2 183 0
 2768 00c0 7FE3FB78 		mr 3,31
 2769              	.LVL247:
 2770 00c4 48000001 		bl _ZSt18_Rb_tree_incrementPSt18_Rb_tree_node_base
 2771              	.LVL248:
 2772              	.LBE1031:
 2773              		.loc 2 1036 0
 2774 00c8 801D0000 		lwz 0,0(29)
 2775 00cc 81230010 		lwz 9,16(3)
 2776 00d0 7F804800 		cmpw 7,0,9
 2777 00d4 409C006C 		bge- 7,.L208
 2778              		.loc 2 1039 0
 2779 00d8 801F000C 		lwz 0,12(31)
 2780              		.loc 2 1042 0
 2781 00dc 7C641B78 		mr 4,3
 2782              		.loc 2 1039 0
 2783 00e0 2F800000 		cmpwi 7,0,0
 2784 00e4 409EFF98 		bne+ 7,.L229
 2785              		.loc 2 1040 0
 2786 00e8 7FC3F378 		mr 3,30
 2787              	.LVL249:
 2788              	.L230:
 2789 00ec 7FE5FB78 		mr 5,31
 2790              	.L231:
 2791 00f0 7FA6EB78 		mr 6,29
 2792 00f4 38800000 		li 4,0
 2793 00f8 48000001 		bl _ZNSt8_Rb_treeIwSt4pairIKw13ftgxCharData_ESt10_Select1stIS3_ESt4lessIwESaIS3_EE9_M_insertEPSt18
 2794              	.LVL250:
 2795              	.LBE1037:
 2796              	.LBE1040:
 2797              		.loc 2 1048 0
 2798 00fc 8001001C 		lwz 0,28(1)
 2799              	.LBB1041:
 2800              	.LBB1029:
 2801              		.loc 2 1040 0
 2802 0100 7C7F1B78 		mr 31,3
 2803              	.LBE1029:
 2804              	.LBE1041:
 2805              		.loc 2 1048 0
 2806 0104 83A1000C 		lwz 29,12(1)
 2807              	.LVL251:
 2808 0108 7FE3FB78 		mr 3,31
 2809 010c 83C10010 		lwz 30,16(1)
 2810              	.LVL252:
 2811 0110 83E10014 		lwz 31,20(1)
 2812 0114 7C0803A6 		mtlr 0
 2813 0118 38210018 		addi 1,1,24
 2814 011c 4E800020 		blr
 2815              	.LVL253:
 2816              	.L232:
 2817              	.LBB1042:
 2818              		.loc 2 1003 0
 2819 0120 80030014 		lwz 0,20(3)
 2820 0124 2F800000 		cmpwi 7,0,0
 2821 0128 419E0018 		beq- 7,.L208
 2822              	.LVL254:
 2823 012c 80A30010 		lwz 5,16(3)
 2824 0130 801D0000 		lwz 0,0(29)
 2825 0134 81250010 		lwz 9,16(5)
 2826 0138 7F890000 		cmpw 7,9,0
 2827 013c 41BCFFB4 		blt- 7,.L231
 2828              	.LVL255:
 2829              	.L208:
 2830              		.loc 2 1008 0
 2831 0140 7FC3F378 		mr 3,30
 2832 0144 7FA4EB78 		mr 4,29
 2833 0148 48000001 		bl _ZNSt8_Rb_treeIwSt4pairIKw13ftgxCharData_ESt10_Select1stIS3_ESt4lessIwESaIS3_EE16_M_insert_uniq
 2834              	.LBE1042:
 2835              		.loc 2 1048 0
 2836 014c 8001001C 		lwz 0,28(1)
 2837              	.LBB1043:
 2838              		.loc 2 1008 0
 2839 0150 7C7F1B78 		mr 31,3
 2840              	.LBE1043:
 2841              		.loc 2 1048 0
 2842 0154 83A1000C 		lwz 29,12(1)
 2843              	.LVL256:
 2844 0158 7FE3FB78 		mr 3,31
 2845 015c 83C10010 		lwz 30,16(1)
 2846              	.LVL257:
 2847 0160 83E10014 		lwz 31,20(1)
 2848 0164 7C0803A6 		mtlr 0
 2849 0168 38210018 		addi 1,1,24
 2850 016c 4E800020 		blr
 2851              	.LVL258:
 2852              	.L233:
 2853              	.LBB1044:
 2854              	.LBB1038:
 2855              		.loc 2 1016 0
 2856 0170 7FE4FB78 		mr 4,31
 2857              	.LVL259:
 2858 0174 7CA62B78 		mr 6,5
 2859 0178 7FE5FB78 		mr 5,31
 2860              	.LVL260:
 2861 017c 48000001 		bl _ZNSt8_Rb_treeIwSt4pairIKw13ftgxCharData_ESt10_Select1stIS3_ESt4lessIwESaIS3_EE9_M_insertEPSt18
 2862              	.LVL261:
 2863 0180 7C7F1B78 		mr 31,3
 2864 0184 4BFFFF0C 		b .L211
 2865              	.LBE1038:
 2866              	.LBE1044:
 2867              	.LFE675:
 2868              		.size	_ZNSt8_Rb_treeIwSt4pairIKw13ftgxCharData_ESt10_Select1stIS3_ESt4lessIwESaIS3_EE16_M_insert_u
 2869              		.section	".text"
 2870              		.align 2
 2871              		.globl _ZN10FreeTypeGXD1Ev
 2872              		.type	_ZN10FreeTypeGXD1Ev, @function
 2873              	_ZN10FreeTypeGXD1Ev:
 2874              	.LFB567:
 2875              		.loc 1 42 0
 2876              	.LVL262:
 2877 0ec0 7C0802A6 		mflr 0
 2878              	.LCFI105:
 2879 0ec4 9421FFF0 		stwu 1,-16(1)
 2880              	.LCFI106:
 2881 0ec8 93E1000C 		stw 31,12(1)
 2882              	.LCFI107:
 2883 0ecc 7C7F1B78 		mr 31,3
 2884 0ed0 93C10008 		stw 30,8(1)
 2885              	.LCFI108:
 2886 0ed4 90010014 		stw 0,20(1)
 2887              	.LCFI109:
 2888              	.LEHB3:
 2889              		.loc 1 43 0
 2890 0ed8 48000001 		bl _ZN10FreeTypeGX10unloadFontEv
 2891              	.LEHE3:
 2892              	.LVL263:
 2893              	.LBB1081:
 2894              	.LBB1082:
 2895              	.LBB1083:
 2896              	.LBB1084:
 2897              		.loc 2 592 0
 2898 0edc 809F0020 		lwz 4,32(31)
 2899 0ee0 387F0018 		addi 3,31,24
 2900              	.LEHB4:
 2901 0ee4 48000001 		bl _ZNSt8_Rb_treeIwSt4pairIKw13ftgxCharData_ESt10_Select1stIS3_ESt4lessIwESaIS3_EE8_M_eraseEPSt13_
 2902              	.LEHE4:
 2903              	.L240:
 2904              	.LBE1084:
 2905              	.LBE1083:
 2906              	.LBE1082:
 2907              	.LBE1081:
 2908              		.loc 1 44 0
 2909 0ee8 80010014 		lwz 0,20(1)
 2910 0eec 83C10008 		lwz 30,8(1)
 2911 0ef0 83E1000C 		lwz 31,12(1)
 2912              	.LVL264:
 2913 0ef4 7C0803A6 		mtlr 0
 2914 0ef8 38210010 		addi 1,1,16
 2915 0efc 4E800020 		blr
 2916              	.LVL265:
 2917              	.L244:
 2918              	.L236:
 2919 0f00 7C7E1B78 		mr 30,3
 2920              	.LBB1085:
 2921              	.LBB1086:
 2922              	.LBB1087:
 2923              	.LBB1088:
 2924              		.loc 2 592 0
 2925 0f04 809F0020 		lwz 4,32(31)
 2926 0f08 387F0018 		addi 3,31,24
 2927              	.LEHB5:
 2928 0f0c 48000001 		bl _ZNSt8_Rb_treeIwSt4pairIKw13ftgxCharData_ESt10_Select1stIS3_ESt4lessIwESaIS3_EE8_M_eraseEPSt13_
 2929              	.LEHE5:
 2930              	.L238:
 2931 0f10 7FC3F378 		mr 3,30
 2932              	.L248:
 2933              	.LEHB6:
 2934 0f14 48000001 		bl _Unwind_Resume
 2935              	.LEHE6:
 2936              	.L242:
 2937 0f18 4BFFFFFC 		b .L248
 2938              	.L243:
 2939 0f1c 4BFFFFF8 		b .L248
 2940              	.LBE1088:
 2941              	.LBE1087:
 2942              	.LBE1086:
 2943              	.LBE1085:
 2944              	.LFE567:
 2945              		.size	_ZN10FreeTypeGXD1Ev, .-_ZN10FreeTypeGXD1Ev
 2946              		.section	.gcc_except_table
 2947              	.LLSDA567:
 2948 0013 FF       		.byte	0xff
 2949 0014 FF       		.byte	0xff
 2950 0015 01       		.byte	0x1
 2951 0016 10       		.uleb128 .LLSDACSE567-.LLSDACSB567
 2952              	.LLSDACSB567:
 2953 0017 18       		.uleb128 .LEHB3-.LFB567
 2954 0018 04       		.uleb128 .LEHE3-.LEHB3
 2955 0019 40       		.uleb128 .L244-.LFB567
 2956 001a 00       		.uleb128 0x0
 2957 001b 24       		.uleb128 .LEHB4-.LFB567
 2958 001c 04       		.uleb128 .LEHE4-.LEHB4
 2959 001d 58       		.uleb128 .L242-.LFB567
 2960 001e 00       		.uleb128 0x0
 2961 001f 4C       		.uleb128 .LEHB5-.LFB567
 2962 0020 04       		.uleb128 .LEHE5-.LEHB5
 2963 0021 5C       		.uleb128 .L243-.LFB567
 2964 0022 00       		.uleb128 0x0
 2965 0023 54       		.uleb128 .LEHB6-.LFB567
 2966 0024 04       		.uleb128 .LEHE6-.LEHB6
 2967 0025 00       		.uleb128 0x0
 2968 0026 00       		.uleb128 0x0
 2969              	.LLSDACSE567:
 2970              		.section	".text"
 2971              		.align 2
 2972              		.globl _ZN10FreeTypeGXD2Ev
 2973              		.type	_ZN10FreeTypeGXD2Ev, @function
 2974              	_ZN10FreeTypeGXD2Ev:
 2975              	.LFB566:
 2976              		.loc 1 42 0
 2977              	.LVL266:
 2978 0f20 7C0802A6 		mflr 0
 2979              	.LCFI110:
 2980 0f24 9421FFF0 		stwu 1,-16(1)
 2981              	.LCFI111:
 2982 0f28 93E1000C 		stw 31,12(1)
 2983              	.LCFI112:
 2984 0f2c 7C7F1B78 		mr 31,3
 2985 0f30 93C10008 		stw 30,8(1)
 2986              	.LCFI113:
 2987 0f34 90010014 		stw 0,20(1)
 2988              	.LCFI114:
 2989              	.LEHB7:
 2990              		.loc 1 43 0
 2991 0f38 48000001 		bl _ZN10FreeTypeGX10unloadFontEv
 2992              	.LEHE7:
 2993              	.LVL267:
 2994              	.LBB1125:
 2995              	.LBB1126:
 2996              	.LBB1127:
 2997              	.LBB1128:
 2998              		.loc 2 592 0
 2999 0f3c 809F0020 		lwz 4,32(31)
 3000 0f40 387F0018 		addi 3,31,24
 3001              	.LEHB8:
 3002 0f44 48000001 		bl _ZNSt8_Rb_treeIwSt4pairIKw13ftgxCharData_ESt10_Select1stIS3_ESt4lessIwESaIS3_EE8_M_eraseEPSt13_
 3003              	.LEHE8:
 3004              	.L255:
 3005              	.LBE1128:
 3006              	.LBE1127:
 3007              	.LBE1126:
 3008              	.LBE1125:
 3009              		.loc 1 44 0
 3010 0f48 80010014 		lwz 0,20(1)
 3011 0f4c 83C10008 		lwz 30,8(1)
 3012 0f50 83E1000C 		lwz 31,12(1)
 3013              	.LVL268:
 3014 0f54 7C0803A6 		mtlr 0
 3015 0f58 38210010 		addi 1,1,16
 3016 0f5c 4E800020 		blr
 3017              	.LVL269:
 3018              	.L259:
 3019              	.L251:
 3020 0f60 7C7E1B78 		mr 30,3
 3021              	.LBB1129:
 3022              	.LBB1130:
 3023              	.LBB1131:
 3024              	.LBB1132:
 3025              		.loc 2 592 0
 3026 0f64 809F0020 		lwz 4,32(31)
 3027 0f68 387F0018 		addi 3,31,24
 3028              	.LEHB9:
 3029 0f6c 48000001 		bl _ZNSt8_Rb_treeIwSt4pairIKw13ftgxCharData_ESt10_Select1stIS3_ESt4lessIwESaIS3_EE8_M_eraseEPSt13_
 3030              	.LEHE9:
 3031              	.L253:
 3032 0f70 7FC3F378 		mr 3,30
 3033              	.L263:
 3034              	.LEHB10:
 3035 0f74 48000001 		bl _Unwind_Resume
 3036              	.LEHE10:
 3037              	.L257:
 3038 0f78 4BFFFFFC 		b .L263
 3039              	.L258:
 3040 0f7c 4BFFFFF8 		b .L263
 3041              	.LBE1132:
 3042              	.LBE1131:
 3043              	.LBE1130:
 3044              	.LBE1129:
 3045              	.LFE566:
 3046              		.size	_ZN10FreeTypeGXD2Ev, .-_ZN10FreeTypeGXD2Ev
 3047              		.section	.gcc_except_table
 3048              	.LLSDA566:
 3049 0027 FF       		.byte	0xff
 3050 0028 FF       		.byte	0xff
 3051 0029 01       		.byte	0x1
 3052 002a 10       		.uleb128 .LLSDACSE566-.LLSDACSB566
 3053              	.LLSDACSB566:
 3054 002b 18       		.uleb128 .LEHB7-.LFB566
 3055 002c 04       		.uleb128 .LEHE7-.LEHB7
 3056 002d 40       		.uleb128 .L259-.LFB566
 3057 002e 00       		.uleb128 0x0
 3058 002f 24       		.uleb128 .LEHB8-.LFB566
 3059 0030 04       		.uleb128 .LEHE8-.LEHB8
 3060 0031 58       		.uleb128 .L257-.LFB566
 3061 0032 00       		.uleb128 0x0
 3062 0033 4C       		.uleb128 .LEHB9-.LFB566
 3063 0034 04       		.uleb128 .LEHE9-.LEHB9
 3064 0035 5C       		.uleb128 .L258-.LFB566
 3065 0036 00       		.uleb128 0x0
 3066 0037 54       		.uleb128 .LEHB10-.LFB566
 3067 0038 04       		.uleb128 .LEHE10-.LEHB10
 3068 0039 00       		.uleb128 0x0
 3069 003a 00       		.uleb128 0x0
 3070              	.LLSDACSE566:
 3071              		.section	".text"
 3072              		.align 2
 3073              		.globl _ZN10FreeTypeGXC1Ehh
 3074              		.type	_ZN10FreeTypeGXC1Ehh, @function
 3075              	_ZN10FreeTypeGXC1Ehh:
 3076              	.LFB564:
 3077              		.loc 1 31 0
 3078              	.LVL270:
 3079 0f80 7C0802A6 		mflr 0
 3080              	.LCFI115:
 3081 0f84 9421FFE8 		stwu 1,-24(1)
 3082              	.LCFI116:
 3083              	.LBB1185:
 3084              	.LBB1186:
 3085              	.LBB1187:
 3086              	.LBB1188:
 3087              	.LBB1189:
 3088              	.LBB1190:
 3089              	.LBB1191:
 3090              	.LBB1192:
 3091              	.LBB1193:
 3092              	.LBB1194:
 3093              		.loc 2 420 0
 3094 0f88 3923001C 		addi 9,3,28
 3095              	.LBE1194:
 3096              	.LBE1193:
 3097              	.LBE1192:
 3098              	.LBE1191:
 3099              	.LBE1190:
 3100              	.LBE1189:
 3101              	.LBE1188:
 3102              	.LBE1187:
 3103              	.LBE1186:
 3104              	.LBE1185:
 3105              		.loc 1 31 0
 3106 0f8c 93A1000C 		stw 29,12(1)
 3107              	.LCFI117:
 3108 0f90 7CBD2B78 		mr 29,5
 3109 0f94 9001001C 		stw 0,28(1)
 3110              	.LCFI118:
 3111              	.LBB1208:
 3112              	.LBB1203:
 3113              	.LBB1202:
 3114              	.LBB1201:
 3115              	.LBB1200:
 3116              	.LBB1199:
 3117              	.LBB1198:
 3118              	.LBB1197:
 3119              	.LBB1196:
 3120              	.LBB1195:
 3121              		.loc 2 416 0
 3122 0f98 38000000 		li 0,0
 3123              		.loc 2 419 0
 3124 0f9c 90030020 		stw 0,32(3)
 3125              		.loc 2 421 0
 3126 0fa0 91230028 		stw 9,40(3)
 3127              		.loc 2 416 0
 3128 0fa4 9003002C 		stw 0,44(3)
 3129              		.loc 2 418 0
 3130 0fa8 9003001C 		stw 0,28(3)
 3131              		.loc 2 420 0
 3132 0fac 91230024 		stw 9,36(3)
 3133              	.LBE1195:
 3134              	.LBE1196:
 3135              	.LBE1197:
 3136              	.LBE1198:
 3137              	.LBE1199:
 3138              	.LBE1200:
 3139              	.LBE1201:
 3140              	.LBE1202:
 3141              	.LBE1203:
 3142              	.LBE1208:
 3143              		.loc 1 31 0
 3144 0fb0 93C10010 		stw 30,16(1)
 3145              	.LCFI119:
 3146 0fb4 7C9E2378 		mr 30,4
 3147 0fb8 93E10014 		stw 31,20(1)
 3148              	.LCFI120:
 3149              		.loc 1 31 0
 3150 0fbc 7C7F1B78 		mr 31,3
 3151              	.LEHB11:
 3152              	.LBB1209:
 3153              		.loc 1 32 0
 3154 0fc0 48000001 		bl FT_Init_FreeType
 3155              	.LVL271:
 3156              		.loc 1 34 0
 3157 0fc4 9BDF0011 		stb 30,17(31)
 3158              		.loc 1 35 0
 3159 0fc8 7FA4EB78 		mr 4,29
 3160 0fcc 7FE3FB78 		mr 3,31
 3161 0fd0 48000001 		bl _ZN10FreeTypeGX15setVertexFormatEh
 3162              	.LEHE11:
 3163              	.LBE1209:
 3164              		.loc 1 37 0
 3165 0fd4 8001001C 		lwz 0,28(1)
 3166              	.LBB1210:
 3167              		.loc 1 36 0
 3168 0fd8 7FE3FB78 		mr 3,31
 3169              	.LBE1210:
 3170              		.loc 1 37 0
 3171 0fdc 83A1000C 		lwz 29,12(1)
 3172              	.LVL272:
 3173              	.LBB1211:
 3174              		.loc 1 36 0
 3175 0fe0 38800000 		li 4,0
 3176              	.LBE1211:
 3177              		.loc 1 37 0
 3178 0fe4 7C0803A6 		mtlr 0
 3179 0fe8 83C10010 		lwz 30,16(1)
 3180              	.LVL273:
 3181 0fec 83E10014 		lwz 31,20(1)
 3182              	.LVL274:
 3183 0ff0 38210018 		addi 1,1,24
 3184              	.LBB1212:
 3185              		.loc 1 36 0
 3186 0ff4 48000000 		b _ZN10FreeTypeGX20setCompatibilityModeEj
 3187              	.LVL275:
 3188              	.L270:
 3189              	.L265:
 3190 0ff8 7C7E1B78 		mr 30,3
 3191              	.LVL276:
 3192              	.LBB1204:
 3193              	.LBB1205:
 3194              	.LBB1206:
 3195              	.LBB1207:
 3196              		.loc 2 592 0
 3197 0ffc 809F0020 		lwz 4,32(31)
 3198 1000 387F0018 		addi 3,31,24
 3199              	.LEHB12:
 3200 1004 48000001 		bl _ZNSt8_Rb_treeIwSt4pairIKw13ftgxCharData_ESt10_Select1stIS3_ESt4lessIwESaIS3_EE8_M_eraseEPSt13_
 3201              	.LEHE12:
 3202              	.L267:
 3203 1008 7FC3F378 		mr 3,30
 3204              	.L272:
 3205              	.LEHB13:
 3206 100c 48000001 		bl _Unwind_Resume
 3207              	.LEHE13:
 3208              	.L269:
 3209 1010 4BFFFFFC 		b .L272
 3210              	.LBE1207:
 3211              	.LBE1206:
 3212              	.LBE1205:
 3213              	.LBE1204:
 3214              	.LBE1212:
 3215              	.LFE564:
 3216              		.size	_ZN10FreeTypeGXC1Ehh, .-_ZN10FreeTypeGXC1Ehh
 3217              		.section	.gcc_except_table
 3218              	.LLSDA564:
 3219 003b FF       		.byte	0xff
 3220 003c FF       		.byte	0xff
 3221 003d 01       		.byte	0x1
 3222 003e 0F       		.uleb128 .LLSDACSE564-.LLSDACSB564
 3223              	.LLSDACSB564:
 3224 003f 40       		.uleb128 .LEHB11-.LFB564
 3225 0040 14       		.uleb128 .LEHE11-.LEHB11
 3226 0041 78       		.uleb128 .L270-.LFB564
 3227 0042 00       		.uleb128 0x0
 3228 0043 8401     		.uleb128 .LEHB12-.LFB564
 3229 0045 04       		.uleb128 .LEHE12-.LEHB12
 3230 0046 9001     		.uleb128 .L269-.LFB564
 3231 0048 00       		.uleb128 0x0
 3232 0049 8C01     		.uleb128 .LEHB13-.LFB564
 3233 004b 04       		.uleb128 .LEHE13-.LEHB13
 3234 004c 00       		.uleb128 0x0
 3235 004d 00       		.uleb128 0x0
 3236              	.LLSDACSE564:
 3237              		.section	".text"
 3238              		.align 2
 3239              		.globl _ZN10FreeTypeGX14cacheGlyphDataEw
 3240              		.type	_ZN10FreeTypeGX14cacheGlyphDataEw, @function
 3241              	_ZN10FreeTypeGX14cacheGlyphDataEw:
 3242              	.LFB579:
 3243              		.loc 1 285 0
 3244              	.LVL277:
 3245 1014 7C0802A6 		mflr 0
 3246              	.LCFI121:
 3247 1018 9421FF18 		stwu 1,-232(1)
 3248              	.LCFI122:
 3249 101c 93E100E4 		stw 31,228(1)
 3250              	.LCFI123:
 3251 1020 7C7F1B78 		mr 31,3
 3252 1024 900100EC 		stw 0,236(1)
 3253              	.LCFI124:
 3254 1028 93A100DC 		stw 29,220(1)
 3255              	.LCFI125:
 3256              	.LBB1302:
 3257              		.loc 1 289 0
 3258 102c 80630004 		lwz 3,4(3)
 3259              	.LVL278:
 3260              	.LBE1302:
 3261              		.loc 1 285 0
 3262 1030 93C100E0 		stw 30,224(1)
 3263              	.LCFI126:
 3264 1034 908100A8 		stw 4,168(1)
 3265 1038 926100B4 		stw 19,180(1)
 3266              	.LCFI127:
 3267 103c 928100B8 		stw 20,184(1)
 3268              	.LCFI128:
 3269 1040 92A100BC 		stw 21,188(1)
 3270              	.LCFI129:
 3271 1044 92C100C0 		stw 22,192(1)
 3272              	.LCFI130:
 3273 1048 92E100C4 		stw 23,196(1)
 3274              	.LCFI131:
 3275 104c 930100C8 		stw 24,200(1)
 3276              	.LCFI132:
 3277 1050 932100CC 		stw 25,204(1)
 3278              	.LCFI133:
 3279 1054 934100D0 		stw 26,208(1)
 3280              	.LCFI134:
 3281 1058 936100D4 		stw 27,212(1)
 3282              	.LCFI135:
 3283 105c 938100D8 		stw 28,216(1)
 3284              	.LCFI136:
 3285              	.LBB1384:
 3286              		.loc 1 289 0
 3287 1060 48000001 		bl FT_Get_Char_Index
 3288              	.LVL279:
 3289 1064 7C7D1B78 		mr 29,3
 3290              	.LVL280:
 3291              		.loc 1 290 0
 3292 1068 807F0004 		lwz 3,4(31)
 3293 106c 7FA4EB78 		mr 4,29
 3294 1070 38A00000 		li 5,0
 3295 1074 48000001 		bl FT_Load_Glyph
 3296 1078 7C7E1B79 		mr. 30,3
 3297 107c 4182004C 		beq- 0,.L291
 3298              	.L274:
 3299              	.LBB1303:
 3300              		.loc 1 311 0
 3301 1080 38600000 		li 3,0
 3302              	.LVL281:
 3303              	.L286:
 3304              	.LBE1303:
 3305              	.LBE1384:
 3306              		.loc 1 316 0
 3307 1084 800100EC 		lwz 0,236(1)
 3308 1088 826100B4 		lwz 19,180(1)
 3309 108c 828100B8 		lwz 20,184(1)
 3310 1090 7C0803A6 		mtlr 0
 3311 1094 82A100BC 		lwz 21,188(1)
 3312 1098 82C100C0 		lwz 22,192(1)
 3313 109c 82E100C4 		lwz 23,196(1)
 3314              	.LVL282:
 3315 10a0 830100C8 		lwz 24,200(1)
 3316 10a4 832100CC 		lwz 25,204(1)
 3317 10a8 834100D0 		lwz 26,208(1)
 3318 10ac 836100D4 		lwz 27,212(1)
 3319 10b0 838100D8 		lwz 28,216(1)
 3320 10b4 83A100DC 		lwz 29,220(1)
 3321              	.LVL283:
 3322 10b8 83C100E0 		lwz 30,224(1)
 3323 10bc 83E100E4 		lwz 31,228(1)
 3324              	.LVL284:
 3325 10c0 382100E8 		addi 1,1,232
 3326 10c4 4E800020 		blr
 3327              	.LVL285:
 3328              	.L291:
 3329              	.LBB1385:
 3330              		.loc 1 291 0
 3331 10c8 807F0008 		lwz 3,8(31)
 3332 10cc 38800000 		li 4,0
 3333 10d0 48000001 		bl FT_Render_Glyph
 3334              		.loc 1 293 0
 3335 10d4 837F0008 		lwz 27,8(31)
 3336 10d8 3C006269 		lis 0,0x6269
 3337 10dc 813B0048 		lwz 9,72(27)
 3338 10e0 60007473 		ori 0,0,29811
 3339 10e4 7F890000 		cmpw 7,9,0
 3340 10e8 409EFF98 		bne+ 7,.L274
 3341              	.LBB1383:
 3342              		.loc 1 296 0
 3343 10ec 8ADF0011 		lbz 22,17(31)
 3344              	.LBB1304:
 3345              	.LBB1307:
 3346              	.LBB1310:
 3347              	.LBB1319:
 3348              	.LBB1320:
 3349              		.file 7 "c:\\programme\\devkitpro\\devkitppc\\bin\\../lib/gcc/powerpc-gekko/4.2.4/../../../../powe
 3350              		.loc 7 584 0
 3351 10f0 3B3F0018 		addi 25,31,24
 3352              	.LBE1320:
 3353              	.LBE1319:
 3354              	.LBE1310:
 3355              	.LBE1307:
 3356              	.LBE1304:
 3357              		.loc 1 297 0
 3358 10f4 A07B004E 		lhz 3,78(27)
 3359              	.LBB1342:
 3360              	.LBB1339:
 3361              	.LBB1336:
 3362              	.LBB1321:
 3363              		.loc 7 584 0
 3364 10f8 3A6100A8 		addi 19,1,168
 3365              	.LBE1321:
 3366              	.LBE1336:
 3367              	.LBE1339:
 3368              	.LBE1342:
 3369              		.loc 1 297 0
 3370 10fc 7EC4B378 		mr 4,22
 3371              	.LBB1343:
 3372              	.LBB1306:
 3373              	.LBB1309:
 3374              	.LBB1312:
 3375              	.LBB1313:
 3376              	.LBB1314:
 3377              	.LBB1315:
 3378              	.LBB1316:
 3379              	.LBB1317:
 3380              	.LBB1318:
 3381              		.loc 2 170 0
 3382 1100 3B1F001C 		addi 24,31,28
 3383              	.LBE1318:
 3384              	.LBE1317:
 3385              	.LBE1316:
 3386              	.LBE1315:
 3387              	.LBE1314:
 3388              	.LBE1313:
 3389              	.LBE1312:
 3390              	.LBE1309:
 3391              	.LBE1306:
 3392              	.LBE1343:
 3393              		.loc 1 297 0
 3394 1104 48000001 		bl _ZN10FreeTypeGX19adjustTextureHeightEth
 3395              	.LBB1344:
 3396              	.LBB1340:
 3397              	.LBB1337:
 3398              	.LBB1322:
 3399              		.loc 7 584 0
 3400 1108 7E649B78 		mr 4,19
 3401              	.LBE1322:
 3402              	.LBE1337:
 3403              	.LBE1340:
 3404              	.LBE1344:
 3405              		.loc 1 297 0
 3406 110c 7C771B78 		mr 23,3
 3407              	.LVL286:
 3408              	.LBB1345:
 3409              	.LBB1305:
 3410              	.LBB1308:
 3411              	.LBB1311:
 3412              		.loc 7 584 0
 3413 1110 7F23CB78 		mr 3,25
 3414              	.LBE1311:
 3415              	.LBE1308:
 3416              	.LBE1305:
 3417              	.LBE1345:
 3418              		.loc 1 296 0
 3419 1114 82BB0050 		lwz 21,80(27)
 3420              		.loc 1 308 0
 3421 1118 829B0040 		lwz 20,64(27)
 3422 111c A35B006A 		lhz 26,106(27)
 3423              	.LBB1346:
 3424              	.LBB1341:
 3425              	.LBB1338:
 3426              	.LBB1323:
 3427              		.loc 7 584 0
 3428 1120 48000001 		bl _ZNSt8_Rb_treeIwSt4pairIKw13ftgxCharData_ESt10_Select1stIS3_ESt4lessIwESaIS3_EE11lower_boundERS
 3429              	.LBE1323:
 3430              		.loc 7 349 0
 3431 1124 7F981800 		cmpw 7,24,3
 3432              	.LBB1324:
 3433              		.loc 7 584 0
 3434 1128 7C6B1B78 		mr 11,3
 3435              	.LBE1324:
 3436              		.loc 7 349 0
 3437 112c 419E01C8 		beq- 7,.L288
 3438 1130 812100A8 		lwz 9,168(1)
 3439              	.LBB1325:
 3440              	.LBB1326:
 3441              		.loc 2 174 0
 3442 1134 7C7C1B78 		mr 28,3
 3443              	.LBE1326:
 3444              	.LBE1325:
 3445              		.loc 7 349 0
 3446 1138 80030010 		lwz 0,16(3)
 3447 113c 7F890000 		cmpw 7,9,0
 3448 1140 409C0048 		bge- 7,.L279
 3449              	.LVL287:
 3450              	.L277:
 3451              	.LBB1327:
 3452              		.loc 7 427 0
 3453 1144 7F23CB78 		mr 3,25
 3454 1148 388100AC 		addi 4,1,172
 3455 114c 38A10058 		addi 5,1,88
 3456              	.LBE1327:
 3457              	.LBB1328:
 3458              	.LBB1329:
 3459              	.LBB1330:
 3460              		.file 8 "c:\\programme\\devkitpro\\devkitppc\\bin\\../lib/gcc/powerpc-gekko/4.2.4/../../../../powe
 3461              		.loc 8 85 0
 3462 1150 91210058 		stw 9,88(1)
 3463 1154 93C1006C 		stw 30,108(1)
 3464              	.LBE1330:
 3465              	.LBE1329:
 3466              	.LBE1328:
 3467              	.LBB1333:
 3468              		.loc 7 427 0
 3469 1158 916100AC 		stw 11,172(1)
 3470              	.LBE1333:
 3471              		.loc 7 350 0
 3472 115c 93C1001C 		stw 30,28(1)
 3473 1160 93C10020 		stw 30,32(1)
 3474 1164 93C10024 		stw 30,36(1)
 3475 1168 93C10028 		stw 30,40(1)
 3476 116c 93C1002C 		stw 30,44(1)
 3477              	.LBB1334:
 3478              	.LBB1332:
 3479              	.LBB1331:
 3480              		.loc 8 85 0
 3481 1170 93C1005C 		stw 30,92(1)
 3482 1174 93C10060 		stw 30,96(1)
 3483 1178 93C10064 		stw 30,100(1)
 3484 117c 93C10068 		stw 30,104(1)
 3485              	.LBE1331:
 3486              	.LBE1332:
 3487              	.LBE1334:
 3488              	.LBB1335:
 3489              		.loc 7 427 0
 3490 1180 48000001 		bl _ZNSt8_Rb_treeIwSt4pairIKw13ftgxCharData_ESt10_Select1stIS3_ESt4lessIwESaIS3_EE16_M_insert_uniq
 3491              	.LVL288:
 3492 1184 7C7C1B78 		mr 28,3
 3493              	.LVL289:
 3494              	.L279:
 3495              	.LBE1335:
 3496              	.LBE1338:
 3497              	.LBE1341:
 3498              	.LBE1346:
 3499              		.loc 1 308 0
 3500 1188 3BC00000 		li 30,0
 3501 118c 7C1AB850 		subf 0,26,23
 3502              		.loc 1 296 0
 3503 1190 7EC4B378 		mr 4,22
 3504 1194 56A3043E 		rlwinm 3,21,0,0xffff
 3505              		.loc 1 308 0
 3506 1198 93C10010 		stw 30,16(1)
 3507 119c 93C1000C 		stw 30,12(1)
 3508 11a0 93C10014 		stw 30,20(1)
 3509 11a4 B3410010 		sth 26,16(1)
 3510 11a8 B0010014 		sth 0,20(1)
 3511 11ac B2E1000E 		sth 23,14(1)
 3512 11b0 93C10008 		stw 30,8(1)
 3513 11b4 93C10018 		stw 30,24(1)
 3514 11b8 B3410012 		sth 26,18(1)
 3515              		.loc 1 296 0
 3516 11bc 48000001 		bl _ZN10FreeTypeGX18adjustTextureWidthEth
 3517              		.loc 1 308 0
 3518 11c0 7E803670 		srawi 0,20,6
 3519              		.loc 1 296 0
 3520 11c4 B061000C 		sth 3,12(1)
 3521              		.loc 1 308 0
 3522 11c8 B3A1000A 		sth 29,10(1)
 3523              	.LVL290:
 3524              	.LBB1347:
 3525              	.LBB1349:
 3526              	.LBB1351:
 3527              	.LBB1353:
 3528              		.loc 7 584 0
 3529 11cc 7F23CB78 		mr 3,25
 3530              	.LBE1353:
 3531              	.LBE1351:
 3532              	.LBE1349:
 3533              	.LBE1347:
 3534              		.loc 1 308 0
 3535 11d0 B0010008 		sth 0,8(1)
 3536              	.LBB1367:
 3537              	.LBB1348:
 3538              	.LBB1350:
 3539              	.LBB1352:
 3540              		.loc 7 584 0
 3541 11d4 7E649B78 		mr 4,19
 3542              	.LBE1352:
 3543              	.LBE1350:
 3544              	.LBE1348:
 3545              	.LBE1367:
 3546              		.loc 1 308 0
 3547 11d8 81610010 		lwz 11,16(1)
 3548 11dc 80010008 		lwz 0,8(1)
 3549 11e0 8121000C 		lwz 9,12(1)
 3550 11e4 81410014 		lwz 10,20(1)
 3551 11e8 917C001C 		stw 11,28(28)
 3552 11ec 901C0014 		stw 0,20(28)
 3553 11f0 913C0018 		stw 9,24(28)
 3554 11f4 915C0020 		stw 10,32(28)
 3555 11f8 80010018 		lwz 0,24(1)
 3556 11fc 901C0024 		stw 0,36(28)
 3557              	.LBB1368:
 3558              	.LBB1366:
 3559              	.LBB1365:
 3560              	.LBB1354:
 3561              		.loc 7 584 0
 3562 1200 48000001 		bl _ZNSt8_Rb_treeIwSt4pairIKw13ftgxCharData_ESt10_Select1stIS3_ESt4lessIwESaIS3_EE11lower_boundERS
 3563              	.LBE1354:
 3564              		.loc 7 349 0
 3565 1204 7F981800 		cmpw 7,24,3
 3566              	.LBB1355:
 3567              		.loc 7 584 0
 3568 1208 7C6B1B78 		mr 11,3
 3569              	.LBE1355:
 3570              		.loc 7 349 0
 3571 120c 419E00E0 		beq- 7,.L289
 3572 1210 812100A8 		lwz 9,168(1)
 3573 1214 80030010 		lwz 0,16(3)
 3574 1218 7F890000 		cmpw 7,9,0
 3575 121c 409C0044 		bge- 7,.L282
 3576              	.LVL291:
 3577              	.L280:
 3578              	.LBB1356:
 3579              		.loc 7 427 0
 3580 1220 7F23CB78 		mr 3,25
 3581 1224 388100AC 		addi 4,1,172
 3582 1228 38A10070 		addi 5,1,112
 3583              	.LBE1356:
 3584              	.LBB1357:
 3585              	.LBB1358:
 3586              	.LBB1359:
 3587              		.loc 8 85 0
 3588 122c 91210070 		stw 9,112(1)
 3589 1230 93C10084 		stw 30,132(1)
 3590              	.LBE1359:
 3591              	.LBE1358:
 3592              	.LBE1357:
 3593              	.LBB1362:
 3594              		.loc 7 427 0
 3595 1234 916100AC 		stw 11,172(1)
 3596              	.LBE1362:
 3597              		.loc 7 350 0
 3598 1238 93C10030 		stw 30,48(1)
 3599 123c 93C10034 		stw 30,52(1)
 3600 1240 93C10038 		stw 30,56(1)
 3601 1244 93C1003C 		stw 30,60(1)
 3602 1248 93C10040 		stw 30,64(1)
 3603              	.LBB1363:
 3604              	.LBB1361:
 3605              	.LBB1360:
 3606              		.loc 8 85 0
 3607 124c 93C10074 		stw 30,116(1)
 3608 1250 93C10078 		stw 30,120(1)
 3609 1254 93C1007C 		stw 30,124(1)
 3610 1258 93C10080 		stw 30,128(1)
 3611              	.LBE1360:
 3612              	.LBE1361:
 3613              	.LBE1363:
 3614              	.LBB1364:
 3615              		.loc 7 427 0
 3616 125c 48000001 		bl _ZNSt8_Rb_treeIwSt4pairIKw13ftgxCharData_ESt10_Select1stIS3_ESt4lessIwESaIS3_EE16_M_insert_uniq
 3617              	.LVL292:
 3618              	.L282:
 3619              	.LBE1364:
 3620              	.LBE1365:
 3621              	.LBE1366:
 3622              	.LBE1368:
 3623              		.loc 1 309 0
 3624 1260 38A30014 		addi 5,3,20
 3625 1264 389B004C 		addi 4,27,76
 3626 1268 7FE3FB78 		mr 3,31
 3627 126c 48000001 		bl _ZN10FreeTypeGX13loadGlyphDataEP10FT_Bitmap_P13ftgxCharData_
 3628              	.LBB1369:
 3629              	.LBB1370:
 3630              	.LBB1371:
 3631              	.LBB1372:
 3632              		.loc 7 584 0
 3633 1270 7F23CB78 		mr 3,25
 3634 1274 7E649B78 		mr 4,19
 3635 1278 48000001 		bl _ZNSt8_Rb_treeIwSt4pairIKw13ftgxCharData_ESt10_Select1stIS3_ESt4lessIwESaIS3_EE11lower_boundERS
 3636              	.LBE1372:
 3637              		.loc 7 349 0
 3638 127c 7F83C000 		cmpw 7,3,24
 3639              	.LBB1373:
 3640              		.loc 7 584 0
 3641 1280 7C6B1B78 		mr 11,3
 3642              	.LBE1373:
 3643              		.loc 7 349 0
 3644 1284 419E0060 		beq- 7,.L290
 3645 1288 812100A8 		lwz 9,168(1)
 3646 128c 80030010 		lwz 0,16(3)
 3647 1290 7F890000 		cmpw 7,9,0
 3648 1294 409C0048 		bge- 7,.L285
 3649              	.LVL293:
 3650              	.L283:
 3651              		.loc 7 350 0
 3652 1298 38000000 		li 0,0
 3653              	.LBB1374:
 3654              		.loc 7 427 0
 3655 129c 7F23CB78 		mr 3,25
 3656 12a0 388100AC 		addi 4,1,172
 3657 12a4 38A10088 		addi 5,1,136
 3658              	.LBE1374:
 3659              	.LBB1375:
 3660              	.LBB1376:
 3661              	.LBB1377:
 3662              		.loc 8 85 0
 3663 12a8 91210088 		stw 9,136(1)
 3664 12ac 9001009C 		stw 0,156(1)
 3665              	.LBE1377:
 3666              	.LBE1376:
 3667              	.LBE1375:
 3668              	.LBB1380:
 3669              		.loc 7 427 0
 3670 12b0 916100AC 		stw 11,172(1)
 3671              	.LBE1380:
 3672              		.loc 7 350 0
 3673 12b4 90010044 		stw 0,68(1)
 3674 12b8 90010048 		stw 0,72(1)
 3675 12bc 9001004C 		stw 0,76(1)
 3676 12c0 90010050 		stw 0,80(1)
 3677 12c4 90010054 		stw 0,84(1)
 3678              	.LBB1381:
 3679              	.LBB1379:
 3680              	.LBB1378:
 3681              		.loc 8 85 0
 3682 12c8 9001008C 		stw 0,140(1)
 3683 12cc 90010090 		stw 0,144(1)
 3684 12d0 90010094 		stw 0,148(1)
 3685 12d4 90010098 		stw 0,152(1)
 3686              	.LBE1378:
 3687              	.LBE1379:
 3688              	.LBE1381:
 3689              	.LBB1382:
 3690              		.loc 7 427 0
 3691 12d8 48000001 		bl _ZNSt8_Rb_treeIwSt4pairIKw13ftgxCharData_ESt10_Select1stIS3_ESt4lessIwESaIS3_EE16_M_insert_uniq
 3692              	.LVL294:
 3693              	.L285:
 3694              	.LBE1382:
 3695              	.LBE1371:
 3696              	.LBE1370:
 3697              	.LBE1369:
 3698              		.loc 1 311 0
 3699 12dc 38630014 		addi 3,3,20
 3700 12e0 4BFFFDA4 		b .L286
 3701              	.LVL295:
 3702              	.L290:
 3703 12e4 812100A8 		lwz 9,168(1)
 3704 12e8 4BFFFFB0 		b .L283
 3705              	.LVL296:
 3706              	.L289:
 3707 12ec 812100A8 		lwz 9,168(1)
 3708 12f0 4BFFFF30 		b .L280
 3709              	.LVL297:
 3710              	.L288:
 3711 12f4 812100A8 		lwz 9,168(1)
 3712 12f8 4BFFFE4C 		b .L277
 3713              	.LBE1383:
 3714              	.LBE1385:
 3715              	.LFE579:
 3716              		.size	_ZN10FreeTypeGX14cacheGlyphDataEw, .-_ZN10FreeTypeGX14cacheGlyphDataEw
 3717              		.align 2
 3718              		.globl _ZN10FreeTypeGX9getOffsetEPw
 3719              		.type	_ZN10FreeTypeGX9getOffsetEPw, @function
 3720              	_ZN10FreeTypeGX9getOffsetEPw:
 3721              	.LFB591:
 3722              		.loc 1 615 0
 3723              	.LVL298:
 3724 12fc 9421FF88 		stwu 1,-120(1)
 3725              	.LCFI137:
 3726 1300 7C0802A6 		mflr 0
 3727              	.LCFI138:
 3728 1304 92E10054 		stw 23,84(1)
 3729              	.LCFI139:
 3730 1308 7C771B78 		mr 23,3
 3731              	.LBB1429:
 3732              		.loc 1 616 0
 3733 130c 7C832378 		mr 3,4
 3734              	.LVL299:
 3735              	.LBE1429:
 3736              		.loc 1 615 0
 3737 1310 92A1004C 		stw 21,76(1)
 3738              	.LCFI140:
 3739 1314 93610064 		stw 27,100(1)
 3740              	.LCFI141:
 3741 1318 7C9B2378 		mr 27,4
 3742 131c 9001007C 		stw 0,124(1)
 3743              	.LCFI142:
 3744 1320 3AA00000 		li 21,0
 3745 1324 92610044 		stw 19,68(1)
 3746              	.LCFI143:
 3747 1328 92810048 		stw 20,72(1)
 3748              	.LCFI144:
 3749 132c 92C10050 		stw 22,80(1)
 3750              	.LCFI145:
 3751 1330 93010058 		stw 24,88(1)
 3752              	.LCFI146:
 3753 1334 9321005C 		stw 25,92(1)
 3754              	.LCFI147:
 3755 1338 93410060 		stw 26,96(1)
 3756              	.LCFI148:
 3757 133c 93810068 		stw 28,104(1)
 3758              	.LCFI149:
 3759 1340 93A1006C 		stw 29,108(1)
 3760              	.LCFI150:
 3761 1344 93C10070 		stw 30,112(1)
 3762              	.LCFI151:
 3763 1348 93E10074 		stw 31,116(1)
 3764              	.LCFI152:
 3765              	.LBB1455:
 3766              		.loc 1 616 0
 3767 134c 48000001 		bl wcslen
 3768              	.LVL300:
 3769              	.LBB1431:
 3770              		.loc 1 619 0
 3771 1350 7063FFFF 		andi. 3,3,0xffff
 3772              	.LVL301:
 3773 1354 39200000 		li 9,0
 3774 1358 38000000 		li 0,0
 3775 135c 41820104 		beq- 0,.L295
 3776 1360 3923FFFF 		addi 9,3,-1
 3777 1364 3B400000 		li 26,0
 3778              	.LVL302:
 3779 1368 5529043E 		rlwinm 9,9,0,0xffff
 3780 136c 3B200000 		li 25,0
 3781              	.LVL303:
 3782 1370 3AC90001 		addi 22,9,1
 3783 1374 3BA00000 		li 29,0
 3784 1378 3B970018 		addi 28,23,24
 3785 137c 3B17001C 		addi 24,23,28
 3786              	.LBB1432:
 3787              	.LBB1436:
 3788              	.LBB1437:
 3789              	.LBB1438:
 3790              	.LBB1439:
 3791              		.loc 7 427 0
 3792 1380 3A810038 		addi 20,1,56
 3793 1384 3A61001C 		addi 19,1,28
 3794              	.LVL304:
 3795              	.L296:
 3796              	.LBE1439:
 3797              	.LBE1438:
 3798              	.LBE1437:
 3799              	.LBE1436:
 3800              		.loc 1 622 0
 3801 1388 57BE13BA 		rlwinm 30,29,2,14,29
 3802              	.LBB1435:
 3803              		.loc 7 542 0
 3804 138c 7F83E378 		mr 3,28
 3805              	.LVL305:
 3806              	.LBE1435:
 3807              		.loc 1 622 0
 3808 1390 7FFEDA14 		add 31,30,27
 3809              	.LBB1434:
 3810              		.loc 7 542 0
 3811 1394 7FE4FB78 		mr 4,31
 3812 1398 48000001 		bl _ZNSt8_Rb_treeIwSt4pairIKw13ftgxCharData_ESt10_Select1stIS3_ESt4lessIwESaIS3_EE4findERS1_
 3813              	.LBE1434:
 3814              		.loc 1 622 0
 3815 139c 7F83C000 		cmpw 7,3,24
 3816 13a0 419E0110 		beq- 7,.L297
 3817              	.LBB1433:
 3818              	.LBB1452:
 3819              	.LBB1451:
 3820              	.LBB1440:
 3821              		.loc 7 584 0
 3822 13a4 7FE4FB78 		mr 4,31
 3823              	.LVL306:
 3824 13a8 7F83E378 		mr 3,28
 3825 13ac 48000001 		bl _ZNSt8_Rb_treeIwSt4pairIKw13ftgxCharData_ESt10_Select1stIS3_ESt4lessIwESaIS3_EE11lower_boundERS
 3826              	.LVL307:
 3827              	.LBE1440:
 3828              		.loc 7 349 0
 3829 13b0 7F83C000 		cmpw 7,3,24
 3830              	.LBB1441:
 3831              		.loc 7 584 0
 3832 13b4 7C6B1B78 		mr 11,3
 3833              	.LBE1441:
 3834              		.loc 7 349 0
 3835 13b8 419E0108 		beq- 7,.L309
 3836 13bc 7D3ED82E 		lwzx 9,30,27
 3837 13c0 80030010 		lwz 0,16(3)
 3838 13c4 7F890000 		cmpw 7,9,0
 3839 13c8 409C0048 		bge- 7,.L301
 3840              	.L299:
 3841              		.loc 7 350 0
 3842 13cc 38000000 		li 0,0
 3843              	.LBB1442:
 3844              		.loc 7 427 0
 3845 13d0 7F83E378 		mr 3,28
 3846 13d4 7E84A378 		mr 4,20
 3847 13d8 7E659B78 		mr 5,19
 3848              	.LBE1442:
 3849              	.LBB1443:
 3850              	.LBB1444:
 3851              	.LBB1445:
 3852              		.loc 8 85 0
 3853 13dc 9121001C 		stw 9,28(1)
 3854 13e0 90010030 		stw 0,48(1)
 3855              	.LBE1445:
 3856              	.LBE1444:
 3857              	.LBE1443:
 3858              	.LBB1448:
 3859              		.loc 7 427 0
 3860 13e4 91610038 		stw 11,56(1)
 3861              	.LBE1448:
 3862              		.loc 7 350 0
 3863 13e8 90010008 		stw 0,8(1)
 3864 13ec 9001000C 		stw 0,12(1)
 3865 13f0 90010010 		stw 0,16(1)
 3866 13f4 90010014 		stw 0,20(1)
 3867 13f8 90010018 		stw 0,24(1)
 3868              	.LBB1449:
 3869              	.LBB1447:
 3870              	.LBB1446:
 3871              		.loc 8 85 0
 3872 13fc 90010020 		stw 0,32(1)
 3873 1400 90010024 		stw 0,36(1)
 3874 1404 90010028 		stw 0,40(1)
 3875 1408 9001002C 		stw 0,44(1)
 3876              	.LBE1446:
 3877              	.LBE1447:
 3878              	.LBE1449:
 3879              	.LBB1450:
 3880              		.loc 7 427 0
 3881 140c 48000001 		bl _ZNSt8_Rb_treeIwSt4pairIKw13ftgxCharData_ESt10_Select1stIS3_ESt4lessIwESaIS3_EE16_M_insert_uniq
 3882              	.L301:
 3883              	.LBE1450:
 3884              	.LBE1451:
 3885              	.LBE1452:
 3886              	.LBE1433:
 3887              		.loc 1 623 0
 3888 1410 38630014 		addi 3,3,20
 3889              	.LVL308:
 3890              	.L302:
 3891              		.loc 1 629 0
 3892 1414 2F830000 		cmpwi 7,3,0
 3893 1418 419E0034 		beq- 7,.L303
 3894 141c A003000A 		lhz 0,10(3)
 3895 1420 7F49D378 		mr 9,26
 3896 1424 7F9A0040 		cmplw 7,26,0
 3897 1428 409C0008 		bge- 7,.L305
 3898 142c 7C090378 		mr 9,0
 3899              	.LVL309:
 3900              	.L305:
 3901 1430 A063000C 		lhz 3,12(3)
 3902              	.LVL310:
 3903 1434 7F20CB78 		mr 0,25
 3904 1438 7D3A4B78 		mr 26,9
 3905 143c 7F991840 		cmplw 7,25,3
 3906 1440 409C0008 		bge- 7,.L306
 3907              	.LVL311:
 3908 1444 7C601B78 		mr 0,3
 3909              	.LVL312:
 3910              	.L306:
 3911 1448 7C190378 		mr 25,0
 3912              	.LVL313:
 3913              	.L303:
 3914 144c 3BBD0001 		addi 29,29,1
 3915              	.LBE1432:
 3916              		.loc 1 619 0
 3917 1450 7F9DB000 		cmpw 7,29,22
 3918 1454 409EFF34 		bne+ 7,.L296
 3919 1458 7F490734 		extsh 9,26
 3920 145c 7F200734 		extsh 0,25
 3921              	.LVL314:
 3922              	.L295:
 3923              		.loc 1 635 0
 3924 1460 5015043E 		rlwimi 21,0,0,16,31
 3925              	.LBE1431:
 3926              	.LBE1455:
 3927              		.loc 1 636 0
 3928 1464 8001007C 		lwz 0,124(1)
 3929              	.LBB1456:
 3930              	.LBB1430:
 3931              		.loc 1 635 0
 3932 1468 5135801E 		rlwimi 21,9,16,0,15
 3933              	.LBE1430:
 3934              	.LBE1456:
 3935              		.loc 1 636 0
 3936 146c 82610044 		lwz 19,68(1)
 3937 1470 7EA3AB78 		mr 3,21
 3938              	.LVL315:
 3939 1474 82810048 		lwz 20,72(1)
 3940 1478 82A1004C 		lwz 21,76(1)
 3941 147c 7C0803A6 		mtlr 0
 3942 1480 82C10050 		lwz 22,80(1)
 3943 1484 82E10054 		lwz 23,84(1)
 3944              	.LVL316:
 3945 1488 83010058 		lwz 24,88(1)
 3946 148c 8321005C 		lwz 25,92(1)
 3947              	.LVL317:
 3948 1490 83410060 		lwz 26,96(1)
 3949              	.LVL318:
 3950 1494 83610064 		lwz 27,100(1)
 3951              	.LVL319:
 3952 1498 83810068 		lwz 28,104(1)
 3953 149c 83A1006C 		lwz 29,108(1)
 3954 14a0 83C10070 		lwz 30,112(1)
 3955 14a4 83E10074 		lwz 31,116(1)
 3956 14a8 38210078 		addi 1,1,120
 3957 14ac 4E800020 		blr
 3958              	.LVL320:
 3959              	.L297:
 3960              	.LBB1457:
 3961              	.LBB1454:
 3962              	.LBB1453:
 3963              		.loc 1 626 0
 3964 14b0 7C9ED82E 		lwzx 4,30,27
 3965 14b4 7EE3BB78 		mr 3,23
 3966 14b8 48000001 		bl _ZN10FreeTypeGX14cacheGlyphDataEw
 3967 14bc 4BFFFF58 		b .L302
 3968              	.L309:
 3969 14c0 7D3ED82E 		lwzx 9,30,27
 3970 14c4 4BFFFF08 		b .L299
 3971              	.LBE1453:
 3972              	.LBE1454:
 3973              	.LBE1457:
 3974              	.LFE591:
 3975              		.size	_ZN10FreeTypeGX9getOffsetEPw, .-_ZN10FreeTypeGX9getOffsetEPw
 3976              		.align 2
 3977              		.globl _ZN10FreeTypeGX9getHeightEPw
 3978              		.type	_ZN10FreeTypeGX9getHeightEPw, @function
 3979              	_ZN10FreeTypeGX9getHeightEPw:
 3980              	.LFB589:
 3981              		.loc 1 592 0
 3982              	.LVL321:
 3983 14c8 7C0802A6 		mflr 0
 3984              	.LCFI153:
 3985 14cc 9421FFF8 		stwu 1,-8(1)
 3986              	.LCFI154:
 3987 14d0 9001000C 		stw 0,12(1)
 3988              	.LCFI155:
 3989              	.LBB1458:
 3990              		.loc 1 593 0
 3991 14d4 48000001 		bl _ZN10FreeTypeGX9getOffsetEPw
 3992              	.LVL322:
 3993 14d8 7C608670 		srawi 0,3,16
 3994 14dc 7C001A14 		add 0,0,3
 3995              	.LBE1458:
 3996              		.loc 1 596 0
 3997 14e0 5403043E 		rlwinm 3,0,0,0xffff
 3998 14e4 8001000C 		lwz 0,12(1)
 3999 14e8 38210008 		addi 1,1,8
 4000 14ec 7C0803A6 		mtlr 0
 4001 14f0 4E800020 		blr
 4002              	.LFE589:
 4003              		.size	_ZN10FreeTypeGX9getHeightEPw, .-_ZN10FreeTypeGX9getHeightEPw
 4004              		.align 2
 4005              		.globl _ZN10FreeTypeGX9getHeightEPKw
 4006              		.type	_ZN10FreeTypeGX9getHeightEPKw, @function
 4007              	_ZN10FreeTypeGX9getHeightEPKw:
 4008              	.LFB590:
 4009              		.loc 1 602 0
 4010              	.LVL323:
 4011 14f4 7C0802A6 		mflr 0
 4012              	.LCFI156:
 4013 14f8 9421FFF8 		stwu 1,-8(1)
 4014              	.LCFI157:
 4015 14fc 9001000C 		stw 0,12(1)
 4016              	.LCFI158:
 4017              		.loc 1 603 0
 4018 1500 48000001 		bl _ZN10FreeTypeGX9getHeightEPw
 4019              	.LVL324:
 4020              		.loc 1 604 0
 4021 1504 8001000C 		lwz 0,12(1)
 4022 1508 38210008 		addi 1,1,8
 4023 150c 7C0803A6 		mtlr 0
 4024 1510 4E800020 		blr
 4025              	.LFE590:
 4026              		.size	_ZN10FreeTypeGX9getHeightEPKw, .-_ZN10FreeTypeGX9getHeightEPKw
 4027              		.align 2
 4028              		.globl _ZN10FreeTypeGX8getWidthEPw
 4029              		.type	_ZN10FreeTypeGX8getWidthEPw, @function
 4030              	_ZN10FreeTypeGX8getWidthEPw:
 4031              	.LFB587:
 4032              		.loc 1 547 0
 4033              	.LVL325:
 4034 1514 9421FF50 		stwu 1,-176(1)
 4035              	.LCFI159:
 4036 1518 7C0802A6 		mflr 0
 4037              	.LCFI160:
 4038 151c 93010090 		stw 24,144(1)
 4039              	.LCFI161:
 4040 1520 7C781B78 		mr 24,3
 4041              	.LBB1531:
 4042              		.loc 1 548 0
 4043 1524 7C832378 		mr 3,4
 4044              	.LVL326:
 4045              	.LBE1531:
 4046              		.loc 1 547 0
 4047 1528 9361009C 		stw 27,156(1)
 4048              	.LCFI162:
 4049 152c 900100B4 		stw 0,180(1)
 4050              	.LCFI163:
 4051 1530 7C9B2378 		mr 27,4
 4052 1534 92210074 		stw 17,116(1)
 4053              	.LCFI164:
 4054 1538 92410078 		stw 18,120(1)
 4055              	.LCFI165:
 4056 153c 9261007C 		stw 19,124(1)
 4057              	.LCFI166:
 4058 1540 92810080 		stw 20,128(1)
 4059              	.LCFI167:
 4060 1544 92A10084 		stw 21,132(1)
 4061              	.LCFI168:
 4062 1548 92C10088 		stw 22,136(1)
 4063              	.LCFI169:
 4064 154c 92E1008C 		stw 23,140(1)
 4065              	.LCFI170:
 4066 1550 93210094 		stw 25,148(1)
 4067              	.LCFI171:
 4068 1554 93410098 		stw 26,152(1)
 4069              	.LCFI172:
 4070 1558 938100A0 		stw 28,160(1)
 4071              	.LCFI173:
 4072 155c 93A100A4 		stw 29,164(1)
 4073              	.LCFI174:
 4074 1560 93C100A8 		stw 30,168(1)
 4075              	.LCFI175:
 4076 1564 93E100AC 		stw 31,172(1)
 4077              	.LCFI176:
 4078              	.LBB1579:
 4079              		.loc 1 548 0
 4080 1568 48000001 		bl wcslen
 4081              	.LVL327:
 4082              	.LBB1532:
 4083              		.loc 1 552 0
 4084 156c 7063FFFF 		andi. 3,3,0xffff
 4085              	.LVL328:
 4086 1570 38000000 		li 0,0
 4087 1574 418200FC 		beq- 0,.L319
 4088 1578 3923FFFF 		addi 9,3,-1
 4089 157c 3AE00000 		li 23,0
 4090              	.LVL329:
 4091 1580 5529043E 		rlwinm 9,9,0,0xffff
 4092 1584 3B400000 		li 26,0
 4093 1588 3AC90001 		addi 22,9,1
 4094 158c 3B980018 		addi 28,24,24
 4095 1590 3B38001C 		addi 25,24,28
 4096              	.LBB1534:
 4097              	.LBB1538:
 4098              	.LBB1539:
 4099              	.LBB1540:
 4100              	.LBB1541:
 4101              		.loc 7 427 0
 4102 1594 3A810068 		addi 20,1,104
 4103 1598 3A610038 		addi 19,1,56
 4104              	.LBE1541:
 4105              	.LBE1540:
 4106              	.LBE1539:
 4107              	.LBE1538:
 4108              		.loc 1 564 0
 4109 159c 3ABBFFFC 		addi 21,27,-4
 4110 15a0 3A410008 		addi 18,1,8
 4111              	.LBB1555:
 4112              	.LBB1557:
 4113              	.LBB1559:
 4114              	.LBB1561:
 4115              		.loc 7 427 0
 4116 15a4 3A210050 		addi 17,1,80
 4117              	.LVL330:
 4118              	.L320:
 4119              	.LBE1561:
 4120              	.LBE1559:
 4121              	.LBE1557:
 4122              	.LBE1555:
 4123              	.LBE1534:
 4124              		.loc 1 552 0
 4125 15a8 575D043E 		rlwinm 29,26,0,0xffff
 4126              	.LBB1533:
 4127              	.LBB1537:
 4128              		.loc 7 542 0
 4129 15ac 7F83E378 		mr 3,28
 4130              	.LVL331:
 4131              	.LBE1537:
 4132              		.loc 1 555 0
 4133 15b0 57BE103A 		slwi 30,29,2
 4134 15b4 7FFEDA14 		add 31,30,27
 4135              	.LVL332:
 4136              	.LBB1536:
 4137              		.loc 7 542 0
 4138 15b8 7FE4FB78 		mr 4,31
 4139 15bc 48000001 		bl _ZNSt8_Rb_treeIwSt4pairIKw13ftgxCharData_ESt10_Select1stIS3_ESt4lessIwESaIS3_EE4findERS1_
 4140              	.LBE1536:
 4141              		.loc 1 555 0
 4142 15c0 7F83C800 		cmpw 7,3,25
 4143 15c4 419E00FC 		beq- 7,.L321
 4144              	.LBB1535:
 4145              	.LBB1554:
 4146              	.LBB1553:
 4147              	.LBB1542:
 4148              		.loc 7 584 0
 4149 15c8 7FE4FB78 		mr 4,31
 4150              	.LVL333:
 4151 15cc 7F83E378 		mr 3,28
 4152 15d0 48000001 		bl _ZNSt8_Rb_treeIwSt4pairIKw13ftgxCharData_ESt10_Select1stIS3_ESt4lessIwESaIS3_EE11lower_boundERS
 4153              	.LVL334:
 4154              	.LBE1542:
 4155              		.loc 7 349 0
 4156 15d4 7F83C800 		cmpw 7,3,25
 4157              	.LBB1543:
 4158              		.loc 7 584 0
 4159 15d8 7C6B1B78 		mr 11,3
 4160              	.LBE1543:
 4161              		.loc 7 349 0
 4162 15dc 419E00F8 		beq- 7,.L337
 4163 15e0 7D3ED82E 		lwzx 9,30,27
 4164 15e4 80030010 		lwz 0,16(3)
 4165 15e8 7F890000 		cmpw 7,9,0
 4166 15ec 409C0048 		bge- 7,.L325
 4167              	.L323:
 4168              		.loc 7 350 0
 4169 15f0 38000000 		li 0,0
 4170              	.LBB1544:
 4171              		.loc 7 427 0
 4172 15f4 7F83E378 		mr 3,28
 4173 15f8 7E84A378 		mr 4,20
 4174 15fc 7E659B78 		mr 5,19
 4175              	.LBE1544:
 4176              	.LBB1545:
 4177              	.LBB1546:
 4178              	.LBB1547:
 4179              		.loc 8 85 0
 4180 1600 91210038 		stw 9,56(1)
 4181 1604 9001004C 		stw 0,76(1)
 4182              	.LBE1547:
 4183              	.LBE1546:
 4184              	.LBE1545:
 4185              	.LBB1550:
 4186              		.loc 7 427 0
 4187 1608 91610068 		stw 11,104(1)
 4188              	.LBE1550:
 4189              		.loc 7 350 0
 4190 160c 90010010 		stw 0,16(1)
 4191 1610 90010014 		stw 0,20(1)
 4192 1614 90010018 		stw 0,24(1)
 4193 1618 9001001C 		stw 0,28(1)
 4194 161c 90010020 		stw 0,32(1)
 4195              	.LBB1551:
 4196              	.LBB1549:
 4197              	.LBB1548:
 4198              		.loc 8 85 0
 4199 1620 9001003C 		stw 0,60(1)
 4200 1624 90010040 		stw 0,64(1)
 4201 1628 90010044 		stw 0,68(1)
 4202 162c 90010048 		stw 0,72(1)
 4203              	.LBE1548:
 4204              	.LBE1549:
 4205              	.LBE1551:
 4206              	.LBB1552:
 4207              		.loc 7 427 0
 4208 1630 48000001 		bl _ZNSt8_Rb_treeIwSt4pairIKw13ftgxCharData_ESt10_Select1stIS3_ESt4lessIwESaIS3_EE16_M_insert_uniq
 4209              	.L325:
 4210              	.LBE1552:
 4211              	.LBE1553:
 4212              	.LBE1554:
 4213              	.LBE1535:
 4214              		.loc 1 556 0
 4215 1634 3BE30014 		addi 31,3,20
 4216              	.LVL335:
 4217              	.L326:
 4218              		.loc 1 562 0
 4219 1638 2F9F0000 		cmpwi 7,31,0
 4220 163c 419E0024 		beq- 7,.L327
 4221              		.loc 1 563 0
 4222 1640 88180010 		lbz 0,16(24)
 4223 1644 2F800000 		cmpwi 7,0,0
 4224 1648 419E000C 		beq- 7,.L329
 4225 164c 2F9D0000 		cmpwi 7,29,0
 4226 1650 409E008C 		bne- 7,.L341
 4227              	.L329:
 4228              		.loc 1 568 0
 4229 1654 A01F0000 		lhz 0,0(31)
 4230 1658 7C170214 		add 0,23,0
 4231 165c 5417043E 		rlwinm 23,0,0,0xffff
 4232              	.L327:
 4233 1660 3B5A0001 		addi 26,26,1
 4234              	.LBE1533:
 4235              		.loc 1 552 0
 4236 1664 7F9AB000 		cmpw 7,26,22
 4237 1668 409EFF40 		bne+ 7,.L320
 4238 166c 7EE0BB78 		mr 0,23
 4239              	.LVL336:
 4240              	.L319:
 4241              	.LBE1532:
 4242              	.LBE1579:
 4243              		.loc 1 573 0
 4244 1670 7C030378 		mr 3,0
 4245              	.LVL337:
 4246 1674 800100B4 		lwz 0,180(1)
 4247 1678 82210074 		lwz 17,116(1)
 4248 167c 82410078 		lwz 18,120(1)
 4249 1680 7C0803A6 		mtlr 0
 4250 1684 8261007C 		lwz 19,124(1)
 4251 1688 82810080 		lwz 20,128(1)
 4252 168c 82A10084 		lwz 21,132(1)
 4253 1690 82C10088 		lwz 22,136(1)
 4254 1694 82E1008C 		lwz 23,140(1)
 4255              	.LVL338:
 4256 1698 83010090 		lwz 24,144(1)
 4257              	.LVL339:
 4258 169c 83210094 		lwz 25,148(1)
 4259 16a0 83410098 		lwz 26,152(1)
 4260 16a4 8361009C 		lwz 27,156(1)
 4261              	.LVL340:
 4262 16a8 838100A0 		lwz 28,160(1)
 4263 16ac 83A100A4 		lwz 29,164(1)
 4264              	.LVL341:
 4265 16b0 83C100A8 		lwz 30,168(1)
 4266 16b4 83E100AC 		lwz 31,172(1)
 4267              	.LVL342:
 4268 16b8 382100B0 		addi 1,1,176
 4269 16bc 4E800020 		blr
 4270              	.LVL343:
 4271              	.L321:
 4272              	.LBB1580:
 4273              	.LBB1578:
 4274              	.LBB1577:
 4275              		.loc 1 559 0
 4276 16c0 7C9ED82E 		lwzx 4,30,27
 4277 16c4 7F03C378 		mr 3,24
 4278 16c8 48000001 		bl _ZN10FreeTypeGX14cacheGlyphDataEw
 4279 16cc 7C7F1B78 		mr 31,3
 4280              	.LVL344:
 4281 16d0 4BFFFF68 		b .L326
 4282              	.LVL345:
 4283              	.L337:
 4284 16d4 7D3ED82E 		lwzx 9,30,27
 4285 16d8 4BFFFF18 		b .L323
 4286              	.LVL346:
 4287              	.L341:
 4288              	.LBB1575:
 4289              	.LBB1556:
 4290              	.LBB1558:
 4291              	.LBB1560:
 4292              		.loc 7 584 0
 4293 16dc 7F83E378 		mr 3,28
 4294 16e0 7C9EAA14 		add 4,30,21
 4295              	.LVL347:
 4296              	.LBE1560:
 4297              	.LBE1558:
 4298              	.LBE1556:
 4299              	.LBE1575:
 4300              		.loc 1 564 0
 4301 16e4 83B80004 		lwz 29,4(24)
 4302              	.LVL348:
 4303              	.LBB1576:
 4304              	.LBB1574:
 4305              	.LBB1573:
 4306              	.LBB1562:
 4307              		.loc 7 584 0
 4308 16e8 48000001 		bl _ZNSt8_Rb_treeIwSt4pairIKw13ftgxCharData_ESt10_Select1stIS3_ESt4lessIwESaIS3_EE11lower_boundERS
 4309              	.LVL349:
 4310              	.LBE1562:
 4311              		.loc 7 349 0
 4312 16ec 7F83C800 		cmpw 7,3,25
 4313              	.LBB1563:
 4314              		.loc 7 584 0
 4315 16f0 7C6B1B78 		mr 11,3
 4316              	.LBE1563:
 4317              		.loc 7 349 0
 4318 16f4 419E0084 		beq- 7,.L338
 4319 16f8 7D3EA82E 		lwzx 9,30,21
 4320 16fc 80030010 		lwz 0,16(3)
 4321 1700 7F890000 		cmpw 7,9,0
 4322 1704 409C0048 		bge- 7,.L334
 4323              	.L332:
 4324              		.loc 7 350 0
 4325 1708 38000000 		li 0,0
 4326              	.LBB1564:
 4327              		.loc 7 427 0
 4328 170c 7F83E378 		mr 3,28
 4329 1710 7E84A378 		mr 4,20
 4330 1714 7E258B78 		mr 5,17
 4331              	.LBE1564:
 4332              	.LBB1565:
 4333              	.LBB1566:
 4334              	.LBB1567:
 4335              		.loc 8 85 0
 4336 1718 91210050 		stw 9,80(1)
 4337 171c 90010064 		stw 0,100(1)
 4338              	.LBE1567:
 4339              	.LBE1566:
 4340              	.LBE1565:
 4341              	.LBB1570:
 4342              		.loc 7 427 0
 4343 1720 91610068 		stw 11,104(1)
 4344              	.LBE1570:
 4345              		.loc 7 350 0
 4346 1724 90010024 		stw 0,36(1)
 4347 1728 90010028 		stw 0,40(1)
 4348 172c 9001002C 		stw 0,44(1)
 4349 1730 90010030 		stw 0,48(1)
 4350 1734 90010034 		stw 0,52(1)
 4351              	.LBB1571:
 4352              	.LBB1569:
 4353              	.LBB1568:
 4354              		.loc 8 85 0
 4355 1738 90010054 		stw 0,84(1)
 4356 173c 90010058 		stw 0,88(1)
 4357 1740 9001005C 		stw 0,92(1)
 4358 1744 90010060 		stw 0,96(1)
 4359              	.LBE1568:
 4360              	.LBE1569:
 4361              	.LBE1571:
 4362              	.LBB1572:
 4363              		.loc 7 427 0
 4364 1748 48000001 		bl _ZNSt8_Rb_treeIwSt4pairIKw13ftgxCharData_ESt10_Select1stIS3_ESt4lessIwESaIS3_EE16_M_insert_uniq
 4365              	.L334:
 4366              	.LBE1572:
 4367              	.LBE1573:
 4368              	.LBE1574:
 4369              	.LBE1576:
 4370              		.loc 1 564 0
 4371 174c A0830016 		lhz 4,22(3)
 4372 1750 38C00000 		li 6,0
 4373 1754 A0BF0002 		lhz 5,2(31)
 4374 1758 7FA3EB78 		mr 3,29
 4375 175c 7E479378 		mr 7,18
 4376 1760 48000001 		bl FT_Get_Kerning
 4377              		.loc 1 565 0
 4378 1764 80010008 		lwz 0,8(1)
 4379 1768 7C003670 		srawi 0,0,6
 4380 176c 7C170214 		add 0,23,0
 4381 1770 5417043E 		rlwinm 23,0,0,0xffff
 4382 1774 4BFFFEE0 		b .L329
 4383              	.L338:
 4384 1778 7D3EA82E 		lwzx 9,30,21
 4385 177c 4BFFFF8C 		b .L332
 4386              	.LBE1577:
 4387              	.LBE1578:
 4388              	.LBE1580:
 4389              	.LFE587:
 4390              		.size	_ZN10FreeTypeGX8getWidthEPw, .-_ZN10FreeTypeGX8getWidthEPw
 4391              		.align 2
 4392              		.globl _ZN10FreeTypeGX8getWidthEPKw
 4393              		.type	_ZN10FreeTypeGX8getWidthEPKw, @function
 4394              	_ZN10FreeTypeGX8getWidthEPKw:
 4395              	.LFB588:
 4396              		.loc 1 579 0
 4397              	.LVL350:
 4398 1780 7C0802A6 		mflr 0
 4399              	.LCFI177:
 4400 1784 9421FFF8 		stwu 1,-8(1)
 4401              	.LCFI178:
 4402 1788 9001000C 		stw 0,12(1)
 4403              	.LCFI179:
 4404              		.loc 1 580 0
 4405 178c 48000001 		bl _ZN10FreeTypeGX8getWidthEPw
 4406              	.LVL351:
 4407              		.loc 1 581 0
 4408 1790 8001000C 		lwz 0,12(1)
 4409 1794 38210008 		addi 1,1,8
 4410 1798 7C0803A6 		mtlr 0
 4411 179c 4E800020 		blr
 4412              	.LFE588:
 4413              		.size	_ZN10FreeTypeGX8getWidthEPKw, .-_ZN10FreeTypeGX8getWidthEPKw
 4414              		.align 2
 4415              		.globl _ZN10FreeTypeGX8drawTextEssPw9_gx_colort
 4416              		.type	_ZN10FreeTypeGX8drawTextEssPw9_gx_colort, @function
 4417              	_ZN10FreeTypeGX8drawTextEssPw9_gx_colort:
 4418              	.LFB584:
 4419              		.loc 1 447 0
 4420              	.LVL352:
 4421 17a0 7C0802A6 		mflr 0
 4422              	.LCFI180:
 4423 17a4 9421FF08 		stwu 1,-248(1)
 4424              	.LCFI181:
 4425 17a8 922100B4 		stw 17,180(1)
 4426              	.LCFI182:
 4427 17ac 7CB12B78 		mr 17,5
 4428 17b0 924100B8 		stw 18,184(1)
 4429              	.LCFI183:
 4430 17b4 7D124378 		mr 18,8
 4431 17b8 926100BC 		stw 19,188(1)
 4432              	.LCFI184:
 4433              	.LBB1653:
 4434              		.loc 1 454 0
 4435 17bc 3A600000 		li 19,0
 4436              	.LVL353:
 4437              	.LBE1653:
 4438              		.loc 1 447 0
 4439 17c0 936100DC 		stw 27,220(1)
 4440              	.LCFI185:
 4441 17c4 7CDB3378 		mr 27,6
 4442 17c8 93A100E4 		stw 29,228(1)
 4443              	.LCFI186:
 4444 17cc 7C9D2378 		mr 29,4
 4445 17d0 93C100E8 		stw 30,232(1)
 4446              	.LCFI187:
 4447 17d4 7C7E1B78 		mr 30,3
 4448 17d8 93E100EC 		stw 31,236(1)
 4449              	.LCFI188:
 4450              	.LBB1695:
 4451              		.loc 1 448 0
 4452 17dc 7CC33378 		mr 3,6
 4453              	.LVL354:
 4454              	.LBE1695:
 4455              		.loc 1 447 0
 4456 17e0 900100FC 		stw 0,252(1)
 4457              	.LCFI189:
 4458              	.LBB1696:
 4459              		.loc 1 449 0
 4460 17e4 57BD043E 		rlwinm 29,29,0,0xffff
 4461              	.LBE1696:
 4462              		.loc 1 447 0
 4463 17e8 DBE100F0 		stfd 31,240(1)
 4464              	.LCFI190:
 4465 17ec 91C100A8 		stw 14,168(1)
 4466              	.LCFI191:
 4467 17f0 91E100AC 		stw 15,172(1)
 4468              	.LCFI192:
 4469 17f4 920100B0 		stw 16,176(1)
 4470              	.LCFI193:
 4471 17f8 928100C0 		stw 20,192(1)
 4472              	.LCFI194:
 4473 17fc 92A100C4 		stw 21,196(1)
 4474              	.LCFI195:
 4475 1800 92C100C8 		stw 22,200(1)
 4476              	.LCFI196:
 4477 1804 92E100CC 		stw 23,204(1)
 4478              	.LCFI197:
 4479 1808 930100D0 		stw 24,208(1)
 4480              	.LCFI198:
 4481 180c 932100D4 		stw 25,212(1)
 4482              	.LCFI199:
 4483 1810 934100D8 		stw 26,216(1)
 4484              	.LCFI200:
 4485 1814 938100E0 		stw 28,224(1)
 4486              	.LCFI201:
 4487              		.loc 1 447 0
 4488 1818 81E70000 		lwz 15,0(7)
 4489              	.LBB1697:
 4490              		.loc 1 448 0
 4491 181c 48000001 		bl wcslen
 4492              	.LVL355:
 4493              		.loc 1 454 0
 4494 1820 7240000F 		andi. 0,18,15
 4495              		.loc 1 448 0
 4496 1824 547F043E 		rlwinm 31,3,0,0xffff
 4497              	.LVL356:
 4498              		.loc 1 449 0
 4499 1828 93A100A0 		stw 29,160(1)
 4500              	.LVL357:
 4501              		.loc 1 454 0
 4502 182c 40820344 		bne- 0,.L377
 4503              	.L347:
 4504              		.loc 1 457 0
 4505 1830 724000F0 		andi. 0,18,240
 4506 1834 38000000 		li 0,0
 4507 1838 900100A4 		stw 0,164(1)
 4508              	.LVL358:
 4509 183c 40820310 		bne- 0,.L378
 4510              	.L350:
 4511              	.LBB1654:
 4512              		.loc 1 461 0
 4513 1840 2F9F0000 		cmpwi 7,31,0
 4514 1844 3B800000 		li 28,0
 4515 1848 419E0190 		beq- 7,.L353
 4516 184c 393FFFFF 		addi 9,31,-1
 4517              	.LBB1658:
 4518              		.loc 1 479 0
 4519 1850 3D600000 		lis 11,.LC3@ha
 4520              	.LBE1658:
 4521              		.loc 1 461 0
 4522 1854 5529043E 		rlwinm 9,9,0,0xffff
 4523              	.LBB1657:
 4524              		.loc 1 479 0
 4525 1858 C3EB0004 		lfs 31,.LC3@l(11)
 4526              	.LBE1657:
 4527              		.loc 1 461 0
 4528 185c 834100A0 		lwz 26,160(1)
 4529 1860 3AA90001 		addi 21,9,1
 4530 1864 3AC00000 		li 22,0
 4531              	.LVL359:
 4532 1868 3B000000 		li 24,0
 4533 186c 3B3E0018 		addi 25,30,24
 4534 1870 3AFE001C 		addi 23,30,28
 4535              	.LBB1656:
 4536              		.loc 1 478 0
 4537 1874 3A810068 		addi 20,1,104
 4538              		.loc 1 479 0
 4539 1878 39C10090 		addi 14,1,144
 4540              		.loc 1 474 0
 4541 187c 3A1BFFFC 		addi 16,27,-4
 4542              	.LVL360:
 4543              	.L354:
 4544              	.LBE1656:
 4545              		.loc 1 461 0
 4546 1880 571C043E 		rlwinm 28,24,0,0xffff
 4547              	.LBB1655:
 4548              	.LBB1674:
 4549              		.loc 7 542 0
 4550 1884 7F23CB78 		mr 3,25
 4551              	.LBE1674:
 4552              		.loc 1 464 0
 4553 1888 579F103A 		slwi 31,28,2
 4554              	.LVL361:
 4555 188c 7FBFDA14 		add 29,31,27
 4556              	.LVL362:
 4557              	.LBB1673:
 4558              		.loc 7 542 0
 4559 1890 7FA4EB78 		mr 4,29
 4560 1894 48000001 		bl _ZNSt8_Rb_treeIwSt4pairIKw13ftgxCharData_ESt10_Select1stIS3_ESt4lessIwESaIS3_EE4findERS1_
 4561              	.LBE1673:
 4562              		.loc 1 464 0
 4563 1898 7F83B800 		cmpw 7,3,23
 4564 189c 419E01F0 		beq- 7,.L355
 4565              	.LBB1659:
 4566              	.LBB1660:
 4567              	.LBB1661:
 4568              	.LBB1662:
 4569              		.loc 7 584 0
 4570 18a0 7FA4EB78 		mr 4,29
 4571              	.LVL363:
 4572 18a4 7F23CB78 		mr 3,25
 4573 18a8 48000001 		bl _ZNSt8_Rb_treeIwSt4pairIKw13ftgxCharData_ESt10_Select1stIS3_ESt4lessIwESaIS3_EE11lower_boundERS
 4574              	.LVL364:
 4575              	.LBE1662:
 4576              		.loc 7 349 0
 4577 18ac 7F83B800 		cmpw 7,3,23
 4578              	.LBB1663:
 4579              		.loc 7 584 0
 4580 18b0 7C6B1B78 		mr 11,3
 4581              	.LBE1663:
 4582              		.loc 7 349 0
 4583 18b4 419E01EC 		beq- 7,.L373
 4584 18b8 7D3FD82E 		lwzx 9,31,27
 4585 18bc 80030010 		lwz 0,16(3)
 4586 18c0 7F890000 		cmpw 7,9,0
 4587 18c4 409C0048 		bge- 7,.L359
 4588              	.L357:
 4589              		.loc 7 350 0
 4590 18c8 38000000 		li 0,0
 4591              	.LBB1664:
 4592              		.loc 7 427 0
 4593 18cc 7F23CB78 		mr 3,25
 4594 18d0 3881008C 		addi 4,1,140
 4595 18d4 38A10038 		addi 5,1,56
 4596              	.LBE1664:
 4597              	.LBB1665:
 4598              	.LBB1666:
 4599              	.LBB1667:
 4600              		.loc 8 85 0
 4601 18d8 91210038 		stw 9,56(1)
 4602 18dc 9001004C 		stw 0,76(1)
 4603              	.LBE1667:
 4604              	.LBE1666:
 4605              	.LBE1665:
 4606              	.LBB1670:
 4607              		.loc 7 427 0
 4608 18e0 9161008C 		stw 11,140(1)
 4609              	.LBE1670:
 4610              		.loc 7 350 0
 4611 18e4 90010010 		stw 0,16(1)
 4612 18e8 90010014 		stw 0,20(1)
 4613 18ec 90010018 		stw 0,24(1)
 4614 18f0 9001001C 		stw 0,28(1)
 4615 18f4 90010020 		stw 0,32(1)
 4616              	.LBB1671:
 4617              	.LBB1669:
 4618              	.LBB1668:
 4619              		.loc 8 85 0
 4620 18f8 9001003C 		stw 0,60(1)
 4621 18fc 90010040 		stw 0,64(1)
 4622 1900 90010044 		stw 0,68(1)
 4623 1904 90010048 		stw 0,72(1)
 4624              	.LBE1668:
 4625              	.LBE1669:
 4626              	.LBE1671:
 4627              	.LBB1672:
 4628              		.loc 7 427 0
 4629 1908 48000001 		bl _ZNSt8_Rb_treeIwSt4pairIKw13ftgxCharData_ESt10_Select1stIS3_ESt4lessIwESaIS3_EE16_M_insert_uniq
 4630              	.L359:
 4631              	.LBE1672:
 4632              	.LBE1661:
 4633              	.LBE1660:
 4634              	.LBE1659:
 4635              		.loc 1 465 0
 4636 190c 3BA30014 		addi 29,3,20
 4637              	.LVL365:
 4638              	.L360:
 4639              		.loc 1 471 0
 4640 1910 2F9D0000 		cmpwi 7,29,0
 4641 1914 419E00B4 		beq- 7,.L361
 4642              		.loc 1 473 0
 4643 1918 881E0010 		lbz 0,16(30)
 4644 191c 2F800000 		cmpwi 7,0,0
 4645 1920 419E000C 		beq- 7,.L363
 4646 1924 2F9C0000 		cmpwi 7,28,0
 4647 1928 409E0180 		bne- 7,.L379
 4648              	.L363:
 4649              		.loc 1 478 0
 4650 192c 809D0010 		lwz 4,16(29)
 4651 1930 7E83A378 		mr 3,20
 4652 1934 A0BD0004 		lhz 5,4(29)
 4653 1938 39000000 		li 8,0
 4654 193c A0DD0006 		lhz 6,6(29)
 4655 1940 39200000 		li 9,0
 4656 1944 88FE0011 		lbz 7,17(30)
 4657 1948 39400000 		li 10,0
 4658 194c 48000001 		bl GX_InitTexObj
 4659              		.loc 1 479 0
 4660 1950 91E10090 		stw 15,144(1)
 4661 1954 3D604330 		lis 11,0x4330
 4662 1958 FC00F890 		fmr 0,31
 4663 195c A01D0004 		lhz 0,4(29)
 4664 1960 7CB3D050 		subf 5,19,26
 4665 1964 91610098 		stw 11,152(1)
 4666 1968 7CA50734 		extsh 5,5
 4667 196c 9001009C 		stw 0,156(1)
 4668 1970 7FC3F378 		mr 3,30
 4669 1974 A13D0006 		lhz 9,6(29)
 4670 1978 7E84A378 		mr 4,20
 4671 197c C8210098 		lfd 1,152(1)
 4672 1980 7DC77378 		mr 7,14
 4673 1984 9121009C 		stw 9,156(1)
 4674 1988 FC210028 		fsub 1,1,0
 4675 198c A0DD0008 		lhz 6,8(29)
 4676 1990 C8410098 		lfd 2,152(1)
 4677 1994 800100A4 		lwz 0,164(1)
 4678 1998 7CC68850 		subf 6,6,17
 4679 199c FC420028 		fsub 2,2,0
 4680 19a0 FC200818 		frsp 1,1
 4681 19a4 7CC03050 		subf 6,0,6
 4682 19a8 7CC60734 		extsh 6,6
 4683 19ac FC401018 		frsp 2,2
 4684 19b0 48000001 		bl _ZN10FreeTypeGX24copyTextureToFramebufferEP10_gx_texobjffss9_gx_color
 4685              		.loc 1 481 0
 4686 19b4 A01D0000 		lhz 0,0(29)
 4687              		.loc 1 482 0
 4688 19b8 39360001 		addi 9,22,1
 4689              		.loc 1 481 0
 4690 19bc 7C1A0214 		add 0,26,0
 4691              		.loc 1 482 0
 4692 19c0 5536043E 		rlwinm 22,9,0,0xffff
 4693              		.loc 1 481 0
 4694 19c4 541A043E 		rlwinm 26,0,0,0xffff
 4695              	.LVL366:
 4696              	.L361:
 4697              		.loc 1 482 0
 4698 19c8 3B180001 		addi 24,24,1
 4699              	.LBE1655:
 4700              		.loc 1 461 0
 4701 19cc 7F98A800 		cmpw 7,24,21
 4702 19d0 409EFEB0 		bne+ 7,.L354
 4703 19d4 7EDCB378 		mr 28,22
 4704              	.LVL367:
 4705              	.L353:
 4706              	.LBE1654:
 4707              		.loc 1 486 0
 4708 19d8 72400F00 		andi. 0,18,3840
 4709 19dc 41820050 		beq- 0,.L370
 4710              		.loc 1 487 0
 4711 19e0 7F64DB78 		mr 4,27
 4712 19e4 7FC3F378 		mr 3,30
 4713 19e8 48000001 		bl _ZN10FreeTypeGX8getWidthEPw
 4714 19ec 7F64DB78 		mr 4,27
 4715 19f0 7C7D1B78 		mr 29,3
 4716              	.LVL368:
 4717 19f4 7FC3F378 		mr 3,30
 4718 19f8 48000001 		bl _ZN10FreeTypeGX9getOffsetEPw
 4719 19fc 800100A0 		lwz 0,160(1)
 4720 1a00 90610088 		stw 3,136(1)
 4721 1a04 7E258B78 		mr 5,17
 4722 1a08 7C930050 		subf 4,19,0
 4723 1a0c 7FC3F378 		mr 3,30
 4724 1a10 7C840734 		extsh 4,4
 4725 1a14 7FA6EB78 		mr 6,29
 4726 1a18 7E489378 		mr 8,18
 4727 1a1c 38E10088 		addi 7,1,136
 4728 1a20 39210090 		addi 9,1,144
 4729 1a24 91E10090 		stw 15,144(1)
 4730 1a28 48000001 		bl _ZN10FreeTypeGX15drawTextFeatureEsst15ftgxDataOffset_t9_gx_color
 4731              	.LVL369:
 4732              	.L370:
 4733              	.LBE1697:
 4734              		.loc 1 491 0
 4735 1a2c 800100FC 		lwz 0,252(1)
 4736 1a30 7F83E378 		mr 3,28
 4737 1a34 81C100A8 		lwz 14,168(1)
 4738 1a38 81E100AC 		lwz 15,172(1)
 4739              	.LVL370:
 4740 1a3c 7C0803A6 		mtlr 0
 4741 1a40 820100B0 		lwz 16,176(1)
 4742 1a44 822100B4 		lwz 17,180(1)
 4743              	.LVL371:
 4744 1a48 824100B8 		lwz 18,184(1)
 4745              	.LVL372:
 4746 1a4c 826100BC 		lwz 19,188(1)
 4747              	.LVL373:
 4748 1a50 828100C0 		lwz 20,192(1)
 4749 1a54 82A100C4 		lwz 21,196(1)
 4750 1a58 82C100C8 		lwz 22,200(1)
 4751              	.LVL374:
 4752 1a5c 82E100CC 		lwz 23,204(1)
 4753 1a60 830100D0 		lwz 24,208(1)
 4754 1a64 832100D4 		lwz 25,212(1)
 4755 1a68 834100D8 		lwz 26,216(1)
 4756 1a6c 836100DC 		lwz 27,220(1)
 4757              	.LVL375:
 4758 1a70 838100E0 		lwz 28,224(1)
 4759 1a74 83A100E4 		lwz 29,228(1)
 4760              	.LVL376:
 4761 1a78 83C100E8 		lwz 30,232(1)
 4762              	.LVL377:
 4763 1a7c 83E100EC 		lwz 31,236(1)
 4764              	.LVL378:
 4765 1a80 CBE100F0 		lfd 31,240(1)
 4766 1a84 382100F8 		addi 1,1,248
 4767 1a88 4E800020 		blr
 4768              	.LVL379:
 4769              	.L355:
 4770              	.LBB1698:
 4771              	.LBB1694:
 4772              	.LBB1693:
 4773              		.loc 1 468 0
 4774 1a8c 7C9FD82E 		lwzx 4,31,27
 4775 1a90 7FC3F378 		mr 3,30
 4776 1a94 48000001 		bl _ZN10FreeTypeGX14cacheGlyphDataEw
 4777 1a98 7C7D1B78 		mr 29,3
 4778              	.LVL380:
 4779 1a9c 4BFFFE74 		b .L360
 4780              	.LVL381:
 4781              	.L373:
 4782 1aa0 7D3FD82E 		lwzx 9,31,27
 4783 1aa4 4BFFFE24 		b .L357
 4784              	.LVL382:
 4785              	.L379:
 4786              	.LBB1675:
 4787              	.LBB1676:
 4788              	.LBB1677:
 4789              	.LBB1678:
 4790              		.loc 7 584 0
 4791 1aa8 7F23CB78 		mr 3,25
 4792 1aac 7C9F8214 		add 4,31,16
 4793              	.LVL383:
 4794              	.LBE1678:
 4795              	.LBE1677:
 4796              	.LBE1676:
 4797              	.LBE1675:
 4798              		.loc 1 474 0
 4799 1ab0 839E0004 		lwz 28,4(30)
 4800              	.LVL384:
 4801              	.LBB1692:
 4802              	.LBB1691:
 4803              	.LBB1690:
 4804              	.LBB1679:
 4805              		.loc 7 584 0
 4806 1ab4 48000001 		bl _ZNSt8_Rb_treeIwSt4pairIKw13ftgxCharData_ESt10_Select1stIS3_ESt4lessIwESaIS3_EE11lower_boundERS
 4807              	.LVL385:
 4808              	.LBE1679:
 4809              		.loc 7 349 0
 4810 1ab8 7F83B800 		cmpw 7,3,23
 4811              	.LBB1680:
 4812              		.loc 7 584 0
 4813 1abc 7C6B1B78 		mr 11,3
 4814              	.LBE1680:
 4815              		.loc 7 349 0
 4816 1ac0 419E0084 		beq- 7,.L374
 4817 1ac4 7D3F802E 		lwzx 9,31,16
 4818 1ac8 80030010 		lwz 0,16(3)
 4819 1acc 7F890000 		cmpw 7,9,0
 4820 1ad0 409C0048 		bge- 7,.L368
 4821              	.L366:
 4822              		.loc 7 350 0
 4823 1ad4 38000000 		li 0,0
 4824              	.LBB1681:
 4825              		.loc 7 427 0
 4826 1ad8 7F23CB78 		mr 3,25
 4827 1adc 3881008C 		addi 4,1,140
 4828 1ae0 38A10050 		addi 5,1,80
 4829              	.LBE1681:
 4830              	.LBB1682:
 4831              	.LBB1683:
 4832              	.LBB1684:
 4833              		.loc 8 85 0
 4834 1ae4 91210050 		stw 9,80(1)
 4835 1ae8 90010064 		stw 0,100(1)
 4836              	.LBE1684:
 4837              	.LBE1683:
 4838              	.LBE1682:
 4839              	.LBB1687:
 4840              		.loc 7 427 0
 4841 1aec 9161008C 		stw 11,140(1)
 4842              	.LBE1687:
 4843              		.loc 7 350 0
 4844 1af0 90010024 		stw 0,36(1)
 4845 1af4 90010028 		stw 0,40(1)
 4846 1af8 9001002C 		stw 0,44(1)
 4847 1afc 90010030 		stw 0,48(1)
 4848 1b00 90010034 		stw 0,52(1)
 4849              	.LBB1688:
 4850              	.LBB1686:
 4851              	.LBB1685:
 4852              		.loc 8 85 0
 4853 1b04 90010054 		stw 0,84(1)
 4854 1b08 90010058 		stw 0,88(1)
 4855 1b0c 9001005C 		stw 0,92(1)
 4856 1b10 90010060 		stw 0,96(1)
 4857              	.LBE1685:
 4858              	.LBE1686:
 4859              	.LBE1688:
 4860              	.LBB1689:
 4861              		.loc 7 427 0
 4862 1b14 48000001 		bl _ZNSt8_Rb_treeIwSt4pairIKw13ftgxCharData_ESt10_Select1stIS3_ESt4lessIwESaIS3_EE16_M_insert_uniq
 4863              	.L368:
 4864              	.LBE1689:
 4865              	.LBE1690:
 4866              	.LBE1691:
 4867              	.LBE1692:
 4868              		.loc 1 474 0
 4869 1b18 A0830016 		lhz 4,22(3)
 4870 1b1c 38C00000 		li 6,0
 4871 1b20 A0BD0002 		lhz 5,2(29)
 4872 1b24 7F83E378 		mr 3,28
 4873 1b28 38E10008 		addi 7,1,8
 4874 1b2c 48000001 		bl FT_Get_Kerning
 4875              		.loc 1 475 0
 4876 1b30 80010008 		lwz 0,8(1)
 4877 1b34 7C003670 		srawi 0,0,6
 4878 1b38 7C1A0214 		add 0,26,0
 4879 1b3c 541A043E 		rlwinm 26,0,0,0xffff
 4880 1b40 4BFFFDEC 		b .L363
 4881              	.LVL386:
 4882              	.L374:
 4883 1b44 7D3F802E 		lwzx 9,31,16
 4884 1b48 4BFFFF8C 		b .L366
 4885              	.LVL387:
 4886              	.L378:
 4887              	.LBE1693:
 4888              	.LBE1694:
 4889              		.loc 1 458 0
 4890 1b4c 7F64DB78 		mr 4,27
 4891 1b50 7FC3F378 		mr 3,30
 4892 1b54 48000001 		bl _ZN10FreeTypeGX9getOffsetEPw
 4893 1b58 7E449378 		mr 4,18
 4894 1b5c 90610088 		stw 3,136(1)
 4895 1b60 38610088 		addi 3,1,136
 4896 1b64 48000001 		bl _ZN10FreeTypeGX20getStyleOffsetHeightE15ftgxDataOffset_t
 4897 1b68 906100A4 		stw 3,164(1)
 4898              	.LVL388:
 4899 1b6c 4BFFFCD4 		b .L350
 4900              	.LVL389:
 4901              	.L377:
 4902              		.loc 1 455 0
 4903 1b70 7F64DB78 		mr 4,27
 4904 1b74 7FC3F378 		mr 3,30
 4905 1b78 48000001 		bl _ZN10FreeTypeGX8getWidthEPw
 4906 1b7c 7E449378 		mr 4,18
 4907 1b80 48000001 		bl _ZN10FreeTypeGX19getStyleOffsetWidthEtt
 4908 1b84 7C731B78 		mr 19,3
 4909 1b88 4BFFFCA8 		b .L347
 4910              	.LBE1698:
 4911              	.LFE584:
 4912              		.size	_ZN10FreeTypeGX8drawTextEssPw9_gx_colort, .-_ZN10FreeTypeGX8drawTextEssPw9_gx_colort
 4913              		.align 2
 4914              		.globl _ZN10FreeTypeGX8drawTextEssPKw9_gx_colort
 4915              		.type	_ZN10FreeTypeGX8drawTextEssPKw9_gx_colort, @function
 4916              	_ZN10FreeTypeGX8drawTextEssPKw9_gx_colort:
 4917              	.LFB585:
 4918              		.loc 1 496 0
 4919              	.LVL390:
 4920 1b8c 7C0802A6 		mflr 0
 4921              	.LCFI202:
 4922 1b90 9421FFF0 		stwu 1,-16(1)
 4923              	.LCFI203:
 4924 1b94 90010014 		stw 0,20(1)
 4925              	.LCFI204:
 4926              		.loc 1 496 0
 4927 1b98 80070000 		lwz 0,0(7)
 4928              		.loc 1 497 0
 4929 1b9c 38E10008 		addi 7,1,8
 4930              	.LVL391:
 4931 1ba0 90010008 		stw 0,8(1)
 4932 1ba4 48000001 		bl _ZN10FreeTypeGX8drawTextEssPw9_gx_colort
 4933              	.LVL392:
 4934              		.loc 1 498 0
 4935 1ba8 80010014 		lwz 0,20(1)
 4936 1bac 38210010 		addi 1,1,16
 4937 1bb0 7C0803A6 		mtlr 0
 4938 1bb4 4E800020 		blr
 4939              	.LFE585:
 4940              		.size	_ZN10FreeTypeGX8drawTextEssPKw9_gx_colort, .-_ZN10FreeTypeGX8drawTextEssPKw9_gx_colort
 4941              		.align 2
 4942              		.globl _ZN10FreeTypeGX22cacheGlyphDataCompleteEv
 4943              		.type	_ZN10FreeTypeGX22cacheGlyphDataCompleteEv, @function
 4944              	_ZN10FreeTypeGX22cacheGlyphDataCompleteEv:
 4945              	.LFB580:
 4946              		.loc 1 324 0
 4947              	.LVL393:
 4948 1bb8 7C0802A6 		mflr 0
 4949              	.LCFI205:
 4950 1bbc 9421FFD8 		stwu 1,-40(1)
 4951              	.LCFI206:
 4952 1bc0 93810018 		stw 28,24(1)
 4953              	.LCFI207:
 4954              	.LBB1699:
 4955              		.loc 1 327 0
 4956 1bc4 3B810008 		addi 28,1,8
 4957              	.LBE1699:
 4958              		.loc 1 324 0
 4959 1bc8 9001002C 		stw 0,44(1)
 4960              	.LCFI208:
 4961              	.LBB1700:
 4962              		.loc 1 327 0
 4963 1bcc 7F84E378 		mr 4,28
 4964              	.LBE1700:
 4965              		.loc 1 324 0
 4966 1bd0 93C10020 		stw 30,32(1)
 4967              	.LCFI209:
 4968 1bd4 7C7E1B78 		mr 30,3
 4969              	.LBB1701:
 4970              		.loc 1 327 0
 4971 1bd8 80630004 		lwz 3,4(3)
 4972              	.LVL394:
 4973              	.LBE1701:
 4974              		.loc 1 324 0
 4975 1bdc 93E10024 		stw 31,36(1)
 4976              	.LCFI210:
 4977 1be0 93A1001C 		stw 29,28(1)
 4978              	.LCFI211:
 4979              	.LBB1702:
 4980              		.loc 1 327 0
 4981 1be4 48000001 		bl FT_Get_First_Char
 4982              		.loc 1 328 0
 4983 1be8 80010008 		lwz 0,8(1)
 4984              	.LVL395:
 4985              		.loc 1 327 0
 4986 1bec 7C7F1B78 		mr 31,3
 4987              	.LVL396:
 4988              		.loc 1 328 0
 4989 1bf0 38600000 		li 3,0
 4990 1bf4 2F800000 		cmpwi 7,0,0
 4991 1bf8 419E0048 		beq- 7,.L385
 4992              	.LVL397:
 4993 1bfc 3BA00000 		li 29,0
 4994              	.LVL398:
 4995              	.L386:
 4996              		.loc 1 330 0
 4997 1c00 7FE4FB78 		mr 4,31
 4998 1c04 7FC3F378 		mr 3,30
 4999 1c08 48000001 		bl _ZN10FreeTypeGX14cacheGlyphDataEw
 5000              	.LVL399:
 5001              		.loc 1 334 0
 5002 1c0c 7FE4FB78 		mr 4,31
 5003              		.loc 1 330 0
 5004 1c10 2F830000 		cmpwi 7,3,0
 5005              		.loc 1 334 0
 5006 1c14 7F85E378 		mr 5,28
 5007              		.loc 1 331 0
 5008 1c18 381D0001 		addi 0,29,1
 5009              		.loc 1 330 0
 5010 1c1c 419E0008 		beq- 7,.L387
 5011              	.LVL400:
 5012              		.loc 1 331 0
 5013 1c20 541D043E 		rlwinm 29,0,0,0xffff
 5014              	.L387:
 5015              		.loc 1 334 0
 5016 1c24 807E0004 		lwz 3,4(30)
 5017 1c28 48000001 		bl FT_Get_Next_Char
 5018              	.LVL401:
 5019              		.loc 1 328 0
 5020 1c2c 80010008 		lwz 0,8(1)
 5021              		.loc 1 334 0
 5022 1c30 7C7F1B78 		mr 31,3
 5023              		.loc 1 328 0
 5024 1c34 2F800000 		cmpwi 7,0,0
 5025 1c38 409EFFC8 		bne+ 7,.L386
 5026              	.LVL402:
 5027 1c3c 7FA3EB78 		mr 3,29
 5028              	.L385:
 5029              	.LBE1702:
 5030              		.loc 1 338 0
 5031 1c40 8001002C 		lwz 0,44(1)
 5032              	.LVL403:
 5033 1c44 83810018 		lwz 28,24(1)
 5034 1c48 83A1001C 		lwz 29,28(1)
 5035              	.LVL404:
 5036 1c4c 7C0803A6 		mtlr 0
 5037 1c50 83C10020 		lwz 30,32(1)
 5038              	.LVL405:
 5039 1c54 83E10024 		lwz 31,36(1)
 5040              	.LVL406:
 5041 1c58 38210028 		addi 1,1,40
 5042 1c5c 4E800020 		blr
 5043              	.LFE580:
 5044              		.size	_ZN10FreeTypeGX22cacheGlyphDataCompleteEv, .-_ZN10FreeTypeGX22cacheGlyphDataCompleteEv
 5045              		.align 2
 5046              		.globl _ZN10FreeTypeGX8loadFontEPhljb
 5047              		.type	_ZN10FreeTypeGX8loadFontEPhljb, @function
 5048              	_ZN10FreeTypeGX8loadFontEPhljb:
 5049              	.LFB573:
 5050              		.loc 1 162 0
 5051              	.LVL407:
 5052 1c60 9421FFE0 		stwu 1,-32(1)
 5053              	.LCFI212:
 5054 1c64 7C0802A6 		mflr 0
 5055              	.LCFI213:
 5056 1c68 93A10014 		stw 29,20(1)
 5057              	.LCFI214:
 5058 1c6c 7CDD3378 		mr 29,6
 5059 1c70 93E1001C 		stw 31,28(1)
 5060              	.LCFI215:
 5061 1c74 7C7F1B78 		mr 31,3
 5062 1c78 9361000C 		stw 27,12(1)
 5063              	.LCFI216:
 5064 1c7c 7CBB2B78 		mr 27,5
 5065 1c80 93810010 		stw 28,16(1)
 5066              	.LCFI217:
 5067 1c84 7C9C2378 		mr 28,4
 5068 1c88 93C10018 		stw 30,24(1)
 5069              	.LCFI218:
 5070 1c8c 7CFE3B78 		mr 30,7
 5071 1c90 90010024 		stw 0,36(1)
 5072              	.LCFI219:
 5073              		.loc 1 163 0
 5074 1c94 48000001 		bl _ZN10FreeTypeGX10unloadFontEv
 5075              	.LVL408:
 5076              		.loc 1 164 0
 5077 1c98 93BF000C 		stw 29,12(31)
 5078              		.loc 1 166 0
 5079 1c9c 7F65DB78 		mr 5,27
 5080 1ca0 807F0000 		lwz 3,0(31)
 5081 1ca4 7F84E378 		mr 4,28
 5082 1ca8 38C00000 		li 6,0
 5083 1cac 38FF0004 		addi 7,31,4
 5084 1cb0 48000001 		bl FT_New_Memory_Face
 5085              		.loc 1 168 0
 5086 1cb4 80BF000C 		lwz 5,12(31)
 5087 1cb8 2F850000 		cmpwi 7,5,0
 5088 1cbc 409E0054 		bne- 7,.L400
 5089              	.L394:
 5090              		.loc 1 171 0
 5091 1cc0 813F0004 		lwz 9,4(31)
 5092              		.loc 1 174 0
 5093 1cc4 2F9E0000 		cmpwi 7,30,0
 5094 1cc8 38600000 		li 3,0
 5095              		.loc 1 172 0
 5096 1ccc 80090008 		lwz 0,8(9)
 5097              		.loc 1 171 0
 5098 1cd0 81690054 		lwz 11,84(9)
 5099              		.loc 1 172 0
 5100 1cd4 5400D7FE 		rlwinm 0,0,26,31,31
 5101              		.loc 1 171 0
 5102 1cd8 917F0008 		stw 11,8(31)
 5103              		.loc 1 172 0
 5104 1cdc 981F0010 		stb 0,16(31)
 5105              		.loc 1 174 0
 5106 1ce0 419E000C 		beq- 7,.L398
 5107              		.loc 1 175 0
 5108 1ce4 7FE3FB78 		mr 3,31
 5109 1ce8 48000001 		bl _ZN10FreeTypeGX22cacheGlyphDataCompleteEv
 5110              	.L398:
 5111              		.loc 1 179 0
 5112 1cec 80010024 		lwz 0,36(1)
 5113 1cf0 8361000C 		lwz 27,12(1)
 5114              	.LVL409:
 5115 1cf4 83810010 		lwz 28,16(1)
 5116              	.LVL410:
 5117 1cf8 7C0803A6 		mtlr 0
 5118 1cfc 83A10014 		lwz 29,20(1)
 5119              	.LVL411:
 5120 1d00 83C10018 		lwz 30,24(1)
 5121              	.LVL412:
 5122 1d04 83E1001C 		lwz 31,28(1)
 5123              	.LVL413:
 5124 1d08 38210020 		addi 1,1,32
 5125 1d0c 4E800020 		blr
 5126              	.LVL414:
 5127              	.L400:
 5128              		.loc 1 169 0
 5129 1d10 807F0004 		lwz 3,4(31)
 5130 1d14 38800000 		li 4,0
 5131 1d18 48000001 		bl FT_Set_Pixel_Sizes
 5132 1d1c 4BFFFFA4 		b .L394
 5133              	.LFE573:
 5134              		.size	_ZN10FreeTypeGX8loadFontEPhljb, .-_ZN10FreeTypeGX8loadFontEPhljb
 5135              		.align 2
 5136              		.globl _ZN10FreeTypeGX8loadFontEPKhljb
 5137              		.type	_ZN10FreeTypeGX8loadFontEPKhljb, @function
 5138              	_ZN10FreeTypeGX8loadFontEPKhljb:
 5139              	.LFB574:
 5140              		.loc 1 185 0
 5141              	.LVL415:
 5142 1d20 7C0802A6 		mflr 0
 5143              	.LCFI220:
 5144 1d24 9421FFF8 		stwu 1,-8(1)
 5145              	.LCFI221:
 5146 1d28 9001000C 		stw 0,12(1)
 5147              	.LCFI222:
 5148              		.loc 1 186 0
 5149 1d2c 48000001 		bl _ZN10FreeTypeGX8loadFontEPhljb
 5150              	.LVL416:
 5151              		.loc 1 187 0
 5152 1d30 8001000C 		lwz 0,12(1)
 5153 1d34 38210008 		addi 1,1,8
 5154 1d38 7C0803A6 		mtlr 0
 5155 1d3c 4E800020 		blr
 5156              	.LFE574:
 5157              		.size	_ZN10FreeTypeGX8loadFontEPKhljb, .-_ZN10FreeTypeGX8loadFontEPKhljb
 5158              		.section	.rodata
 5159              		.set	.LANCHOR1,. + 0
 5160              		.type	._59, @object
 5161              		.size	._59, 4
 5162              	._59:
 5163 005c FF       		.byte	-1
 5164 005d FF       		.byte	-1
 5165 005e FF       		.byte	-1
 5166 005f FF       		.byte	-1
 5167              		.section	.rodata.cst4,"aM",@progbits,4
 5168              		.align 2
 5169              	.LC1:
 5170 0000 59800004 		.4byte	1501560836
 5171              	.LC3:
 5172 0004 59800000 		.4byte	1501560832
 5173              	.LC5:
 5174 0008 3F800000 		.4byte	1065353216
 5175              		.section	".bss"
 5176              		.set	.LANCHOR0,. + 0
 5177              		.type	ftgxWhite, @object
 5178              		.size	ftgxWhite, 4
 5179              	ftgxWhite:
 5180 0000 00000000 		.zero	4
 5181              		.section	.debug_frame,"",@progbits
 5182              	.Lframe0:
 5183 0000 0000000C 		.4byte	.LECIE0-.LSCIE0
 5184              	.LSCIE0:
 5185 0004 FFFFFFFF 		.4byte	0xffffffff
 5186 0008 01       		.byte	0x1
 5187 0009 00       		.string	""
 5188 000a 01       		.uleb128 0x1
 5189 000b 7C       		.sleb128 -4
 5190 000c 41       		.byte	0x41
 5191 000d 0C       		.byte	0xc
 5192 000e 01       		.uleb128 0x1
 5193 000f 00       		.uleb128 0x0
 5194              		.align 2
 5195              	.LECIE0:
 5196              	.LSFDE0:
 5197 0010 0000000C 		.4byte	.LEFDE0-.LASFDE0
 5198              	.LASFDE0:
 5199 0014 00000000 		.4byte	.Lframe0
 5200 0018 00000000 		.4byte	.LFB571
 5201 001c 00000008 		.4byte	.LFE571-.LFB571
 5202              		.align 2
 5203              	.LEFDE0:
 5204              	.LSFDE2:
 5205 0020 0000000C 		.4byte	.LEFDE2-.LASFDE2
 5206              	.LASFDE2:
 5207 0024 00000000 		.4byte	.Lframe0
 5208 0028 00000008 		.4byte	.LFB577
 5209 002c 00000040 		.4byte	.LFE577-.LFB577
 5210              		.align 2
 5211              	.LEFDE2:
 5212              	.LSFDE4:
 5213 0030 0000000C 		.4byte	.LEFDE4-.LASFDE4
 5214              	.LASFDE4:
 5215 0034 00000000 		.4byte	.Lframe0
 5216 0038 00000048 		.4byte	.LFB578
 5217 003c 00000040 		.4byte	.LFE578-.LFB578
 5218              		.align 2
 5219              	.LEFDE4:
 5220              	.LSFDE6:
 5221 0040 0000000C 		.4byte	.LEFDE6-.LASFDE6
 5222              	.LASFDE6:
 5223 0044 00000000 		.4byte	.Lframe0
 5224 0048 00000088 		.4byte	.LFB582
 5225 004c 0000002C 		.4byte	.LFE582-.LFB582
 5226              		.align 2
 5227              	.LEFDE6:
 5228              	.LSFDE8:
 5229 0050 0000000C 		.4byte	.LEFDE8-.LASFDE8
 5230              	.LASFDE8:
 5231 0054 00000000 		.4byte	.Lframe0
 5232 0058 000000B4 		.4byte	.LFB583
 5233 005c 00000040 		.4byte	.LFE583-.LFB583
 5234              		.align 2
 5235              	.LEFDE8:
 5236              	.LSFDE10:
 5237 0060 00000014 		.4byte	.LEFDE10-.LASFDE10
 5238              	.LASFDE10:
 5239 0064 00000000 		.4byte	.Lframe0
 5240 0068 000000F4 		.4byte	.LFB592
 5241 006c 00000020 		.4byte	.LFE592-.LFB592
 5242 0070 48       		.byte	0x4
 5243              		.4byte	.LCFI1-.LFB592
 5244 0071 0E       		.byte	0xe
 5245 0072 08       		.uleb128 0x8
 5246 0073 44       		.byte	0x4
 5247              		.4byte	.LCFI2-.LCFI1
 5248 0074 11       		.byte	0x11
 5249 0075 41       		.uleb128 0x41
 5250 0076 7F       		.sleb128 -1
 5251 0077 00       		.align 2
 5252              	.LEFDE10:
 5253              	.LSFDE12:
 5254 0078 0000000C 		.4byte	.LEFDE12-.LASFDE12
 5255              	.LASFDE12:
 5256 007c 00000000 		.4byte	.Lframe0
 5257 0080 00000000 		.4byte	.LFB644
 5258 0084 00000068 		.4byte	.LFE644-.LFB644
 5259              		.align 2
 5260              	.LEFDE12:
 5261              	.LSFDE14:
 5262 0088 0000000C 		.4byte	.LEFDE14-.LASFDE14
 5263              	.LASFDE14:
 5264 008c 00000000 		.4byte	.Lframe0
 5265 0090 00000000 		.4byte	.LFB673
 5266 0094 00000048 		.4byte	.LFE673-.LFB673
 5267              		.align 2
 5268              	.LEFDE14:
 5269              	.LSFDE16:
 5270 0098 0000000C 		.4byte	.LEFDE16-.LASFDE16
 5271              	.LASFDE16:
 5272 009c 00000000 		.4byte	.Lframe0
 5273 00a0 00000114 		.4byte	.LFB713
 5274 00a4 00000028 		.4byte	.LFE713-.LFB713
 5275              		.align 2
 5276              	.LEFDE16:
 5277              	.LSFDE18:
 5278 00a8 0000000C 		.4byte	.LEFDE18-.LASFDE18
 5279              	.LASFDE18:
 5280 00ac 00000000 		.4byte	.Lframe0
 5281 00b0 0000013C 		.4byte	.LFB714
 5282 00b4 00000010 		.4byte	.LFE714-.LFB714
 5283              		.align 2
 5284              	.LEFDE18:
 5285              	.LSFDE20:
 5286 00b8 0000001C 		.4byte	.LEFDE20-.LASFDE20
 5287              	.LASFDE20:
 5288 00bc 00000000 		.4byte	.Lframe0
 5289 00c0 0000014C 		.4byte	.LFB572
 5290 00c4 000001A8 		.4byte	.LFE572-.LFB572
 5291 00c8 48       		.byte	0x4
 5292              		.4byte	.LCFI4-.LFB572
 5293 00c9 0E       		.byte	0xe
 5294 00ca 10       		.uleb128 0x10
 5295 00cb 44       		.byte	0x4
 5296              		.4byte	.LCFI5-.LCFI4
 5297 00cc 9F       		.byte	0x9f
 5298 00cd 01       		.uleb128 0x1
 5299 00ce 09       		.byte	0x9
 5300 00cf 41       		.uleb128 0x41
 5301 00d0 00       		.uleb128 0x0
 5302 00d1 48       		.byte	0x4
 5303              		.4byte	.LCFI6-.LCFI5
 5304 00d2 11       		.byte	0x11
 5305 00d3 41       		.uleb128 0x41
 5306 00d4 7F       		.sleb128 -1
 5307 00d5 000000   		.align 2
 5308              	.LEFDE20:
 5309              	.LSFDE22:
 5310 00d8 00000030 		.4byte	.LEFDE22-.LASFDE22
 5311              	.LASFDE22:
 5312 00dc 00000000 		.4byte	.Lframe0
 5313 00e0 000002F4 		.4byte	.LFB594
 5314 00e4 00000188 		.4byte	.LFE594-.LFB594
 5315 00e8 44       		.byte	0x4
 5316              		.4byte	.LCFI7-.LFB594
 5317 00e9 0E       		.byte	0xe
 5318 00ea 50       		.uleb128 0x50
 5319 00eb 48       		.byte	0x4
 5320              		.4byte	.LCFI9-.LCFI7
 5321 00ec 97       		.byte	0x97
 5322 00ed 0D       		.uleb128 0xd
 5323 00ee 09       		.byte	0x9
 5324 00ef 41       		.uleb128 0x41
 5325 00f0 00       		.uleb128 0x0
 5326 00f1 48       		.byte	0x4
 5327              		.4byte	.LCFI10-.LCFI9
 5328 00f2 98       		.byte	0x98
 5329 00f3 0C       		.uleb128 0xc
 5330 00f4 54       		.byte	0x4
 5331              		.4byte	.LCFI12-.LCFI10
 5332 00f5 BE       		.byte	0xbe
 5333 00f6 04       		.uleb128 0x4
 5334 00f7 11       		.byte	0x11
 5335 00f8 41       		.uleb128 0x41
 5336 00f9 7F       		.sleb128 -1
 5337 00fa 48       		.byte	0x4
 5338              		.4byte	.LCFI13-.LCFI12
 5339 00fb BF       		.byte	0xbf
 5340 00fc 02       		.uleb128 0x2
 5341 00fd 54       		.byte	0x4
 5342              		.4byte	.LCFI17-.LCFI13
 5343 00fe 9C       		.byte	0x9c
 5344 00ff 08       		.uleb128 0x8
 5345 0100 9B       		.byte	0x9b
 5346 0101 09       		.uleb128 0x9
 5347 0102 9A       		.byte	0x9a
 5348 0103 0A       		.uleb128 0xa
 5349 0104 99       		.byte	0x99
 5350 0105 0B       		.uleb128 0xb
 5351 0106 48       		.byte	0x4
 5352              		.4byte	.LCFI18-.LCFI17
 5353 0107 9D       		.byte	0x9d
 5354 0108 07       		.uleb128 0x7
 5355 0109 000000   		.align 2
 5356              	.LEFDE22:
 5357              	.LSFDE24:
 5358 010c 0000002C 		.4byte	.LEFDE24-.LASFDE24
 5359              	.LASFDE24:
 5360 0110 00000000 		.4byte	.Lframe0
 5361 0114 0000047C 		.4byte	.LFB586
 5362 0118 00000310 		.4byte	.LFE586-.LFB586
 5363 011c 48       		.byte	0x4
 5364              		.4byte	.LCFI20-.LFB586
 5365 011d 0E       		.byte	0xe
 5366 011e 40       		.uleb128 0x40
 5367 011f 4C       		.byte	0x4
 5368              		.4byte	.LCFI22-.LCFI20
 5369 0120 97       		.byte	0x97
 5370 0121 09       		.uleb128 0x9
 5371 0122 11       		.byte	0x11
 5372 0123 41       		.uleb128 0x41
 5373 0124 7F       		.sleb128 -1
 5374 0125 48       		.byte	0x4
 5375              		.4byte	.LCFI23-.LCFI22
 5376 0126 98       		.byte	0x98
 5377 0127 08       		.uleb128 0x8
 5378 0128 4C       		.byte	0x4
 5379              		.4byte	.LCFI24-.LCFI23
 5380 0129 99       		.byte	0x99
 5381 012a 07       		.uleb128 0x7
 5382 012b 50       		.byte	0x4
 5383              		.4byte	.LCFI26-.LCFI24
 5384 012c 9C       		.byte	0x9c
 5385 012d 04       		.uleb128 0x4
 5386 012e 9B       		.byte	0x9b
 5387 012f 05       		.uleb128 0x5
 5388 0130 50       		.byte	0x4
 5389              		.4byte	.LCFI28-.LCFI26
 5390 0131 9E       		.byte	0x9e
 5391 0132 02       		.uleb128 0x2
 5392 0133 9D       		.byte	0x9d
 5393 0134 03       		.uleb128 0x3
 5394 0135 50       		.byte	0x4
 5395              		.4byte	.LCFI30-.LCFI28
 5396 0136 9A       		.byte	0x9a
 5397 0137 06       		.uleb128 0x6
 5398 0138 9F       		.byte	0x9f
 5399 0139 01       		.uleb128 0x1
 5400 013a 0000     		.align 2
 5401              	.LEFDE24:
 5402              	.LSFDE26:
 5403 013c 00000030 		.4byte	.LEFDE26-.LASFDE26
 5404              	.LASFDE26:
 5405 0140 00000000 		.4byte	.Lframe0
 5406 0144 0000078C 		.4byte	.LFB593
 5407 0148 000001C4 		.4byte	.LFE593-.LFB593
 5408 014c 48       		.byte	0x4
 5409              		.4byte	.LCFI32-.LFB593
 5410 014d 0E       		.byte	0xe
 5411 014e 50       		.uleb128 0x50
 5412 014f 44       		.byte	0x4
 5413              		.4byte	.LCFI33-.LCFI32
 5414 0150 BE       		.byte	0xbe
 5415 0151 04       		.uleb128 0x4
 5416 0152 09       		.byte	0x9
 5417 0153 41       		.uleb128 0x41
 5418 0154 00       		.uleb128 0x0
 5419 0155 4C       		.byte	0x4
 5420              		.4byte	.LCFI35-.LCFI33
 5421 0156 BF       		.byte	0xbf
 5422 0157 02       		.uleb128 0x2
 5423 0158 11       		.byte	0x11
 5424 0159 41       		.uleb128 0x41
 5425 015a 7F       		.sleb128 -1
 5426 015b 48       		.byte	0x4
 5427              		.4byte	.LCFI36-.LCFI35
 5428 015c 97       		.byte	0x97
 5429 015d 0D       		.uleb128 0xd
 5430 015e 58       		.byte	0x4
 5431              		.4byte	.LCFI39-.LCFI36
 5432 015f 9A       		.byte	0x9a
 5433 0160 0A       		.uleb128 0xa
 5434 0161 99       		.byte	0x99
 5435 0162 0B       		.uleb128 0xb
 5436 0163 98       		.byte	0x98
 5437 0164 0C       		.uleb128 0xc
 5438 0165 4C       		.byte	0x4
 5439              		.4byte	.LCFI41-.LCFI39
 5440 0166 9C       		.byte	0x9c
 5441 0167 08       		.uleb128 0x8
 5442 0168 9B       		.byte	0x9b
 5443 0169 09       		.uleb128 0x9
 5444 016a 48       		.byte	0x4
 5445              		.4byte	.LCFI42-.LCFI41
 5446 016b 9D       		.byte	0x9d
 5447 016c 07       		.uleb128 0x7
 5448 016d 000000   		.align 2
 5449              	.LEFDE26:
 5450              	.LSFDE28:
 5451 0170 00000028 		.4byte	.LEFDE28-.LASFDE28
 5452              	.LASFDE28:
 5453 0174 00000000 		.4byte	.Lframe0
 5454 0178 00000000 		.4byte	.LFB691
 5455 017c 000000F0 		.4byte	.LFE691-.LFB691
 5456 0180 4C       		.byte	0x4
 5457              		.4byte	.LCFI44-.LFB691
 5458 0181 0E       		.byte	0xe
 5459 0182 20       		.uleb128 0x20
 5460 0183 44       		.byte	0x4
 5461              		.4byte	.LCFI45-.LCFI44
 5462 0184 9B       		.byte	0x9b
 5463 0185 05       		.uleb128 0x5
 5464 0186 09       		.byte	0x9
 5465 0187 41       		.uleb128 0x41
 5466 0188 00       		.uleb128 0x0
 5467 0189 48       		.byte	0x4
 5468              		.4byte	.LCFI46-.LCFI45
 5469 018a 9C       		.byte	0x9c
 5470 018b 04       		.uleb128 0x4
 5471 018c 48       		.byte	0x4
 5472              		.4byte	.LCFI47-.LCFI46
 5473 018d 9D       		.byte	0x9d
 5474 018e 03       		.uleb128 0x3
 5475 018f 48       		.byte	0x4
 5476              		.4byte	.LCFI48-.LCFI47
 5477 0190 9E       		.byte	0x9e
 5478 0191 02       		.uleb128 0x2
 5479 0192 50       		.byte	0x4
 5480              		.4byte	.LCFI51-.LCFI48
 5481 0193 11       		.byte	0x11
 5482 0194 41       		.uleb128 0x41
 5483 0195 7F       		.sleb128 -1
 5484 0196 9F       		.byte	0x9f
 5485 0197 01       		.uleb128 0x1
 5486 0198 9A       		.byte	0x9a
 5487 0199 06       		.uleb128 0x6
 5488 019a 0000     		.align 2
 5489              	.LEFDE28:
 5490              	.LSFDE30:
 5491 019c 0000001C 		.4byte	.LEFDE30-.LASFDE30
 5492              	.LASFDE30:
 5493 01a0 00000000 		.4byte	.Lframe0
 5494 01a4 00000000 		.4byte	.LFB629
 5495 01a8 0000005C 		.4byte	.LFE629-.LFB629
 5496 01ac 44       		.byte	0x4
 5497              		.4byte	.LCFI52-.LFB629
 5498 01ad 0E       		.byte	0xe
 5499 01ae 10       		.uleb128 0x10
 5500 01af 48       		.byte	0x4
 5501              		.4byte	.LCFI54-.LCFI52
 5502 01b0 9F       		.byte	0x9f
 5503 01b1 01       		.uleb128 0x1
 5504 01b2 09       		.byte	0x9
 5505 01b3 41       		.uleb128 0x41
 5506 01b4 00       		.uleb128 0x0
 5507 01b5 48       		.byte	0x4
 5508              		.4byte	.LCFI55-.LCFI54
 5509 01b6 9E       		.byte	0x9e
 5510 01b7 02       		.uleb128 0x2
 5511 01b8 48       		.byte	0x4
 5512              		.4byte	.LCFI56-.LCFI55
 5513 01b9 11       		.byte	0x11
 5514 01ba 41       		.uleb128 0x41
 5515 01bb 7F       		.sleb128 -1
 5516              		.align 2
 5517              	.LEFDE30:
 5518              	.LSFDE32:
 5519 01bc 00000028 		.4byte	.LEFDE32-.LASFDE32
 5520              	.LASFDE32:
 5521 01c0 00000000 		.4byte	.Lframe0
 5522 01c4 00000950 		.4byte	.LFB581
 5523 01c8 00000308 		.4byte	.LFE581-.LFB581
 5524 01cc 48       		.byte	0x4
 5525              		.4byte	.LCFI58-.LFB581
 5526 01cd 0E       		.byte	0xe
 5527 01ce 20       		.uleb128 0x20
 5528 01cf 44       		.byte	0x4
 5529              		.4byte	.LCFI59-.LCFI58
 5530 01d0 9A       		.byte	0x9a
 5531 01d1 06       		.uleb128 0x6
 5532 01d2 09       		.byte	0x9
 5533 01d3 41       		.uleb128 0x41
 5534 01d4 00       		.uleb128 0x0
 5535 01d5 50       		.byte	0x4
 5536              		.4byte	.LCFI61-.LCFI59
 5537 01d6 9D       		.byte	0x9d
 5538 01d7 03       		.uleb128 0x3
 5539 01d8 11       		.byte	0x11
 5540 01d9 41       		.uleb128 0x41
 5541 01da 7F       		.sleb128 -1
 5542 01db 50       		.byte	0x4
 5543              		.4byte	.LCFI62-.LCFI61
 5544 01dc 9F       		.byte	0x9f
 5545 01dd 01       		.uleb128 0x1
 5546 01de 54       		.byte	0x4
 5547              		.4byte	.LCFI65-.LCFI62
 5548 01df 9C       		.byte	0x9c
 5549 01e0 04       		.uleb128 0x4
 5550 01e1 9B       		.byte	0x9b
 5551 01e2 05       		.uleb128 0x5
 5552 01e3 9E       		.byte	0x9e
 5553 01e4 02       		.uleb128 0x2
 5554 01e5 000000   		.align 2
 5555              	.LEFDE32:
 5556              	.LSFDE34:
 5557 01e8 00000020 		.4byte	.LEFDE34-.LASFDE34
 5558              	.LASFDE34:
 5559 01ec 00000000 		.4byte	.Lframe0
 5560 01f0 00000C58 		.4byte	.LFB575
 5561 01f4 000000BC 		.4byte	.LFE575-.LFB575
 5562 01f8 48       		.byte	0x4
 5563              		.4byte	.LCFI67-.LFB575
 5564 01f9 0E       		.byte	0xe
 5565 01fa 18       		.uleb128 0x18
 5566 01fb 44       		.byte	0x4
 5567              		.4byte	.LCFI68-.LCFI67
 5568 01fc 9E       		.byte	0x9e
 5569 01fd 02       		.uleb128 0x2
 5570 01fe 09       		.byte	0x9
 5571 01ff 41       		.uleb128 0x41
 5572 0200 00       		.uleb128 0x0
 5573 0201 4C       		.byte	0x4
 5574              		.4byte	.LCFI70-.LCFI68
 5575 0202 9D       		.byte	0x9d
 5576 0203 03       		.uleb128 0x3
 5577 0204 11       		.byte	0x11
 5578 0205 41       		.uleb128 0x41
 5579 0206 7F       		.sleb128 -1
 5580 0207 48       		.byte	0x4
 5581              		.4byte	.LCFI71-.LCFI70
 5582 0208 9F       		.byte	0x9f
 5583 0209 01       		.uleb128 0x1
 5584 020a 0000     		.align 2
 5585              	.LEFDE34:
 5586              	.LSFDE36:
 5587 020c 0000001C 		.4byte	.LEFDE36-.LASFDE36
 5588              	.LASFDE36:
 5589 0210 00000000 		.4byte	.Lframe0
 5590 0214 00000D14 		.4byte	.LFB576
 5591 0218 0000004C 		.4byte	.LFE576-.LFB576
 5592 021c 44       		.byte	0x4
 5593              		.4byte	.LCFI72-.LFB576
 5594 021d 0E       		.byte	0xe
 5595 021e 18       		.uleb128 0x18
 5596 021f 48       		.byte	0x4
 5597              		.4byte	.LCFI74-.LCFI72
 5598 0220 9C       		.byte	0x9c
 5599 0221 04       		.uleb128 0x4
 5600 0222 09       		.byte	0x9
 5601 0223 41       		.uleb128 0x41
 5602 0224 00       		.uleb128 0x0
 5603 0225 48       		.byte	0x4
 5604              		.4byte	.LCFI75-.LCFI74
 5605 0226 9D       		.byte	0x9d
 5606 0227 03       		.uleb128 0x3
 5607 0228 48       		.byte	0x4
 5608              		.4byte	.LCFI76-.LCFI75
 5609 0229 11       		.byte	0x11
 5610 022a 41       		.uleb128 0x41
 5611 022b 7F       		.sleb128 -1
 5612              		.align 2
 5613              	.LEFDE36:
 5614              	.LSFDE38:
 5615 022c 00000018 		.4byte	.LEFDE38-.LASFDE38
 5616              	.LASFDE38:
 5617 0230 00000000 		.4byte	.Lframe0
 5618 0234 00000D60 		.4byte	.LFB570
 5619 0238 00000074 		.4byte	.LFE570-.LFB570
 5620 023c 48       		.byte	0x4
 5621              		.4byte	.LCFI78-.LFB570
 5622 023d 0E       		.byte	0xe
 5623 023e 18       		.uleb128 0x18
 5624 023f 54       		.byte	0x4
 5625              		.4byte	.LCFI80-.LCFI78
 5626 0240 9D       		.byte	0x9d
 5627 0241 03       		.uleb128 0x3
 5628 0242 11       		.byte	0x11
 5629 0243 41       		.uleb128 0x41
 5630 0244 7F       		.sleb128 -1
 5631 0245 000000   		.align 2
 5632              	.LEFDE38:
 5633              	.LSFDE40:
 5634 0248 0000001C 		.4byte	.LEFDE40-.LASFDE40
 5635              	.LASFDE40:
 5636 024c 00000000 		.4byte	.Lframe0
 5637 0250 00000DD4 		.4byte	.LFB568
 5638 0254 00000054 		.4byte	.LFE568-.LFB568
 5639 0258 48       		.byte	0x4
 5640              		.4byte	.LCFI82-.LFB568
 5641 0259 0E       		.byte	0xe
 5642 025a 18       		.uleb128 0x18
 5643 025b 44       		.byte	0x4
 5644              		.4byte	.LCFI83-.LCFI82
 5645 025c 9D       		.byte	0x9d
 5646 025d 03       		.uleb128 0x3
 5647 025e 09       		.byte	0x9
 5648 025f 41       		.uleb128 0x41
 5649 0260 00       		.uleb128 0x0
 5650 0261 48       		.byte	0x4
 5651              		.4byte	.LCFI84-.LCFI83
 5652 0262 11       		.byte	0x11
 5653 0263 41       		.uleb128 0x41
 5654 0264 7F       		.sleb128 -1
 5655 0265 000000   		.align 2
 5656              	.LEFDE40:
 5657              	.LSFDE42:
 5658 0268 0000000C 		.4byte	.LEFDE42-.LASFDE42
 5659              	.LASFDE42:
 5660 026c 00000000 		.4byte	.Lframe0
 5661 0270 00000E28 		.4byte	.LFB569
 5662 0274 00000004 		.4byte	.LFE569-.LFB569
 5663              		.align 2
 5664              	.LEFDE42:
 5665              	.LSFDE44:
 5666 0278 00000020 		.4byte	.LEFDE44-.LASFDE44
 5667              	.LASFDE44:
 5668 027c 00000000 		.4byte	.Lframe0
 5669 0280 00000E2C 		.4byte	.LFB563
 5670 0284 00000094 		.4byte	.LFE563-.LFB563
 5671 0288 48       		.byte	0x4
 5672              		.4byte	.LCFI86-.LFB563
 5673 0289 0E       		.byte	0xe
 5674 028a 18       		.uleb128 0x18
 5675 028b 48       		.byte	0x4
 5676              		.4byte	.LCFI87-.LCFI86
 5677 028c 9D       		.byte	0x9d
 5678 028d 03       		.uleb128 0x3
 5679 028e 09       		.byte	0x9
 5680 028f 41       		.uleb128 0x41
 5681 0290 00       		.uleb128 0x0
 5682 0291 48       		.byte	0x4
 5683              		.4byte	.LCFI88-.LCFI87
 5684 0292 11       		.byte	0x11
 5685 0293 41       		.uleb128 0x41
 5686 0294 7F       		.sleb128 -1
 5687 0295 5C       		.byte	0x4
 5688              		.4byte	.LCFI89-.LCFI88
 5689 0296 9E       		.byte	0x9e
 5690 0297 02       		.uleb128 0x2
 5691 0298 48       		.byte	0x4
 5692              		.4byte	.LCFI90-.LCFI89
 5693 0299 9F       		.byte	0x9f
 5694 029a 01       		.uleb128 0x1
 5695 029b 00       		.align 2
 5696              	.LEFDE44:
 5697              	.LSFDE46:
 5698 029c 00000024 		.4byte	.LEFDE46-.LASFDE46
 5699              	.LASFDE46:
 5700 02a0 00000000 		.4byte	.Lframe0
 5701 02a4 00000000 		.4byte	.LFB692
 5702 02a8 00000144 		.4byte	.LFE692-.LFB692
 5703 02ac 48       		.byte	0x4
 5704              		.4byte	.LCFI92-.LFB692
 5705 02ad 0E       		.byte	0xe
 5706 02ae 20       		.uleb128 0x20
 5707 02af 44       		.byte	0x4
 5708              		.4byte	.LCFI93-.LCFI92
 5709 02b0 9B       		.byte	0x9b
 5710 02b1 05       		.uleb128 0x5
 5711 02b2 09       		.byte	0x9
 5712 02b3 41       		.uleb128 0x41
 5713 02b4 00       		.uleb128 0x0
 5714 02b5 4C       		.byte	0x4
 5715              		.4byte	.LCFI95-.LCFI93
 5716 02b6 9C       		.byte	0x9c
 5717 02b7 04       		.uleb128 0x4
 5718 02b8 11       		.byte	0x11
 5719 02b9 41       		.uleb128 0x41
 5720 02ba 7F       		.sleb128 -1
 5721 02bb 4C       		.byte	0x4
 5722              		.4byte	.LCFI96-.LCFI95
 5723 02bc 9E       		.byte	0x9e
 5724 02bd 02       		.uleb128 0x2
 5725 02be 50       		.byte	0x4
 5726              		.4byte	.LCFI98-.LCFI96
 5727 02bf 9D       		.byte	0x9d
 5728 02c0 03       		.uleb128 0x3
 5729 02c1 9F       		.byte	0x9f
 5730 02c2 01       		.uleb128 0x1
 5731 02c3 00       		.align 2
 5732              	.LEFDE46:
 5733              	.LSFDE48:
 5734 02c4 0000001C 		.4byte	.LEFDE48-.LASFDE48
 5735              	.LASFDE48:
 5736 02c8 00000000 		.4byte	.Lframe0
 5737 02cc 00000000 		.4byte	.LFB675
 5738 02d0 00000188 		.4byte	.LFE675-.LFB675
 5739 02d4 48       		.byte	0x4
 5740              		.4byte	.LCFI100-.LFB675
 5741 02d5 0E       		.byte	0xe
 5742 02d6 18       		.uleb128 0x18
 5743 02d7 50       		.byte	0x4
 5744              		.4byte	.LCFI103-.LCFI100
 5745 02d8 9D       		.byte	0x9d
 5746 02d9 03       		.uleb128 0x3
 5747 02da 9F       		.byte	0x9f
 5748 02db 01       		.uleb128 0x1
 5749 02dc 11       		.byte	0x11
 5750 02dd 41       		.uleb128 0x41
 5751 02de 7F       		.sleb128 -1
 5752 02df 4C       		.byte	0x4
 5753              		.4byte	.LCFI104-.LCFI103
 5754 02e0 9E       		.byte	0x9e
 5755 02e1 02       		.uleb128 0x2
 5756 02e2 0000     		.align 2
 5757              	.LEFDE48:
 5758              	.LSFDE50:
 5759 02e4 0000001C 		.4byte	.LEFDE50-.LASFDE50
 5760              	.LASFDE50:
 5761 02e8 00000000 		.4byte	.Lframe0
 5762 02ec 00000EC0 		.4byte	.LFB567
 5763 02f0 00000060 		.4byte	.LFE567-.LFB567
 5764 02f4 48       		.byte	0x4
 5765              		.4byte	.LCFI106-.LFB567
 5766 02f5 0E       		.byte	0xe
 5767 02f6 10       		.uleb128 0x10
 5768 02f7 44       		.byte	0x4
 5769              		.4byte	.LCFI107-.LCFI106
 5770 02f8 9F       		.byte	0x9f
 5771 02f9 01       		.uleb128 0x1
 5772 02fa 09       		.byte	0x9
 5773 02fb 41       		.uleb128 0x41
 5774 02fc 00       		.uleb128 0x0
 5775 02fd 4C       		.byte	0x4
 5776              		.4byte	.LCFI109-.LCFI107
 5777 02fe 11       		.byte	0x11
 5778 02ff 41       		.uleb128 0x41
 5779 0300 7F       		.sleb128 -1
 5780 0301 9E       		.byte	0x9e
 5781 0302 02       		.uleb128 0x2
 5782 0303 00       		.align 2
 5783              	.LEFDE50:
 5784              	.LSFDE52:
 5785 0304 0000001C 		.4byte	.LEFDE52-.LASFDE52
 5786              	.LASFDE52:
 5787 0308 00000000 		.4byte	.Lframe0
 5788 030c 00000F20 		.4byte	.LFB566
 5789 0310 00000060 		.4byte	.LFE566-.LFB566
 5790 0314 48       		.byte	0x4
 5791              		.4byte	.LCFI111-.LFB566
 5792 0315 0E       		.byte	0xe
 5793 0316 10       		.uleb128 0x10
 5794 0317 44       		.byte	0x4
 5795              		.4byte	.LCFI112-.LCFI111
 5796 0318 9F       		.byte	0x9f
 5797 0319 01       		.uleb128 0x1
 5798 031a 09       		.byte	0x9
 5799 031b 41       		.uleb128 0x41
 5800 031c 00       		.uleb128 0x0
 5801 031d 4C       		.byte	0x4
 5802              		.4byte	.LCFI114-.LCFI112
 5803 031e 11       		.byte	0x11
 5804 031f 41       		.uleb128 0x41
 5805 0320 7F       		.sleb128 -1
 5806 0321 9E       		.byte	0x9e
 5807 0322 02       		.uleb128 0x2
 5808 0323 00       		.align 2
 5809              	.LEFDE52:
 5810              	.LSFDE54:
 5811 0324 00000020 		.4byte	.LEFDE54-.LASFDE54
 5812              	.LASFDE54:
 5813 0328 00000000 		.4byte	.Lframe0
 5814 032c 00000F80 		.4byte	.LFB564
 5815 0330 00000094 		.4byte	.LFE564-.LFB564
 5816 0334 48       		.byte	0x4
 5817              		.4byte	.LCFI116-.LFB564
 5818 0335 0E       		.byte	0xe
 5819 0336 18       		.uleb128 0x18
 5820 0337 48       		.byte	0x4
 5821              		.4byte	.LCFI117-.LCFI116
 5822 0338 9D       		.byte	0x9d
 5823 0339 03       		.uleb128 0x3
 5824 033a 09       		.byte	0x9
 5825 033b 41       		.uleb128 0x41
 5826 033c 00       		.uleb128 0x0
 5827 033d 48       		.byte	0x4
 5828              		.4byte	.LCFI118-.LCFI117
 5829 033e 11       		.byte	0x11
 5830 033f 41       		.uleb128 0x41
 5831 0340 7F       		.sleb128 -1
 5832 0341 5C       		.byte	0x4
 5833              		.4byte	.LCFI119-.LCFI118
 5834 0342 9E       		.byte	0x9e
 5835 0343 02       		.uleb128 0x2
 5836 0344 48       		.byte	0x4
 5837              		.4byte	.LCFI120-.LCFI119
 5838 0345 9F       		.byte	0x9f
 5839 0346 01       		.uleb128 0x1
 5840 0347 00       		.align 2
 5841              	.LEFDE54:
 5842              	.LSFDE56:
 5843 0348 00000034 		.4byte	.LEFDE56-.LASFDE56
 5844              	.LASFDE56:
 5845 034c 00000000 		.4byte	.Lframe0
 5846 0350 00001014 		.4byte	.LFB579
 5847 0354 000002E8 		.4byte	.LFE579-.LFB579
 5848 0358 48       		.byte	0x4
 5849              		.4byte	.LCFI122-.LFB579
 5850 0359 0E       		.byte	0xe
 5851 035a E801     		.uleb128 0xe8
 5852 035c 44       		.byte	0x4
 5853              		.4byte	.LCFI123-.LCFI122
 5854 035d 9F       		.byte	0x9f
 5855 035e 01       		.uleb128 0x1
 5856 035f 09       		.byte	0x9
 5857 0360 41       		.uleb128 0x41
 5858 0361 00       		.uleb128 0x0
 5859 0362 02       		.byte	0x4
 5860 0363 40       		.4byte	.LCFI136-.LCFI123
 5861 0364 9C       		.byte	0x9c
 5862 0365 04       		.uleb128 0x4
 5863 0366 9B       		.byte	0x9b
 5864 0367 05       		.uleb128 0x5
 5865 0368 9A       		.byte	0x9a
 5866 0369 06       		.uleb128 0x6
 5867 036a 99       		.byte	0x99
 5868 036b 07       		.uleb128 0x7
 5869 036c 98       		.byte	0x98
 5870 036d 08       		.uleb128 0x8
 5871 036e 97       		.byte	0x97
 5872 036f 09       		.uleb128 0x9
 5873 0370 96       		.byte	0x96
 5874 0371 0A       		.uleb128 0xa
 5875 0372 95       		.byte	0x95
 5876 0373 0B       		.uleb128 0xb
 5877 0374 94       		.byte	0x94
 5878 0375 0C       		.uleb128 0xc
 5879 0376 93       		.byte	0x93
 5880 0377 0D       		.uleb128 0xd
 5881 0378 9E       		.byte	0x9e
 5882 0379 02       		.uleb128 0x2
 5883 037a 9D       		.byte	0x9d
 5884 037b 03       		.uleb128 0x3
 5885 037c 11       		.byte	0x11
 5886 037d 41       		.uleb128 0x41
 5887 037e 7F       		.sleb128 -1
 5888 037f 00       		.align 2
 5889              	.LEFDE56:
 5890              	.LSFDE58:
 5891 0380 00000034 		.4byte	.LEFDE58-.LASFDE58
 5892              	.LASFDE58:
 5893 0384 00000000 		.4byte	.Lframe0
 5894 0388 000012FC 		.4byte	.LFB591
 5895 038c 000001CC 		.4byte	.LFE591-.LFB591
 5896 0390 44       		.byte	0x4
 5897              		.4byte	.LCFI137-.LFB591
 5898 0391 0E       		.byte	0xe
 5899 0392 78       		.uleb128 0x78
 5900 0393 48       		.byte	0x4
 5901              		.4byte	.LCFI139-.LCFI137
 5902 0394 97       		.byte	0x97
 5903 0395 09       		.uleb128 0x9
 5904 0396 09       		.byte	0x9
 5905 0397 41       		.uleb128 0x41
 5906 0398 00       		.uleb128 0x0
 5907 0399 50       		.byte	0x4
 5908              		.4byte	.LCFI141-.LCFI139
 5909 039a 9B       		.byte	0x9b
 5910 039b 05       		.uleb128 0x5
 5911 039c 95       		.byte	0x95
 5912 039d 0B       		.uleb128 0xb
 5913 039e 74       		.byte	0x4
 5914              		.4byte	.LCFI152-.LCFI141
 5915 039f 9F       		.byte	0x9f
 5916 03a0 01       		.uleb128 0x1
 5917 03a1 9E       		.byte	0x9e
 5918 03a2 02       		.uleb128 0x2
 5919 03a3 9D       		.byte	0x9d
 5920 03a4 03       		.uleb128 0x3
 5921 03a5 9C       		.byte	0x9c
 5922 03a6 04       		.uleb128 0x4
 5923 03a7 9A       		.byte	0x9a
 5924 03a8 06       		.uleb128 0x6
 5925 03a9 99       		.byte	0x99
 5926 03aa 07       		.uleb128 0x7
 5927 03ab 98       		.byte	0x98
 5928 03ac 08       		.uleb128 0x8
 5929 03ad 96       		.byte	0x96
 5930 03ae 0A       		.uleb128 0xa
 5931 03af 94       		.byte	0x94
 5932 03b0 0C       		.uleb128 0xc
 5933 03b1 93       		.byte	0x93
 5934 03b2 0D       		.uleb128 0xd
 5935 03b3 11       		.byte	0x11
 5936 03b4 41       		.uleb128 0x41
 5937 03b5 7F       		.sleb128 -1
 5938 03b6 0000     		.align 2
 5939              	.LEFDE58:
 5940              	.LSFDE60:
 5941 03b8 00000014 		.4byte	.LEFDE60-.LASFDE60
 5942              	.LASFDE60:
 5943 03bc 00000000 		.4byte	.Lframe0
 5944 03c0 000014C8 		.4byte	.LFB589
 5945 03c4 0000002C 		.4byte	.LFE589-.LFB589
 5946 03c8 48       		.byte	0x4
 5947              		.4byte	.LCFI154-.LFB589
 5948 03c9 0E       		.byte	0xe
 5949 03ca 08       		.uleb128 0x8
 5950 03cb 44       		.byte	0x4
 5951              		.4byte	.LCFI155-.LCFI154
 5952 03cc 11       		.byte	0x11
 5953 03cd 41       		.uleb128 0x41
 5954 03ce 7F       		.sleb128 -1
 5955 03cf 00       		.align 2
 5956              	.LEFDE60:
 5957              	.LSFDE62:
 5958 03d0 00000014 		.4byte	.LEFDE62-.LASFDE62
 5959              	.LASFDE62:
 5960 03d4 00000000 		.4byte	.Lframe0
 5961 03d8 000014F4 		.4byte	.LFB590
 5962 03dc 00000020 		.4byte	.LFE590-.LFB590
 5963 03e0 48       		.byte	0x4
 5964              		.4byte	.LCFI157-.LFB590
 5965 03e1 0E       		.byte	0xe
 5966 03e2 08       		.uleb128 0x8
 5967 03e3 44       		.byte	0x4
 5968              		.4byte	.LCFI158-.LCFI157
 5969 03e4 11       		.byte	0x11
 5970 03e5 41       		.uleb128 0x41
 5971 03e6 7F       		.sleb128 -1
 5972 03e7 00       		.align 2
 5973              	.LEFDE62:
 5974              	.LSFDE64:
 5975 03e8 00000038 		.4byte	.LEFDE64-.LASFDE64
 5976              	.LASFDE64:
 5977 03ec 00000000 		.4byte	.Lframe0
 5978 03f0 00001514 		.4byte	.LFB587
 5979 03f4 0000026C 		.4byte	.LFE587-.LFB587
 5980 03f8 44       		.byte	0x4
 5981              		.4byte	.LCFI159-.LFB587
 5982 03f9 0E       		.byte	0xe
 5983 03fa B001     		.uleb128 0xb0
 5984 03fc 48       		.byte	0x4
 5985              		.4byte	.LCFI161-.LCFI159
 5986 03fd 98       		.byte	0x98
 5987 03fe 08       		.uleb128 0x8
 5988 03ff 09       		.byte	0x9
 5989 0400 41       		.uleb128 0x41
 5990 0401 00       		.uleb128 0x0
 5991 0402 50       		.byte	0x4
 5992              		.4byte	.LCFI163-.LCFI161
 5993 0403 11       		.byte	0x11
 5994 0404 41       		.uleb128 0x41
 5995 0405 7F       		.sleb128 -1
 5996 0406 9B       		.byte	0x9b
 5997 0407 05       		.uleb128 0x5
 5998 0408 78       		.byte	0x4
 5999              		.4byte	.LCFI176-.LCFI163
 6000 0409 9F       		.byte	0x9f
 6001 040a 01       		.uleb128 0x1
 6002 040b 9E       		.byte	0x9e
 6003 040c 02       		.uleb128 0x2
 6004 040d 9D       		.byte	0x9d
 6005 040e 03       		.uleb128 0x3
 6006 040f 9C       		.byte	0x9c
 6007 0410 04       		.uleb128 0x4
 6008 0411 9A       		.byte	0x9a
 6009 0412 06       		.uleb128 0x6
 6010 0413 99       		.byte	0x99
 6011 0414 07       		.uleb128 0x7
 6012 0415 97       		.byte	0x97
 6013 0416 09       		.uleb128 0x9
 6014 0417 96       		.byte	0x96
 6015 0418 0A       		.uleb128 0xa
 6016 0419 95       		.byte	0x95
 6017 041a 0B       		.uleb128 0xb
 6018 041b 94       		.byte	0x94
 6019 041c 0C       		.uleb128 0xc
 6020 041d 93       		.byte	0x93
 6021 041e 0D       		.uleb128 0xd
 6022 041f 92       		.byte	0x92
 6023 0420 0E       		.uleb128 0xe
 6024 0421 91       		.byte	0x91
 6025 0422 0F       		.uleb128 0xf
 6026 0423 00       		.align 2
 6027              	.LEFDE64:
 6028              	.LSFDE66:
 6029 0424 00000014 		.4byte	.LEFDE66-.LASFDE66
 6030              	.LASFDE66:
 6031 0428 00000000 		.4byte	.Lframe0
 6032 042c 00001780 		.4byte	.LFB588
 6033 0430 00000020 		.4byte	.LFE588-.LFB588
 6034 0434 48       		.byte	0x4
 6035              		.4byte	.LCFI178-.LFB588
 6036 0435 0E       		.byte	0xe
 6037 0436 08       		.uleb128 0x8
 6038 0437 44       		.byte	0x4
 6039              		.4byte	.LCFI179-.LCFI178
 6040 0438 11       		.byte	0x11
 6041 0439 41       		.uleb128 0x41
 6042 043a 7F       		.sleb128 -1
 6043 043b 00       		.align 2
 6044              	.LEFDE66:
 6045              	.LSFDE68:
 6046 043c 00000044 		.4byte	.LEFDE68-.LASFDE68
 6047              	.LASFDE68:
 6048 0440 00000000 		.4byte	.Lframe0
 6049 0444 000017A0 		.4byte	.LFB584
 6050 0448 000003EC 		.4byte	.LFE584-.LFB584
 6051 044c 48       		.byte	0x4
 6052              		.4byte	.LCFI181-.LFB584
 6053 044d 0E       		.byte	0xe
 6054 044e F801     		.uleb128 0xf8
 6055 0450 44       		.byte	0x4
 6056              		.4byte	.LCFI182-.LCFI181
 6057 0451 91       		.byte	0x91
 6058 0452 11       		.uleb128 0x11
 6059 0453 09       		.byte	0x9
 6060 0454 41       		.uleb128 0x41
 6061 0455 00       		.uleb128 0x0
 6062 0456 48       		.byte	0x4
 6063              		.4byte	.LCFI183-.LCFI182
 6064 0457 92       		.byte	0x92
 6065 0458 10       		.uleb128 0x10
 6066 0459 48       		.byte	0x4
 6067              		.4byte	.LCFI184-.LCFI183
 6068 045a 93       		.byte	0x93
 6069 045b 0F       		.uleb128 0xf
 6070 045c 48       		.byte	0x4
 6071              		.4byte	.LCFI185-.LCFI184
 6072 045d 9B       		.byte	0x9b
 6073 045e 07       		.uleb128 0x7
 6074 045f 48       		.byte	0x4
 6075              		.4byte	.LCFI186-.LCFI185
 6076 0460 9D       		.byte	0x9d
 6077 0461 05       		.uleb128 0x5
 6078 0462 48       		.byte	0x4
 6079              		.4byte	.LCFI187-.LCFI186
 6080 0463 9E       		.byte	0x9e
 6081 0464 04       		.uleb128 0x4
 6082 0465 02       		.byte	0x4
 6083 0466 44       		.4byte	.LCFI201-.LCFI187
 6084 0467 9C       		.byte	0x9c
 6085 0468 06       		.uleb128 0x6
 6086 0469 9A       		.byte	0x9a
 6087 046a 08       		.uleb128 0x8
 6088 046b 99       		.byte	0x99
 6089 046c 09       		.uleb128 0x9
 6090 046d 98       		.byte	0x98
 6091 046e 0A       		.uleb128 0xa
 6092 046f 97       		.byte	0x97
 6093 0470 0B       		.uleb128 0xb
 6094 0471 96       		.byte	0x96
 6095 0472 0C       		.uleb128 0xc
 6096 0473 95       		.byte	0x95
 6097 0474 0D       		.uleb128 0xd
 6098 0475 94       		.byte	0x94
 6099 0476 0E       		.uleb128 0xe
 6100 0477 90       		.byte	0x90
 6101 0478 12       		.uleb128 0x12
 6102 0479 8F       		.byte	0x8f
 6103 047a 13       		.uleb128 0x13
 6104 047b 8E       		.byte	0x8e
 6105 047c 14       		.uleb128 0x14
 6106 047d BF       		.byte	0xbf
 6107 047e 02       		.uleb128 0x2
 6108 047f 11       		.byte	0x11
 6109 0480 41       		.uleb128 0x41
 6110 0481 7F       		.sleb128 -1
 6111 0482 9F       		.byte	0x9f
 6112 0483 03       		.uleb128 0x3
 6113              		.align 2
 6114              	.LEFDE68:
 6115              	.LSFDE70:
 6116 0484 00000014 		.4byte	.LEFDE70-.LASFDE70
 6117              	.LASFDE70:
 6118 0488 00000000 		.4byte	.Lframe0
 6119 048c 00001B8C 		.4byte	.LFB585
 6120 0490 0000002C 		.4byte	.LFE585-.LFB585
 6121 0494 48       		.byte	0x4
 6122              		.4byte	.LCFI203-.LFB585
 6123 0495 0E       		.byte	0xe
 6124 0496 10       		.uleb128 0x10
 6125 0497 44       		.byte	0x4
 6126              		.4byte	.LCFI204-.LCFI203
 6127 0498 11       		.byte	0x11
 6128 0499 41       		.uleb128 0x41
 6129 049a 7F       		.sleb128 -1
 6130 049b 00       		.align 2
 6131              	.LEFDE70:
 6132              	.LSFDE72:
 6133 049c 00000020 		.4byte	.LEFDE72-.LASFDE72
 6134              	.LASFDE72:
 6135 04a0 00000000 		.4byte	.Lframe0
 6136 04a4 00001BB8 		.4byte	.LFB580
 6137 04a8 000000A8 		.4byte	.LFE580-.LFB580
 6138 04ac 48       		.byte	0x4
 6139              		.4byte	.LCFI206-.LFB580
 6140 04ad 0E       		.byte	0xe
 6141 04ae 28       		.uleb128 0x28
 6142 04af 44       		.byte	0x4
 6143              		.4byte	.LCFI207-.LCFI206
 6144 04b0 9C       		.byte	0x9c
 6145 04b1 04       		.uleb128 0x4
 6146 04b2 09       		.byte	0x9
 6147 04b3 41       		.uleb128 0x41
 6148 04b4 00       		.uleb128 0x0
 6149 04b5 50       		.byte	0x4
 6150              		.4byte	.LCFI209-.LCFI207
 6151 04b6 9E       		.byte	0x9e
 6152 04b7 02       		.uleb128 0x2
 6153 04b8 11       		.byte	0x11
 6154 04b9 41       		.uleb128 0x41
 6155 04ba 7F       		.sleb128 -1
 6156 04bb 50       		.byte	0x4
 6157              		.4byte	.LCFI211-.LCFI209
 6158 04bc 9D       		.byte	0x9d
 6159 04bd 03       		.uleb128 0x3
 6160 04be 9F       		.byte	0x9f
 6161 04bf 01       		.uleb128 0x1
 6162              		.align 2
 6163              	.LEFDE72:
 6164              	.LSFDE74:
 6165 04c0 00000028 		.4byte	.LEFDE74-.LASFDE74
 6166              	.LASFDE74:
 6167 04c4 00000000 		.4byte	.Lframe0
 6168 04c8 00001C60 		.4byte	.LFB573
 6169 04cc 000000C0 		.4byte	.LFE573-.LFB573
 6170 04d0 44       		.byte	0x4
 6171              		.4byte	.LCFI212-.LFB573
 6172 04d1 0E       		.byte	0xe
 6173 04d2 20       		.uleb128 0x20
 6174 04d3 48       		.byte	0x4
 6175              		.4byte	.LCFI214-.LCFI212
 6176 04d4 9D       		.byte	0x9d
 6177 04d5 03       		.uleb128 0x3
 6178 04d6 09       		.byte	0x9
 6179 04d7 41       		.uleb128 0x41
 6180 04d8 00       		.uleb128 0x0
 6181 04d9 48       		.byte	0x4
 6182              		.4byte	.LCFI215-.LCFI214
 6183 04da 9F       		.byte	0x9f
 6184 04db 01       		.uleb128 0x1
 6185 04dc 48       		.byte	0x4
 6186              		.4byte	.LCFI216-.LCFI215
 6187 04dd 9B       		.byte	0x9b
 6188 04de 05       		.uleb128 0x5
 6189 04df 48       		.byte	0x4
 6190              		.4byte	.LCFI217-.LCFI216
 6191 04e0 9C       		.byte	0x9c
 6192 04e1 04       		.uleb128 0x4
 6193 04e2 48       		.byte	0x4
 6194              		.4byte	.LCFI218-.LCFI217
 6195 04e3 9E       		.byte	0x9e
 6196 04e4 02       		.uleb128 0x2
 6197 04e5 48       		.byte	0x4
 6198              		.4byte	.LCFI219-.LCFI218
 6199 04e6 11       		.byte	0x11
 6200 04e7 41       		.uleb128 0x41
 6201 04e8 7F       		.sleb128 -1
 6202 04e9 000000   		.align 2
 6203              	.LEFDE74:
 6204              	.LSFDE76:
 6205 04ec 00000014 		.4byte	.LEFDE76-.LASFDE76
 6206              	.LASFDE76:
 6207 04f0 00000000 		.4byte	.Lframe0
 6208 04f4 00001D20 		.4byte	.LFB574
 6209 04f8 00000020 		.4byte	.LFE574-.LFB574
 6210 04fc 48       		.byte	0x4
 6211              		.4byte	.LCFI221-.LFB574
 6212 04fd 0E       		.byte	0xe
 6213 04fe 08       		.uleb128 0x8
 6214 04ff 44       		.byte	0x4
 6215              		.4byte	.LCFI222-.LCFI221
 6216 0500 11       		.byte	0x11
 6217 0501 41       		.uleb128 0x41
 6218 0502 7F       		.sleb128 -1
 6219 0503 00       		.align 2
 6220              	.LEFDE76:
 6221              		.section	.eh_frame,"a",@progbits
 6222              	.Lframe1:
 6223 0000 00000018 		.4byte	.LECIE1-.LSCIE1
 6224              	.LSCIE1:
 6225 0004 00000000 		.4byte	0x0
 6226 0008 01       		.byte	0x1
 6227 0009 7A504C00 		.string	"zPL"
 6228 000d 01       		.uleb128 0x1
 6229 000e 7C       		.sleb128 -4
 6230 000f 41       		.byte	0x41
 6231 0010 06       		.uleb128 0x6
 6232 0011 00       		.byte	0x0
 6233 0012 00000000 		.4byte	__gxx_personality_v0
 6234 0016 00       		.byte	0x0
 6235 0017 0C       		.byte	0xc
 6236 0018 01       		.uleb128 0x1
 6237 0019 00       		.uleb128 0x0
 6238 001a 0000     		.align 2
 6239              	.LECIE1:
 6240              	.LSFDE11:
 6241 001c 00000018 		.4byte	.LEFDE11-.LASFDE11
 6242              	.LASFDE11:
 6243 0020 00000020 		.4byte	.LASFDE11-.Lframe1
 6244 0024 000000F4 		.4byte	.LFB592
 6245 0028 00000020 		.4byte	.LFE592-.LFB592
 6246 002c 04       		.uleb128 0x4
 6247 002d 00000000 		.4byte	0x0
 6248 0031 48       		.byte	0x4
 6249              		.4byte	.LCFI1-.LFB592
 6250 0032 0E       		.byte	0xe
 6251 0033 08       		.uleb128 0x8
 6252 0034 44       		.byte	0x4
 6253              		.4byte	.LCFI2-.LCFI1
 6254 0035 11       		.byte	0x11
 6255 0036 41       		.uleb128 0x41
 6256 0037 7F       		.sleb128 -1
 6257              		.align 2
 6258              	.LEFDE11:
 6259              	.LSFDE21:
 6260 0038 00000020 		.4byte	.LEFDE21-.LASFDE21
 6261              	.LASFDE21:
 6262 003c 0000003C 		.4byte	.LASFDE21-.Lframe1
 6263 0040 0000014C 		.4byte	.LFB572
 6264 0044 000001A8 		.4byte	.LFE572-.LFB572
 6265 0048 04       		.uleb128 0x4
 6266 0049 00000000 		.4byte	0x0
 6267 004d 48       		.byte	0x4
 6268              		.4byte	.LCFI4-.LFB572
 6269 004e 0E       		.byte	0xe
 6270 004f 10       		.uleb128 0x10
 6271 0050 44       		.byte	0x4
 6272              		.4byte	.LCFI5-.LCFI4
 6273 0051 9F       		.byte	0x9f
 6274 0052 01       		.uleb128 0x1
 6275 0053 09       		.byte	0x9
 6276 0054 41       		.uleb128 0x41
 6277 0055 00       		.uleb128 0x0
 6278 0056 48       		.byte	0x4
 6279              		.4byte	.LCFI6-.LCFI5
 6280 0057 11       		.byte	0x11
 6281 0058 41       		.uleb128 0x41
 6282 0059 7F       		.sleb128 -1
 6283 005a 0000     		.align 2
 6284              	.LEFDE21:
 6285              	.LSFDE23:
 6286 005c 00000034 		.4byte	.LEFDE23-.LASFDE23
 6287              	.LASFDE23:
 6288 0060 00000060 		.4byte	.LASFDE23-.Lframe1
 6289 0064 000002F4 		.4byte	.LFB594
 6290 0068 00000188 		.4byte	.LFE594-.LFB594
 6291 006c 04       		.uleb128 0x4
 6292 006d 00000000 		.4byte	0x0
 6293 0071 44       		.byte	0x4
 6294              		.4byte	.LCFI7-.LFB594
 6295 0072 0E       		.byte	0xe
 6296 0073 50       		.uleb128 0x50
 6297 0074 48       		.byte	0x4
 6298              		.4byte	.LCFI9-.LCFI7
 6299 0075 97       		.byte	0x97
 6300 0076 0D       		.uleb128 0xd
 6301 0077 09       		.byte	0x9
 6302 0078 41       		.uleb128 0x41
 6303 0079 00       		.uleb128 0x0
 6304 007a 48       		.byte	0x4
 6305              		.4byte	.LCFI10-.LCFI9
 6306 007b 98       		.byte	0x98
 6307 007c 0C       		.uleb128 0xc
 6308 007d 54       		.byte	0x4
 6309              		.4byte	.LCFI12-.LCFI10
 6310 007e BE       		.byte	0xbe
 6311 007f 04       		.uleb128 0x4
 6312 0080 11       		.byte	0x11
 6313 0081 41       		.uleb128 0x41
 6314 0082 7F       		.sleb128 -1
 6315 0083 48       		.byte	0x4
 6316              		.4byte	.LCFI13-.LCFI12
 6317 0084 BF       		.byte	0xbf
 6318 0085 02       		.uleb128 0x2
 6319 0086 54       		.byte	0x4
 6320              		.4byte	.LCFI17-.LCFI13
 6321 0087 9C       		.byte	0x9c
 6322 0088 08       		.uleb128 0x8
 6323 0089 9B       		.byte	0x9b
 6324 008a 09       		.uleb128 0x9
 6325 008b 9A       		.byte	0x9a
 6326 008c 0A       		.uleb128 0xa
 6327 008d 99       		.byte	0x99
 6328 008e 0B       		.uleb128 0xb
 6329 008f 48       		.byte	0x4
 6330              		.4byte	.LCFI18-.LCFI17
 6331 0090 9D       		.byte	0x9d
 6332 0091 07       		.uleb128 0x7
 6333 0092 0000     		.align 2
 6334              	.LEFDE23:
 6335              	.LSFDE25:
 6336 0094 00000030 		.4byte	.LEFDE25-.LASFDE25
 6337              	.LASFDE25:
 6338 0098 00000098 		.4byte	.LASFDE25-.Lframe1
 6339 009c 0000047C 		.4byte	.LFB586
 6340 00a0 00000310 		.4byte	.LFE586-.LFB586
 6341 00a4 04       		.uleb128 0x4
 6342 00a5 00000000 		.4byte	0x0
 6343 00a9 48       		.byte	0x4
 6344              		.4byte	.LCFI20-.LFB586
 6345 00aa 0E       		.byte	0xe
 6346 00ab 40       		.uleb128 0x40
 6347 00ac 4C       		.byte	0x4
 6348              		.4byte	.LCFI22-.LCFI20
 6349 00ad 97       		.byte	0x97
 6350 00ae 09       		.uleb128 0x9
 6351 00af 11       		.byte	0x11
 6352 00b0 41       		.uleb128 0x41
 6353 00b1 7F       		.sleb128 -1
 6354 00b2 48       		.byte	0x4
 6355              		.4byte	.LCFI23-.LCFI22
 6356 00b3 98       		.byte	0x98
 6357 00b4 08       		.uleb128 0x8
 6358 00b5 4C       		.byte	0x4
 6359              		.4byte	.LCFI24-.LCFI23
 6360 00b6 99       		.byte	0x99
 6361 00b7 07       		.uleb128 0x7
 6362 00b8 50       		.byte	0x4
 6363              		.4byte	.LCFI26-.LCFI24
 6364 00b9 9C       		.byte	0x9c
 6365 00ba 04       		.uleb128 0x4
 6366 00bb 9B       		.byte	0x9b
 6367 00bc 05       		.uleb128 0x5
 6368 00bd 50       		.byte	0x4
 6369              		.4byte	.LCFI28-.LCFI26
 6370 00be 9E       		.byte	0x9e
 6371 00bf 02       		.uleb128 0x2
 6372 00c0 9D       		.byte	0x9d
 6373 00c1 03       		.uleb128 0x3
 6374 00c2 50       		.byte	0x4
 6375              		.4byte	.LCFI30-.LCFI28
 6376 00c3 9A       		.byte	0x9a
 6377 00c4 06       		.uleb128 0x6
 6378 00c5 9F       		.byte	0x9f
 6379 00c6 01       		.uleb128 0x1
 6380 00c7 00       		.align 2
 6381              	.LEFDE25:
 6382              	.LSFDE27:
 6383 00c8 00000034 		.4byte	.LEFDE27-.LASFDE27
 6384              	.LASFDE27:
 6385 00cc 000000CC 		.4byte	.LASFDE27-.Lframe1
 6386 00d0 0000078C 		.4byte	.LFB593
 6387 00d4 000001C4 		.4byte	.LFE593-.LFB593
 6388 00d8 04       		.uleb128 0x4
 6389 00d9 00000000 		.4byte	0x0
 6390 00dd 48       		.byte	0x4
 6391              		.4byte	.LCFI32-.LFB593
 6392 00de 0E       		.byte	0xe
 6393 00df 50       		.uleb128 0x50
 6394 00e0 44       		.byte	0x4
 6395              		.4byte	.LCFI33-.LCFI32
 6396 00e1 BE       		.byte	0xbe
 6397 00e2 04       		.uleb128 0x4
 6398 00e3 09       		.byte	0x9
 6399 00e4 41       		.uleb128 0x41
 6400 00e5 00       		.uleb128 0x0
 6401 00e6 4C       		.byte	0x4
 6402              		.4byte	.LCFI35-.LCFI33
 6403 00e7 BF       		.byte	0xbf
 6404 00e8 02       		.uleb128 0x2
 6405 00e9 11       		.byte	0x11
 6406 00ea 41       		.uleb128 0x41
 6407 00eb 7F       		.sleb128 -1
 6408 00ec 48       		.byte	0x4
 6409              		.4byte	.LCFI36-.LCFI35
 6410 00ed 97       		.byte	0x97
 6411 00ee 0D       		.uleb128 0xd
 6412 00ef 58       		.byte	0x4
 6413              		.4byte	.LCFI39-.LCFI36
 6414 00f0 9A       		.byte	0x9a
 6415 00f1 0A       		.uleb128 0xa
 6416 00f2 99       		.byte	0x99
 6417 00f3 0B       		.uleb128 0xb
 6418 00f4 98       		.byte	0x98
 6419 00f5 0C       		.uleb128 0xc
 6420 00f6 4C       		.byte	0x4
 6421              		.4byte	.LCFI41-.LCFI39
 6422 00f7 9C       		.byte	0x9c
 6423 00f8 08       		.uleb128 0x8
 6424 00f9 9B       		.byte	0x9b
 6425 00fa 09       		.uleb128 0x9
 6426 00fb 48       		.byte	0x4
 6427              		.4byte	.LCFI42-.LCFI41
 6428 00fc 9D       		.byte	0x9d
 6429 00fd 07       		.uleb128 0x7
 6430 00fe 0000     		.align 2
 6431              	.LEFDE27:
 6432              	.LSFDE29:
 6433 0100 0000002C 		.4byte	.LEFDE29-.LASFDE29
 6434              	.LASFDE29:
 6435 0104 00000104 		.4byte	.LASFDE29-.Lframe1
 6436 0108 00000000 		.4byte	.LFB691
 6437 010c 000000F0 		.4byte	.LFE691-.LFB691
 6438 0110 04       		.uleb128 0x4
 6439 0111 00000000 		.4byte	0x0
 6440 0115 4C       		.byte	0x4
 6441              		.4byte	.LCFI44-.LFB691
 6442 0116 0E       		.byte	0xe
 6443 0117 20       		.uleb128 0x20
 6444 0118 44       		.byte	0x4
 6445              		.4byte	.LCFI45-.LCFI44
 6446 0119 9B       		.byte	0x9b
 6447 011a 05       		.uleb128 0x5
 6448 011b 09       		.byte	0x9
 6449 011c 41       		.uleb128 0x41
 6450 011d 00       		.uleb128 0x0
 6451 011e 48       		.byte	0x4
 6452              		.4byte	.LCFI46-.LCFI45
 6453 011f 9C       		.byte	0x9c
 6454 0120 04       		.uleb128 0x4
 6455 0121 48       		.byte	0x4
 6456              		.4byte	.LCFI47-.LCFI46
 6457 0122 9D       		.byte	0x9d
 6458 0123 03       		.uleb128 0x3
 6459 0124 48       		.byte	0x4
 6460              		.4byte	.LCFI48-.LCFI47
 6461 0125 9E       		.byte	0x9e
 6462 0126 02       		.uleb128 0x2
 6463 0127 50       		.byte	0x4
 6464              		.4byte	.LCFI51-.LCFI48
 6465 0128 11       		.byte	0x11
 6466 0129 41       		.uleb128 0x41
 6467 012a 7F       		.sleb128 -1
 6468 012b 9F       		.byte	0x9f
 6469 012c 01       		.uleb128 0x1
 6470 012d 9A       		.byte	0x9a
 6471 012e 06       		.uleb128 0x6
 6472 012f 00       		.align 2
 6473              	.LEFDE29:
 6474              	.LSFDE31:
 6475 0130 00000024 		.4byte	.LEFDE31-.LASFDE31
 6476              	.LASFDE31:
 6477 0134 00000134 		.4byte	.LASFDE31-.Lframe1
 6478 0138 00000000 		.4byte	.LFB629
 6479 013c 0000005C 		.4byte	.LFE629-.LFB629
 6480 0140 04       		.uleb128 0x4
 6481 0141 00000000 		.4byte	0x0
 6482 0145 44       		.byte	0x4
 6483              		.4byte	.LCFI52-.LFB629
 6484 0146 0E       		.byte	0xe
 6485 0147 10       		.uleb128 0x10
 6486 0148 48       		.byte	0x4
 6487              		.4byte	.LCFI54-.LCFI52
 6488 0149 9F       		.byte	0x9f
 6489 014a 01       		.uleb128 0x1
 6490 014b 09       		.byte	0x9
 6491 014c 41       		.uleb128 0x41
 6492 014d 00       		.uleb128 0x0
 6493 014e 48       		.byte	0x4
 6494              		.4byte	.LCFI55-.LCFI54
 6495 014f 9E       		.byte	0x9e
 6496 0150 02       		.uleb128 0x2
 6497 0151 48       		.byte	0x4
 6498              		.4byte	.LCFI56-.LCFI55
 6499 0152 11       		.byte	0x11
 6500 0153 41       		.uleb128 0x41
 6501 0154 7F       		.sleb128 -1
 6502 0155 000000   		.align 2
 6503              	.LEFDE31:
 6504              	.LSFDE33:
 6505 0158 0000002C 		.4byte	.LEFDE33-.LASFDE33
 6506              	.LASFDE33:
 6507 015c 0000015C 		.4byte	.LASFDE33-.Lframe1
 6508 0160 00000950 		.4byte	.LFB581
 6509 0164 00000308 		.4byte	.LFE581-.LFB581
 6510 0168 04       		.uleb128 0x4
 6511 0169 00000000 		.4byte	0x0
 6512 016d 48       		.byte	0x4
 6513              		.4byte	.LCFI58-.LFB581
 6514 016e 0E       		.byte	0xe
 6515 016f 20       		.uleb128 0x20
 6516 0170 44       		.byte	0x4
 6517              		.4byte	.LCFI59-.LCFI58
 6518 0171 9A       		.byte	0x9a
 6519 0172 06       		.uleb128 0x6
 6520 0173 09       		.byte	0x9
 6521 0174 41       		.uleb128 0x41
 6522 0175 00       		.uleb128 0x0
 6523 0176 50       		.byte	0x4
 6524              		.4byte	.LCFI61-.LCFI59
 6525 0177 9D       		.byte	0x9d
 6526 0178 03       		.uleb128 0x3
 6527 0179 11       		.byte	0x11
 6528 017a 41       		.uleb128 0x41
 6529 017b 7F       		.sleb128 -1
 6530 017c 50       		.byte	0x4
 6531              		.4byte	.LCFI62-.LCFI61
 6532 017d 9F       		.byte	0x9f
 6533 017e 01       		.uleb128 0x1
 6534 017f 54       		.byte	0x4
 6535              		.4byte	.LCFI65-.LCFI62
 6536 0180 9C       		.byte	0x9c
 6537 0181 04       		.uleb128 0x4
 6538 0182 9B       		.byte	0x9b
 6539 0183 05       		.uleb128 0x5
 6540 0184 9E       		.byte	0x9e
 6541 0185 02       		.uleb128 0x2
 6542 0186 0000     		.align 2
 6543              	.LEFDE33:
 6544              	.LSFDE35:
 6545 0188 00000024 		.4byte	.LEFDE35-.LASFDE35
 6546              	.LASFDE35:
 6547 018c 0000018C 		.4byte	.LASFDE35-.Lframe1
 6548 0190 00000C58 		.4byte	.LFB575
 6549 0194 000000BC 		.4byte	.LFE575-.LFB575
 6550 0198 04       		.uleb128 0x4
 6551 0199 00000000 		.4byte	0x0
 6552 019d 48       		.byte	0x4
 6553              		.4byte	.LCFI67-.LFB575
 6554 019e 0E       		.byte	0xe
 6555 019f 18       		.uleb128 0x18
 6556 01a0 44       		.byte	0x4
 6557              		.4byte	.LCFI68-.LCFI67
 6558 01a1 9E       		.byte	0x9e
 6559 01a2 02       		.uleb128 0x2
 6560 01a3 09       		.byte	0x9
 6561 01a4 41       		.uleb128 0x41
 6562 01a5 00       		.uleb128 0x0
 6563 01a6 4C       		.byte	0x4
 6564              		.4byte	.LCFI70-.LCFI68
 6565 01a7 9D       		.byte	0x9d
 6566 01a8 03       		.uleb128 0x3
 6567 01a9 11       		.byte	0x11
 6568 01aa 41       		.uleb128 0x41
 6569 01ab 7F       		.sleb128 -1
 6570 01ac 48       		.byte	0x4
 6571              		.4byte	.LCFI71-.LCFI70
 6572 01ad 9F       		.byte	0x9f
 6573 01ae 01       		.uleb128 0x1
 6574 01af 00       		.align 2
 6575              	.LEFDE35:
 6576              	.LSFDE37:
 6577 01b0 00000024 		.4byte	.LEFDE37-.LASFDE37
 6578              	.LASFDE37:
 6579 01b4 000001B4 		.4byte	.LASFDE37-.Lframe1
 6580 01b8 00000D14 		.4byte	.LFB576
 6581 01bc 0000004C 		.4byte	.LFE576-.LFB576
 6582 01c0 04       		.uleb128 0x4
 6583 01c1 00000000 		.4byte	0x0
 6584 01c5 44       		.byte	0x4
 6585              		.4byte	.LCFI72-.LFB576
 6586 01c6 0E       		.byte	0xe
 6587 01c7 18       		.uleb128 0x18
 6588 01c8 48       		.byte	0x4
 6589              		.4byte	.LCFI74-.LCFI72
 6590 01c9 9C       		.byte	0x9c
 6591 01ca 04       		.uleb128 0x4
 6592 01cb 09       		.byte	0x9
 6593 01cc 41       		.uleb128 0x41
 6594 01cd 00       		.uleb128 0x0
 6595 01ce 48       		.byte	0x4
 6596              		.4byte	.LCFI75-.LCFI74
 6597 01cf 9D       		.byte	0x9d
 6598 01d0 03       		.uleb128 0x3
 6599 01d1 48       		.byte	0x4
 6600              		.4byte	.LCFI76-.LCFI75
 6601 01d2 11       		.byte	0x11
 6602 01d3 41       		.uleb128 0x41
 6603 01d4 7F       		.sleb128 -1
 6604 01d5 000000   		.align 2
 6605              	.LEFDE37:
 6606              	.LSFDE39:
 6607 01d8 0000001C 		.4byte	.LEFDE39-.LASFDE39
 6608              	.LASFDE39:
 6609 01dc 000001DC 		.4byte	.LASFDE39-.Lframe1
 6610 01e0 00000D60 		.4byte	.LFB570
 6611 01e4 00000074 		.4byte	.LFE570-.LFB570
 6612 01e8 04       		.uleb128 0x4
 6613 01e9 00000000 		.4byte	0x0
 6614 01ed 48       		.byte	0x4
 6615              		.4byte	.LCFI78-.LFB570
 6616 01ee 0E       		.byte	0xe
 6617 01ef 18       		.uleb128 0x18
 6618 01f0 54       		.byte	0x4
 6619              		.4byte	.LCFI80-.LCFI78
 6620 01f1 9D       		.byte	0x9d
 6621 01f2 03       		.uleb128 0x3
 6622 01f3 11       		.byte	0x11
 6623 01f4 41       		.uleb128 0x41
 6624 01f5 7F       		.sleb128 -1
 6625 01f6 0000     		.align 2
 6626              	.LEFDE39:
 6627              	.LSFDE41:
 6628 01f8 00000020 		.4byte	.LEFDE41-.LASFDE41
 6629              	.LASFDE41:
 6630 01fc 000001FC 		.4byte	.LASFDE41-.Lframe1
 6631 0200 00000DD4 		.4byte	.LFB568
 6632 0204 00000054 		.4byte	.LFE568-.LFB568
 6633 0208 04       		.uleb128 0x4
 6634 0209 00000000 		.4byte	0x0
 6635 020d 48       		.byte	0x4
 6636              		.4byte	.LCFI82-.LFB568
 6637 020e 0E       		.byte	0xe
 6638 020f 18       		.uleb128 0x18
 6639 0210 44       		.byte	0x4
 6640              		.4byte	.LCFI83-.LCFI82
 6641 0211 9D       		.byte	0x9d
 6642 0212 03       		.uleb128 0x3
 6643 0213 09       		.byte	0x9
 6644 0214 41       		.uleb128 0x41
 6645 0215 00       		.uleb128 0x0
 6646 0216 48       		.byte	0x4
 6647              		.4byte	.LCFI84-.LCFI83
 6648 0217 11       		.byte	0x11
 6649 0218 41       		.uleb128 0x41
 6650 0219 7F       		.sleb128 -1
 6651 021a 0000     		.align 2
 6652              	.LEFDE41:
 6653              	.LSFDE45:
 6654 021c 00000024 		.4byte	.LEFDE45-.LASFDE45
 6655              	.LASFDE45:
 6656 0220 00000220 		.4byte	.LASFDE45-.Lframe1
 6657 0224 00000E2C 		.4byte	.LFB563
 6658 0228 00000094 		.4byte	.LFE563-.LFB563
 6659 022c 04       		.uleb128 0x4
 6660 022d 00000000 		.4byte	.LLSDA563
 6661 0231 48       		.byte	0x4
 6662              		.4byte	.LCFI86-.LFB563
 6663 0232 0E       		.byte	0xe
 6664 0233 18       		.uleb128 0x18
 6665 0234 48       		.byte	0x4
 6666              		.4byte	.LCFI87-.LCFI86
 6667 0235 9D       		.byte	0x9d
 6668 0236 03       		.uleb128 0x3
 6669 0237 09       		.byte	0x9
 6670 0238 41       		.uleb128 0x41
 6671 0239 00       		.uleb128 0x0
 6672 023a 48       		.byte	0x4
 6673              		.4byte	.LCFI88-.LCFI87
 6674 023b 11       		.byte	0x11
 6675 023c 41       		.uleb128 0x41
 6676 023d 7F       		.sleb128 -1
 6677 023e 5C       		.byte	0x4
 6678              		.4byte	.LCFI89-.LCFI88
 6679 023f 9E       		.byte	0x9e
 6680 0240 02       		.uleb128 0x2
 6681 0241 48       		.byte	0x4
 6682              		.4byte	.LCFI90-.LCFI89
 6683 0242 9F       		.byte	0x9f
 6684 0243 01       		.uleb128 0x1
 6685              		.align 2
 6686              	.LEFDE45:
 6687              	.LSFDE47:
 6688 0244 00000028 		.4byte	.LEFDE47-.LASFDE47
 6689              	.LASFDE47:
 6690 0248 00000248 		.4byte	.LASFDE47-.Lframe1
 6691 024c 00000000 		.4byte	.LFB692
 6692 0250 00000144 		.4byte	.LFE692-.LFB692
 6693 0254 04       		.uleb128 0x4
 6694 0255 00000000 		.4byte	0x0
 6695 0259 48       		.byte	0x4
 6696              		.4byte	.LCFI92-.LFB692
 6697 025a 0E       		.byte	0xe
 6698 025b 20       		.uleb128 0x20
 6699 025c 44       		.byte	0x4
 6700              		.4byte	.LCFI93-.LCFI92
 6701 025d 9B       		.byte	0x9b
 6702 025e 05       		.uleb128 0x5
 6703 025f 09       		.byte	0x9
 6704 0260 41       		.uleb128 0x41
 6705 0261 00       		.uleb128 0x0
 6706 0262 4C       		.byte	0x4
 6707              		.4byte	.LCFI95-.LCFI93
 6708 0263 9C       		.byte	0x9c
 6709 0264 04       		.uleb128 0x4
 6710 0265 11       		.byte	0x11
 6711 0266 41       		.uleb128 0x41
 6712 0267 7F       		.sleb128 -1
 6713 0268 4C       		.byte	0x4
 6714              		.4byte	.LCFI96-.LCFI95
 6715 0269 9E       		.byte	0x9e
 6716 026a 02       		.uleb128 0x2
 6717 026b 50       		.byte	0x4
 6718              		.4byte	.LCFI98-.LCFI96
 6719 026c 9D       		.byte	0x9d
 6720 026d 03       		.uleb128 0x3
 6721 026e 9F       		.byte	0x9f
 6722 026f 01       		.uleb128 0x1
 6723              		.align 2
 6724              	.LEFDE47:
 6725              	.LSFDE49:
 6726 0270 00000020 		.4byte	.LEFDE49-.LASFDE49
 6727              	.LASFDE49:
 6728 0274 00000274 		.4byte	.LASFDE49-.Lframe1
 6729 0278 00000000 		.4byte	.LFB675
 6730 027c 00000188 		.4byte	.LFE675-.LFB675
 6731 0280 04       		.uleb128 0x4
 6732 0281 00000000 		.4byte	0x0
 6733 0285 48       		.byte	0x4
 6734              		.4byte	.LCFI100-.LFB675
 6735 0286 0E       		.byte	0xe
 6736 0287 18       		.uleb128 0x18
 6737 0288 50       		.byte	0x4
 6738              		.4byte	.LCFI103-.LCFI100
 6739 0289 9D       		.byte	0x9d
 6740 028a 03       		.uleb128 0x3
 6741 028b 9F       		.byte	0x9f
 6742 028c 01       		.uleb128 0x1
 6743 028d 11       		.byte	0x11
 6744 028e 41       		.uleb128 0x41
 6745 028f 7F       		.sleb128 -1
 6746 0290 4C       		.byte	0x4
 6747              		.4byte	.LCFI104-.LCFI103
 6748 0291 9E       		.byte	0x9e
 6749 0292 02       		.uleb128 0x2
 6750 0293 00       		.align 2
 6751              	.LEFDE49:
 6752              	.LSFDE51:
 6753 0294 00000020 		.4byte	.LEFDE51-.LASFDE51
 6754              	.LASFDE51:
 6755 0298 00000298 		.4byte	.LASFDE51-.Lframe1
 6756 029c 00000EC0 		.4byte	.LFB567
 6757 02a0 00000060 		.4byte	.LFE567-.LFB567
 6758 02a4 04       		.uleb128 0x4
 6759 02a5 00000013 		.4byte	.LLSDA567
 6760 02a9 48       		.byte	0x4
 6761              		.4byte	.LCFI106-.LFB567
 6762 02aa 0E       		.byte	0xe
 6763 02ab 10       		.uleb128 0x10
 6764 02ac 44       		.byte	0x4
 6765              		.4byte	.LCFI107-.LCFI106
 6766 02ad 9F       		.byte	0x9f
 6767 02ae 01       		.uleb128 0x1
 6768 02af 09       		.byte	0x9
 6769 02b0 41       		.uleb128 0x41
 6770 02b1 00       		.uleb128 0x0
 6771 02b2 4C       		.byte	0x4
 6772              		.4byte	.LCFI109-.LCFI107
 6773 02b3 11       		.byte	0x11
 6774 02b4 41       		.uleb128 0x41
 6775 02b5 7F       		.sleb128 -1
 6776 02b6 9E       		.byte	0x9e
 6777 02b7 02       		.uleb128 0x2
 6778              		.align 2
 6779              	.LEFDE51:
 6780              	.LSFDE53:
 6781 02b8 00000020 		.4byte	.LEFDE53-.LASFDE53
 6782              	.LASFDE53:
 6783 02bc 000002BC 		.4byte	.LASFDE53-.Lframe1
 6784 02c0 00000F20 		.4byte	.LFB566
 6785 02c4 00000060 		.4byte	.LFE566-.LFB566
 6786 02c8 04       		.uleb128 0x4
 6787 02c9 00000027 		.4byte	.LLSDA566
 6788 02cd 48       		.byte	0x4
 6789              		.4byte	.LCFI111-.LFB566
 6790 02ce 0E       		.byte	0xe
 6791 02cf 10       		.uleb128 0x10
 6792 02d0 44       		.byte	0x4
 6793              		.4byte	.LCFI112-.LCFI111
 6794 02d1 9F       		.byte	0x9f
 6795 02d2 01       		.uleb128 0x1
 6796 02d3 09       		.byte	0x9
 6797 02d4 41       		.uleb128 0x41
 6798 02d5 00       		.uleb128 0x0
 6799 02d6 4C       		.byte	0x4
 6800              		.4byte	.LCFI114-.LCFI112
 6801 02d7 11       		.byte	0x11
 6802 02d8 41       		.uleb128 0x41
 6803 02d9 7F       		.sleb128 -1
 6804 02da 9E       		.byte	0x9e
 6805 02db 02       		.uleb128 0x2
 6806              		.align 2
 6807              	.LEFDE53:
 6808              	.LSFDE55:
 6809 02dc 00000024 		.4byte	.LEFDE55-.LASFDE55
 6810              	.LASFDE55:
 6811 02e0 000002E0 		.4byte	.LASFDE55-.Lframe1
 6812 02e4 00000F80 		.4byte	.LFB564
 6813 02e8 00000094 		.4byte	.LFE564-.LFB564
 6814 02ec 04       		.uleb128 0x4
 6815 02ed 0000003B 		.4byte	.LLSDA564
 6816 02f1 48       		.byte	0x4
 6817              		.4byte	.LCFI116-.LFB564
 6818 02f2 0E       		.byte	0xe
 6819 02f3 18       		.uleb128 0x18
 6820 02f4 48       		.byte	0x4
 6821              		.4byte	.LCFI117-.LCFI116
 6822 02f5 9D       		.byte	0x9d
 6823 02f6 03       		.uleb128 0x3
 6824 02f7 09       		.byte	0x9
 6825 02f8 41       		.uleb128 0x41
 6826 02f9 00       		.uleb128 0x0
 6827 02fa 48       		.byte	0x4
 6828              		.4byte	.LCFI118-.LCFI117
 6829 02fb 11       		.byte	0x11
 6830 02fc 41       		.uleb128 0x41
 6831 02fd 7F       		.sleb128 -1
 6832 02fe 5C       		.byte	0x4
 6833              		.4byte	.LCFI119-.LCFI118
 6834 02ff 9E       		.byte	0x9e
 6835 0300 02       		.uleb128 0x2
 6836 0301 48       		.byte	0x4
 6837              		.4byte	.LCFI120-.LCFI119
 6838 0302 9F       		.byte	0x9f
 6839 0303 01       		.uleb128 0x1
 6840              		.align 2
 6841              	.LEFDE55:
 6842              	.LSFDE57:
 6843 0304 00000038 		.4byte	.LEFDE57-.LASFDE57
 6844              	.LASFDE57:
 6845 0308 00000308 		.4byte	.LASFDE57-.Lframe1
 6846 030c 00001014 		.4byte	.LFB579
 6847 0310 000002E8 		.4byte	.LFE579-.LFB579
 6848 0314 04       		.uleb128 0x4
 6849 0315 00000000 		.4byte	0x0
 6850 0319 48       		.byte	0x4
 6851              		.4byte	.LCFI122-.LFB579
 6852 031a 0E       		.byte	0xe
 6853 031b E801     		.uleb128 0xe8
 6854 031d 44       		.byte	0x4
 6855              		.4byte	.LCFI123-.LCFI122
 6856 031e 9F       		.byte	0x9f
 6857 031f 01       		.uleb128 0x1
 6858 0320 09       		.byte	0x9
 6859 0321 41       		.uleb128 0x41
 6860 0322 00       		.uleb128 0x0
 6861 0323 02       		.byte	0x4
 6862 0324 40       		.4byte	.LCFI136-.LCFI123
 6863 0325 9C       		.byte	0x9c
 6864 0326 04       		.uleb128 0x4
 6865 0327 9B       		.byte	0x9b
 6866 0328 05       		.uleb128 0x5
 6867 0329 9A       		.byte	0x9a
 6868 032a 06       		.uleb128 0x6
 6869 032b 99       		.byte	0x99
 6870 032c 07       		.uleb128 0x7
 6871 032d 98       		.byte	0x98
 6872 032e 08       		.uleb128 0x8
 6873 032f 97       		.byte	0x97
 6874 0330 09       		.uleb128 0x9
 6875 0331 96       		.byte	0x96
 6876 0332 0A       		.uleb128 0xa
 6877 0333 95       		.byte	0x95
 6878 0334 0B       		.uleb128 0xb
 6879 0335 94       		.byte	0x94
 6880 0336 0C       		.uleb128 0xc
 6881 0337 93       		.byte	0x93
 6882 0338 0D       		.uleb128 0xd
 6883 0339 9E       		.byte	0x9e
 6884 033a 02       		.uleb128 0x2
 6885 033b 9D       		.byte	0x9d
 6886 033c 03       		.uleb128 0x3
 6887 033d 11       		.byte	0x11
 6888 033e 41       		.uleb128 0x41
 6889 033f 7F       		.sleb128 -1
 6890              		.align 2
 6891              	.LEFDE57:
 6892              	.LSFDE59:
 6893 0340 00000038 		.4byte	.LEFDE59-.LASFDE59
 6894              	.LASFDE59:
 6895 0344 00000344 		.4byte	.LASFDE59-.Lframe1
 6896 0348 000012FC 		.4byte	.LFB591
 6897 034c 000001CC 		.4byte	.LFE591-.LFB591
 6898 0350 04       		.uleb128 0x4
 6899 0351 00000000 		.4byte	0x0
 6900 0355 44       		.byte	0x4
 6901              		.4byte	.LCFI137-.LFB591
 6902 0356 0E       		.byte	0xe
 6903 0357 78       		.uleb128 0x78
 6904 0358 48       		.byte	0x4
 6905              		.4byte	.LCFI139-.LCFI137
 6906 0359 97       		.byte	0x97
 6907 035a 09       		.uleb128 0x9
 6908 035b 09       		.byte	0x9
 6909 035c 41       		.uleb128 0x41
 6910 035d 00       		.uleb128 0x0
 6911 035e 50       		.byte	0x4
 6912              		.4byte	.LCFI141-.LCFI139
 6913 035f 9B       		.byte	0x9b
 6914 0360 05       		.uleb128 0x5
 6915 0361 95       		.byte	0x95
 6916 0362 0B       		.uleb128 0xb
 6917 0363 74       		.byte	0x4
 6918              		.4byte	.LCFI152-.LCFI141
 6919 0364 9F       		.byte	0x9f
 6920 0365 01       		.uleb128 0x1
 6921 0366 9E       		.byte	0x9e
 6922 0367 02       		.uleb128 0x2
 6923 0368 9D       		.byte	0x9d
 6924 0369 03       		.uleb128 0x3
 6925 036a 9C       		.byte	0x9c
 6926 036b 04       		.uleb128 0x4
 6927 036c 9A       		.byte	0x9a
 6928 036d 06       		.uleb128 0x6
 6929 036e 99       		.byte	0x99
 6930 036f 07       		.uleb128 0x7
 6931 0370 98       		.byte	0x98
 6932 0371 08       		.uleb128 0x8
 6933 0372 96       		.byte	0x96
 6934 0373 0A       		.uleb128 0xa
 6935 0374 94       		.byte	0x94
 6936 0375 0C       		.uleb128 0xc
 6937 0376 93       		.byte	0x93
 6938 0377 0D       		.uleb128 0xd
 6939 0378 11       		.byte	0x11
 6940 0379 41       		.uleb128 0x41
 6941 037a 7F       		.sleb128 -1
 6942 037b 00       		.align 2
 6943              	.LEFDE59:
 6944              	.LSFDE61:
 6945 037c 00000018 		.4byte	.LEFDE61-.LASFDE61
 6946              	.LASFDE61:
 6947 0380 00000380 		.4byte	.LASFDE61-.Lframe1
 6948 0384 000014C8 		.4byte	.LFB589
 6949 0388 0000002C 		.4byte	.LFE589-.LFB589
 6950 038c 04       		.uleb128 0x4
 6951 038d 00000000 		.4byte	0x0
 6952 0391 48       		.byte	0x4
 6953              		.4byte	.LCFI154-.LFB589
 6954 0392 0E       		.byte	0xe
 6955 0393 08       		.uleb128 0x8
 6956 0394 44       		.byte	0x4
 6957              		.4byte	.LCFI155-.LCFI154
 6958 0395 11       		.byte	0x11
 6959 0396 41       		.uleb128 0x41
 6960 0397 7F       		.sleb128 -1
 6961              		.align 2
 6962              	.LEFDE61:
 6963              	.LSFDE63:
 6964 0398 00000018 		.4byte	.LEFDE63-.LASFDE63
 6965              	.LASFDE63:
 6966 039c 0000039C 		.4byte	.LASFDE63-.Lframe1
 6967 03a0 000014F4 		.4byte	.LFB590
 6968 03a4 00000020 		.4byte	.LFE590-.LFB590
 6969 03a8 04       		.uleb128 0x4
 6970 03a9 00000000 		.4byte	0x0
 6971 03ad 48       		.byte	0x4
 6972              		.4byte	.LCFI157-.LFB590
 6973 03ae 0E       		.byte	0xe
 6974 03af 08       		.uleb128 0x8
 6975 03b0 44       		.byte	0x4
 6976              		.4byte	.LCFI158-.LCFI157
 6977 03b1 11       		.byte	0x11
 6978 03b2 41       		.uleb128 0x41
 6979 03b3 7F       		.sleb128 -1
 6980              		.align 2
 6981              	.LEFDE63:
 6982              	.LSFDE65:
 6983 03b4 0000003C 		.4byte	.LEFDE65-.LASFDE65
 6984              	.LASFDE65:
 6985 03b8 000003B8 		.4byte	.LASFDE65-.Lframe1
 6986 03bc 00001514 		.4byte	.LFB587
 6987 03c0 0000026C 		.4byte	.LFE587-.LFB587
 6988 03c4 04       		.uleb128 0x4
 6989 03c5 00000000 		.4byte	0x0
 6990 03c9 44       		.byte	0x4
 6991              		.4byte	.LCFI159-.LFB587
 6992 03ca 0E       		.byte	0xe
 6993 03cb B001     		.uleb128 0xb0
 6994 03cd 48       		.byte	0x4
 6995              		.4byte	.LCFI161-.LCFI159
 6996 03ce 98       		.byte	0x98
 6997 03cf 08       		.uleb128 0x8
 6998 03d0 09       		.byte	0x9
 6999 03d1 41       		.uleb128 0x41
 7000 03d2 00       		.uleb128 0x0
 7001 03d3 50       		.byte	0x4
 7002              		.4byte	.LCFI163-.LCFI161
 7003 03d4 11       		.byte	0x11
 7004 03d5 41       		.uleb128 0x41
 7005 03d6 7F       		.sleb128 -1
 7006 03d7 9B       		.byte	0x9b
 7007 03d8 05       		.uleb128 0x5
 7008 03d9 78       		.byte	0x4
 7009              		.4byte	.LCFI176-.LCFI163
 7010 03da 9F       		.byte	0x9f
 7011 03db 01       		.uleb128 0x1
 7012 03dc 9E       		.byte	0x9e
 7013 03dd 02       		.uleb128 0x2
 7014 03de 9D       		.byte	0x9d
 7015 03df 03       		.uleb128 0x3
 7016 03e0 9C       		.byte	0x9c
 7017 03e1 04       		.uleb128 0x4
 7018 03e2 9A       		.byte	0x9a
 7019 03e3 06       		.uleb128 0x6
 7020 03e4 99       		.byte	0x99
 7021 03e5 07       		.uleb128 0x7
 7022 03e6 97       		.byte	0x97
 7023 03e7 09       		.uleb128 0x9
 7024 03e8 96       		.byte	0x96
 7025 03e9 0A       		.uleb128 0xa
 7026 03ea 95       		.byte	0x95
 7027 03eb 0B       		.uleb128 0xb
 7028 03ec 94       		.byte	0x94
 7029 03ed 0C       		.uleb128 0xc
 7030 03ee 93       		.byte	0x93
 7031 03ef 0D       		.uleb128 0xd
 7032 03f0 92       		.byte	0x92
 7033 03f1 0E       		.uleb128 0xe
 7034 03f2 91       		.byte	0x91
 7035 03f3 0F       		.uleb128 0xf
 7036              		.align 2
 7037              	.LEFDE65:
 7038              	.LSFDE67:
 7039 03f4 00000018 		.4byte	.LEFDE67-.LASFDE67
 7040              	.LASFDE67:
 7041 03f8 000003F8 		.4byte	.LASFDE67-.Lframe1
 7042 03fc 00001780 		.4byte	.LFB588
 7043 0400 00000020 		.4byte	.LFE588-.LFB588
 7044 0404 04       		.uleb128 0x4
 7045 0405 00000000 		.4byte	0x0
 7046 0409 48       		.byte	0x4
 7047              		.4byte	.LCFI178-.LFB588
 7048 040a 0E       		.byte	0xe
 7049 040b 08       		.uleb128 0x8
 7050 040c 44       		.byte	0x4
 7051              		.4byte	.LCFI179-.LCFI178
 7052 040d 11       		.byte	0x11
 7053 040e 41       		.uleb128 0x41
 7054 040f 7F       		.sleb128 -1
 7055              		.align 2
 7056              	.LEFDE67:
 7057              	.LSFDE69:
 7058 0410 0000004C 		.4byte	.LEFDE69-.LASFDE69
 7059              	.LASFDE69:
 7060 0414 00000414 		.4byte	.LASFDE69-.Lframe1
 7061 0418 000017A0 		.4byte	.LFB584
 7062 041c 000003EC 		.4byte	.LFE584-.LFB584
 7063 0420 04       		.uleb128 0x4
 7064 0421 00000000 		.4byte	0x0
 7065 0425 48       		.byte	0x4
 7066              		.4byte	.LCFI181-.LFB584
 7067 0426 0E       		.byte	0xe
 7068 0427 F801     		.uleb128 0xf8
 7069 0429 44       		.byte	0x4
 7070              		.4byte	.LCFI182-.LCFI181
 7071 042a 91       		.byte	0x91
 7072 042b 11       		.uleb128 0x11
 7073 042c 09       		.byte	0x9
 7074 042d 41       		.uleb128 0x41
 7075 042e 00       		.uleb128 0x0
 7076 042f 48       		.byte	0x4
 7077              		.4byte	.LCFI183-.LCFI182
 7078 0430 92       		.byte	0x92
 7079 0431 10       		.uleb128 0x10
 7080 0432 48       		.byte	0x4
 7081              		.4byte	.LCFI184-.LCFI183
 7082 0433 93       		.byte	0x93
 7083 0434 0F       		.uleb128 0xf
 7084 0435 48       		.byte	0x4
 7085              		.4byte	.LCFI185-.LCFI184
 7086 0436 9B       		.byte	0x9b
 7087 0437 07       		.uleb128 0x7
 7088 0438 48       		.byte	0x4
 7089              		.4byte	.LCFI186-.LCFI185
 7090 0439 9D       		.byte	0x9d
 7091 043a 05       		.uleb128 0x5
 7092 043b 48       		.byte	0x4
 7093              		.4byte	.LCFI187-.LCFI186
 7094 043c 9E       		.byte	0x9e
 7095 043d 04       		.uleb128 0x4
 7096 043e 02       		.byte	0x4
 7097 043f 44       		.4byte	.LCFI201-.LCFI187
 7098 0440 9C       		.byte	0x9c
 7099 0441 06       		.uleb128 0x6
 7100 0442 9A       		.byte	0x9a
 7101 0443 08       		.uleb128 0x8
 7102 0444 99       		.byte	0x99
 7103 0445 09       		.uleb128 0x9
 7104 0446 98       		.byte	0x98
 7105 0447 0A       		.uleb128 0xa
 7106 0448 97       		.byte	0x97
 7107 0449 0B       		.uleb128 0xb
 7108 044a 96       		.byte	0x96
 7109 044b 0C       		.uleb128 0xc
 7110 044c 95       		.byte	0x95
 7111 044d 0D       		.uleb128 0xd
 7112 044e 94       		.byte	0x94
 7113 044f 0E       		.uleb128 0xe
 7114 0450 90       		.byte	0x90
 7115 0451 12       		.uleb128 0x12
 7116 0452 8F       		.byte	0x8f
 7117 0453 13       		.uleb128 0x13
 7118 0454 8E       		.byte	0x8e
 7119 0455 14       		.uleb128 0x14
 7120 0456 BF       		.byte	0xbf
 7121 0457 02       		.uleb128 0x2
 7122 0458 11       		.byte	0x11
 7123 0459 41       		.uleb128 0x41
 7124 045a 7F       		.sleb128 -1
 7125 045b 9F       		.byte	0x9f
 7126 045c 03       		.uleb128 0x3
 7127 045d 000000   		.align 2
 7128              	.LEFDE69:
 7129              	.LSFDE71:
 7130 0460 00000018 		.4byte	.LEFDE71-.LASFDE71
 7131              	.LASFDE71:
 7132 0464 00000464 		.4byte	.LASFDE71-.Lframe1
 7133 0468 00001B8C 		.4byte	.LFB585
 7134 046c 0000002C 		.4byte	.LFE585-.LFB585
 7135 0470 04       		.uleb128 0x4
 7136 0471 00000000 		.4byte	0x0
 7137 0475 48       		.byte	0x4
 7138              		.4byte	.LCFI203-.LFB585
 7139 0476 0E       		.byte	0xe
 7140 0477 10       		.uleb128 0x10
 7141 0478 44       		.byte	0x4
 7142              		.4byte	.LCFI204-.LCFI203
 7143 0479 11       		.byte	0x11
 7144 047a 41       		.uleb128 0x41
 7145 047b 7F       		.sleb128 -1
 7146              		.align 2
 7147              	.LEFDE71:
 7148              	.LSFDE73:
 7149 047c 00000028 		.4byte	.LEFDE73-.LASFDE73
 7150              	.LASFDE73:
 7151 0480 00000480 		.4byte	.LASFDE73-.Lframe1
 7152 0484 00001BB8 		.4byte	.LFB580
 7153 0488 000000A8 		.4byte	.LFE580-.LFB580
 7154 048c 04       		.uleb128 0x4
 7155 048d 00000000 		.4byte	0x0
 7156 0491 48       		.byte	0x4
 7157              		.4byte	.LCFI206-.LFB580
 7158 0492 0E       		.byte	0xe
 7159 0493 28       		.uleb128 0x28
 7160 0494 44       		.byte	0x4
 7161              		.4byte	.LCFI207-.LCFI206
 7162 0495 9C       		.byte	0x9c
 7163 0496 04       		.uleb128 0x4
 7164 0497 09       		.byte	0x9
 7165 0498 41       		.uleb128 0x41
 7166 0499 00       		.uleb128 0x0
 7167 049a 50       		.byte	0x4
 7168              		.4byte	.LCFI209-.LCFI207
 7169 049b 9E       		.byte	0x9e
 7170 049c 02       		.uleb128 0x2
 7171 049d 11       		.byte	0x11
 7172 049e 41       		.uleb128 0x41
 7173 049f 7F       		.sleb128 -1
 7174 04a0 50       		.byte	0x4
 7175              		.4byte	.LCFI211-.LCFI209
 7176 04a1 9D       		.byte	0x9d
 7177 04a2 03       		.uleb128 0x3
 7178 04a3 9F       		.byte	0x9f
 7179 04a4 01       		.uleb128 0x1
 7180 04a5 000000   		.align 2
 7181              	.LEFDE73:
 7182              	.LSFDE75:
 7183 04a8 0000002C 		.4byte	.LEFDE75-.LASFDE75
 7184              	.LASFDE75:
 7185 04ac 000004AC 		.4byte	.LASFDE75-.Lframe1
 7186 04b0 00001C60 		.4byte	.LFB573
 7187 04b4 000000C0 		.4byte	.LFE573-.LFB573
 7188 04b8 04       		.uleb128 0x4
 7189 04b9 00000000 		.4byte	0x0
 7190 04bd 44       		.byte	0x4
 7191              		.4byte	.LCFI212-.LFB573
 7192 04be 0E       		.byte	0xe
 7193 04bf 20       		.uleb128 0x20
 7194 04c0 48       		.byte	0x4
 7195              		.4byte	.LCFI214-.LCFI212
 7196 04c1 9D       		.byte	0x9d
 7197 04c2 03       		.uleb128 0x3
 7198 04c3 09       		.byte	0x9
 7199 04c4 41       		.uleb128 0x41
 7200 04c5 00       		.uleb128 0x0
 7201 04c6 48       		.byte	0x4
 7202              		.4byte	.LCFI215-.LCFI214
 7203 04c7 9F       		.byte	0x9f
 7204 04c8 01       		.uleb128 0x1
 7205 04c9 48       		.byte	0x4
 7206              		.4byte	.LCFI216-.LCFI215
 7207 04ca 9B       		.byte	0x9b
 7208 04cb 05       		.uleb128 0x5
 7209 04cc 48       		.byte	0x4
 7210              		.4byte	.LCFI217-.LCFI216
 7211 04cd 9C       		.byte	0x9c
 7212 04ce 04       		.uleb128 0x4
 7213 04cf 48       		.byte	0x4
 7214              		.4byte	.LCFI218-.LCFI217
 7215 04d0 9E       		.byte	0x9e
 7216 04d1 02       		.uleb128 0x2
 7217 04d2 48       		.byte	0x4
 7218              		.4byte	.LCFI219-.LCFI218
 7219 04d3 11       		.byte	0x11
 7220 04d4 41       		.uleb128 0x41
 7221 04d5 7F       		.sleb128 -1
 7222 04d6 0000     		.align 2
 7223              	.LEFDE75:
 7224              	.LSFDE77:
 7225 04d8 00000018 		.4byte	.LEFDE77-.LASFDE77
 7226              	.LASFDE77:
 7227 04dc 000004DC 		.4byte	.LASFDE77-.Lframe1
 7228 04e0 00001D20 		.4byte	.LFB574
 7229 04e4 00000020 		.4byte	.LFE574-.LFB574
 7230 04e8 04       		.uleb128 0x4
 7231 04e9 00000000 		.4byte	0x0
 7232 04ed 48       		.byte	0x4
 7233              		.4byte	.LCFI221-.LFB574
 7234 04ee 0E       		.byte	0xe
 7235 04ef 08       		.uleb128 0x8
 7236 04f0 44       		.byte	0x4
 7237              		.4byte	.LCFI222-.LCFI221
 7238 04f1 11       		.byte	0x11
 7239 04f2 41       		.uleb128 0x41
 7240 04f3 7F       		.sleb128 -1
 7241              		.align 2
 7242              	.LEFDE77:
 7243              		.section	".text"
 7244              	.Letext0:
 7245              		.section	.debug_loc,"",@progbits
 7246              	.Ldebug_loc0:
 7247              	.LLST2:
 7248 0000 00000008 		.4byte	.LVL1
 7249 0004 00000044 		.4byte	.LVL3
 7250 0008 0001     		.2byte	0x1
 7251 000a 53       		.byte	0x53
 7252 000b 00000000 		.4byte	0x0
 7253 000f 00000000 		.4byte	0x0
 7254              	.LLST4:
 7255 0013 00000048 		.4byte	.LVL4
 7256 0017 00000084 		.4byte	.LVL6
 7257 001b 0001     		.2byte	0x1
 7258 001d 53       		.byte	0x53
 7259 001e 00000000 		.4byte	0x0
 7260 0022 00000000 		.4byte	0x0
 7261              	.LLST6:
 7262 0026 00000088 		.4byte	.LVL7
 7263 002a 00000094 		.4byte	.LVL9
 7264 002e 0001     		.2byte	0x1
 7265 0030 53       		.byte	0x53
 7266 0031 00000094 		.4byte	.LVL9
 7267 0035 000000B4 		.4byte	.LFE582
 7268 0039 0001     		.2byte	0x1
 7269 003b 50       		.byte	0x50
 7270 003c 00000000 		.4byte	0x0
 7271 0040 00000000 		.4byte	0x0
 7272              	.LLST7:
 7273 0044 00000088 		.4byte	.LVL7
 7274 0048 0000008C 		.4byte	.LVL8
 7275 004c 0001     		.2byte	0x1
 7276 004e 54       		.byte	0x54
 7277 004f 00000000 		.4byte	0x0
 7278 0053 00000000 		.4byte	0x0
 7279              	.LLST9:
 7280 0057 000000B4 		.4byte	.LVL11
 7281 005b 000000C8 		.4byte	.LVL12
 7282 005f 0001     		.2byte	0x1
 7283 0061 53       		.byte	0x53
 7284 0062 000000C8 		.4byte	.LVL12
 7285 0066 000000D4 		.4byte	.LVL14
 7286 006a 0001     		.2byte	0x1
 7287 006c 50       		.byte	0x50
 7288 006d 000000D4 		.4byte	.LVL14
 7289 0071 000000F4 		.4byte	.LFE583
 7290 0075 0002     		.2byte	0x2
 7291 0077 73       		.byte	0x73
 7292 0078 00       		.sleb128 0
 7293 0079 00000000 		.4byte	0x0
 7294 007d 00000000 		.4byte	0x0
 7295              	.LLST10:
 7296 0081 000000F4 		.4byte	.LFB592
 7297 0085 000000FC 		.4byte	.LCFI1
 7298 0089 0001     		.2byte	0x1
 7299 008b 51       		.byte	0x51
 7300 008c 000000FC 		.4byte	.LCFI1
 7301 0090 00000114 		.4byte	.LFE592
 7302 0094 0002     		.2byte	0x2
 7303 0096 71       		.byte	0x71
 7304 0097 08       		.sleb128 8
 7305 0098 00000000 		.4byte	0x0
 7306 009c 00000000 		.4byte	0x0
 7307              	.LLST11:
 7308 00a0 000000F4 		.4byte	.LVL15
 7309 00a4 00000104 		.4byte	.LVL16
 7310 00a8 0001     		.2byte	0x1
 7311 00aa 53       		.byte	0x53
 7312 00ab 00000000 		.4byte	0x0
 7313 00af 00000000 		.4byte	0x0
 7314              	.LLST12:
 7315 00b3 000000F4 		.4byte	.LVL15
 7316 00b7 00000104 		.4byte	.LVL16
 7317 00bb 0001     		.2byte	0x1
 7318 00bd 54       		.byte	0x54
 7319 00be 00000000 		.4byte	0x0
 7320 00c2 00000000 		.4byte	0x0
 7321              	.LLST14:
 7322 00c6 00000000 		.4byte	.LVL17
 7323 00ca 00000008 		.4byte	.LVL18
 7324 00ce 0001     		.2byte	0x1
 7325 00d0 53       		.byte	0x53
 7326 00d1 00000000 		.4byte	0x0
 7327 00d5 00000000 		.4byte	0x0
 7328              	.LLST15:
 7329 00d9 0000001C 		.4byte	.LVL20
 7330 00dd 00000058 		.4byte	.LVL21
 7331 00e1 0001     		.2byte	0x1
 7332 00e3 59       		.byte	0x59
 7333 00e4 00000000 		.4byte	0x0
 7334 00e8 00000000 		.4byte	0x0
 7335              	.LLST17:
 7336 00ec 00000000 		.4byte	.LVL22
 7337 00f0 00000008 		.4byte	.LVL23
 7338 00f4 0001     		.2byte	0x1
 7339 00f6 53       		.byte	0x53
 7340 00f7 00000000 		.4byte	0x0
 7341 00fb 00000000 		.4byte	0x0
 7342              	.LLST18:
 7343 00ff 00000000 		.4byte	.LVL22
 7344 0103 00000014 		.4byte	.LVL24
 7345 0107 0001     		.2byte	0x1
 7346 0109 54       		.byte	0x54
 7347 010a 00000000 		.4byte	0x0
 7348 010e 00000000 		.4byte	0x0
 7349              	.LLST19:
 7350 0112 00000008 		.4byte	.LVL23
 7351 0116 00000044 		.4byte	.LVL26
 7352 011a 0001     		.2byte	0x1
 7353 011c 53       		.byte	0x53
 7354 011d 00000000 		.4byte	0x0
 7355 0121 00000000 		.4byte	0x0
 7356              	.LLST22:
 7357 0125 0000014C 		.4byte	.LFB572
 7358 0129 00000154 		.4byte	.LCFI4
 7359 012d 0001     		.2byte	0x1
 7360 012f 51       		.byte	0x51
 7361 0130 00000154 		.4byte	.LCFI4
 7362 0134 000002F4 		.4byte	.LFE572
 7363 0138 0002     		.2byte	0x2
 7364 013a 71       		.byte	0x71
 7365 013b 10       		.sleb128 16
 7366 013c 00000000 		.4byte	0x0
 7367 0140 00000000 		.4byte	0x0
 7368              	.LLST23:
 7369 0144 0000014C 		.4byte	.LVL28
 7370 0148 00000184 		.4byte	.LVL29
 7371 014c 0001     		.2byte	0x1
 7372 014e 53       		.byte	0x53
 7373 014f 00000184 		.4byte	.LVL29
 7374 0153 0000019C 		.4byte	.LVL30
 7375 0157 0001     		.2byte	0x1
 7376 0159 6F       		.byte	0x6f
 7377 015a 0000019C 		.4byte	.LVL30
 7378 015e 000001C4 		.4byte	.LVL32
 7379 0162 0001     		.2byte	0x1
 7380 0164 53       		.byte	0x53
 7381 0165 000001C4 		.4byte	.LVL32
 7382 0169 000001E8 		.4byte	.LVL33
 7383 016d 0001     		.2byte	0x1
 7384 016f 6F       		.byte	0x6f
 7385 0170 000001F4 		.4byte	.LVL34
 7386 0174 00000208 		.4byte	.LVL35
 7387 0178 0001     		.2byte	0x1
 7388 017a 6F       		.byte	0x6f
 7389 017b 00000214 		.4byte	.LVL36
 7390 017f 00000228 		.4byte	.LVL37
 7391 0183 0001     		.2byte	0x1
 7392 0185 6F       		.byte	0x6f
 7393 0186 00000234 		.4byte	.LVL38
 7394 018a 00000248 		.4byte	.LVL39
 7395 018e 0001     		.2byte	0x1
 7396 0190 6F       		.byte	0x6f
 7397 0191 00000254 		.4byte	.LVL40
 7398 0195 00000258 		.4byte	.LVL41
 7399 0199 0001     		.2byte	0x1
 7400 019b 53       		.byte	0x53
 7401 019c 00000258 		.4byte	.LVL41
 7402 01a0 00000274 		.4byte	.LVL42
 7403 01a4 0001     		.2byte	0x1
 7404 01a6 6F       		.byte	0x6f
 7405 01a7 00000274 		.4byte	.LVL42
 7406 01ab 00000278 		.4byte	.LVL43
 7407 01af 0001     		.2byte	0x1
 7408 01b1 53       		.byte	0x53
 7409 01b2 00000278 		.4byte	.LVL43
 7410 01b6 00000294 		.4byte	.LVL44
 7411 01ba 0001     		.2byte	0x1
 7412 01bc 6F       		.byte	0x6f
 7413 01bd 00000294 		.4byte	.LVL44
 7414 01c1 00000298 		.4byte	.LVL45
 7415 01c5 0001     		.2byte	0x1
 7416 01c7 53       		.byte	0x53
 7417 01c8 00000298 		.4byte	.LVL45
 7418 01cc 000002B4 		.4byte	.LVL46
 7419 01d0 0001     		.2byte	0x1
 7420 01d2 6F       		.byte	0x6f
 7421 01d3 000002B4 		.4byte	.LVL46
 7422 01d7 000002B8 		.4byte	.LVL47
 7423 01db 0001     		.2byte	0x1
 7424 01dd 53       		.byte	0x53
 7425 01de 000002B8 		.4byte	.LVL47
 7426 01e2 000002D4 		.4byte	.LVL48
 7427 01e6 0001     		.2byte	0x1
 7428 01e8 6F       		.byte	0x6f
 7429 01e9 000002D4 		.4byte	.LVL48
 7430 01ed 000002D8 		.4byte	.LVL49
 7431 01f1 0001     		.2byte	0x1
 7432 01f3 53       		.byte	0x53
 7433 01f4 000002D8 		.4byte	.LVL49
 7434 01f8 000002F4 		.4byte	.LFE572
 7435 01fc 0001     		.2byte	0x1
 7436 01fe 6F       		.byte	0x6f
 7437 01ff 00000000 		.4byte	0x0
 7438 0203 00000000 		.4byte	0x0
 7439              	.LLST24:
 7440 0207 000002F4 		.4byte	.LFB594
 7441 020b 000002F8 		.4byte	.LCFI7
 7442 020f 0001     		.2byte	0x1
 7443 0211 51       		.byte	0x51
 7444 0212 000002F8 		.4byte	.LCFI7
 7445 0216 0000047C 		.4byte	.LFE594
 7446 021a 0003     		.2byte	0x3
 7447 021c 71       		.byte	0x71
 7448 021d D000     		.sleb128 80
 7449 021f 00000000 		.4byte	0x0
 7450 0223 00000000 		.4byte	0x0
 7451              	.LLST25:
 7452 0227 000002F4 		.4byte	.LVL50
 7453 022b 0000030C 		.4byte	.LVL51
 7454 022f 0001     		.2byte	0x1
 7455 0231 53       		.byte	0x53
 7456 0232 0000030C 		.4byte	.LVL51
 7457 0236 00000450 		.4byte	.LVL59
 7458 023a 0001     		.2byte	0x1
 7459 023c 67       		.byte	0x67
 7460 023d 00000450 		.4byte	.LVL59
 7461 0241 0000047C 		.4byte	.LVL64
 7462 0245 0001     		.2byte	0x1
 7463 0247 53       		.byte	0x53
 7464 0248 00000000 		.4byte	0x0
 7465 024c 00000000 		.4byte	0x0
 7466              	.LLST26:
 7467 0250 000002F4 		.4byte	.LVL50
 7468 0254 00000348 		.4byte	.LVL53
 7469 0258 0002     		.2byte	0x2
 7470 025a 90       		.byte	0x90
 7471 025b 21       		.uleb128 0x21
 7472 025c 00000348 		.4byte	.LVL53
 7473 0260 00000474 		.4byte	.LVL63
 7474 0264 0002     		.2byte	0x2
 7475 0266 90       		.byte	0x90
 7476 0267 3F       		.uleb128 0x3f
 7477 0268 00000000 		.4byte	0x0
 7478 026c 00000000 		.4byte	0x0
 7479              	.LLST27:
 7480 0270 000002F4 		.4byte	.LVL50
 7481 0274 00000348 		.4byte	.LVL53
 7482 0278 0002     		.2byte	0x2
 7483 027a 90       		.byte	0x90
 7484 027b 22       		.uleb128 0x22
 7485 027c 00000348 		.4byte	.LVL53
 7486 0280 00000470 		.4byte	.LVL62
 7487 0284 0002     		.2byte	0x2
 7488 0286 90       		.byte	0x90
 7489 0287 3E       		.uleb128 0x3e
 7490 0288 00000000 		.4byte	0x0
 7491 028c 00000000 		.4byte	0x0
 7492              	.LLST28:
 7493 0290 000002F4 		.4byte	.LVL50
 7494 0294 00000314 		.4byte	.LVL52
 7495 0298 0001     		.2byte	0x1
 7496 029a 54       		.byte	0x54
 7497 029b 00000314 		.4byte	.LVL52
 7498 029f 00000458 		.4byte	.LVL60
 7499 02a3 0001     		.2byte	0x1
 7500 02a5 68       		.byte	0x68
 7501 02a6 00000000 		.4byte	0x0
 7502 02aa 00000000 		.4byte	0x0
 7503              	.LLST29:
 7504 02ae 000002F4 		.4byte	.LVL50
 7505 02b2 00000348 		.4byte	.LVL53
 7506 02b6 0001     		.2byte	0x1
 7507 02b8 55       		.byte	0x55
 7508 02b9 00000348 		.4byte	.LVL53
 7509 02bd 00000468 		.4byte	.LVL61
 7510 02c1 0001     		.2byte	0x1
 7511 02c3 6C       		.byte	0x6c
 7512 02c4 00000000 		.4byte	0x0
 7513 02c8 00000000 		.4byte	0x0
 7514              	.LLST30:
 7515 02cc 000002F4 		.4byte	.LVL50
 7516 02d0 00000348 		.4byte	.LVL53
 7517 02d4 0001     		.2byte	0x1
 7518 02d6 56       		.byte	0x56
 7519 02d7 00000348 		.4byte	.LVL53
 7520 02db 00000380 		.4byte	.LVL55
 7521 02df 0001     		.2byte	0x1
 7522 02e1 6D       		.byte	0x6d
 7523 02e2 00000380 		.4byte	.LVL55
 7524 02e6 0000047C 		.4byte	.LFE594
 7525 02ea 0002     		.2byte	0x2
 7526 02ec 76       		.byte	0x76
 7527 02ed 00       		.sleb128 0
 7528 02ee 00000000 		.4byte	0x0
 7529 02f2 00000000 		.4byte	0x0
 7530              	.LLST31:
 7531 02f6 000003D8 		.4byte	.LVL56
 7532 02fa 0000041C 		.4byte	.LVL57
 7533 02fe 0001     		.2byte	0x1
 7534 0300 50       		.byte	0x50
 7535 0301 00000000 		.4byte	0x0
 7536 0305 00000000 		.4byte	0x0
 7537              	.LLST32:
 7538 0309 0000041C 		.4byte	.LVL57
 7539 030d 0000044C 		.4byte	.LVL58
 7540 0311 0001     		.2byte	0x1
 7541 0313 50       		.byte	0x50
 7542 0314 00000000 		.4byte	0x0
 7543 0318 00000000 		.4byte	0x0
 7544              	.LLST33:
 7545 031c 0000047C 		.4byte	.LFB586
 7546 0320 00000484 		.4byte	.LCFI20
 7547 0324 0001     		.2byte	0x1
 7548 0326 51       		.byte	0x51
 7549 0327 00000484 		.4byte	.LCFI20
 7550 032b 0000078C 		.4byte	.LFE586
 7551 032f 0003     		.2byte	0x3
 7552 0331 71       		.byte	0x71
 7553 0332 C000     		.sleb128 64
 7554 0334 00000000 		.4byte	0x0
 7555 0338 00000000 		.4byte	0x0
 7556              	.LLST34:
 7557 033c 0000047C 		.4byte	.LVL65
 7558 0340 000004E0 		.4byte	.LVL68
 7559 0344 0001     		.2byte	0x1
 7560 0346 53       		.byte	0x53
 7561 0347 000004E0 		.4byte	.LVL68
 7562 034b 000005F0 		.4byte	.LVL76
 7563 034f 0001     		.2byte	0x1
 7564 0351 6D       		.byte	0x6d
 7565 0352 000005F0 		.4byte	.LVL76
 7566 0356 00000600 		.4byte	.LVL79
 7567 035a 0001     		.2byte	0x1
 7568 035c 53       		.byte	0x53
 7569 035d 00000600 		.4byte	.LVL79
 7570 0361 0000066C 		.4byte	.LVL85
 7571 0365 0001     		.2byte	0x1
 7572 0367 6D       		.byte	0x6d
 7573 0368 0000067C 		.4byte	.LVL88
 7574 036c 0000078C 		.4byte	.LFE586
 7575 0370 0001     		.2byte	0x1
 7576 0372 6D       		.byte	0x6d
 7577 0373 00000000 		.4byte	0x0
 7578 0377 00000000 		.4byte	0x0
 7579              	.LLST35:
 7580 037b 0000047C 		.4byte	.LVL65
 7581 037f 000004E0 		.4byte	.LVL68
 7582 0383 0001     		.2byte	0x1
 7583 0385 54       		.byte	0x54
 7584 0386 000004E0 		.4byte	.LVL68
 7585 038a 000005E8 		.4byte	.LVL74
 7586 038e 0001     		.2byte	0x1
 7587 0390 6B       		.byte	0x6b
 7588 0391 000005E8 		.4byte	.LVL74
 7589 0395 00000600 		.4byte	.LVL79
 7590 0399 0001     		.2byte	0x1
 7591 039b 54       		.byte	0x54
 7592 039c 00000600 		.4byte	.LVL79
 7593 03a0 00000664 		.4byte	.LVL83
 7594 03a4 0001     		.2byte	0x1
 7595 03a6 6B       		.byte	0x6b
 7596 03a7 0000067C 		.4byte	.LVL88
 7597 03ab 0000078C 		.4byte	.LFE586
 7598 03af 0001     		.2byte	0x1
 7599 03b1 6B       		.byte	0x6b
 7600 03b2 00000000 		.4byte	0x0
 7601 03b6 00000000 		.4byte	0x0
 7602              	.LLST36:
 7603 03ba 0000047C 		.4byte	.LVL65
 7604 03be 000004E0 		.4byte	.LVL68
 7605 03c2 0001     		.2byte	0x1
 7606 03c4 55       		.byte	0x55
 7607 03c5 000004E0 		.4byte	.LVL68
 7608 03c9 000005EC 		.4byte	.LVL75
 7609 03cd 0001     		.2byte	0x1
 7610 03cf 6C       		.byte	0x6c
 7611 03d0 000005EC 		.4byte	.LVL75
 7612 03d4 00000600 		.4byte	.LVL79
 7613 03d8 0001     		.2byte	0x1
 7614 03da 55       		.byte	0x55
 7615 03db 00000600 		.4byte	.LVL79
 7616 03df 00000668 		.4byte	.LVL84
 7617 03e3 0001     		.2byte	0x1
 7618 03e5 6C       		.byte	0x6c
 7619 03e6 0000067C 		.4byte	.LVL88
 7620 03ea 0000078C 		.4byte	.LFE586
 7621 03ee 0001     		.2byte	0x1
 7622 03f0 6C       		.byte	0x6c
 7623 03f1 00000000 		.4byte	0x0
 7624 03f5 00000000 		.4byte	0x0
 7625              	.LLST37:
 7626 03f9 0000047C 		.4byte	.LVL65
 7627 03fd 000004E0 		.4byte	.LVL68
 7628 0401 0001     		.2byte	0x1
 7629 0403 56       		.byte	0x56
 7630 0404 000004E0 		.4byte	.LVL68
 7631 0408 000005F4 		.4byte	.LVL77
 7632 040c 0001     		.2byte	0x1
 7633 040e 6E       		.byte	0x6e
 7634 040f 000005F4 		.4byte	.LVL77
 7635 0413 00000600 		.4byte	.LVL79
 7636 0417 0001     		.2byte	0x1
 7637 0419 56       		.byte	0x56
 7638 041a 00000600 		.4byte	.LVL79
 7639 041e 00000670 		.4byte	.LVL86
 7640 0422 0001     		.2byte	0x1
 7641 0424 6E       		.byte	0x6e
 7642 0425 0000067C 		.4byte	.LVL88
 7643 0429 0000078C 		.4byte	.LFE586
 7644 042d 0001     		.2byte	0x1
 7645 042f 6E       		.byte	0x6e
 7646 0430 00000000 		.4byte	0x0
 7647 0434 00000000 		.4byte	0x0
 7648              	.LLST38:
 7649 0438 0000047C 		.4byte	.LVL65
 7650 043c 0000049C 		.4byte	.LVL66
 7651 0440 0001     		.2byte	0x1
 7652 0442 57       		.byte	0x57
 7653 0443 0000049C 		.4byte	.LVL66
 7654 0447 00000554 		.4byte	.LVL69
 7655 044b 0001     		.2byte	0x1
 7656 044d 5B       		.byte	0x5b
 7657 044e 00000554 		.4byte	.LVL69
 7658 0452 0000067C 		.4byte	.LVL88
 7659 0456 0002     		.2byte	0x2
 7660 0458 77       		.byte	0x77
 7661 0459 00       		.sleb128 0
 7662 045a 0000067C 		.4byte	.LVL88
 7663 045e 00000704 		.4byte	.LVL90
 7664 0462 0001     		.2byte	0x1
 7665 0464 5B       		.byte	0x5b
 7666 0465 00000704 		.4byte	.LVL90
 7667 0469 00000768 		.4byte	.LVL92
 7668 046d 0002     		.2byte	0x2
 7669 046f 77       		.byte	0x77
 7670 0470 00       		.sleb128 0
 7671 0471 00000768 		.4byte	.LVL92
 7672 0475 0000078C 		.4byte	.LFE586
 7673 0479 0001     		.2byte	0x1
 7674 047b 5B       		.byte	0x5b
 7675 047c 00000000 		.4byte	0x0
 7676 0480 00000000 		.4byte	0x0
 7677              	.LLST39:
 7678 0484 0000047C 		.4byte	.LVL65
 7679 0488 000004E0 		.4byte	.LVL68
 7680 048c 0001     		.2byte	0x1
 7681 048e 58       		.byte	0x58
 7682 048f 000004E0 		.4byte	.LVL68
 7683 0493 000005F8 		.4byte	.LVL78
 7684 0497 0001     		.2byte	0x1
 7685 0499 6F       		.byte	0x6f
 7686 049a 000005F8 		.4byte	.LVL78
 7687 049e 00000600 		.4byte	.LVL79
 7688 04a2 0001     		.2byte	0x1
 7689 04a4 58       		.byte	0x58
 7690 04a5 00000600 		.4byte	.LVL79
 7691 04a9 00000674 		.4byte	.LVL87
 7692 04ad 0001     		.2byte	0x1
 7693 04af 6F       		.byte	0x6f
 7694 04b0 0000067C 		.4byte	.LVL88
 7695 04b4 0000078C 		.4byte	.LFE586
 7696 04b8 0001     		.2byte	0x1
 7697 04ba 6F       		.byte	0x6f
 7698 04bb 00000000 		.4byte	0x0
 7699 04bf 00000000 		.4byte	0x0
 7700              	.LLST40:
 7701 04c3 0000047C 		.4byte	.LVL65
 7702 04c7 000004E0 		.4byte	.LVL68
 7703 04cb 0001     		.2byte	0x1
 7704 04cd 59       		.byte	0x59
 7705 04ce 000004E0 		.4byte	.LVL68
 7706 04d2 000005E4 		.4byte	.LVL73
 7707 04d6 0001     		.2byte	0x1
 7708 04d8 6A       		.byte	0x6a
 7709 04d9 000005E4 		.4byte	.LVL73
 7710 04dd 00000600 		.4byte	.LVL79
 7711 04e1 0002     		.2byte	0x2
 7712 04e3 79       		.byte	0x79
 7713 04e4 00       		.sleb128 0
 7714 04e5 00000600 		.4byte	.LVL79
 7715 04e9 00000660 		.4byte	.LVL82
 7716 04ed 0001     		.2byte	0x1
 7717 04ef 6A       		.byte	0x6a
 7718 04f0 00000660 		.4byte	.LVL82
 7719 04f4 0000067C 		.4byte	.LVL88
 7720 04f8 0002     		.2byte	0x2
 7721 04fa 79       		.byte	0x79
 7722 04fb 00       		.sleb128 0
 7723 04fc 0000067C 		.4byte	.LVL88
 7724 0500 0000078C 		.4byte	.LFE586
 7725 0504 0001     		.2byte	0x1
 7726 0506 6A       		.byte	0x6a
 7727 0507 00000000 		.4byte	0x0
 7728 050b 00000000 		.4byte	0x0
 7729              	.LLST41:
 7730 050f 000004A8 		.4byte	.LVL67
 7731 0513 000005E0 		.4byte	.LVL72
 7732 0517 0001     		.2byte	0x1
 7733 0519 69       		.byte	0x69
 7734 051a 00000600 		.4byte	.LVL79
 7735 051e 0000065C 		.4byte	.LVL81
 7736 0522 0001     		.2byte	0x1
 7737 0524 69       		.byte	0x69
 7738 0525 0000067C 		.4byte	.LVL88
 7739 0529 0000078C 		.4byte	.LFE586
 7740 052d 0001     		.2byte	0x1
 7741 052f 69       		.byte	0x69
 7742 0530 00000000 		.4byte	0x0
 7743 0534 00000000 		.4byte	0x0
 7744              	.LLST42:
 7745 0538 0000078C 		.4byte	.LFB593
 7746 053c 00000794 		.4byte	.LCFI32
 7747 0540 0001     		.2byte	0x1
 7748 0542 51       		.byte	0x51
 7749 0543 00000794 		.4byte	.LCFI32
 7750 0547 00000950 		.4byte	.LFE593
 7751 054b 0003     		.2byte	0x3
 7752 054d 71       		.byte	0x71
 7753 054e D000     		.sleb128 80
 7754 0550 00000000 		.4byte	0x0
 7755 0554 00000000 		.4byte	0x0
 7756              	.LLST43:
 7757 0558 0000078C 		.4byte	.LVL93
 7758 055c 000007B8 		.4byte	.LVL94
 7759 0560 0001     		.2byte	0x1
 7760 0562 53       		.byte	0x53
 7761 0563 000007B8 		.4byte	.LVL94
 7762 0567 00000928 		.4byte	.LVL102
 7763 056b 0001     		.2byte	0x1
 7764 056d 67       		.byte	0x67
 7765 056e 00000928 		.4byte	.LVL102
 7766 0572 00000950 		.4byte	.LVL107
 7767 0576 0001     		.2byte	0x1
 7768 0578 53       		.byte	0x53
 7769 0579 00000000 		.4byte	0x0
 7770 057d 00000000 		.4byte	0x0
 7771              	.LLST44:
 7772 0581 0000078C 		.4byte	.LVL93
 7773 0585 000007C0 		.4byte	.LVL95
 7774 0589 0001     		.2byte	0x1
 7775 058b 54       		.byte	0x54
 7776 058c 000007C0 		.4byte	.LVL95
 7777 0590 000007E0 		.4byte	.LVL96
 7778 0594 0001     		.2byte	0x1
 7779 0596 53       		.byte	0x53
 7780 0597 00000000 		.4byte	0x0
 7781 059b 00000000 		.4byte	0x0
 7782              	.LLST45:
 7783 059f 0000078C 		.4byte	.LVL93
 7784 05a3 000007E0 		.4byte	.LVL96
 7785 05a7 0002     		.2byte	0x2
 7786 05a9 90       		.byte	0x90
 7787 05aa 21       		.uleb128 0x21
 7788 05ab 000007E0 		.4byte	.LVL96
 7789 05af 00000948 		.4byte	.LVL106
 7790 05b3 0002     		.2byte	0x2
 7791 05b5 90       		.byte	0x90
 7792 05b6 3F       		.uleb128 0x3f
 7793 05b7 00000000 		.4byte	0x0
 7794 05bb 00000000 		.4byte	0x0
 7795              	.LLST46:
 7796 05bf 0000078C 		.4byte	.LVL93
 7797 05c3 000007E0 		.4byte	.LVL96
 7798 05c7 0002     		.2byte	0x2
 7799 05c9 90       		.byte	0x90
 7800 05ca 22       		.uleb128 0x22
 7801 05cb 000007E0 		.4byte	.LVL96
 7802 05cf 00000944 		.4byte	.LVL105
 7803 05d3 0002     		.2byte	0x2
 7804 05d5 90       		.byte	0x90
 7805 05d6 3E       		.uleb128 0x3e
 7806 05d7 00000000 		.4byte	0x0
 7807 05db 00000000 		.4byte	0x0
 7808              	.LLST47:
 7809 05df 0000078C 		.4byte	.LVL93
 7810 05e3 000007E0 		.4byte	.LVL96
 7811 05e7 0001     		.2byte	0x1
 7812 05e9 55       		.byte	0x55
 7813 05ea 000007E0 		.4byte	.LVL96
 7814 05ee 0000092C 		.4byte	.LVL103
 7815 05f2 0001     		.2byte	0x1
 7816 05f4 68       		.byte	0x68
 7817 05f5 00000000 		.4byte	0x0
 7818 05f9 00000000 		.4byte	0x0
 7819              	.LLST48:
 7820 05fd 0000078C 		.4byte	.LVL93
 7821 0601 000007E0 		.4byte	.LVL96
 7822 0605 0001     		.2byte	0x1
 7823 0607 56       		.byte	0x56
 7824 0608 000007E0 		.4byte	.LVL96
 7825 060c 0000093C 		.4byte	.LVL104
 7826 0610 0001     		.2byte	0x1
 7827 0612 6C       		.byte	0x6c
 7828 0613 00000000 		.4byte	0x0
 7829 0617 00000000 		.4byte	0x0
 7830              	.LLST49:
 7831 061b 0000078C 		.4byte	.LVL93
 7832 061f 000007E0 		.4byte	.LVL96
 7833 0623 0001     		.2byte	0x1
 7834 0625 57       		.byte	0x57
 7835 0626 000007E0 		.4byte	.LVL96
 7836 062a 00000828 		.4byte	.LVL98
 7837 062e 0001     		.2byte	0x1
 7838 0630 6D       		.byte	0x6d
 7839 0631 00000828 		.4byte	.LVL98
 7840 0635 00000950 		.4byte	.LFE593
 7841 0639 0002     		.2byte	0x2
 7842 063b 77       		.byte	0x77
 7843 063c 00       		.sleb128 0
 7844 063d 00000000 		.4byte	0x0
 7845 0641 00000000 		.4byte	0x0
 7846              	.LLST50:
 7847 0645 00000894 		.4byte	.LVL99
 7848 0649 000008E0 		.4byte	.LVL100
 7849 064d 0001     		.2byte	0x1
 7850 064f 50       		.byte	0x50
 7851 0650 00000000 		.4byte	0x0
 7852 0654 00000000 		.4byte	0x0
 7853              	.LLST51:
 7854 0658 000008E0 		.4byte	.LVL100
 7855 065c 0000091C 		.4byte	.LVL101
 7856 0660 0001     		.2byte	0x1
 7857 0662 50       		.byte	0x50
 7858 0663 00000000 		.4byte	0x0
 7859 0667 00000000 		.4byte	0x0
 7860              	.LLST52:
 7861 066b 00000000 		.4byte	.LFB691
 7862 066f 0000000C 		.4byte	.LCFI44
 7863 0673 0001     		.2byte	0x1
 7864 0675 51       		.byte	0x51
 7865 0676 0000000C 		.4byte	.LCFI44
 7866 067a 000000F0 		.4byte	.LFE691
 7867 067e 0002     		.2byte	0x2
 7868 0680 71       		.byte	0x71
 7869 0681 20       		.sleb128 32
 7870 0682 00000000 		.4byte	0x0
 7871 0686 00000000 		.4byte	0x0
 7872              	.LLST53:
 7873 068a 00000000 		.4byte	.LVL108
 7874 068e 0000003C 		.4byte	.LVL109
 7875 0692 0001     		.2byte	0x1
 7876 0694 53       		.byte	0x53
 7877 0695 0000003C 		.4byte	.LVL109
 7878 0699 000000C0 		.4byte	.LVL116
 7879 069d 0001     		.2byte	0x1
 7880 069f 6D       		.byte	0x6d
 7881 06a0 000000D0 		.4byte	.LVL119
 7882 06a4 000000F0 		.4byte	.LFE691
 7883 06a8 0001     		.2byte	0x1
 7884 06aa 6D       		.byte	0x6d
 7885 06ab 00000000 		.4byte	0x0
 7886 06af 00000000 		.4byte	0x0
 7887              	.LLST54:
 7888 06b3 00000000 		.4byte	.LVL108
 7889 06b7 00000048 		.4byte	.LVL111
 7890 06bb 0001     		.2byte	0x1
 7891 06bd 54       		.byte	0x54
 7892 06be 000000D0 		.4byte	.LVL119
 7893 06c2 000000F0 		.4byte	.LFE691
 7894 06c6 0001     		.2byte	0x1
 7895 06c8 54       		.byte	0x54
 7896 06c9 00000000 		.4byte	0x0
 7897 06cd 00000000 		.4byte	0x0
 7898              	.LLST55:
 7899 06d1 00000000 		.4byte	.LVL108
 7900 06d5 00000048 		.4byte	.LVL111
 7901 06d9 0001     		.2byte	0x1
 7902 06db 55       		.byte	0x55
 7903 06dc 00000048 		.4byte	.LVL111
 7904 06e0 000000B8 		.4byte	.LVL115
 7905 06e4 0001     		.2byte	0x1
 7906 06e6 6B       		.byte	0x6b
 7907 06e7 000000D0 		.4byte	.LVL119
 7908 06eb 000000D8 		.4byte	.LVL120
 7909 06ef 0001     		.2byte	0x1
 7910 06f1 6B       		.byte	0x6b
 7911 06f2 000000D8 		.4byte	.LVL120
 7912 06f6 000000F0 		.4byte	.LFE691
 7913 06fa 0001     		.2byte	0x1
 7914 06fc 55       		.byte	0x55
 7915 06fd 00000000 		.4byte	0x0
 7916 0701 00000000 		.4byte	0x0
 7917              	.LLST56:
 7918 0705 00000000 		.4byte	.LVL108
 7919 0709 0000003C 		.4byte	.LVL109
 7920 070d 0001     		.2byte	0x1
 7921 070f 56       		.byte	0x56
 7922 0710 0000003C 		.4byte	.LVL109
 7923 0714 000000C4 		.4byte	.LVL117
 7924 0718 0001     		.2byte	0x1
 7925 071a 6E       		.byte	0x6e
 7926 071b 000000D0 		.4byte	.LVL119
 7927 071f 000000F0 		.4byte	.LFE691
 7928 0723 0001     		.2byte	0x1
 7929 0725 6E       		.byte	0x6e
 7930 0726 00000000 		.4byte	0x0
 7931 072a 00000000 		.4byte	0x0
 7932              	.LLST57:
 7933 072e 00000040 		.4byte	.LVL110
 7934 0732 000000AC 		.4byte	.LVL114
 7935 0736 0001     		.2byte	0x1
 7936 0738 6A       		.byte	0x6a
 7937 0739 000000EC 		.4byte	.LVL121
 7938 073d 000000F0 		.4byte	.LFE691
 7939 0741 0001     		.2byte	0x1
 7940 0743 6A       		.byte	0x6a
 7941 0744 00000000 		.4byte	0x0
 7942 0748 00000000 		.4byte	0x0
 7943              	.LLST58:
 7944 074c 0000004C 		.4byte	.LVL112
 7945 0750 00000050 		.4byte	.LVL113
 7946 0754 0001     		.2byte	0x1
 7947 0756 53       		.byte	0x53
 7948 0757 00000050 		.4byte	.LVL113
 7949 075b 000000C8 		.4byte	.LVL118
 7950 075f 0001     		.2byte	0x1
 7951 0761 6F       		.byte	0x6f
 7952 0762 00000000 		.4byte	0x0
 7953 0766 00000000 		.4byte	0x0
 7954              	.LLST59:
 7955 076a 00000000 		.4byte	.LFB629
 7956 076e 00000004 		.4byte	.LCFI52
 7957 0772 0001     		.2byte	0x1
 7958 0774 51       		.byte	0x51
 7959 0775 00000004 		.4byte	.LCFI52
 7960 0779 0000005C 		.4byte	.LFE629
 7961 077d 0002     		.2byte	0x2
 7962 077f 71       		.byte	0x71
 7963 0780 10       		.sleb128 16
 7964 0781 00000000 		.4byte	0x0
 7965 0785 00000000 		.4byte	0x0
 7966              	.LLST60:
 7967 0789 00000000 		.4byte	.LVL122
 7968 078d 00000020 		.4byte	.LVL123
 7969 0791 0001     		.2byte	0x1
 7970 0793 53       		.byte	0x53
 7971 0794 00000020 		.4byte	.LVL123
 7972 0798 0000004C 		.4byte	.LVL125
 7973 079c 0001     		.2byte	0x1
 7974 079e 6E       		.byte	0x6e
 7975 079f 0000004C 		.4byte	.LVL125
 7976 07a3 0000005C 		.4byte	.LFE629
 7977 07a7 0001     		.2byte	0x1
 7978 07a9 53       		.byte	0x53
 7979 07aa 00000000 		.4byte	0x0
 7980 07ae 00000000 		.4byte	0x0
 7981              	.LLST61:
 7982 07b2 00000000 		.4byte	.LVL122
 7983 07b6 00000020 		.4byte	.LVL123
 7984 07ba 0001     		.2byte	0x1
 7985 07bc 54       		.byte	0x54
 7986 07bd 00000020 		.4byte	.LVL123
 7987 07c1 00000050 		.4byte	.LVL126
 7988 07c5 0001     		.2byte	0x1
 7989 07c7 6F       		.byte	0x6f
 7990 07c8 00000050 		.4byte	.LVL126
 7991 07cc 0000005C 		.4byte	.LFE629
 7992 07d0 0001     		.2byte	0x1
 7993 07d2 54       		.byte	0x54
 7994 07d3 00000000 		.4byte	0x0
 7995 07d7 00000000 		.4byte	0x0
 7996              	.LLST62:
 7997 07db 00000950 		.4byte	.LFB581
 7998 07df 00000958 		.4byte	.LCFI58
 7999 07e3 0001     		.2byte	0x1
 8000 07e5 51       		.byte	0x51
 8001 07e6 00000958 		.4byte	.LCFI58
 8002 07ea 00000C58 		.4byte	.LFE581
 8003 07ee 0002     		.2byte	0x2
 8004 07f0 71       		.byte	0x71
 8005 07f1 20       		.sleb128 32
 8006 07f2 00000000 		.4byte	0x0
 8007 07f6 00000000 		.4byte	0x0
 8008              	.LLST63:
 8009 07fa 00000950 		.4byte	.LVL127
 8010 07fe 00000968 		.4byte	.LVL128
 8011 0802 0001     		.2byte	0x1
 8012 0804 53       		.byte	0x53
 8013 0805 00000968 		.4byte	.LVL128
 8014 0809 00000A7C 		.4byte	.LVL138
 8015 080d 0001     		.2byte	0x1
 8016 080f 6A       		.byte	0x6a
 8017 0810 00000A9C 		.4byte	.LVL142
 8018 0814 00000ADC 		.4byte	.LVL145
 8019 0818 0001     		.2byte	0x1
 8020 081a 6A       		.byte	0x6a
 8021 081b 00000AFC 		.4byte	.LVL149
 8022 081f 00000B20 		.4byte	.LVL152
 8023 0823 0001     		.2byte	0x1
 8024 0825 6A       		.byte	0x6a
 8025 0826 00000B40 		.4byte	.LVL156
 8026 082a 00000B64 		.4byte	.LVL159
 8027 082e 0001     		.2byte	0x1
 8028 0830 6A       		.byte	0x6a
 8029 0831 00000B84 		.4byte	.LVL163
 8030 0835 00000BA8 		.4byte	.LVL166
 8031 0839 0001     		.2byte	0x1
 8032 083b 6A       		.byte	0x6a
 8033 083c 00000BC8 		.4byte	.LVL170
 8034 0840 00000BEC 		.4byte	.LVL173
 8035 0844 0001     		.2byte	0x1
 8036 0846 6A       		.byte	0x6a
 8037 0847 00000C0C 		.4byte	.LVL177
 8038 084b 00000C30 		.4byte	.LVL180
 8039 084f 0001     		.2byte	0x1
 8040 0851 6A       		.byte	0x6a
 8041 0852 00000C50 		.4byte	.LVL184
 8042 0856 00000C58 		.4byte	.LFE581
 8043 085a 0001     		.2byte	0x1
 8044 085c 6A       		.byte	0x6a
 8045 085d 00000000 		.4byte	0x0
 8046 0861 00000000 		.4byte	0x0
 8047              	.LLST64:
 8048 0865 00000950 		.4byte	.LVL127
 8049 0869 00000994 		.4byte	.LVL129
 8050 086d 0001     		.2byte	0x1
 8051 086f 54       		.byte	0x54
 8052 0870 00000994 		.4byte	.LVL129
 8053 0874 00000A94 		.4byte	.LVL141
 8054 0878 0001     		.2byte	0x1
 8055 087a 6F       		.byte	0x6f
 8056 087b 00000A9C 		.4byte	.LVL142
 8057 087f 00000AF4 		.4byte	.LVL148
 8058 0883 0001     		.2byte	0x1
 8059 0885 6F       		.byte	0x6f
 8060 0886 00000AFC 		.4byte	.LVL149
 8061 088a 00000B38 		.4byte	.LVL155
 8062 088e 0001     		.2byte	0x1
 8063 0890 6F       		.byte	0x6f
 8064 0891 00000B40 		.4byte	.LVL156
 8065 0895 00000B7C 		.4byte	.LVL162
 8066 0899 0001     		.2byte	0x1
 8067 089b 6F       		.byte	0x6f
 8068 089c 00000B84 		.4byte	.LVL163
 8069 08a0 00000BC0 		.4byte	.LVL169
 8070 08a4 0001     		.2byte	0x1
 8071 08a6 6F       		.byte	0x6f
 8072 08a7 00000BC8 		.4byte	.LVL170
 8073 08ab 00000C04 		.4byte	.LVL176
 8074 08af 0001     		.2byte	0x1
 8075 08b1 6F       		.byte	0x6f
 8076 08b2 00000C0C 		.4byte	.LVL177
 8077 08b6 00000C48 		.4byte	.LVL183
 8078 08ba 0001     		.2byte	0x1
 8079 08bc 6F       		.byte	0x6f
 8080 08bd 00000C50 		.4byte	.LVL184
 8081 08c1 00000C58 		.4byte	.LFE581
 8082 08c5 0001     		.2byte	0x1
 8083 08c7 6F       		.byte	0x6f
 8084 08c8 00000000 		.4byte	0x0
 8085 08cc 00000000 		.4byte	0x0
 8086              	.LLST65:
 8087 08d0 00000950 		.4byte	.LVL127
 8088 08d4 00000998 		.4byte	.LVL130
 8089 08d8 0001     		.2byte	0x1
 8090 08da 55       		.byte	0x55
 8091 08db 00000998 		.4byte	.LVL130
 8092 08df 00000A8C 		.4byte	.LVL139
 8093 08e3 0001     		.2byte	0x1
 8094 08e5 6D       		.byte	0x6d
 8095 08e6 00000A9C 		.4byte	.LVL142
 8096 08ea 00000AEC 		.4byte	.LVL146
 8097 08ee 0001     		.2byte	0x1
 8098 08f0 6D       		.byte	0x6d
 8099 08f1 00000AFC 		.4byte	.LVL149
 8100 08f5 00000B30 		.4byte	.LVL153
 8101 08f9 0001     		.2byte	0x1
 8102 08fb 6D       		.byte	0x6d
 8103 08fc 00000B40 		.4byte	.LVL156
 8104 0900 00000B74 		.4byte	.LVL160
 8105 0904 0001     		.2byte	0x1
 8106 0906 6D       		.byte	0x6d
 8107 0907 00000B84 		.4byte	.LVL163
 8108 090b 00000BB8 		.4byte	.LVL167
 8109 090f 0001     		.2byte	0x1
 8110 0911 6D       		.byte	0x6d
 8111 0912 00000BC8 		.4byte	.LVL170
 8112 0916 00000BFC 		.4byte	.LVL174
 8113 091a 0001     		.2byte	0x1
 8114 091c 6D       		.byte	0x6d
 8115 091d 00000C0C 		.4byte	.LVL177
 8116 0921 00000C40 		.4byte	.LVL181
 8117 0925 0001     		.2byte	0x1
 8118 0927 6D       		.byte	0x6d
 8119 0928 00000C50 		.4byte	.LVL184
 8120 092c 00000C58 		.4byte	.LFE581
 8121 0930 0001     		.2byte	0x1
 8122 0932 6D       		.byte	0x6d
 8123 0933 00000000 		.4byte	0x0
 8124 0937 00000000 		.4byte	0x0
 8125              	.LLST66:
 8126 093b 000009A8 		.4byte	.LVL131
 8127 093f 00000A90 		.4byte	.LVL140
 8128 0943 0001     		.2byte	0x1
 8129 0945 6E       		.byte	0x6e
 8130 0946 00000A9C 		.4byte	.LVL142
 8131 094a 00000AF0 		.4byte	.LVL147
 8132 094e 0001     		.2byte	0x1
 8133 0950 6E       		.byte	0x6e
 8134 0951 00000AFC 		.4byte	.LVL149
 8135 0955 00000B34 		.4byte	.LVL154
 8136 0959 0001     		.2byte	0x1
 8137 095b 6E       		.byte	0x6e
 8138 095c 00000B40 		.4byte	.LVL156
 8139 0960 00000B78 		.4byte	.LVL161
 8140 0964 0001     		.2byte	0x1
 8141 0966 6E       		.byte	0x6e
 8142 0967 00000B84 		.4byte	.LVL163
 8143 096b 00000BBC 		.4byte	.LVL168
 8144 096f 0001     		.2byte	0x1
 8145 0971 6E       		.byte	0x6e
 8146 0972 00000BC8 		.4byte	.LVL170
 8147 0976 00000C00 		.4byte	.LVL175
 8148 097a 0001     		.2byte	0x1
 8149 097c 6E       		.byte	0x6e
 8150 097d 00000C0C 		.4byte	.LVL177
 8151 0981 00000C44 		.4byte	.LVL182
 8152 0985 0001     		.2byte	0x1
 8153 0987 6E       		.byte	0x6e
 8154 0988 00000C50 		.4byte	.LVL184
 8155 098c 00000C58 		.4byte	.LFE581
 8156 0990 0001     		.2byte	0x1
 8157 0992 6E       		.byte	0x6e
 8158 0993 00000000 		.4byte	0x0
 8159 0997 00000000 		.4byte	0x0
 8160              	.LLST67:
 8161 099b 000009C8 		.4byte	.LVL132
 8162 099f 00000A60 		.4byte	.LVL136
 8163 09a3 0001     		.2byte	0x1
 8164 09a5 54       		.byte	0x54
 8165 09a6 00000A9C 		.4byte	.LVL142
 8166 09aa 00000AC0 		.4byte	.LVL143
 8167 09ae 0001     		.2byte	0x1
 8168 09b0 54       		.byte	0x54
 8169 09b1 00000AFC 		.4byte	.LVL149
 8170 09b5 00000B04 		.4byte	.LVL150
 8171 09b9 0001     		.2byte	0x1
 8172 09bb 54       		.byte	0x54
 8173 09bc 00000B40 		.4byte	.LVL156
 8174 09c0 00000B48 		.4byte	.LVL157
 8175 09c4 0001     		.2byte	0x1
 8176 09c6 54       		.byte	0x54
 8177 09c7 00000B84 		.4byte	.LVL163
 8178 09cb 00000B8C 		.4byte	.LVL164
 8179 09cf 0001     		.2byte	0x1
 8180 09d1 54       		.byte	0x54
 8181 09d2 00000BC8 		.4byte	.LVL170
 8182 09d6 00000BD0 		.4byte	.LVL171
 8183 09da 0001     		.2byte	0x1
 8184 09dc 54       		.byte	0x54
 8185 09dd 00000C0C 		.4byte	.LVL177
 8186 09e1 00000C14 		.4byte	.LVL178
 8187 09e5 0001     		.2byte	0x1
 8188 09e7 54       		.byte	0x54
 8189 09e8 00000000 		.4byte	0x0
 8190 09ec 00000000 		.4byte	0x0
 8191              	.LLST68:
 8192 09f0 000009D4 		.4byte	.LVL133
 8193 09f4 00000A68 		.4byte	.LVL137
 8194 09f8 0001     		.2byte	0x1
 8195 09fa 56       		.byte	0x56
 8196 09fb 00000A9C 		.4byte	.LVL142
 8197 09ff 00000AC8 		.4byte	.LVL144
 8198 0a03 0001     		.2byte	0x1
 8199 0a05 56       		.byte	0x56
 8200 0a06 00000AFC 		.4byte	.LVL149
 8201 0a0a 00000B0C 		.4byte	.LVL151
 8202 0a0e 0001     		.2byte	0x1
 8203 0a10 56       		.byte	0x56
 8204 0a11 00000B40 		.4byte	.LVL156
 8205 0a15 00000B50 		.4byte	.LVL158
 8206 0a19 0001     		.2byte	0x1
 8207 0a1b 56       		.byte	0x56
 8208 0a1c 00000B84 		.4byte	.LVL163
 8209 0a20 00000B94 		.4byte	.LVL165
 8210 0a24 0001     		.2byte	0x1
 8211 0a26 56       		.byte	0x56
 8212 0a27 00000BC8 		.4byte	.LVL170
 8213 0a2b 00000BD8 		.4byte	.LVL172
 8214 0a2f 0001     		.2byte	0x1
 8215 0a31 56       		.byte	0x56
 8216 0a32 00000C0C 		.4byte	.LVL177
 8217 0a36 00000C1C 		.4byte	.LVL179
 8218 0a3a 0001     		.2byte	0x1
 8219 0a3c 56       		.byte	0x56
 8220 0a3d 00000000 		.4byte	0x0
 8221 0a41 00000000 		.4byte	0x0
 8222              	.LLST69:
 8223 0a45 00000A04 		.4byte	.LVL134
 8224 0a49 00000A20 		.4byte	.LVL135
 8225 0a4d 0001     		.2byte	0x1
 8226 0a4f 59       		.byte	0x59
 8227 0a50 00000000 		.4byte	0x0
 8228 0a54 00000000 		.4byte	0x0
 8229              	.LLST70:
 8230 0a58 00000C58 		.4byte	.LFB575
 8231 0a5c 00000C60 		.4byte	.LCFI67
 8232 0a60 0001     		.2byte	0x1
 8233 0a62 51       		.byte	0x51
 8234 0a63 00000C60 		.4byte	.LCFI67
 8235 0a67 00000D14 		.4byte	.LFE575
 8236 0a6b 0002     		.2byte	0x2
 8237 0a6d 71       		.byte	0x71
 8238 0a6e 18       		.sleb128 24
 8239 0a6f 00000000 		.4byte	0x0
 8240 0a73 00000000 		.4byte	0x0
 8241              	.LLST71:
 8242 0a77 00000C58 		.4byte	.LVL185
 8243 0a7b 00000CA0 		.4byte	.LVL187
 8244 0a7f 0001     		.2byte	0x1
 8245 0a81 53       		.byte	0x53
 8246 0a82 00000CA0 		.4byte	.LVL187
 8247 0a86 00000D08 		.4byte	.LVL188
 8248 0a8a 0001     		.2byte	0x1
 8249 0a8c 6E       		.byte	0x6e
 8250 0a8d 00000000 		.4byte	0x0
 8251 0a91 00000000 		.4byte	0x0
 8252              	.LLST72:
 8253 0a95 00000D14 		.4byte	.LFB576
 8254 0a99 00000D18 		.4byte	.LCFI72
 8255 0a9d 0001     		.2byte	0x1
 8256 0a9f 51       		.byte	0x51
 8257 0aa0 00000D18 		.4byte	.LCFI72
 8258 0aa4 00000D60 		.4byte	.LFE576
 8259 0aa8 0002     		.2byte	0x2
 8260 0aaa 71       		.byte	0x71
 8261 0aab 18       		.sleb128 24
 8262 0aac 00000000 		.4byte	0x0
 8263 0ab0 00000000 		.4byte	0x0
 8264              	.LLST73:
 8265 0ab4 00000D14 		.4byte	.LVL189
 8266 0ab8 00000D34 		.4byte	.LVL190
 8267 0abc 0001     		.2byte	0x1
 8268 0abe 53       		.byte	0x53
 8269 0abf 00000D34 		.4byte	.LVL190
 8270 0ac3 00000D54 		.4byte	.LVL192
 8271 0ac7 0001     		.2byte	0x1
 8272 0ac9 6D       		.byte	0x6d
 8273 0aca 00000000 		.4byte	0x0
 8274 0ace 00000000 		.4byte	0x0
 8275              	.LLST74:
 8276 0ad2 00000D14 		.4byte	.LVL189
 8277 0ad6 00000D34 		.4byte	.LVL190
 8278 0ada 0001     		.2byte	0x1
 8279 0adc 54       		.byte	0x54
 8280 0add 00000D34 		.4byte	.LVL190
 8281 0ae1 00000D50 		.4byte	.LVL191
 8282 0ae5 0001     		.2byte	0x1
 8283 0ae7 6C       		.byte	0x6c
 8284 0ae8 00000000 		.4byte	0x0
 8285 0aec 00000000 		.4byte	0x0
 8286              	.LLST75:
 8287 0af0 00000D60 		.4byte	.LFB570
 8288 0af4 00000D68 		.4byte	.LCFI78
 8289 0af8 0001     		.2byte	0x1
 8290 0afa 51       		.byte	0x51
 8291 0afb 00000D68 		.4byte	.LCFI78
 8292 0aff 00000DD4 		.4byte	.LFE570
 8293 0b03 0002     		.2byte	0x2
 8294 0b05 71       		.byte	0x71
 8295 0b06 18       		.sleb128 24
 8296 0b07 00000000 		.4byte	0x0
 8297 0b0b 00000000 		.4byte	0x0
 8298              	.LLST76:
 8299 0b0f 00000D60 		.4byte	.LVL193
 8300 0b13 00000D88 		.4byte	.LVL194
 8301 0b17 0001     		.2byte	0x1
 8302 0b19 53       		.byte	0x53
 8303 0b1a 00000D88 		.4byte	.LVL194
 8304 0b1e 00000DC8 		.4byte	.LVL197
 8305 0b22 0001     		.2byte	0x1
 8306 0b24 6D       		.byte	0x6d
 8307 0b25 00000000 		.4byte	0x0
 8308 0b29 00000000 		.4byte	0x0
 8309              	.LLST77:
 8310 0b2d 00000D60 		.4byte	.LVL193
 8311 0b31 00000D8C 		.4byte	.LVL195
 8312 0b35 0001     		.2byte	0x1
 8313 0b37 54       		.byte	0x54
 8314 0b38 00000D8C 		.4byte	.LVL195
 8315 0b3c 00000D90 		.4byte	.LVL196
 8316 0b40 0001     		.2byte	0x1
 8317 0b42 53       		.byte	0x53
 8318 0b43 00000000 		.4byte	0x0
 8319 0b47 00000000 		.4byte	0x0
 8320              	.LLST78:
 8321 0b4b 00000DD4 		.4byte	.LFB568
 8322 0b4f 00000DDC 		.4byte	.LCFI82
 8323 0b53 0001     		.2byte	0x1
 8324 0b55 51       		.byte	0x51
 8325 0b56 00000DDC 		.4byte	.LCFI82
 8326 0b5a 00000E28 		.4byte	.LFE568
 8327 0b5e 0002     		.2byte	0x2
 8328 0b60 71       		.byte	0x71
 8329 0b61 18       		.sleb128 24
 8330 0b62 00000000 		.4byte	0x0
 8331 0b66 00000000 		.4byte	0x0
 8332              	.LLST79:
 8333 0b6a 00000DD4 		.4byte	.LVL198
 8334 0b6e 00000DEC 		.4byte	.LVL199
 8335 0b72 0001     		.2byte	0x1
 8336 0b74 53       		.byte	0x53
 8337 0b75 00000DEC 		.4byte	.LVL199
 8338 0b79 00000E04 		.4byte	.LVL202
 8339 0b7d 0001     		.2byte	0x1
 8340 0b7f 6D       		.byte	0x6d
 8341 0b80 00000000 		.4byte	0x0
 8342 0b84 00000000 		.4byte	0x0
 8343              	.LLST80:
 8344 0b88 00000E00 		.4byte	.LVL201
 8345 0b8c 00000E1C 		.4byte	.LVL203
 8346 0b90 0001     		.2byte	0x1
 8347 0b92 6D       		.byte	0x6d
 8348 0b93 00000000 		.4byte	0x0
 8349 0b97 00000000 		.4byte	0x0
 8350              	.LLST82:
 8351 0b9b 00000E28 		.4byte	.LVL204
 8352 0b9f 00000E2C 		.4byte	.LVL205
 8353 0ba3 0001     		.2byte	0x1
 8354 0ba5 53       		.byte	0x53
 8355 0ba6 00000000 		.4byte	0x0
 8356 0baa 00000000 		.4byte	0x0
 8357              	.LLST83:
 8358 0bae 00000E2C 		.4byte	.LFB563
 8359 0bb2 00000E34 		.4byte	.LCFI86
 8360 0bb6 0001     		.2byte	0x1
 8361 0bb8 51       		.byte	0x51
 8362 0bb9 00000E34 		.4byte	.LCFI86
 8363 0bbd 00000EC0 		.4byte	.LFE563
 8364 0bc1 0002     		.2byte	0x2
 8365 0bc3 71       		.byte	0x71
 8366 0bc4 18       		.sleb128 24
 8367 0bc5 00000000 		.4byte	0x0
 8368 0bc9 00000000 		.4byte	0x0
 8369              	.LLST84:
 8370 0bcd 00000E2C 		.4byte	.LVL206
 8371 0bd1 00000E70 		.4byte	.LVL207
 8372 0bd5 0001     		.2byte	0x1
 8373 0bd7 53       		.byte	0x53
 8374 0bd8 00000E70 		.4byte	.LVL207
 8375 0bdc 00000E9C 		.4byte	.LVL210
 8376 0be0 0001     		.2byte	0x1
 8377 0be2 6F       		.byte	0x6f
 8378 0be3 00000E9C 		.4byte	.LVL210
 8379 0be7 00000EA4 		.4byte	.LVL211
 8380 0beb 0001     		.2byte	0x1
 8381 0bed 53       		.byte	0x53
 8382 0bee 00000EA4 		.4byte	.LVL211
 8383 0bf2 00000EC0 		.4byte	.LFE563
 8384 0bf6 0001     		.2byte	0x1
 8385 0bf8 6F       		.byte	0x6f
 8386 0bf9 00000000 		.4byte	0x0
 8387 0bfd 00000000 		.4byte	0x0
 8388              	.LLST85:
 8389 0c01 00000E2C 		.4byte	.LVL206
 8390 0c05 00000E70 		.4byte	.LVL207
 8391 0c09 0001     		.2byte	0x1
 8392 0c0b 54       		.byte	0x54
 8393 0c0c 00000E70 		.4byte	.LVL207
 8394 0c10 00000E98 		.4byte	.LVL209
 8395 0c14 0001     		.2byte	0x1
 8396 0c16 6E       		.byte	0x6e
 8397 0c17 00000EA4 		.4byte	.LVL211
 8398 0c1b 00000EA8 		.4byte	.LVL212
 8399 0c1f 0001     		.2byte	0x1
 8400 0c21 6E       		.byte	0x6e
 8401 0c22 00000000 		.4byte	0x0
 8402 0c26 00000000 		.4byte	0x0
 8403              	.LLST86:
 8404 0c2a 00000E2C 		.4byte	.LVL206
 8405 0c2e 00000E70 		.4byte	.LVL207
 8406 0c32 0001     		.2byte	0x1
 8407 0c34 55       		.byte	0x55
 8408 0c35 00000E70 		.4byte	.LVL207
 8409 0c39 00000E8C 		.4byte	.LVL208
 8410 0c3d 0001     		.2byte	0x1
 8411 0c3f 6D       		.byte	0x6d
 8412 0c40 00000EA4 		.4byte	.LVL211
 8413 0c44 00000EC0 		.4byte	.LFE563
 8414 0c48 0001     		.2byte	0x1
 8415 0c4a 6D       		.byte	0x6d
 8416 0c4b 00000000 		.4byte	0x0
 8417 0c4f 00000000 		.4byte	0x0
 8418              	.LLST87:
 8419 0c53 00000000 		.4byte	.LFB692
 8420 0c57 00000008 		.4byte	.LCFI92
 8421 0c5b 0001     		.2byte	0x1
 8422 0c5d 51       		.byte	0x51
 8423 0c5e 00000008 		.4byte	.LCFI92
 8424 0c62 00000144 		.4byte	.LFE692
 8425 0c66 0002     		.2byte	0x2
 8426 0c68 71       		.byte	0x71
 8427 0c69 20       		.sleb128 32
 8428 0c6a 00000000 		.4byte	0x0
 8429 0c6e 00000000 		.4byte	0x0
 8430              	.LLST88:
 8431 0c72 00000000 		.4byte	.LVL213
 8432 0c76 00000044 		.4byte	.LVL215
 8433 0c7a 0001     		.2byte	0x1
 8434 0c7c 53       		.byte	0x53
 8435 0c7d 00000044 		.4byte	.LVL215
 8436 0c81 000000B0 		.4byte	.LVL225
 8437 0c85 0001     		.2byte	0x1
 8438 0c87 6C       		.byte	0x6c
 8439 0c88 000000C4 		.4byte	.LVL226
 8440 0c8c 000000D8 		.4byte	.LVL228
 8441 0c90 0001     		.2byte	0x1
 8442 0c92 6C       		.byte	0x6c
 8443 0c93 000000D8 		.4byte	.LVL228
 8444 0c97 000000DC 		.4byte	.LVL229
 8445 0c9b 0001     		.2byte	0x1
 8446 0c9d 53       		.byte	0x53
 8447 0c9e 000000DC 		.4byte	.LVL229
 8448 0ca2 00000100 		.4byte	.LVL232
 8449 0ca6 0001     		.2byte	0x1
 8450 0ca8 6C       		.byte	0x6c
 8451 0ca9 00000100 		.4byte	.LVL232
 8452 0cad 0000010C 		.4byte	.LVL233
 8453 0cb1 0001     		.2byte	0x1
 8454 0cb3 53       		.byte	0x53
 8455 0cb4 0000010C 		.4byte	.LVL233
 8456 0cb8 0000012C 		.4byte	.LVL235
 8457 0cbc 0001     		.2byte	0x1
 8458 0cbe 6C       		.byte	0x6c
 8459 0cbf 00000000 		.4byte	0x0
 8460 0cc3 00000000 		.4byte	0x0
 8461              	.LLST89:
 8462 0cc7 00000000 		.4byte	.LVL213
 8463 0ccb 0000003C 		.4byte	.LVL214
 8464 0ccf 0001     		.2byte	0x1
 8465 0cd1 54       		.byte	0x54
 8466 0cd2 0000003C 		.4byte	.LVL214
 8467 0cd6 00000044 		.4byte	.LVL215
 8468 0cda 0001     		.2byte	0x1
 8469 0cdc 6B       		.byte	0x6b
 8470 0cdd 00000044 		.4byte	.LVL215
 8471 0ce1 00000094 		.4byte	.LVL223
 8472 0ce5 0001     		.2byte	0x1
 8473 0ce7 54       		.byte	0x54
 8474 0ce8 00000094 		.4byte	.LVL223
 8475 0cec 000000A8 		.4byte	.LVL224
 8476 0cf0 0001     		.2byte	0x1
 8477 0cf2 6B       		.byte	0x6b
 8478 0cf3 000000C4 		.4byte	.LVL226
 8479 0cf7 000000E0 		.4byte	.LVL230
 8480 0cfb 0001     		.2byte	0x1
 8481 0cfd 54       		.byte	0x54
 8482 0cfe 000000E0 		.4byte	.LVL230
 8483 0d02 00000128 		.4byte	.LVL234
 8484 0d06 0001     		.2byte	0x1
 8485 0d08 6B       		.byte	0x6b
 8486 0d09 00000000 		.4byte	0x0
 8487 0d0d 00000000 		.4byte	0x0
 8488              	.LLST90:
 8489 0d11 00000044 		.4byte	.LVL215
 8490 0d15 00000048 		.4byte	.LVL216
 8491 0d19 0001     		.2byte	0x1
 8492 0d1b 53       		.byte	0x53
 8493 0d1c 00000048 		.4byte	.LVL216
 8494 0d20 00000054 		.4byte	.LVL218
 8495 0d24 0001     		.2byte	0x1
 8496 0d26 50       		.byte	0x50
 8497 0d27 00000054 		.4byte	.LVL218
 8498 0d2b 00000070 		.4byte	.LVL219
 8499 0d2f 0001     		.2byte	0x1
 8500 0d31 53       		.byte	0x53
 8501 0d32 00000070 		.4byte	.LVL219
 8502 0d36 00000080 		.4byte	.LVL220
 8503 0d3a 0001     		.2byte	0x1
 8504 0d3c 50       		.byte	0x50
 8505 0d3d 00000080 		.4byte	.LVL220
 8506 0d41 00000088 		.4byte	.LVL221
 8507 0d45 0001     		.2byte	0x1
 8508 0d47 53       		.byte	0x53
 8509 0d48 000000C4 		.4byte	.LVL226
 8510 0d4c 000000CC 		.4byte	.LVL227
 8511 0d50 0001     		.2byte	0x1
 8512 0d52 53       		.byte	0x53
 8513 0d53 00000000 		.4byte	0x0
 8514 0d57 00000000 		.4byte	0x0
 8515              	.LLST91:
 8516 0d5b 00000044 		.4byte	.LVL215
 8517 0d5f 0000008C 		.4byte	.LVL222
 8518 0d63 0001     		.2byte	0x1
 8519 0d65 59       		.byte	0x59
 8520 0d66 000000C4 		.4byte	.LVL226
 8521 0d6a 000000E0 		.4byte	.LVL230
 8522 0d6e 0001     		.2byte	0x1
 8523 0d70 59       		.byte	0x59
 8524 0d71 00000100 		.4byte	.LVL232
 8525 0d75 0000010C 		.4byte	.LVL233
 8526 0d79 0001     		.2byte	0x1
 8527 0d7b 59       		.byte	0x59
 8528 0d7c 00000000 		.4byte	0x0
 8529 0d80 00000000 		.4byte	0x0
 8530              	.LLST92:
 8531 0d84 00000000 		.4byte	.LFB675
 8532 0d88 00000008 		.4byte	.LCFI100
 8533 0d8c 0001     		.2byte	0x1
 8534 0d8e 51       		.byte	0x51
 8535 0d8f 00000008 		.4byte	.LCFI100
 8536 0d93 00000188 		.4byte	.LFE675
 8537 0d97 0002     		.2byte	0x2
 8538 0d99 71       		.byte	0x71
 8539 0d9a 18       		.sleb128 24
 8540 0d9b 00000000 		.4byte	0x0
 8541 0d9f 00000000 		.4byte	0x0
 8542              	.LLST93:
 8543 0da3 00000000 		.4byte	.LVL236
 8544 0da7 00000030 		.4byte	.LVL237
 8545 0dab 0001     		.2byte	0x1
 8546 0dad 53       		.byte	0x53
 8547 0dae 00000030 		.4byte	.LVL237
 8548 0db2 0000004C 		.4byte	.LVL239
 8549 0db6 0001     		.2byte	0x1
 8550 0db8 6E       		.byte	0x6e
 8551 0db9 0000004C 		.4byte	.LVL239
 8552 0dbd 00000050 		.4byte	.LVL240
 8553 0dc1 0001     		.2byte	0x1
 8554 0dc3 53       		.byte	0x53
 8555 0dc4 00000050 		.4byte	.LVL240
 8556 0dc8 000000A0 		.4byte	.LVL244
 8557 0dcc 0001     		.2byte	0x1
 8558 0dce 6E       		.byte	0x6e
 8559 0dcf 000000B0 		.4byte	.LVL245
 8560 0dd3 000000C0 		.4byte	.LVL246
 8561 0dd7 0001     		.2byte	0x1
 8562 0dd9 6E       		.byte	0x6e
 8563 0dda 000000C0 		.4byte	.LVL246
 8564 0dde 000000C4 		.4byte	.LVL247
 8565 0de2 0001     		.2byte	0x1
 8566 0de4 53       		.byte	0x53
 8567 0de5 000000C4 		.4byte	.LVL247
 8568 0de9 000000EC 		.4byte	.LVL249
 8569 0ded 0001     		.2byte	0x1
 8570 0def 6E       		.byte	0x6e
 8571 0df0 000000EC 		.4byte	.LVL249
 8572 0df4 000000FC 		.4byte	.LVL250
 8573 0df8 0001     		.2byte	0x1
 8574 0dfa 53       		.byte	0x53
 8575 0dfb 000000FC 		.4byte	.LVL250
 8576 0dff 00000110 		.4byte	.LVL252
 8577 0e03 0001     		.2byte	0x1
 8578 0e05 6E       		.byte	0x6e
 8579 0e06 00000120 		.4byte	.LVL253
 8580 0e0a 0000012C 		.4byte	.LVL254
 8581 0e0e 0001     		.2byte	0x1
 8582 0e10 6E       		.byte	0x6e
 8583 0e11 0000012C 		.4byte	.LVL254
 8584 0e15 00000140 		.4byte	.LVL255
 8585 0e19 0001     		.2byte	0x1
 8586 0e1b 53       		.byte	0x53
 8587 0e1c 00000140 		.4byte	.LVL255
 8588 0e20 00000160 		.4byte	.LVL257
 8589 0e24 0001     		.2byte	0x1
 8590 0e26 6E       		.byte	0x6e
 8591 0e27 00000170 		.4byte	.LVL258
 8592 0e2b 00000180 		.4byte	.LVL261
 8593 0e2f 0001     		.2byte	0x1
 8594 0e31 53       		.byte	0x53
 8595 0e32 00000180 		.4byte	.LVL261
 8596 0e36 00000188 		.4byte	.LFE675
 8597 0e3a 0001     		.2byte	0x1
 8598 0e3c 6E       		.byte	0x6e
 8599 0e3d 00000000 		.4byte	0x0
 8600 0e41 00000000 		.4byte	0x0
 8601              	.LLST94:
 8602 0e45 00000000 		.4byte	.LVL236
 8603 0e49 00000054 		.4byte	.LVL241
 8604 0e4d 0001     		.2byte	0x1
 8605 0e4f 54       		.byte	0x54
 8606 0e50 00000054 		.4byte	.LVL241
 8607 0e54 000000B0 		.4byte	.LVL245
 8608 0e58 0002     		.2byte	0x2
 8609 0e5a 74       		.byte	0x74
 8610 0e5b 00       		.sleb128 0
 8611 0e5c 000000B0 		.4byte	.LVL245
 8612 0e60 000000C8 		.4byte	.LVL248
 8613 0e64 0001     		.2byte	0x1
 8614 0e66 54       		.byte	0x54
 8615 0e67 000000C8 		.4byte	.LVL248
 8616 0e6b 00000120 		.4byte	.LVL253
 8617 0e6f 0002     		.2byte	0x2
 8618 0e71 74       		.byte	0x74
 8619 0e72 00       		.sleb128 0
 8620 0e73 00000120 		.4byte	.LVL253
 8621 0e77 00000140 		.4byte	.LVL255
 8622 0e7b 0001     		.2byte	0x1
 8623 0e7d 54       		.byte	0x54
 8624 0e7e 00000140 		.4byte	.LVL255
 8625 0e82 00000170 		.4byte	.LVL258
 8626 0e86 0002     		.2byte	0x2
 8627 0e88 74       		.byte	0x74
 8628 0e89 00       		.sleb128 0
 8629 0e8a 00000170 		.4byte	.LVL258
 8630 0e8e 00000174 		.4byte	.LVL259
 8631 0e92 0001     		.2byte	0x1
 8632 0e94 54       		.byte	0x54
 8633 0e95 00000174 		.4byte	.LVL259
 8634 0e99 00000188 		.4byte	.LFE675
 8635 0e9d 0002     		.2byte	0x2
 8636 0e9f 74       		.byte	0x74
 8637 0ea0 00       		.sleb128 0
 8638 0ea1 00000000 		.4byte	0x0
 8639 0ea5 00000000 		.4byte	0x0
 8640              	.LLST95:
 8641 0ea9 00000000 		.4byte	.LVL236
 8642 0ead 00000030 		.4byte	.LVL237
 8643 0eb1 0001     		.2byte	0x1
 8644 0eb3 55       		.byte	0x55
 8645 0eb4 00000030 		.4byte	.LVL237
 8646 0eb8 00000040 		.4byte	.LVL238
 8647 0ebc 0001     		.2byte	0x1
 8648 0ebe 6D       		.byte	0x6d
 8649 0ebf 00000040 		.4byte	.LVL238
 8650 0ec3 00000054 		.4byte	.LVL241
 8651 0ec7 0001     		.2byte	0x1
 8652 0ec9 55       		.byte	0x55
 8653 0eca 00000054 		.4byte	.LVL241
 8654 0ece 0000009C 		.4byte	.LVL243
 8655 0ed2 0001     		.2byte	0x1
 8656 0ed4 6D       		.byte	0x6d
 8657 0ed5 0000009C 		.4byte	.LVL243
 8658 0ed9 000000C8 		.4byte	.LVL248
 8659 0edd 0001     		.2byte	0x1
 8660 0edf 55       		.byte	0x55
 8661 0ee0 000000C8 		.4byte	.LVL248
 8662 0ee4 00000108 		.4byte	.LVL251
 8663 0ee8 0001     		.2byte	0x1
 8664 0eea 6D       		.byte	0x6d
 8665 0eeb 00000120 		.4byte	.LVL253
 8666 0eef 00000158 		.4byte	.LVL256
 8667 0ef3 0001     		.2byte	0x1
 8668 0ef5 6D       		.byte	0x6d
 8669 0ef6 00000170 		.4byte	.LVL258
 8670 0efa 0000017C 		.4byte	.LVL260
 8671 0efe 0001     		.2byte	0x1
 8672 0f00 55       		.byte	0x55
 8673 0f01 0000017C 		.4byte	.LVL260
 8674 0f05 00000180 		.4byte	.LVL261
 8675 0f09 0001     		.2byte	0x1
 8676 0f0b 56       		.byte	0x56
 8677 0f0c 00000180 		.4byte	.LVL261
 8678 0f10 00000188 		.4byte	.LFE675
 8679 0f14 0001     		.2byte	0x1
 8680 0f16 6D       		.byte	0x6d
 8681 0f17 00000000 		.4byte	0x0
 8682 0f1b 00000000 		.4byte	0x0
 8683              	.LLST96:
 8684 0f1f 00000EC0 		.4byte	.LFB567
 8685 0f23 00000EC8 		.4byte	.LCFI106
 8686 0f27 0001     		.2byte	0x1
 8687 0f29 51       		.byte	0x51
 8688 0f2a 00000EC8 		.4byte	.LCFI106
 8689 0f2e 00000F20 		.4byte	.LFE567
 8690 0f32 0002     		.2byte	0x2
 8691 0f34 71       		.byte	0x71
 8692 0f35 10       		.sleb128 16
 8693 0f36 00000000 		.4byte	0x0
 8694 0f3a 00000000 		.4byte	0x0
 8695              	.LLST97:
 8696 0f3e 00000EC0 		.4byte	.LVL262
 8697 0f42 00000EDC 		.4byte	.LVL263
 8698 0f46 0001     		.2byte	0x1
 8699 0f48 53       		.byte	0x53
 8700 0f49 00000EDC 		.4byte	.LVL263
 8701 0f4d 00000EF4 		.4byte	.LVL264
 8702 0f51 0001     		.2byte	0x1
 8703 0f53 6F       		.byte	0x6f
 8704 0f54 00000F00 		.4byte	.LVL265
 8705 0f58 00000F20 		.4byte	.LFE567
 8706 0f5c 0001     		.2byte	0x1
 8707 0f5e 6F       		.byte	0x6f
 8708 0f5f 00000000 		.4byte	0x0
 8709 0f63 00000000 		.4byte	0x0
 8710              	.LLST98:
 8711 0f67 00000F20 		.4byte	.LFB566
 8712 0f6b 00000F28 		.4byte	.LCFI111
 8713 0f6f 0001     		.2byte	0x1
 8714 0f71 51       		.byte	0x51
 8715 0f72 00000F28 		.4byte	.LCFI111
 8716 0f76 00000F80 		.4byte	.LFE566
 8717 0f7a 0002     		.2byte	0x2
 8718 0f7c 71       		.byte	0x71
 8719 0f7d 10       		.sleb128 16
 8720 0f7e 00000000 		.4byte	0x0
 8721 0f82 00000000 		.4byte	0x0
 8722              	.LLST99:
 8723 0f86 00000F20 		.4byte	.LVL266
 8724 0f8a 00000F3C 		.4byte	.LVL267
 8725 0f8e 0001     		.2byte	0x1
 8726 0f90 53       		.byte	0x53
 8727 0f91 00000F3C 		.4byte	.LVL267
 8728 0f95 00000F54 		.4byte	.LVL268
 8729 0f99 0001     		.2byte	0x1
 8730 0f9b 6F       		.byte	0x6f
 8731 0f9c 00000F60 		.4byte	.LVL269
 8732 0fa0 00000F80 		.4byte	.LFE566
 8733 0fa4 0001     		.2byte	0x1
 8734 0fa6 6F       		.byte	0x6f
 8735 0fa7 00000000 		.4byte	0x0
 8736 0fab 00000000 		.4byte	0x0
 8737              	.LLST100:
 8738 0faf 00000F80 		.4byte	.LFB564
 8739 0fb3 00000F88 		.4byte	.LCFI116
 8740 0fb7 0001     		.2byte	0x1
 8741 0fb9 51       		.byte	0x51
 8742 0fba 00000F88 		.4byte	.LCFI116
 8743 0fbe 00001014 		.4byte	.LFE564
 8744 0fc2 0002     		.2byte	0x2
 8745 0fc4 71       		.byte	0x71
 8746 0fc5 18       		.sleb128 24
 8747 0fc6 00000000 		.4byte	0x0
 8748 0fca 00000000 		.4byte	0x0
 8749              	.LLST101:
 8750 0fce 00000F80 		.4byte	.LVL270
 8751 0fd2 00000FC4 		.4byte	.LVL271
 8752 0fd6 0001     		.2byte	0x1
 8753 0fd8 53       		.byte	0x53
 8754 0fd9 00000FC4 		.4byte	.LVL271
 8755 0fdd 00000FF0 		.4byte	.LVL274
 8756 0fe1 0001     		.2byte	0x1
 8757 0fe3 6F       		.byte	0x6f
 8758 0fe4 00000FF0 		.4byte	.LVL274
 8759 0fe8 00000FF8 		.4byte	.LVL275
 8760 0fec 0001     		.2byte	0x1
 8761 0fee 53       		.byte	0x53
 8762 0fef 00000FF8 		.4byte	.LVL275
 8763 0ff3 00001014 		.4byte	.LFE564
 8764 0ff7 0001     		.2byte	0x1
 8765 0ff9 6F       		.byte	0x6f
 8766 0ffa 00000000 		.4byte	0x0
 8767 0ffe 00000000 		.4byte	0x0
 8768              	.LLST102:
 8769 1002 00000F80 		.4byte	.LVL270
 8770 1006 00000FC4 		.4byte	.LVL271
 8771 100a 0001     		.2byte	0x1
 8772 100c 54       		.byte	0x54
 8773 100d 00000FC4 		.4byte	.LVL271
 8774 1011 00000FEC 		.4byte	.LVL273
 8775 1015 0001     		.2byte	0x1
 8776 1017 6E       		.byte	0x6e
 8777 1018 00000FF8 		.4byte	.LVL275
 8778 101c 00000FFC 		.4byte	.LVL276
 8779 1020 0001     		.2byte	0x1
 8780 1022 6E       		.byte	0x6e
 8781 1023 00000000 		.4byte	0x0
 8782 1027 00000000 		.4byte	0x0
 8783              	.LLST103:
 8784 102b 00000F80 		.4byte	.LVL270
 8785 102f 00000FC4 		.4byte	.LVL271
 8786 1033 0001     		.2byte	0x1
 8787 1035 55       		.byte	0x55
 8788 1036 00000FC4 		.4byte	.LVL271
 8789 103a 00000FE0 		.4byte	.LVL272
 8790 103e 0001     		.2byte	0x1
 8791 1040 6D       		.byte	0x6d
 8792 1041 00000FF8 		.4byte	.LVL275
 8793 1045 00001014 		.4byte	.LFE564
 8794 1049 0001     		.2byte	0x1
 8795 104b 6D       		.byte	0x6d
 8796 104c 00000000 		.4byte	0x0
 8797 1050 00000000 		.4byte	0x0
 8798              	.LLST104:
 8799 1054 00001014 		.4byte	.LFB579
 8800 1058 0000101C 		.4byte	.LCFI122
 8801 105c 0001     		.2byte	0x1
 8802 105e 51       		.byte	0x51
 8803 105f 0000101C 		.4byte	.LCFI122
 8804 1063 000012FC 		.4byte	.LFE579
 8805 1067 0003     		.2byte	0x3
 8806 1069 71       		.byte	0x71
 8807 106a E801     		.sleb128 232
 8808 106c 00000000 		.4byte	0x0
 8809 1070 00000000 		.4byte	0x0
 8810              	.LLST105:
 8811 1074 00001014 		.4byte	.LVL277
 8812 1078 00001030 		.4byte	.LVL278
 8813 107c 0001     		.2byte	0x1
 8814 107e 53       		.byte	0x53
 8815 107f 00001030 		.4byte	.LVL278
 8816 1083 000010C0 		.4byte	.LVL284
 8817 1087 0001     		.2byte	0x1
 8818 1089 6F       		.byte	0x6f
 8819 108a 000010C8 		.4byte	.LVL285
 8820 108e 000012FC 		.4byte	.LFE579
 8821 1092 0001     		.2byte	0x1
 8822 1094 6F       		.byte	0x6f
 8823 1095 00000000 		.4byte	0x0
 8824 1099 00000000 		.4byte	0x0
 8825              	.LLST106:
 8826 109d 00001014 		.4byte	.LVL277
 8827 10a1 00001064 		.4byte	.LVL279
 8828 10a5 0001     		.2byte	0x1
 8829 10a7 54       		.byte	0x54
 8830 10a8 00001064 		.4byte	.LVL279
 8831 10ac 00001144 		.4byte	.LVL287
 8832 10b0 0002     		.2byte	0x2
 8833 10b2 91       		.byte	0x91
 8834 10b3 40       		.sleb128 -64
 8835 10b4 00001144 		.4byte	.LVL287
 8836 10b8 00001184 		.4byte	.LVL288
 8837 10bc 0001     		.2byte	0x1
 8838 10be 59       		.byte	0x59
 8839 10bf 00001184 		.4byte	.LVL288
 8840 10c3 00001220 		.4byte	.LVL291
 8841 10c7 0002     		.2byte	0x2
 8842 10c9 91       		.byte	0x91
 8843 10ca 40       		.sleb128 -64
 8844 10cb 00001220 		.4byte	.LVL291
 8845 10cf 00001260 		.4byte	.LVL292
 8846 10d3 0001     		.2byte	0x1
 8847 10d5 59       		.byte	0x59
 8848 10d6 00001260 		.4byte	.LVL292
 8849 10da 00001298 		.4byte	.LVL293
 8850 10de 0002     		.2byte	0x2
 8851 10e0 91       		.byte	0x91
 8852 10e1 40       		.sleb128 -64
 8853 10e2 00001298 		.4byte	.LVL293
 8854 10e6 000012DC 		.4byte	.LVL294
 8855 10ea 0001     		.2byte	0x1
 8856 10ec 59       		.byte	0x59
 8857 10ed 000012DC 		.4byte	.LVL294
 8858 10f1 000012FC 		.4byte	.LFE579
 8859 10f5 0002     		.2byte	0x2
 8860 10f7 91       		.byte	0x91
 8861 10f8 40       		.sleb128 -64
 8862 10f9 00000000 		.4byte	0x0
 8863 10fd 00000000 		.4byte	0x0
 8864              	.LLST107:
 8865 1101 00001068 		.4byte	.LVL280
 8866 1105 000010B8 		.4byte	.LVL283
 8867 1109 0001     		.2byte	0x1
 8868 110b 6D       		.byte	0x6d
 8869 110c 000010C8 		.4byte	.LVL285
 8870 1110 000012FC 		.4byte	.LFE579
 8871 1114 0001     		.2byte	0x1
 8872 1116 6D       		.byte	0x6d
 8873 1117 00000000 		.4byte	0x0
 8874 111b 00000000 		.4byte	0x0
 8875              	.LLST108:
 8876 111f 00001084 		.4byte	.LVL281
 8877 1123 000010A0 		.4byte	.LVL282
 8878 1127 0001     		.2byte	0x1
 8879 1129 67       		.byte	0x67
 8880 112a 00001110 		.4byte	.LVL286
 8881 112e 000012FC 		.4byte	.LFE579
 8882 1132 0001     		.2byte	0x1
 8883 1134 67       		.byte	0x67
 8884 1135 00000000 		.4byte	0x0
 8885 1139 00000000 		.4byte	0x0
 8886              	.LLST109:
 8887 113d 000012FC 		.4byte	.LFB591
 8888 1141 00001300 		.4byte	.LCFI137
 8889 1145 0001     		.2byte	0x1
 8890 1147 51       		.byte	0x51
 8891 1148 00001300 		.4byte	.LCFI137
 8892 114c 000014C8 		.4byte	.LFE591
 8893 1150 0003     		.2byte	0x3
 8894 1152 71       		.byte	0x71
 8895 1153 F800     		.sleb128 120
 8896 1155 00000000 		.4byte	0x0
 8897 1159 00000000 		.4byte	0x0
 8898              	.LLST110:
 8899 115d 000012FC 		.4byte	.LVL298
 8900 1161 00001310 		.4byte	.LVL299
 8901 1165 0001     		.2byte	0x1
 8902 1167 53       		.byte	0x53
 8903 1168 00001310 		.4byte	.LVL299
 8904 116c 00001488 		.4byte	.LVL316
 8905 1170 0001     		.2byte	0x1
 8906 1172 67       		.byte	0x67
 8907 1173 000014B0 		.4byte	.LVL320
 8908 1177 000014C8 		.4byte	.LFE591
 8909 117b 0001     		.2byte	0x1
 8910 117d 67       		.byte	0x67
 8911 117e 00000000 		.4byte	0x0
 8912 1182 00000000 		.4byte	0x0
 8913              	.LLST111:
 8914 1186 000012FC 		.4byte	.LVL298
 8915 118a 00001350 		.4byte	.LVL300
 8916 118e 0001     		.2byte	0x1
 8917 1190 54       		.byte	0x54
 8918 1191 00001350 		.4byte	.LVL300
 8919 1195 00001498 		.4byte	.LVL319
 8920 1199 0001     		.2byte	0x1
 8921 119b 6B       		.byte	0x6b
 8922 119c 000014B0 		.4byte	.LVL320
 8923 11a0 000014C8 		.4byte	.LFE591
 8924 11a4 0001     		.2byte	0x1
 8925 11a6 6B       		.byte	0x6b
 8926 11a7 00000000 		.4byte	0x0
 8927 11ab 00000000 		.4byte	0x0
 8928              	.LLST112:
 8929 11af 00001354 		.4byte	.LVL301
 8930 11b3 00001390 		.4byte	.LVL305
 8931 11b7 0001     		.2byte	0x1
 8932 11b9 53       		.byte	0x53
 8933 11ba 00001460 		.4byte	.LVL314
 8934 11be 00001474 		.4byte	.LVL315
 8935 11c2 0001     		.2byte	0x1
 8936 11c4 53       		.byte	0x53
 8937 11c5 00000000 		.4byte	0x0
 8938 11c9 00000000 		.4byte	0x0
 8939              	.LLST113:
 8940 11cd 00001368 		.4byte	.LVL302
 8941 11d1 00001430 		.4byte	.LVL309
 8942 11d5 0001     		.2byte	0x1
 8943 11d7 6A       		.byte	0x6a
 8944 11d8 00001430 		.4byte	.LVL309
 8945 11dc 00001444 		.4byte	.LVL311
 8946 11e0 0001     		.2byte	0x1
 8947 11e2 59       		.byte	0x59
 8948 11e3 00001444 		.4byte	.LVL311
 8949 11e7 00001494 		.4byte	.LVL318
 8950 11eb 0001     		.2byte	0x1
 8951 11ed 6A       		.byte	0x6a
 8952 11ee 000014B0 		.4byte	.LVL320
 8953 11f2 000014C8 		.4byte	.LFE591
 8954 11f6 0001     		.2byte	0x1
 8955 11f8 6A       		.byte	0x6a
 8956 11f9 00000000 		.4byte	0x0
 8957 11fd 00000000 		.4byte	0x0
 8958              	.LLST114:
 8959 1201 00001370 		.4byte	.LVL303
 8960 1205 00001448 		.4byte	.LVL312
 8961 1209 0001     		.2byte	0x1
 8962 120b 69       		.byte	0x69
 8963 120c 00001448 		.4byte	.LVL312
 8964 1210 0000144C 		.4byte	.LVL313
 8965 1214 0001     		.2byte	0x1
 8966 1216 50       		.byte	0x50
 8967 1217 0000144C 		.4byte	.LVL313
 8968 121b 00001490 		.4byte	.LVL317
 8969 121f 0001     		.2byte	0x1
 8970 1221 69       		.byte	0x69
 8971 1222 000014B0 		.4byte	.LVL320
 8972 1226 000014C8 		.4byte	.LFE591
 8973 122a 0001     		.2byte	0x1
 8974 122c 69       		.byte	0x69
 8975 122d 00000000 		.4byte	0x0
 8976 1231 00000000 		.4byte	0x0
 8977              	.LLST115:
 8978 1235 00001388 		.4byte	.LVL304
 8979 1239 00001390 		.4byte	.LVL305
 8980 123d 0001     		.2byte	0x1
 8981 123f 53       		.byte	0x53
 8982 1240 00001414 		.4byte	.LVL308
 8983 1244 00001434 		.4byte	.LVL310
 8984 1248 0001     		.2byte	0x1
 8985 124a 53       		.byte	0x53
 8986 124b 0000144C 		.4byte	.LVL313
 8987 124f 00001474 		.4byte	.LVL315
 8988 1253 0001     		.2byte	0x1
 8989 1255 53       		.byte	0x53
 8990 1256 00000000 		.4byte	0x0
 8991 125a 00000000 		.4byte	0x0
 8992              	.LLST116:
 8993 125e 000013A8 		.4byte	.LVL306
 8994 1262 000013B0 		.4byte	.LVL307
 8995 1266 0001     		.2byte	0x1
 8996 1268 54       		.byte	0x54
 8997 1269 00000000 		.4byte	0x0
 8998 126d 00000000 		.4byte	0x0
 8999              	.LLST117:
 9000 1271 000014C8 		.4byte	.LFB589
 9001 1275 000014D0 		.4byte	.LCFI154
 9002 1279 0001     		.2byte	0x1
 9003 127b 51       		.byte	0x51
 9004 127c 000014D0 		.4byte	.LCFI154
 9005 1280 000014F4 		.4byte	.LFE589
 9006 1284 0002     		.2byte	0x2
 9007 1286 71       		.byte	0x71
 9008 1287 08       		.sleb128 8
 9009 1288 00000000 		.4byte	0x0
 9010 128c 00000000 		.4byte	0x0
 9011              	.LLST118:
 9012 1290 000014C8 		.4byte	.LVL321
 9013 1294 000014D8 		.4byte	.LVL322
 9014 1298 0001     		.2byte	0x1
 9015 129a 53       		.byte	0x53
 9016 129b 00000000 		.4byte	0x0
 9017 129f 00000000 		.4byte	0x0
 9018              	.LLST119:
 9019 12a3 000014C8 		.4byte	.LVL321
 9020 12a7 000014D8 		.4byte	.LVL322
 9021 12ab 0001     		.2byte	0x1
 9022 12ad 54       		.byte	0x54
 9023 12ae 00000000 		.4byte	0x0
 9024 12b2 00000000 		.4byte	0x0
 9025              	.LLST120:
 9026 12b6 000014F4 		.4byte	.LFB590
 9027 12ba 000014FC 		.4byte	.LCFI157
 9028 12be 0001     		.2byte	0x1
 9029 12c0 51       		.byte	0x51
 9030 12c1 000014FC 		.4byte	.LCFI157
 9031 12c5 00001514 		.4byte	.LFE590
 9032 12c9 0002     		.2byte	0x2
 9033 12cb 71       		.byte	0x71
 9034 12cc 08       		.sleb128 8
 9035 12cd 00000000 		.4byte	0x0
 9036 12d1 00000000 		.4byte	0x0
 9037              	.LLST121:
 9038 12d5 000014F4 		.4byte	.LVL323
 9039 12d9 00001504 		.4byte	.LVL324
 9040 12dd 0001     		.2byte	0x1
 9041 12df 53       		.byte	0x53
 9042 12e0 00000000 		.4byte	0x0
 9043 12e4 00000000 		.4byte	0x0
 9044              	.LLST122:
 9045 12e8 000014F4 		.4byte	.LVL323
 9046 12ec 00001504 		.4byte	.LVL324
 9047 12f0 0001     		.2byte	0x1
 9048 12f2 54       		.byte	0x54
 9049 12f3 00000000 		.4byte	0x0
 9050 12f7 00000000 		.4byte	0x0
 9051              	.LLST123:
 9052 12fb 00001514 		.4byte	.LFB587
 9053 12ff 00001518 		.4byte	.LCFI159
 9054 1303 0001     		.2byte	0x1
 9055 1305 51       		.byte	0x51
 9056 1306 00001518 		.4byte	.LCFI159
 9057 130a 00001780 		.4byte	.LFE587
 9058 130e 0003     		.2byte	0x3
 9059 1310 71       		.byte	0x71
 9060 1311 B001     		.sleb128 176
 9061 1313 00000000 		.4byte	0x0
 9062 1317 00000000 		.4byte	0x0
 9063              	.LLST124:
 9064 131b 00001514 		.4byte	.LVL325
 9065 131f 00001528 		.4byte	.LVL326
 9066 1323 0001     		.2byte	0x1
 9067 1325 53       		.byte	0x53
 9068 1326 00001528 		.4byte	.LVL326
 9069 132a 0000169C 		.4byte	.LVL339
 9070 132e 0001     		.2byte	0x1
 9071 1330 68       		.byte	0x68
 9072 1331 000016C0 		.4byte	.LVL343
 9073 1335 00001780 		.4byte	.LFE587
 9074 1339 0001     		.2byte	0x1
 9075 133b 68       		.byte	0x68
 9076 133c 00000000 		.4byte	0x0
 9077 1340 00000000 		.4byte	0x0
 9078              	.LLST125:
 9079 1344 00001514 		.4byte	.LVL325
 9080 1348 0000156C 		.4byte	.LVL327
 9081 134c 0001     		.2byte	0x1
 9082 134e 54       		.byte	0x54
 9083 134f 0000156C 		.4byte	.LVL327
 9084 1353 000016A8 		.4byte	.LVL340
 9085 1357 0001     		.2byte	0x1
 9086 1359 6B       		.byte	0x6b
 9087 135a 000016C0 		.4byte	.LVL343
 9088 135e 00001780 		.4byte	.LFE587
 9089 1362 0001     		.2byte	0x1
 9090 1364 6B       		.byte	0x6b
 9091 1365 00000000 		.4byte	0x0
 9092 1369 00000000 		.4byte	0x0
 9093              	.LLST126:
 9094 136d 00001570 		.4byte	.LVL328
 9095 1371 000015B0 		.4byte	.LVL331
 9096 1375 0001     		.2byte	0x1
 9097 1377 53       		.byte	0x53
 9098 1378 00001670 		.4byte	.LVL336
 9099 137c 00001674 		.4byte	.LVL337
 9100 1380 0001     		.2byte	0x1
 9101 1382 53       		.byte	0x53
 9102 1383 00000000 		.4byte	0x0
 9103 1387 00000000 		.4byte	0x0
 9104              	.LLST127:
 9105 138b 00001580 		.4byte	.LVL329
 9106 138f 00001698 		.4byte	.LVL338
 9107 1393 0001     		.2byte	0x1
 9108 1395 67       		.byte	0x67
 9109 1396 000016C0 		.4byte	.LVL343
 9110 139a 00001780 		.4byte	.LFE587
 9111 139e 0001     		.2byte	0x1
 9112 13a0 67       		.byte	0x67
 9113 13a1 00000000 		.4byte	0x0
 9114 13a5 00000000 		.4byte	0x0
 9115              	.LLST128:
 9116 13a9 000015A8 		.4byte	.LVL330
 9117 13ad 000016B0 		.4byte	.LVL341
 9118 13b1 0001     		.2byte	0x1
 9119 13b3 6D       		.byte	0x6d
 9120 13b4 000016C0 		.4byte	.LVL343
 9121 13b8 000016E8 		.4byte	.LVL348
 9122 13bc 0001     		.2byte	0x1
 9123 13be 6D       		.byte	0x6d
 9124 13bf 00000000 		.4byte	0x0
 9125 13c3 00000000 		.4byte	0x0
 9126              	.LLST129:
 9127 13c7 000015A8 		.4byte	.LVL330
 9128 13cb 000015B8 		.4byte	.LVL332
 9129 13cf 0001     		.2byte	0x1
 9130 13d1 6F       		.byte	0x6f
 9131 13d2 00001638 		.4byte	.LVL335
 9132 13d6 000016B8 		.4byte	.LVL342
 9133 13da 0001     		.2byte	0x1
 9134 13dc 6F       		.byte	0x6f
 9135 13dd 000016D0 		.4byte	.LVL344
 9136 13e1 000016D4 		.4byte	.LVL345
 9137 13e5 0001     		.2byte	0x1
 9138 13e7 6F       		.byte	0x6f
 9139 13e8 000016DC 		.4byte	.LVL346
 9140 13ec 00001780 		.4byte	.LFE587
 9141 13f0 0001     		.2byte	0x1
 9142 13f2 6F       		.byte	0x6f
 9143 13f3 00000000 		.4byte	0x0
 9144 13f7 00000000 		.4byte	0x0
 9145              	.LLST130:
 9146 13fb 000015CC 		.4byte	.LVL333
 9147 13ff 000015D4 		.4byte	.LVL334
 9148 1403 0001     		.2byte	0x1
 9149 1405 54       		.byte	0x54
 9150 1406 00000000 		.4byte	0x0
 9151 140a 00000000 		.4byte	0x0
 9152              	.LLST131:
 9153 140e 000016E4 		.4byte	.LVL347
 9154 1412 000016EC 		.4byte	.LVL349
 9155 1416 0001     		.2byte	0x1
 9156 1418 54       		.byte	0x54
 9157 1419 00000000 		.4byte	0x0
 9158 141d 00000000 		.4byte	0x0
 9159              	.LLST132:
 9160 1421 00001780 		.4byte	.LFB588
 9161 1425 00001788 		.4byte	.LCFI178
 9162 1429 0001     		.2byte	0x1
 9163 142b 51       		.byte	0x51
 9164 142c 00001788 		.4byte	.LCFI178
 9165 1430 000017A0 		.4byte	.LFE588
 9166 1434 0002     		.2byte	0x2
 9167 1436 71       		.byte	0x71
 9168 1437 08       		.sleb128 8
 9169 1438 00000000 		.4byte	0x0
 9170 143c 00000000 		.4byte	0x0
 9171              	.LLST133:
 9172 1440 00001780 		.4byte	.LVL350
 9173 1444 00001790 		.4byte	.LVL351
 9174 1448 0001     		.2byte	0x1
 9175 144a 53       		.byte	0x53
 9176 144b 00000000 		.4byte	0x0
 9177 144f 00000000 		.4byte	0x0
 9178              	.LLST134:
 9179 1453 00001780 		.4byte	.LVL350
 9180 1457 00001790 		.4byte	.LVL351
 9181 145b 0001     		.2byte	0x1
 9182 145d 54       		.byte	0x54
 9183 145e 00000000 		.4byte	0x0
 9184 1462 00000000 		.4byte	0x0
 9185              	.LLST135:
 9186 1466 000017A0 		.4byte	.LFB584
 9187 146a 000017A8 		.4byte	.LCFI181
 9188 146e 0001     		.2byte	0x1
 9189 1470 51       		.byte	0x51
 9190 1471 000017A8 		.4byte	.LCFI181
 9191 1475 00001B8C 		.4byte	.LFE584
 9192 1479 0003     		.2byte	0x3
 9193 147b 71       		.byte	0x71
 9194 147c F801     		.sleb128 248
 9195 147e 00000000 		.4byte	0x0
 9196 1482 00000000 		.4byte	0x0
 9197              	.LLST136:
 9198 1486 000017A0 		.4byte	.LVL352
 9199 148a 000017E0 		.4byte	.LVL354
 9200 148e 0001     		.2byte	0x1
 9201 1490 53       		.byte	0x53
 9202 1491 000017E0 		.4byte	.LVL354
 9203 1495 00001A7C 		.4byte	.LVL377
 9204 1499 0001     		.2byte	0x1
 9205 149b 6E       		.byte	0x6e
 9206 149c 00001A8C 		.4byte	.LVL379
 9207 14a0 00001B8C 		.4byte	.LFE584
 9208 14a4 0001     		.2byte	0x1
 9209 14a6 6E       		.byte	0x6e
 9210 14a7 00000000 		.4byte	0x0
 9211 14ab 00000000 		.4byte	0x0
 9212              	.LLST137:
 9213 14af 000017A0 		.4byte	.LVL352
 9214 14b3 00001820 		.4byte	.LVL355
 9215 14b7 0001     		.2byte	0x1
 9216 14b9 54       		.byte	0x54
 9217 14ba 00000000 		.4byte	0x0
 9218 14be 00000000 		.4byte	0x0
 9219              	.LLST138:
 9220 14c2 000017A0 		.4byte	.LVL352
 9221 14c6 00001820 		.4byte	.LVL355
 9222 14ca 0001     		.2byte	0x1
 9223 14cc 55       		.byte	0x55
 9224 14cd 00001820 		.4byte	.LVL355
 9225 14d1 00001A48 		.4byte	.LVL371
 9226 14d5 0001     		.2byte	0x1
 9227 14d7 61       		.byte	0x61
 9228 14d8 00001A8C 		.4byte	.LVL379
 9229 14dc 00001B8C 		.4byte	.LFE584
 9230 14e0 0001     		.2byte	0x1
 9231 14e2 61       		.byte	0x61
 9232 14e3 00000000 		.4byte	0x0
 9233 14e7 00000000 		.4byte	0x0
 9234              	.LLST139:
 9235 14eb 000017A0 		.4byte	.LVL352
 9236 14ef 00001820 		.4byte	.LVL355
 9237 14f3 0001     		.2byte	0x1
 9238 14f5 56       		.byte	0x56
 9239 14f6 00001820 		.4byte	.LVL355
 9240 14fa 00001A70 		.4byte	.LVL375
 9241 14fe 0001     		.2byte	0x1
 9242 1500 6B       		.byte	0x6b
 9243 1501 00001A8C 		.4byte	.LVL379
 9244 1505 00001B8C 		.4byte	.LFE584
 9245 1509 0001     		.2byte	0x1
 9246 150b 6B       		.byte	0x6b
 9247 150c 00000000 		.4byte	0x0
 9248 1510 00000000 		.4byte	0x0
 9249              	.LLST140:
 9250 1514 000017A0 		.4byte	.LVL352
 9251 1518 00001820 		.4byte	.LVL355
 9252 151c 0001     		.2byte	0x1
 9253 151e 57       		.byte	0x57
 9254 151f 00001820 		.4byte	.LVL355
 9255 1523 00001A3C 		.4byte	.LVL370
 9256 1527 0001     		.2byte	0x1
 9257 1529 5F       		.byte	0x5f
 9258 152a 00001A3C 		.4byte	.LVL370
 9259 152e 00001A8C 		.4byte	.LVL379
 9260 1532 0002     		.2byte	0x2
 9261 1534 77       		.byte	0x77
 9262 1535 00       		.sleb128 0
 9263 1536 00001A8C 		.4byte	.LVL379
 9264 153a 00001B8C 		.4byte	.LFE584
 9265 153e 0001     		.2byte	0x1
 9266 1540 5F       		.byte	0x5f
 9267 1541 00000000 		.4byte	0x0
 9268 1545 00000000 		.4byte	0x0
 9269              	.LLST141:
 9270 1549 000017A0 		.4byte	.LVL352
 9271 154d 00001820 		.4byte	.LVL355
 9272 1551 0001     		.2byte	0x1
 9273 1553 58       		.byte	0x58
 9274 1554 00001820 		.4byte	.LVL355
 9275 1558 00001A4C 		.4byte	.LVL372
 9276 155c 0001     		.2byte	0x1
 9277 155e 62       		.byte	0x62
 9278 155f 00001A8C 		.4byte	.LVL379
 9279 1563 00001B8C 		.4byte	.LFE584
 9280 1567 0001     		.2byte	0x1
 9281 1569 62       		.byte	0x62
 9282 156a 00000000 		.4byte	0x0
 9283 156e 00000000 		.4byte	0x0
 9284              	.LLST142:
 9285 1572 00001828 		.4byte	.LVL356
 9286 1576 0000188C 		.4byte	.LVL361
 9287 157a 0001     		.2byte	0x1
 9288 157c 6F       		.byte	0x6f
 9289 157d 000019D8 		.4byte	.LVL367
 9290 1581 00001A80 		.4byte	.LVL378
 9291 1585 0001     		.2byte	0x1
 9292 1587 6F       		.byte	0x6f
 9293 1588 00001B4C 		.4byte	.LVL387
 9294 158c 00001B8C 		.4byte	.LFE584
 9295 1590 0001     		.2byte	0x1
 9296 1592 6F       		.byte	0x6f
 9297 1593 00000000 		.4byte	0x0
 9298 1597 00000000 		.4byte	0x0
 9299              	.LLST143:
 9300 159b 0000182C 		.4byte	.LVL357
 9301 159f 00001880 		.4byte	.LVL360
 9302 15a3 0003     		.2byte	0x3
 9303 15a5 91       		.byte	0x91
 9304 15a6 A87F     		.sleb128 -88
 9305 15a8 00001880 		.4byte	.LVL360
 9306 15ac 000019D8 		.4byte	.LVL367
 9307 15b0 0001     		.2byte	0x1
 9308 15b2 6A       		.byte	0x6a
 9309 15b3 000019D8 		.4byte	.LVL367
 9310 15b7 00001A8C 		.4byte	.LVL379
 9311 15bb 0003     		.2byte	0x3
 9312 15bd 91       		.byte	0x91
 9313 15be A87F     		.sleb128 -88
 9314 15c0 00001A8C 		.4byte	.LVL379
 9315 15c4 00001B4C 		.4byte	.LVL387
 9316 15c8 0001     		.2byte	0x1
 9317 15ca 6A       		.byte	0x6a
 9318 15cb 00001B4C 		.4byte	.LVL387
 9319 15cf 00001B8C 		.4byte	.LFE584
 9320 15d3 0003     		.2byte	0x3
 9321 15d5 91       		.byte	0x91
 9322 15d6 A87F     		.sleb128 -88
 9323 15d8 00000000 		.4byte	0x0
 9324 15dc 00000000 		.4byte	0x0
 9325              	.LLST144:
 9326 15e0 00001868 		.4byte	.LVL359
 9327 15e4 00001A5C 		.4byte	.LVL374
 9328 15e8 0001     		.2byte	0x1
 9329 15ea 66       		.byte	0x66
 9330 15eb 00001A8C 		.4byte	.LVL379
 9331 15ef 00001B4C 		.4byte	.LVL387
 9332 15f3 0001     		.2byte	0x1
 9333 15f5 66       		.byte	0x66
 9334 15f6 00000000 		.4byte	0x0
 9335 15fa 00000000 		.4byte	0x0
 9336              	.LLST145:
 9337 15fe 000017C0 		.4byte	.LVL353
 9338 1602 00001A50 		.4byte	.LVL373
 9339 1606 0001     		.2byte	0x1
 9340 1608 63       		.byte	0x63
 9341 1609 00001A8C 		.4byte	.LVL379
 9342 160d 00001B8C 		.4byte	.LFE584
 9343 1611 0001     		.2byte	0x1
 9344 1613 63       		.byte	0x63
 9345 1614 00000000 		.4byte	0x0
 9346 1618 00000000 		.4byte	0x0
 9347              	.LLST146:
 9348 161c 0000183C 		.4byte	.LVL358
 9349 1620 00001B70 		.4byte	.LVL389
 9350 1624 0003     		.2byte	0x3
 9351 1626 91       		.byte	0x91
 9352 1627 AC7F     		.sleb128 -84
 9353 1629 00000000 		.4byte	0x0
 9354 162d 00000000 		.4byte	0x0
 9355              	.LLST147:
 9356 1631 00001880 		.4byte	.LVL360
 9357 1635 000019D8 		.4byte	.LVL367
 9358 1639 0001     		.2byte	0x1
 9359 163b 6C       		.byte	0x6c
 9360 163c 00001A8C 		.4byte	.LVL379
 9361 1640 00001AB4 		.4byte	.LVL384
 9362 1644 0001     		.2byte	0x1
 9363 1646 6C       		.byte	0x6c
 9364 1647 00000000 		.4byte	0x0
 9365 164b 00000000 		.4byte	0x0
 9366              	.LLST148:
 9367 164f 00001880 		.4byte	.LVL360
 9368 1653 00001890 		.4byte	.LVL362
 9369 1657 0001     		.2byte	0x1
 9370 1659 6D       		.byte	0x6d
 9371 165a 00001910 		.4byte	.LVL365
 9372 165e 000019F4 		.4byte	.LVL368
 9373 1662 0001     		.2byte	0x1
 9374 1664 6D       		.byte	0x6d
 9375 1665 00001A2C 		.4byte	.LVL369
 9376 1669 00001A78 		.4byte	.LVL376
 9377 166d 0001     		.2byte	0x1
 9378 166f 6D       		.byte	0x6d
 9379 1670 00001A9C 		.4byte	.LVL380
 9380 1674 00001AA0 		.4byte	.LVL381
 9381 1678 0001     		.2byte	0x1
 9382 167a 6D       		.byte	0x6d
 9383 167b 00001AA8 		.4byte	.LVL382
 9384 167f 00001B4C 		.4byte	.LVL387
 9385 1683 0001     		.2byte	0x1
 9386 1685 6D       		.byte	0x6d
 9387 1686 00000000 		.4byte	0x0
 9388 168a 00000000 		.4byte	0x0
 9389              	.LLST149:
 9390 168e 000018A4 		.4byte	.LVL363
 9391 1692 000018AC 		.4byte	.LVL364
 9392 1696 0001     		.2byte	0x1
 9393 1698 54       		.byte	0x54
 9394 1699 00000000 		.4byte	0x0
 9395 169d 00000000 		.4byte	0x0
 9396              	.LLST150:
 9397 16a1 00001AB0 		.4byte	.LVL383
 9398 16a5 00001AB8 		.4byte	.LVL385
 9399 16a9 0001     		.2byte	0x1
 9400 16ab 54       		.byte	0x54
 9401 16ac 00000000 		.4byte	0x0
 9402 16b0 00000000 		.4byte	0x0
 9403              	.LLST151:
 9404 16b4 00001B8C 		.4byte	.LFB585
 9405 16b8 00001B94 		.4byte	.LCFI203
 9406 16bc 0001     		.2byte	0x1
 9407 16be 51       		.byte	0x51
 9408 16bf 00001B94 		.4byte	.LCFI203
 9409 16c3 00001BB8 		.4byte	.LFE585
 9410 16c7 0002     		.2byte	0x2
 9411 16c9 71       		.byte	0x71
 9412 16ca 10       		.sleb128 16
 9413 16cb 00000000 		.4byte	0x0
 9414 16cf 00000000 		.4byte	0x0
 9415              	.LLST152:
 9416 16d3 00001B8C 		.4byte	.LVL390
 9417 16d7 00001BA8 		.4byte	.LVL392
 9418 16db 0001     		.2byte	0x1
 9419 16dd 53       		.byte	0x53
 9420 16de 00000000 		.4byte	0x0
 9421 16e2 00000000 		.4byte	0x0
 9422              	.LLST153:
 9423 16e6 00001B8C 		.4byte	.LVL390
 9424 16ea 00001BA8 		.4byte	.LVL392
 9425 16ee 0001     		.2byte	0x1
 9426 16f0 54       		.byte	0x54
 9427 16f1 00000000 		.4byte	0x0
 9428 16f5 00000000 		.4byte	0x0
 9429              	.LLST154:
 9430 16f9 00001B8C 		.4byte	.LVL390
 9431 16fd 00001BA8 		.4byte	.LVL392
 9432 1701 0001     		.2byte	0x1
 9433 1703 55       		.byte	0x55
 9434 1704 00000000 		.4byte	0x0
 9435 1708 00000000 		.4byte	0x0
 9436              	.LLST155:
 9437 170c 00001B8C 		.4byte	.LVL390
 9438 1710 00001BA8 		.4byte	.LVL392
 9439 1714 0001     		.2byte	0x1
 9440 1716 56       		.byte	0x56
 9441 1717 00000000 		.4byte	0x0
 9442 171b 00000000 		.4byte	0x0
 9443              	.LLST156:
 9444 171f 00001B8C 		.4byte	.LVL390
 9445 1723 00001BA0 		.4byte	.LVL391
 9446 1727 0001     		.2byte	0x1
 9447 1729 57       		.byte	0x57
 9448 172a 00001BA0 		.4byte	.LVL391
 9449 172e 00001BA8 		.4byte	.LVL392
 9450 1732 0001     		.2byte	0x1
 9451 1734 50       		.byte	0x50
 9452 1735 00001BA8 		.4byte	.LVL392
 9453 1739 00001BB8 		.4byte	.LFE585
 9454 173d 0002     		.2byte	0x2
 9455 173f 77       		.byte	0x77
 9456 1740 00       		.sleb128 0
 9457 1741 00000000 		.4byte	0x0
 9458 1745 00000000 		.4byte	0x0
 9459              	.LLST157:
 9460 1749 00001B8C 		.4byte	.LVL390
 9461 174d 00001BA8 		.4byte	.LVL392
 9462 1751 0001     		.2byte	0x1
 9463 1753 58       		.byte	0x58
 9464 1754 00000000 		.4byte	0x0
 9465 1758 00000000 		.4byte	0x0
 9466              	.LLST158:
 9467 175c 00001BB8 		.4byte	.LFB580
 9468 1760 00001BC0 		.4byte	.LCFI206
 9469 1764 0001     		.2byte	0x1
 9470 1766 51       		.byte	0x51
 9471 1767 00001BC0 		.4byte	.LCFI206
 9472 176b 00001C60 		.4byte	.LFE580
 9473 176f 0002     		.2byte	0x2
 9474 1771 71       		.byte	0x71
 9475 1772 28       		.sleb128 40
 9476 1773 00000000 		.4byte	0x0
 9477 1777 00000000 		.4byte	0x0
 9478              	.LLST159:
 9479 177b 00001BB8 		.4byte	.LVL393
 9480 177f 00001BDC 		.4byte	.LVL394
 9481 1783 0001     		.2byte	0x1
 9482 1785 53       		.byte	0x53
 9483 1786 00001BDC 		.4byte	.LVL394
 9484 178a 00001C54 		.4byte	.LVL405
 9485 178e 0001     		.2byte	0x1
 9486 1790 6E       		.byte	0x6e
 9487 1791 00000000 		.4byte	0x0
 9488 1795 00000000 		.4byte	0x0
 9489              	.LLST160:
 9490 1799 00001C00 		.4byte	.LVL398
 9491 179d 00001C4C 		.4byte	.LVL404
 9492 17a1 0001     		.2byte	0x1
 9493 17a3 6D       		.byte	0x6d
 9494 17a4 00000000 		.4byte	0x0
 9495 17a8 00000000 		.4byte	0x0
 9496              	.LLST161:
 9497 17ac 00001BEC 		.4byte	.LVL395
 9498 17b0 00001BFC 		.4byte	.LVL397
 9499 17b4 0002     		.2byte	0x2
 9500 17b6 91       		.byte	0x91
 9501 17b7 60       		.sleb128 -32
 9502 17b8 00001BFC 		.4byte	.LVL397
 9503 17bc 00001C0C 		.4byte	.LVL399
 9504 17c0 0001     		.2byte	0x1
 9505 17c2 50       		.byte	0x50
 9506 17c3 00001C0C 		.4byte	.LVL399
 9507 17c7 00001C3C 		.4byte	.LVL402
 9508 17cb 0002     		.2byte	0x2
 9509 17cd 91       		.byte	0x91
 9510 17ce 60       		.sleb128 -32
 9511 17cf 00001C3C 		.4byte	.LVL402
 9512 17d3 00001C44 		.4byte	.LVL403
 9513 17d7 0001     		.2byte	0x1
 9514 17d9 50       		.byte	0x50
 9515 17da 00001C44 		.4byte	.LVL403
 9516 17de 00001C60 		.4byte	.LFE580
 9517 17e2 0002     		.2byte	0x2
 9518 17e4 91       		.byte	0x91
 9519 17e5 60       		.sleb128 -32
 9520 17e6 00000000 		.4byte	0x0
 9521 17ea 00000000 		.4byte	0x0
 9522              	.LLST162:
 9523 17ee 00001BF0 		.4byte	.LVL396
 9524 17f2 00001C20 		.4byte	.LVL400
 9525 17f6 0001     		.2byte	0x1
 9526 17f8 6F       		.byte	0x6f
 9527 17f9 00001C20 		.4byte	.LVL400
 9528 17fd 00001C2C 		.4byte	.LVL401
 9529 1801 0001     		.2byte	0x1
 9530 1803 54       		.byte	0x54
 9531 1804 00001C2C 		.4byte	.LVL401
 9532 1808 00001C58 		.4byte	.LVL406
 9533 180c 0001     		.2byte	0x1
 9534 180e 6F       		.byte	0x6f
 9535 180f 00000000 		.4byte	0x0
 9536 1813 00000000 		.4byte	0x0
 9537              	.LLST163:
 9538 1817 00001C60 		.4byte	.LFB573
 9539 181b 00001C64 		.4byte	.LCFI212
 9540 181f 0001     		.2byte	0x1
 9541 1821 51       		.byte	0x51
 9542 1822 00001C64 		.4byte	.LCFI212
 9543 1826 00001D20 		.4byte	.LFE573
 9544 182a 0002     		.2byte	0x2
 9545 182c 71       		.byte	0x71
 9546 182d 20       		.sleb128 32
 9547 182e 00000000 		.4byte	0x0
 9548 1832 00000000 		.4byte	0x0
 9549              	.LLST164:
 9550 1836 00001C60 		.4byte	.LVL407
 9551 183a 00001C98 		.4byte	.LVL408
 9552 183e 0001     		.2byte	0x1
 9553 1840 53       		.byte	0x53
 9554 1841 00001C98 		.4byte	.LVL408
 9555 1845 00001D08 		.4byte	.LVL413
 9556 1849 0001     		.2byte	0x1
 9557 184b 6F       		.byte	0x6f
 9558 184c 00001D10 		.4byte	.LVL414
 9559 1850 00001D20 		.4byte	.LFE573
 9560 1854 0001     		.2byte	0x1
 9561 1856 6F       		.byte	0x6f
 9562 1857 00000000 		.4byte	0x0
 9563 185b 00000000 		.4byte	0x0
 9564              	.LLST165:
 9565 185f 00001C60 		.4byte	.LVL407
 9566 1863 00001C98 		.4byte	.LVL408
 9567 1867 0001     		.2byte	0x1
 9568 1869 54       		.byte	0x54
 9569 186a 00001C98 		.4byte	.LVL408
 9570 186e 00001CF8 		.4byte	.LVL410
 9571 1872 0001     		.2byte	0x1
 9572 1874 6C       		.byte	0x6c
 9573 1875 00001D10 		.4byte	.LVL414
 9574 1879 00001D20 		.4byte	.LFE573
 9575 187d 0001     		.2byte	0x1
 9576 187f 6C       		.byte	0x6c
 9577 1880 00000000 		.4byte	0x0
 9578 1884 00000000 		.4byte	0x0
 9579              	.LLST166:
 9580 1888 00001C60 		.4byte	.LVL407
 9581 188c 00001C98 		.4byte	.LVL408
 9582 1890 0001     		.2byte	0x1
 9583 1892 55       		.byte	0x55
 9584 1893 00001C98 		.4byte	.LVL408
 9585 1897 00001CF4 		.4byte	.LVL409
 9586 189b 0001     		.2byte	0x1
 9587 189d 6B       		.byte	0x6b
 9588 189e 00001D10 		.4byte	.LVL414
 9589 18a2 00001D20 		.4byte	.LFE573
 9590 18a6 0001     		.2byte	0x1
 9591 18a8 6B       		.byte	0x6b
 9592 18a9 00000000 		.4byte	0x0
 9593 18ad 00000000 		.4byte	0x0
 9594              	.LLST167:
 9595 18b1 00001C60 		.4byte	.LVL407
 9596 18b5 00001C98 		.4byte	.LVL408
 9597 18b9 0001     		.2byte	0x1
 9598 18bb 56       		.byte	0x56
 9599 18bc 00001C98 		.4byte	.LVL408
 9600 18c0 00001D00 		.4byte	.LVL411
 9601 18c4 0001     		.2byte	0x1
 9602 18c6 6D       		.byte	0x6d
 9603 18c7 00001D10 		.4byte	.LVL414
 9604 18cb 00001D20 		.4byte	.LFE573
 9605 18cf 0001     		.2byte	0x1
 9606 18d1 6D       		.byte	0x6d
 9607 18d2 00000000 		.4byte	0x0
 9608 18d6 00000000 		.4byte	0x0
 9609              	.LLST168:
 9610 18da 00001C60 		.4byte	.LVL407
 9611 18de 00001C98 		.4byte	.LVL408
 9612 18e2 0001     		.2byte	0x1
 9613 18e4 57       		.byte	0x57
 9614 18e5 00001C98 		.4byte	.LVL408
 9615 18e9 00001D04 		.4byte	.LVL412
 9616 18ed 0001     		.2byte	0x1
 9617 18ef 6E       		.byte	0x6e
 9618 18f0 00001D10 		.4byte	.LVL414
 9619 18f4 00001D20 		.4byte	.LFE573
 9620 18f8 0001     		.2byte	0x1
 9621 18fa 6E       		.byte	0x6e
 9622 18fb 00000000 		.4byte	0x0
 9623 18ff 00000000 		.4byte	0x0
 9624              	.LLST169:
 9625 1903 00001D20 		.4byte	.LFB574
 9626 1907 00001D28 		.4byte	.LCFI221
 9627 190b 0001     		.2byte	0x1
 9628 190d 51       		.byte	0x51
 9629 190e 00001D28 		.4byte	.LCFI221
 9630 1912 00001D40 		.4byte	.LFE574
 9631 1916 0002     		.2byte	0x2
 9632 1918 71       		.byte	0x71
 9633 1919 08       		.sleb128 8
 9634 191a 00000000 		.4byte	0x0
 9635 191e 00000000 		.4byte	0x0
 9636              	.LLST170:
 9637 1922 00001D20 		.4byte	.LVL415
 9638 1926 00001D30 		.4byte	.LVL416
 9639 192a 0001     		.2byte	0x1
 9640 192c 53       		.byte	0x53
 9641 192d 00000000 		.4byte	0x0
 9642 1931 00000000 		.4byte	0x0
 9643              	.LLST171:
 9644 1935 00001D20 		.4byte	.LVL415
 9645 1939 00001D30 		.4byte	.LVL416
 9646 193d 0001     		.2byte	0x1
 9647 193f 54       		.byte	0x54
 9648 1940 00000000 		.4byte	0x0
 9649 1944 00000000 		.4byte	0x0
 9650              	.LLST172:
 9651 1948 00001D20 		.4byte	.LVL415
 9652 194c 00001D30 		.4byte	.LVL416
 9653 1950 0001     		.2byte	0x1
 9654 1952 55       		.byte	0x55
 9655 1953 00000000 		.4byte	0x0
 9656 1957 00000000 		.4byte	0x0
 9657              	.LLST173:
 9658 195b 00001D20 		.4byte	.LVL415
 9659 195f 00001D30 		.4byte	.LVL416
 9660 1963 0001     		.2byte	0x1
 9661 1965 56       		.byte	0x56
 9662 1966 00000000 		.4byte	0x0
 9663 196a 00000000 		.4byte	0x0
 9664              	.LLST174:
 9665 196e 00001D20 		.4byte	.LVL415
 9666 1972 00001D30 		.4byte	.LVL416
 9667 1976 0001     		.2byte	0x1
 9668 1978 57       		.byte	0x57
 9669 1979 00000000 		.4byte	0x0
 9670 197d 00000000 		.4byte	0x0
 9671              		.file 9 "c:/Programme/devkitPro/libogc/include/gctypes.h"
 9672              		.file 10 "c:\\programme\\devkitpro\\devkitppc\\bin\\../lib/gcc/powerpc-gekko/4.2.4/../../../../pow
 9673              		.file 11 "c:\\programme\\devkitpro\\devkitppc\\bin\\../lib/gcc/powerpc-gekko/4.2.4/../../../../pow
 9674              		.file 12 "c:\\programme\\devkitpro\\devkitppc\\bin\\../lib/gcc/powerpc-gekko/4.2.4/include/stddef.
 9675              		.file 13 "c:\\programme\\devkitpro\\devkitppc\\bin\\../lib/gcc/powerpc-gekko/4.2.4/../../../../pow
 9676              		.file 14 "c:\\programme\\devkitpro\\devkitppc\\bin\\../lib/gcc/powerpc-gekko/4.2.4/../../../../pow
 9677              		.file 15 "c:\\programme\\devkitpro\\devkitppc\\bin\\../lib/gcc/powerpc-gekko/4.2.4/../../../../pow
 9678              		.file 16 "c:\\programme\\devkitpro\\devkitppc\\bin\\../lib/gcc/powerpc-gekko/4.2.4/../../../../pow
 9679              		.file 17 "c:\\programme\\devkitpro\\devkitppc\\bin\\../lib/gcc/powerpc-gekko/4.2.4/../../../../pow
 9680              		.file 18 "c:\\programme\\devkitpro\\devkitppc\\bin\\../lib/gcc/powerpc-gekko/4.2.4/include/stdarg.
 9681              		.file 19 "<built-in>"
 9682              		.file 20 "c:\\programme\\devkitpro\\devkitppc\\bin\\../lib/gcc/powerpc-gekko/4.2.4/../../../../pow
 9683              		.file 21 "c:\\programme\\devkitpro\\devkitppc\\bin\\../lib/gcc/powerpc-gekko/4.2.4/../../../../pow
 9684              		.file 22 "c:/Programme/devkitPro/libogc/include/freetype/ftsystem.h"
 9685              		.file 23 "c:/Programme/devkitPro/libogc/include/freetype/ftimage.h"
 9686              		.file 24 "c:/Programme/devkitPro/libogc/include/freetype/fttypes.h"
 9687              		.file 25 "c:/Programme/devkitPro/libogc/include/freetype/freetype.h"
 9688              		.file 26 "c:\\programme\\devkitpro\\devkitppc\\bin\\../lib/gcc/powerpc-gekko/4.2.4/../../../../pow
 9689              		.file 27 "c:\\programme\\devkitpro\\devkitppc\\bin\\../lib/gcc/powerpc-gekko/4.2.4/../../../../pow
 9690              		.file 28 "c:\\programme\\devkitpro\\devkitppc\\bin\\../lib/gcc/powerpc-gekko/4.2.4/../../../../pow
 9691              		.file 29 "c:\\programme\\devkitpro\\devkitppc\\bin\\../lib/gcc/powerpc-gekko/4.2.4/../../../../pow
 9692              		.file 30 "c:\\programme\\devkitpro\\devkitppc\\bin\\../lib/gcc/powerpc-gekko/4.2.4/../../../../pow
 9693              		.file 31 "c:\\programme\\devkitpro\\devkitppc\\bin\\../lib/gcc/powerpc-gekko/4.2.4/../../../../pow
 9694              		.file 32 "c:\\programme\\devkitpro\\devkitppc\\bin\\../lib/gcc/powerpc-gekko/4.2.4/../../../../pow
 9695              		.file 33 "c:\\programme\\devkitpro\\devkitppc\\bin\\../lib/gcc/powerpc-gekko/4.2.4/../../../../pow
 9696              		.file 34 "c:\\programme\\devkitpro\\devkitppc\\bin\\../lib/gcc/powerpc-gekko/4.2.4/../../../../pow
 9697              		.file 35 "c:\\programme\\devkitpro\\devkitppc\\bin\\../lib/gcc/powerpc-gekko/4.2.4/../../../../pow
 9698              		.file 36 "c:\\programme\\devkitpro\\devkitppc\\bin\\../lib/gcc/powerpc-gekko/4.2.4/../../../../pow
 9699              		.file 37 "c:\\programme\\devkitpro\\devkitppc\\bin\\../lib/gcc/powerpc-gekko/4.2.4/../../../../pow
 9700              		.file 38 "c:\\programme\\devkitpro\\devkitppc\\bin\\../lib/gcc/powerpc-gekko/4.2.4/../../../../pow
 9701              		.file 39 "c:\\programme\\devkitpro\\devkitppc\\bin\\../lib/gcc/powerpc-gekko/4.2.4/../../../../pow
 9702              		.file 40 "c:\\programme\\devkitpro\\devkitppc\\bin\\../lib/gcc/powerpc-gekko/4.2.4/../../../../pow
 9703              		.file 41 "c:\\programme\\devkitpro\\devkitppc\\bin\\../lib/gcc/powerpc-gekko/4.2.4/../../../../pow
 9704              		.section	.debug_info
 9705 0000 0000629E 		.4byte	0x629e
 9706 0004 0002     		.2byte	0x2
 9707 0006 00000000 		.4byte	.Ldebug_abbrev0
 9708 000a 04       		.byte	0x4
 9709 000b 01       		.uleb128 0x1
 9710 000c 00002813 		.4byte	.LASF804
 9711 0010 04       		.byte	0x4
 9712 0011 00002787 		.4byte	.LASF805
 9713 0015 00000A52 		.4byte	.LASF806
 9714 0019 00000000 		.4byte	0x0
 9715 001d 00000000 		.4byte	.Ldebug_line0
 9716 0021 02       		.uleb128 0x2
 9717 0022 753800   		.string	"u8"
 9718 0025 09       		.byte	0x9
 9719 0026 0F       		.byte	0xf
 9720 0027 0000002B 		.4byte	0x2b
 9721 002b 03       		.uleb128 0x3
 9722 002c 01       		.byte	0x1
 9723 002d 08       		.byte	0x8
 9724 002e 000014C7 		.4byte	.LASF0
 9725 0032 03       		.uleb128 0x3
 9726 0033 02       		.byte	0x2
 9727 0034 07       		.byte	0x7
 9728 0035 0000302C 		.4byte	.LASF1
 9729 0039 02       		.uleb128 0x2
 9730 003a 75333200 		.string	"u32"
 9731 003e 09       		.byte	0x9
 9732 003f 11       		.byte	0x11
 9733 0040 00000044 		.4byte	0x44
 9734 0044 03       		.uleb128 0x3
 9735 0045 04       		.byte	0x4
 9736 0046 07       		.byte	0x7
 9737 0047 0000516D 		.4byte	.LASF2
 9738 004b 03       		.uleb128 0x3
 9739 004c 08       		.byte	0x8
 9740 004d 07       		.byte	0x7
 9741 004e 000047DD 		.4byte	.LASF3
 9742 0052 03       		.uleb128 0x3
 9743 0053 01       		.byte	0x1
 9744 0054 06       		.byte	0x6
 9745 0055 0000303F 		.4byte	.LASF4
 9746 0059 02       		.uleb128 0x2
 9747 005a 73313600 		.string	"s16"
 9748 005e 09       		.byte	0x9
 9749 005f 15       		.byte	0x15
 9750 0060 00000064 		.4byte	0x64
 9751 0064 03       		.uleb128 0x3
 9752 0065 02       		.byte	0x2
 9753 0066 05       		.byte	0x5
 9754 0067 00005226 		.4byte	.LASF5
 9755 006b 04       		.uleb128 0x4
 9756 006c 04       		.byte	0x4
 9757 006d 05       		.byte	0x5
 9758 006e 696E7400 		.string	"int"
 9759 0072 03       		.uleb128 0x3
 9760 0073 08       		.byte	0x8
 9761 0074 05       		.byte	0x5
 9762 0075 00004CCB 		.4byte	.LASF6
 9763 0079 02       		.uleb128 0x2
 9764 007a 66333200 		.string	"f32"
 9765 007e 09       		.byte	0x9
 9766 007f 29       		.byte	0x29
 9767 0080 00000084 		.4byte	0x84
 9768 0084 03       		.uleb128 0x3
 9769 0085 04       		.byte	0x4
 9770 0086 04       		.byte	0x4
 9771 0087 000015F3 		.4byte	.LASF7
 9772 008b 03       		.uleb128 0x3
 9773 008c 08       		.byte	0x8
 9774 008d 04       		.byte	0x4
 9775 008e 0000429B 		.4byte	.LASF8
 9776 0092 05       		.uleb128 0x5
 9777 0093 04       		.byte	0x4
 9778 0094 00000098 		.4byte	0x98
 9779 0098 03       		.uleb128 0x3
 9780 0099 01       		.byte	0x1
 9781 009a 08       		.byte	0x8
 9782 009b 00003AC1 		.4byte	.LASF9
 9783 009f 05       		.uleb128 0x5
 9784 00a0 04       		.byte	0x4
 9785 00a1 00000092 		.4byte	0x92
 9786 00a5 05       		.uleb128 0x5
 9787 00a6 04       		.byte	0x4
 9788 00a7 000000AB 		.4byte	0xab
 9789 00ab 06       		.uleb128 0x6
 9790 00ac 07       		.uleb128 0x7
 9791 00ad 04       		.byte	0x4
 9792 00ae 07       		.byte	0x7
 9793 00af 03       		.uleb128 0x3
 9794 00b0 01       		.byte	0x1
 9795 00b1 02       		.byte	0x2
 9796 00b2 000007FB 		.4byte	.LASF10
 9797 00b6 08       		.uleb128 0x8
 9798 00b7 00000039 		.4byte	0x39
 9799 00bb 000000C6 		.4byte	0xc6
 9800 00bf 09       		.uleb128 0x9
 9801 00c0 000000AC 		.4byte	0xac
 9802 00c4 07       		.byte	0x7
 9803 00c5 00       		.byte	0x0
 9804 00c6 0A       		.uleb128 0xa
 9805 00c7 04       		.byte	0x4
 9806 00c8 0B       		.uleb128 0xb
 9807 00c9 000030B1 		.4byte	.LASF12
 9808 00cd 04       		.byte	0x4
 9809 00ce 04       		.byte	0x4
 9810 00cf 03B8     		.2byte	0x3b8
 9811 00d1 0000010A 		.4byte	0x10a
 9812 00d5 0C       		.uleb128 0xc
 9813 00d6 7200     		.string	"r"
 9814 00d8 04       		.byte	0x4
 9815 00d9 03B9     		.2byte	0x3b9
 9816 00db 00000021 		.4byte	0x21
 9817 00df 02       		.byte	0x2
 9818 00e0 23       		.byte	0x23
 9819 00e1 00       		.uleb128 0x0
 9820 00e2 0C       		.uleb128 0xc
 9821 00e3 6700     		.string	"g"
 9822 00e5 04       		.byte	0x4
 9823 00e6 03BA     		.2byte	0x3ba
 9824 00e8 00000021 		.4byte	0x21
 9825 00ec 02       		.byte	0x2
 9826 00ed 23       		.byte	0x23
 9827 00ee 01       		.uleb128 0x1
 9828 00ef 0C       		.uleb128 0xc
 9829 00f0 6200     		.string	"b"
 9830 00f2 04       		.byte	0x4
 9831 00f3 03BB     		.2byte	0x3bb
 9832 00f5 00000021 		.4byte	0x21
 9833 00f9 02       		.byte	0x2
 9834 00fa 23       		.byte	0x23
 9835 00fb 02       		.uleb128 0x2
 9836 00fc 0C       		.uleb128 0xc
 9837 00fd 6100     		.string	"a"
 9838 00ff 04       		.byte	0x4
 9839 0100 03BC     		.2byte	0x3bc
 9840 0102 00000021 		.4byte	0x21
 9841 0106 02       		.byte	0x2
 9842 0107 23       		.byte	0x23
 9843 0108 03       		.uleb128 0x3
 9844 0109 00       		.byte	0x0
 9845 010a 0D       		.uleb128 0xd
 9846 010b 00003F0A 		.4byte	.LASF11
 9847 010f 04       		.byte	0x4
 9848 0110 03BD     		.2byte	0x3bd
 9849 0112 000000C8 		.4byte	0xc8
 9850 0116 0B       		.uleb128 0xb
 9851 0117 000004A4 		.4byte	.LASF13
 9852 011b 20       		.byte	0x20
 9853 011c 04       		.byte	0x4
 9854 011d 03C6     		.2byte	0x3c6
 9855 011f 00000133 		.4byte	0x133
 9856 0123 0C       		.uleb128 0xc
 9857 0124 76616C00 		.string	"val"
 9858 0128 04       		.byte	0x4
 9859 0129 03C7     		.2byte	0x3c7
 9860 012b 000000B6 		.4byte	0xb6
 9861 012f 02       		.byte	0x2
 9862 0130 23       		.byte	0x23
 9863 0131 00       		.uleb128 0x0
 9864 0132 00       		.byte	0x0
 9865 0133 0D       		.uleb128 0xd
 9866 0134 0000147C 		.4byte	.LASF14
 9867 0138 04       		.byte	0x4
 9868 0139 03C8     		.2byte	0x3c8
 9869 013b 00000116 		.4byte	0x116
 9870 013f 05       		.uleb128 0x5
 9871 0140 04       		.byte	0x4
 9872 0141 00000133 		.4byte	0x133
 9873 0145 0E       		.uleb128 0xe
 9874 0146 000041F2 		.4byte	.LASF15
 9875 014a 0A       		.byte	0xa
 9876 014b 0A       		.byte	0xa
 9877 014c 00000072 		.4byte	0x72
 9878 0150 0E       		.uleb128 0xe
 9879 0151 0000354B 		.4byte	.LASF16
 9880 0155 0B       		.byte	0xb
 9881 0156 07       		.byte	0x7
 9882 0157 0000006B 		.4byte	0x6b
 9883 015b 0D       		.uleb128 0xd
 9884 015c 0000261C 		.4byte	.LASF17
 9885 0160 0C       		.byte	0xc
 9886 0161 0163     		.2byte	0x163
 9887 0163 00000044 		.4byte	0x44
 9888 0167 0F       		.uleb128 0xf
 9889 0168 2E5F3600 		.string	"._6"
 9890 016c 08       		.byte	0x8
 9891 016d 0D       		.byte	0xd
 9892 016e 44       		.byte	0x44
 9893 016f 000001B3 		.4byte	0x1b3
 9894 0173 10       		.uleb128 0x10
 9895 0174 2E5F3700 		.string	"._7"
 9896 0178 04       		.byte	0x4
 9897 0179 0D       		.byte	0xd
 9898 017a 47       		.byte	0x47
 9899 017b 00000196 		.4byte	0x196
 9900 017f 11       		.uleb128 0x11
 9901 0180 000034B1 		.4byte	.LASF18
 9902 0184 0D       		.byte	0xd
 9903 0185 48       		.byte	0x48
 9904 0186 0000015B 		.4byte	0x15b
 9905 018a 11       		.uleb128 0x11
 9906 018b 00002591 		.4byte	.LASF19
 9907 018f 0D       		.byte	0xd
 9908 0190 49       		.byte	0x49
 9909 0191 000001B3 		.4byte	0x1b3
 9910 0195 00       		.byte	0x0
 9911 0196 12       		.uleb128 0x12
 9912 0197 0000227F 		.4byte	.LASF20
 9913 019b 0D       		.byte	0xd
 9914 019c 45       		.byte	0x45
 9915 019d 0000006B 		.4byte	0x6b
 9916 01a1 02       		.byte	0x2
 9917 01a2 23       		.byte	0x23
 9918 01a3 00       		.uleb128 0x0
 9919 01a4 12       		.uleb128 0x12
 9920 01a5 00004537 		.4byte	.LASF21
 9921 01a9 0D       		.byte	0xd
 9922 01aa 4A       		.byte	0x4a
 9923 01ab 00000173 		.4byte	0x173
 9924 01af 02       		.byte	0x2
 9925 01b0 23       		.byte	0x23
 9926 01b1 04       		.uleb128 0x4
 9927 01b2 00       		.byte	0x0
 9928 01b3 08       		.uleb128 0x8
 9929 01b4 0000002B 		.4byte	0x2b
 9930 01b8 000001C3 		.4byte	0x1c3
 9931 01bc 09       		.uleb128 0x9
 9932 01bd 000000AC 		.4byte	0xac
 9933 01c1 03       		.byte	0x3
 9934 01c2 00       		.byte	0x0
 9935 01c3 0E       		.uleb128 0xe
 9936 01c4 00004B9C 		.4byte	.LASF22
 9937 01c8 0D       		.byte	0xd
 9938 01c9 4F       		.byte	0x4f
 9939 01ca 00000150 		.4byte	0x150
 9940 01ce 0E       		.uleb128 0xe
 9941 01cf 00002BFA 		.4byte	.LASF23
 9942 01d3 0E       		.byte	0xe
 9943 01d4 15       		.byte	0x15
 9944 01d5 000001D9 		.4byte	0x1d9
 9945 01d9 03       		.uleb128 0x3
 9946 01da 04       		.byte	0x4
 9947 01db 07       		.byte	0x7
 9948 01dc 000038E4 		.4byte	.LASF24
 9949 01e0 13       		.uleb128 0x13
 9950 01e1 00003D50 		.4byte	.LASF25
 9951 01e5 18       		.byte	0x18
 9952 01e6 0E       		.byte	0xe
 9953 01e7 2D       		.byte	0x2d
 9954 01e8 0000023F 		.4byte	0x23f
 9955 01ec 12       		.uleb128 0x12
 9956 01ed 0000283D 		.4byte	.LASF26
 9957 01f1 0E       		.byte	0xe
 9958 01f2 2E       		.byte	0x2e
 9959 01f3 0000023F 		.4byte	0x23f
 9960 01f7 02       		.byte	0x2
 9961 01f8 23       		.byte	0x23
 9962 01f9 00       		.uleb128 0x0
 9963 01fa 14       		.uleb128 0x14
 9964 01fb 5F6B00   		.string	"_k"
 9965 01fe 0E       		.byte	0xe
 9966 01ff 2F       		.byte	0x2f
 9967 0200 0000006B 		.4byte	0x6b
 9968 0204 02       		.byte	0x2
 9969 0205 23       		.byte	0x23
 9970 0206 04       		.uleb128 0x4
 9971 0207 12       		.uleb128 0x12
 9972 0208 000037DF 		.4byte	.LASF27
 9973 020c 0E       		.byte	0xe
 9974 020d 2F       		.byte	0x2f
 9975 020e 0000006B 		.4byte	0x6b
 9976 0212 02       		.byte	0x2
 9977 0213 23       		.byte	0x23
 9978 0214 08       		.uleb128 0x8
 9979 0215 12       		.uleb128 0x12
 9980 0216 00005081 		.4byte	.LASF28
 9981 021a 0E       		.byte	0xe
 9982 021b 2F       		.byte	0x2f
 9983 021c 0000006B 		.4byte	0x6b
 9984 0220 02       		.byte	0x2
 9985 0221 23       		.byte	0x23
 9986 0222 0C       		.uleb128 0xc
 9987 0223 12       		.uleb128 0x12
 9988 0224 00001593 		.4byte	.LASF29
 9989 0228 0E       		.byte	0xe
 9990 0229 2F       		.byte	0x2f
 9991 022a 0000006B 		.4byte	0x6b
 9992 022e 02       		.byte	0x2
 9993 022f 23       		.byte	0x23
 9994 0230 10       		.uleb128 0x10
 9995 0231 14       		.uleb128 0x14
 9996 0232 5F7800   		.string	"_x"
 9997 0235 0E       		.byte	0xe
 9998 0236 30       		.byte	0x30
 9999 0237 00000245 		.4byte	0x245
 10000 023b 02       		.byte	0x2
 10001 023c 23       		.byte	0x23
 10002 023d 14       		.uleb128 0x14
 10003 023e 00       		.byte	0x0
 10004 023f 05       		.uleb128 0x5
 10005 0240 04       		.byte	0x4
 10006 0241 000001E0 		.4byte	0x1e0
 10007 0245 08       		.uleb128 0x8
 10008 0246 000001CE 		.4byte	0x1ce
 10009 024a 00000255 		.4byte	0x255
 10010 024e 09       		.uleb128 0x9
 10011 024f 000000AC 		.4byte	0xac
 10012 0253 00       		.byte	0x0
 10013 0254 00       		.byte	0x0
 10014 0255 13       		.uleb128 0x13
 10015 0256 00000FA8 		.4byte	.LASF30
 10016 025a 24       		.byte	0x24
 10017 025b 0E       		.byte	0xe
 10018 025c 35       		.byte	0x35
 10019 025d 000002E0 		.4byte	0x2e0
 10020 0261 12       		.uleb128 0x12
 10021 0262 00002A94 		.4byte	.LASF31
 10022 0266 0E       		.byte	0xe
 10023 0267 36       		.byte	0x36
 10024 0268 0000006B 		.4byte	0x6b
 10025 026c 02       		.byte	0x2
 10026 026d 23       		.byte	0x23
 10027 026e 00       		.uleb128 0x0
 10028 026f 12       		.uleb128 0x12
 10029 0270 0000508F 		.4byte	.LASF32
 10030 0274 0E       		.byte	0xe
 10031 0275 37       		.byte	0x37
 10032 0276 0000006B 		.4byte	0x6b
 10033 027a 02       		.byte	0x2
 10034 027b 23       		.byte	0x23
 10035 027c 04       		.uleb128 0x4
 10036 027d 12       		.uleb128 0x12
 10037 027e 000025B8 		.4byte	.LASF33
 10038 0282 0E       		.byte	0xe
 10039 0283 38       		.byte	0x38
 10040 0284 0000006B 		.4byte	0x6b
 10041 0288 02       		.byte	0x2
 10042 0289 23       		.byte	0x23
 10043 028a 08       		.uleb128 0x8
 10044 028b 12       		.uleb128 0x12
 10045 028c 0000276B 		.4byte	.LASF34
 10046 0290 0E       		.byte	0xe
 10047 0291 39       		.byte	0x39
 10048 0292 0000006B 		.4byte	0x6b
 10049 0296 02       		.byte	0x2
 10050 0297 23       		.byte	0x23
 10051 0298 0C       		.uleb128 0xc
 10052 0299 12       		.uleb128 0x12
 10053 029a 00002AFB 		.4byte	.LASF35
 10054 029e 0E       		.byte	0xe
 10055 029f 3A       		.byte	0x3a
 10056 02a0 0000006B 		.4byte	0x6b
 10057 02a4 02       		.byte	0x2
 10058 02a5 23       		.byte	0x23
 10059 02a6 10       		.uleb128 0x10
 10060 02a7 12       		.uleb128 0x12
 10061 02a8 0000190B 		.4byte	.LASF36
 10062 02ac 0E       		.byte	0xe
 10063 02ad 3B       		.byte	0x3b
 10064 02ae 0000006B 		.4byte	0x6b
 10065 02b2 02       		.byte	0x2
 10066 02b3 23       		.byte	0x23
 10067 02b4 14       		.uleb128 0x14
 10068 02b5 12       		.uleb128 0x12
 10069 02b6 00001467 		.4byte	.LASF37
 10070 02ba 0E       		.byte	0xe
 10071 02bb 3C       		.byte	0x3c
 10072 02bc 0000006B 		.4byte	0x6b
 10073 02c0 02       		.byte	0x2
 10074 02c1 23       		.byte	0x23
 10075 02c2 18       		.uleb128 0x18
 10076 02c3 12       		.uleb128 0x12
 10077 02c4 00001017 		.4byte	.LASF38
 10078 02c8 0E       		.byte	0xe
 10079 02c9 3D       		.byte	0x3d
 10080 02ca 0000006B 		.4byte	0x6b
 10081 02ce 02       		.byte	0x2
 10082 02cf 23       		.byte	0x23
 10083 02d0 1C       		.uleb128 0x1c
 10084 02d1 12       		.uleb128 0x12
 10085 02d2 00001471 		.4byte	.LASF39
 10086 02d6 0E       		.byte	0xe
 10087 02d7 3E       		.byte	0x3e
 10088 02d8 0000006B 		.4byte	0x6b
 10089 02dc 02       		.byte	0x2
 10090 02dd 23       		.byte	0x23
 10091 02de 20       		.uleb128 0x20
 10092 02df 00       		.byte	0x0
 10093 02e0 15       		.uleb128 0x15
 10094 02e1 00002AA4 		.4byte	.LASF40
 10095 02e5 0108     		.2byte	0x108
 10096 02e7 0E       		.byte	0xe
 10097 02e8 47       		.byte	0x47
 10098 02e9 00000329 		.4byte	0x329
 10099 02ed 12       		.uleb128 0x12
 10100 02ee 0000277F 		.4byte	.LASF41
 10101 02f2 0E       		.byte	0xe
 10102 02f3 48       		.byte	0x48
 10103 02f4 00000329 		.4byte	0x329
 10104 02f8 02       		.byte	0x2
 10105 02f9 23       		.byte	0x23
 10106 02fa 00       		.uleb128 0x0
 10107 02fb 12       		.uleb128 0x12
 10108 02fc 000013F2 		.4byte	.LASF42
 10109 0300 0E       		.byte	0xe
 10110 0301 49       		.byte	0x49
 10111 0302 00000329 		.4byte	0x329
 10112 0306 03       		.byte	0x3
 10113 0307 23       		.byte	0x23
 10114 0308 8001     		.uleb128 0x80
 10115 030a 12       		.uleb128 0x12
 10116 030b 00000364 		.4byte	.LASF43
 10117 030f 0E       		.byte	0xe
 10118 0310 4B       		.byte	0x4b
 10119 0311 000001CE 		.4byte	0x1ce
 10120 0315 03       		.byte	0x3
 10121 0316 23       		.byte	0x23
 10122 0317 8002     		.uleb128 0x100
 10123 0319 12       		.uleb128 0x12
 10124 031a 00004583 		.4byte	.LASF44
 10125 031e 0E       		.byte	0xe
 10126 031f 4E       		.byte	0x4e
 10127 0320 000001CE 		.4byte	0x1ce
 10128 0324 03       		.byte	0x3
 10129 0325 23       		.byte	0x23
 10130 0326 8402     		.uleb128 0x104
 10131 0328 00       		.byte	0x0
 10132 0329 08       		.uleb128 0x8
 10133 032a 000000C6 		.4byte	0xc6
 10134 032e 00000339 		.4byte	0x339
 10135 0332 09       		.uleb128 0x9
 10136 0333 000000AC 		.4byte	0xac
 10137 0337 1F       		.byte	0x1f
 10138 0338 00       		.byte	0x0
 10139 0339 15       		.uleb128 0x15
 10140 033a 0000025E 		.4byte	.LASF45
 10141 033e 0190     		.2byte	0x190
 10142 0340 0E       		.byte	0xe
 10143 0341 59       		.byte	0x59
 10144 0342 00000380 		.4byte	0x380
 10145 0346 12       		.uleb128 0x12
 10146 0347 0000283D 		.4byte	.LASF26
 10147 034b 0E       		.byte	0xe
 10148 034c 5A       		.byte	0x5a
 10149 034d 00000380 		.4byte	0x380
 10150 0351 02       		.byte	0x2
 10151 0352 23       		.byte	0x23
 10152 0353 00       		.uleb128 0x0
 10153 0354 12       		.uleb128 0x12
 10154 0355 0000038A 		.4byte	.LASF46
 10155 0359 0E       		.byte	0xe
 10156 035a 5B       		.byte	0x5b
 10157 035b 0000006B 		.4byte	0x6b
 10158 035f 02       		.byte	0x2
 10159 0360 23       		.byte	0x23
 10160 0361 04       		.uleb128 0x4
 10161 0362 12       		.uleb128 0x12
 10162 0363 000042A2 		.4byte	.LASF47
 10163 0367 0E       		.byte	0xe
 10164 0368 5D       		.byte	0x5d
 10165 0369 00000386 		.4byte	0x386
 10166 036d 02       		.byte	0x2
 10167 036e 23       		.byte	0x23
 10168 036f 08       		.uleb128 0x8
 10169 0370 12       		.uleb128 0x12
 10170 0371 00002AA4 		.4byte	.LASF40
 10171 0375 0E       		.byte	0xe
 10172 0376 5E       		.byte	0x5e
 10173 0377 000002E0 		.4byte	0x2e0
 10174 037b 03       		.byte	0x3
 10175 037c 23       		.byte	0x23
 10176 037d 8801     		.uleb128 0x88
 10177 037f 00       		.byte	0x0
 10178 0380 05       		.uleb128 0x5
 10179 0381 04       		.byte	0x4
 10180 0382 00000339 		.4byte	0x339
 10181 0386 08       		.uleb128 0x8
 10182 0387 000000A5 		.4byte	0xa5
 10183 038b 00000396 		.4byte	0x396
 10184 038f 09       		.uleb128 0x9
 10185 0390 000000AC 		.4byte	0xac
 10186 0394 1F       		.byte	0x1f
 10187 0395 00       		.byte	0x0
 10188 0396 13       		.uleb128 0x13
 10189 0397 00003317 		.4byte	.LASF48
 10190 039b 08       		.byte	0x8
 10191 039c 0E       		.byte	0xe
 10192 039d 69       		.byte	0x69
 10193 039e 000003BF 		.4byte	0x3bf
 10194 03a2 12       		.uleb128 0x12
 10195 03a3 00000E62 		.4byte	.LASF49
 10196 03a7 0E       		.byte	0xe
 10197 03a8 6A       		.byte	0x6a
 10198 03a9 000003BF 		.4byte	0x3bf
 10199 03ad 02       		.byte	0x2
 10200 03ae 23       		.byte	0x23
 10201 03af 00       		.uleb128 0x0
 10202 03b0 12       		.uleb128 0x12
 10203 03b1 0000169A 		.4byte	.LASF50
 10204 03b5 0E       		.byte	0xe
 10205 03b6 6B       		.byte	0x6b
 10206 03b7 0000006B 		.4byte	0x6b
 10207 03bb 02       		.byte	0x2
 10208 03bc 23       		.byte	0x23
 10209 03bd 04       		.uleb128 0x4
 10210 03be 00       		.byte	0x0
 10211 03bf 05       		.uleb128 0x5
 10212 03c0 04       		.byte	0x4
 10213 03c1 0000002B 		.4byte	0x2b
 10214 03c5 13       		.uleb128 0x13
 10215 03c6 0000428D 		.4byte	.LASF51
 10216 03ca 5C       		.byte	0x5c
 10217 03cb 0E       		.byte	0xe
 10218 03cc 9E       		.byte	0x9e
 10219 03cd 00000503 		.4byte	0x503
 10220 03d1 14       		.uleb128 0x14
 10221 03d2 5F7000   		.string	"_p"
 10222 03d5 0E       		.byte	0xe
 10223 03d6 9F       		.byte	0x9f
 10224 03d7 000003BF 		.4byte	0x3bf
 10225 03db 02       		.byte	0x2
 10226 03dc 23       		.byte	0x23
 10227 03dd 00       		.uleb128 0x0
 10228 03de 14       		.uleb128 0x14
 10229 03df 5F7200   		.string	"_r"
 10230 03e2 0E       		.byte	0xe
 10231 03e3 A0       		.byte	0xa0
 10232 03e4 0000006B 		.4byte	0x6b
 10233 03e8 02       		.byte	0x2
 10234 03e9 23       		.byte	0x23
 10235 03ea 04       		.uleb128 0x4
 10236 03eb 14       		.uleb128 0x14
 10237 03ec 5F7700   		.string	"_w"
 10238 03ef 0E       		.byte	0xe
 10239 03f0 A1       		.byte	0xa1
 10240 03f1 0000006B 		.4byte	0x6b
 10241 03f5 02       		.byte	0x2
 10242 03f6 23       		.byte	0x23
 10243 03f7 08       		.uleb128 0x8
 10244 03f8 12       		.uleb128 0x12
 10245 03f9 0000054D 		.4byte	.LASF52
 10246 03fd 0E       		.byte	0xe
 10247 03fe A2       		.byte	0xa2
 10248 03ff 00000064 		.4byte	0x64
 10249 0403 02       		.byte	0x2
 10250 0404 23       		.byte	0x23
 10251 0405 0C       		.uleb128 0xc
 10252 0406 12       		.uleb128 0x12
 10253 0407 000041FA 		.4byte	.LASF53
 10254 040b 0E       		.byte	0xe
 10255 040c A3       		.byte	0xa3
 10256 040d 00000064 		.4byte	0x64
 10257 0411 02       		.byte	0x2
 10258 0412 23       		.byte	0x23
 10259 0413 0E       		.uleb128 0xe
 10260 0414 14       		.uleb128 0x14
 10261 0415 5F626600 		.string	"_bf"
 10262 0419 0E       		.byte	0xe
 10263 041a A4       		.byte	0xa4
 10264 041b 00000396 		.4byte	0x396
 10265 041f 02       		.byte	0x2
 10266 0420 23       		.byte	0x23
 10267 0421 10       		.uleb128 0x10
 10268 0422 12       		.uleb128 0x12
 10269 0423 00000BEB 		.4byte	.LASF54
 10270 0427 0E       		.byte	0xe
 10271 0428 A5       		.byte	0xa5
 10272 0429 0000006B 		.4byte	0x6b
 10273 042d 02       		.byte	0x2
 10274 042e 23       		.byte	0x23
 10275 042f 18       		.uleb128 0x18
 10276 0430 12       		.uleb128 0x12
 10277 0431 0000289B 		.4byte	.LASF55
 10278 0435 0E       		.byte	0xe
 10279 0436 AC       		.byte	0xac
 10280 0437 000000C6 		.4byte	0xc6
 10281 043b 02       		.byte	0x2
 10282 043c 23       		.byte	0x23
 10283 043d 1C       		.uleb128 0x1c
 10284 043e 12       		.uleb128 0x12
 10285 043f 000052C0 		.4byte	.LASF56
 10286 0443 0E       		.byte	0xe
 10287 0444 AE       		.byte	0xae
 10288 0445 000007FB 		.4byte	0x7fb
 10289 0449 02       		.byte	0x2
 10290 044a 23       		.byte	0x23
 10291 044b 20       		.uleb128 0x20
 10292 044c 12       		.uleb128 0x12
 10293 044d 00001779 		.4byte	.LASF57
 10294 0451 0E       		.byte	0xe
 10295 0452 B0       		.byte	0xb0
 10296 0453 0000082A 		.4byte	0x82a
 10297 0457 02       		.byte	0x2
 10298 0458 23       		.byte	0x23
 10299 0459 24       		.uleb128 0x24
 10300 045a 12       		.uleb128 0x12
 10301 045b 00002F9D 		.4byte	.LASF58
 10302 045f 0E       		.byte	0xe
 10303 0460 B2       		.byte	0xb2
 10304 0461 0000084E 		.4byte	0x84e
 10305 0465 02       		.byte	0x2
 10306 0466 23       		.byte	0x23
 10307 0467 28       		.uleb128 0x28
 10308 0468 12       		.uleb128 0x12
 10309 0469 00003ABA 		.4byte	.LASF59
 10310 046d 0E       		.byte	0xe
 10311 046e B3       		.byte	0xb3
 10312 046f 00000868 		.4byte	0x868
 10313 0473 02       		.byte	0x2
 10314 0474 23       		.byte	0x23
 10315 0475 2C       		.uleb128 0x2c
 10316 0476 14       		.uleb128 0x14
 10317 0477 5F756200 		.string	"_ub"
 10318 047b 0E       		.byte	0xe
 10319 047c B6       		.byte	0xb6
 10320 047d 00000396 		.4byte	0x396
 10321 0481 02       		.byte	0x2
 10322 0482 23       		.byte	0x23
 10323 0483 30       		.uleb128 0x30
 10324 0484 14       		.uleb128 0x14
 10325 0485 5F757000 		.string	"_up"
 10326 0489 0E       		.byte	0xe
 10327 048a B7       		.byte	0xb7
 10328 048b 000003BF 		.4byte	0x3bf
 10329 048f 02       		.byte	0x2
 10330 0490 23       		.byte	0x23
 10331 0491 38       		.uleb128 0x38
 10332 0492 14       		.uleb128 0x14
 10333 0493 5F757200 		.string	"_ur"
 10334 0497 0E       		.byte	0xe
 10335 0498 B8       		.byte	0xb8
 10336 0499 0000006B 		.4byte	0x6b
 10337 049d 02       		.byte	0x2
 10338 049e 23       		.byte	0x23
 10339 049f 3C       		.uleb128 0x3c
 10340 04a0 12       		.uleb128 0x12
 10341 04a1 000040BA 		.4byte	.LASF60
 10342 04a5 0E       		.byte	0xe
 10343 04a6 BB       		.byte	0xbb
 10344 04a7 0000086E 		.4byte	0x86e
 10345 04ab 02       		.byte	0x2
 10346 04ac 23       		.byte	0x23
 10347 04ad 40       		.uleb128 0x40
 10348 04ae 12       		.uleb128 0x12
 10349 04af 00000761 		.4byte	.LASF61
 10350 04b3 0E       		.byte	0xe
 10351 04b4 BC       		.byte	0xbc
 10352 04b5 0000087E 		.4byte	0x87e
 10353 04b9 02       		.byte	0x2
 10354 04ba 23       		.byte	0x23
 10355 04bb 43       		.uleb128 0x43
 10356 04bc 14       		.uleb128 0x14
 10357 04bd 5F6C6200 		.string	"_lb"
 10358 04c1 0E       		.byte	0xe
 10359 04c2 BF       		.byte	0xbf
 10360 04c3 00000396 		.4byte	0x396
 10361 04c7 02       		.byte	0x2
 10362 04c8 23       		.byte	0x23
 10363 04c9 44       		.uleb128 0x44
 10364 04ca 12       		.uleb128 0x12
 10365 04cb 0000407D 		.4byte	.LASF62
 10366 04cf 0E       		.byte	0xe
 10367 04d0 C2       		.byte	0xc2
 10368 04d1 0000006B 		.4byte	0x6b
 10369 04d5 02       		.byte	0x2
 10370 04d6 23       		.byte	0x23
 10371 04d7 4C       		.uleb128 0x4c
 10372 04d8 12       		.uleb128 0x12
 10373 04d9 00003265 		.4byte	.LASF63
 10374 04dd 0E       		.byte	0xe
 10375 04de C3       		.byte	0xc3
 10376 04df 0000006B 		.4byte	0x6b
 10377 04e3 02       		.byte	0x2
 10378 04e4 23       		.byte	0x23
 10379 04e5 50       		.uleb128 0x50
 10380 04e6 12       		.uleb128 0x12
 10381 04e7 00000C88 		.4byte	.LASF64
 10382 04eb 0E       		.byte	0xe
 10383 04ec C6       		.byte	0xc6
 10384 04ed 00000521 		.4byte	0x521
 10385 04f1 02       		.byte	0x2
 10386 04f2 23       		.byte	0x23
 10387 04f3 54       		.uleb128 0x54
 10388 04f4 12       		.uleb128 0x12
 10389 04f5 0000075B 		.4byte	.LASF65
 10390 04f9 0E       		.byte	0xe
 10391 04fa CA       		.byte	0xca
 10392 04fb 000001C3 		.4byte	0x1c3
 10393 04ff 02       		.byte	0x2
 10394 0500 23       		.byte	0x23
 10395 0501 58       		.uleb128 0x58
 10396 0502 00       		.byte	0x0
 10397 0503 16       		.uleb128 0x16
 10398 0504 0000006B 		.4byte	0x6b
 10399 0508 00000521 		.4byte	0x521
 10400 050c 17       		.uleb128 0x17
 10401 050d 00000521 		.4byte	0x521
 10402 0511 17       		.uleb128 0x17
 10403 0512 000000C6 		.4byte	0xc6
 10404 0516 17       		.uleb128 0x17
 10405 0517 00000092 		.4byte	0x92
 10406 051b 17       		.uleb128 0x17
 10407 051c 0000006B 		.4byte	0x6b
 10408 0520 00       		.byte	0x0
 10409 0521 05       		.uleb128 0x5
 10410 0522 04       		.byte	0x4
 10411 0523 00000527 		.4byte	0x527
 10412 0527 18       		.uleb128 0x18
 10413 0528 00000D8E 		.4byte	.LASF66
 10414 052c 0400     		.2byte	0x400
 10415 052e 0E       		.byte	0xe
 10416 052f 0235     		.2byte	0x235
 10417 0531 000007FB 		.4byte	0x7fb
 10418 0535 19       		.uleb128 0x19
 10419 0536 2E5F3800 		.string	"._8"
 10420 053a F0       		.byte	0xf0
 10421 053b 0E       		.byte	0xe
 10422 053c 0252     		.2byte	0x252
 10423 053e 000006AB 		.4byte	0x6ab
 10424 0542 1A       		.uleb128 0x1a
 10425 0543 2E5F3900 		.string	"._9"
 10426 0547 D0       		.byte	0xd0
 10427 0548 0E       		.byte	0xe
 10428 0549 0254     		.2byte	0x254
 10429 054b 00000666 		.4byte	0x666
 10430 054f 1B       		.uleb128 0x1b
 10431 0550 0000116E 		.4byte	.LASF67
 10432 0554 0E       		.byte	0xe
 10433 0555 0255     		.2byte	0x255
 10434 0557 00000044 		.4byte	0x44
 10435 055b 02       		.byte	0x2
 10436 055c 23       		.byte	0x23
 10437 055d 00       		.uleb128 0x0
 10438 055e 1B       		.uleb128 0x1b
 10439 055f 00002E7C 		.4byte	.LASF68
 10440 0563 0E       		.byte	0xe
 10441 0564 0256     		.2byte	0x256
 10442 0566 00000092 		.4byte	0x92
 10443 056a 02       		.byte	0x2
 10444 056b 23       		.byte	0x23
 10445 056c 04       		.uleb128 0x4
 10446 056d 1B       		.uleb128 0x1b
 10447 056e 00003465 		.4byte	.LASF69
 10448 0572 0E       		.byte	0xe
 10449 0573 0257     		.2byte	0x257
 10450 0575 0000092C 		.4byte	0x92c
 10451 0579 02       		.byte	0x2
 10452 057a 23       		.byte	0x23
 10453 057b 08       		.uleb128 0x8
 10454 057c 1B       		.uleb128 0x1b
 10455 057d 0000220A 		.4byte	.LASF70
 10456 0581 0E       		.byte	0xe
 10457 0582 0258     		.2byte	0x258
 10458 0584 00000255 		.4byte	0x255
 10459 0588 02       		.byte	0x2
 10460 0589 23       		.byte	0x23
 10461 058a 24       		.uleb128 0x24
 10462 058b 1B       		.uleb128 0x1b
 10463 058c 0000480C 		.4byte	.LASF71
 10464 0590 0E       		.byte	0xe
 10465 0591 0259     		.2byte	0x259
 10466 0593 0000006B 		.4byte	0x6b
 10467 0597 02       		.byte	0x2
 10468 0598 23       		.byte	0x23
 10469 0599 48       		.uleb128 0x48
 10470 059a 1B       		.uleb128 0x1b
 10471 059b 0000378A 		.4byte	.LASF72
 10472 059f 0E       		.byte	0xe
 10473 05a0 025A     		.2byte	0x25a
 10474 05a2 0000004B 		.4byte	0x4b
 10475 05a6 02       		.byte	0x2
 10476 05a7 23       		.byte	0x23
 10477 05a8 50       		.uleb128 0x50
 10478 05a9 1B       		.uleb128 0x1b
 10479 05aa 0000517A 		.4byte	.LASF73
 10480 05ae 0E       		.byte	0xe
 10481 05af 025B     		.2byte	0x25b
 10482 05b1 000008E1 		.4byte	0x8e1
 10483 05b5 02       		.byte	0x2
 10484 05b6 23       		.byte	0x23
 10485 05b7 58       		.uleb128 0x58
 10486 05b8 1B       		.uleb128 0x1b
 10487 05b9 000040CC 		.4byte	.LASF74
 10488 05bd 0E       		.byte	0xe
 10489 05be 025C     		.2byte	0x25c
 10490 05c0 00000167 		.4byte	0x167
 10491 05c4 02       		.byte	0x2
 10492 05c5 23       		.byte	0x23
 10493 05c6 68       		.uleb128 0x68
 10494 05c7 1B       		.uleb128 0x1b
 10495 05c8 00000E8D 		.4byte	.LASF75
 10496 05cc 0E       		.byte	0xe
 10497 05cd 025D     		.2byte	0x25d
 10498 05cf 00000167 		.4byte	0x167
 10499 05d3 02       		.byte	0x2
 10500 05d4 23       		.byte	0x23
 10501 05d5 70       		.uleb128 0x70
 10502 05d6 1B       		.uleb128 0x1b
 10503 05d7 000035A6 		.4byte	.LASF76
 10504 05db 0E       		.byte	0xe
 10505 05dc 025E     		.2byte	0x25e
 10506 05de 00000167 		.4byte	0x167
 10507 05e2 02       		.byte	0x2
 10508 05e3 23       		.byte	0x23
 10509 05e4 78       		.uleb128 0x78
 10510 05e5 1B       		.uleb128 0x1b
 10511 05e6 00003336 		.4byte	.LASF77
 10512 05ea 0E       		.byte	0xe
 10513 05eb 025F     		.2byte	0x25f
 10514 05ed 0000093C 		.4byte	0x93c
 10515 05f1 03       		.byte	0x3
 10516 05f2 23       		.byte	0x23
 10517 05f3 8001     		.uleb128 0x80
 10518 05f5 1B       		.uleb128 0x1b
 10519 05f6 00002879 		.4byte	.LASF78
 10520 05fa 0E       		.byte	0xe
 10521 05fb 0260     		.2byte	0x260
 10522 05fd 0000094C 		.4byte	0x94c
 10523 0601 03       		.byte	0x3
 10524 0602 23       		.byte	0x23
 10525 0603 8801     		.uleb128 0x88
 10526 0605 1B       		.uleb128 0x1b
 10527 0606 00003F21 		.4byte	.LASF79
 10528 060a 0E       		.byte	0xe
 10529 060b 0261     		.2byte	0x261
 10530 060d 0000006B 		.4byte	0x6b
 10531 0611 03       		.byte	0x3
 10532 0612 23       		.byte	0x23
 10533 0613 A001     		.uleb128 0xa0
 10534 0615 1B       		.uleb128 0x1b
 10535 0616 00001BEF 		.4byte	.LASF80
 10536 061a 0E       		.byte	0xe
 10537 061b 0262     		.2byte	0x262
 10538 061d 00000167 		.4byte	0x167
 10539 0621 03       		.byte	0x3
 10540 0622 23       		.byte	0x23
 10541 0623 A401     		.uleb128 0xa4
 10542 0625 1B       		.uleb128 0x1b
 10543 0626 0000259D 		.4byte	.LASF81
 10544 062a 0E       		.byte	0xe
 10545 062b 0263     		.2byte	0x263
 10546 062d 00000167 		.4byte	0x167
 10547 0631 03       		.byte	0x3
 10548 0632 23       		.byte	0x23
 10549 0633 AC01     		.uleb128 0xac
 10550 0635 1B       		.uleb128 0x1b
 10551 0636 00001582 		.4byte	.LASF82
 10552 063a 0E       		.byte	0xe
 10553 063b 0264     		.2byte	0x264
 10554 063d 00000167 		.4byte	0x167
 10555 0641 03       		.byte	0x3
 10556 0642 23       		.byte	0x23
 10557 0643 B401     		.uleb128 0xb4
 10558 0645 1B       		.uleb128 0x1b
 10559 0646 00002AE4 		.4byte	.LASF83
 10560 064a 0E       		.byte	0xe
 10561 064b 0265     		.2byte	0x265
 10562 064d 00000167 		.4byte	0x167
 10563 0651 03       		.byte	0x3
 10564 0652 23       		.byte	0x23
 10565 0653 BC01     		.uleb128 0xbc
 10566 0655 1B       		.uleb128 0x1b
 10567 0656 000034B7 		.4byte	.LASF84
 10568 065a 0E       		.byte	0xe
 10569 065b 0266     		.2byte	0x266
 10570 065d 00000167 		.4byte	0x167
 10571 0661 03       		.byte	0x3
 10572 0662 23       		.byte	0x23
 10573 0663 C401     		.uleb128 0xc4
 10574 0665 00       		.byte	0x0
 10575 0666 0B       		.uleb128 0xb
 10576 0667 000028BB 		.4byte	.LASF85
 10577 066b F0       		.byte	0xf0
 10578 066c 0E       		.byte	0xe
 10579 066d 026C     		.2byte	0x26c
 10580 066f 00000692 		.4byte	0x692
 10581 0673 1B       		.uleb128 0x1b
 10582 0674 00003783 		.4byte	.LASF86
 10583 0678 0E       		.byte	0xe
 10584 0679 026E     		.2byte	0x26e
 10585 067b 0000095C 		.4byte	0x95c
 10586 067f 02       		.byte	0x2
 10587 0680 23       		.byte	0x23
 10588 0681 00       		.uleb128 0x0
 10589 0682 1B       		.uleb128 0x1b
 10590 0683 00001DD6 		.4byte	.LASF87
 10591 0687 0E       		.byte	0xe
 10592 0688 026F     		.2byte	0x26f
 10593 068a 0000096C 		.4byte	0x96c
 10594 068e 02       		.byte	0x2
 10595 068f 23       		.byte	0x23
 10596 0690 78       		.uleb128 0x78
 10597 0691 00       		.byte	0x0
 10598 0692 1C       		.uleb128 0x1c
 10599 0693 00000D8E 		.4byte	.LASF66
 10600 0697 0E       		.byte	0xe
 10601 0698 0267     		.2byte	0x267
 10602 069a 00000542 		.4byte	0x542
 10603 069e 1C       		.uleb128 0x1c
 10604 069f 000007B5 		.4byte	.LASF88
 10605 06a3 0E       		.byte	0xe
 10606 06a4 0270     		.2byte	0x270
 10607 06a6 00000666 		.4byte	0x666
 10608 06aa 00       		.byte	0x0
 10609 06ab 1B       		.uleb128 0x1b
 10610 06ac 0000274C 		.4byte	.LASF89
 10611 06b0 0E       		.byte	0xe
 10612 06b1 0236     		.2byte	0x236
 10613 06b3 0000006B 		.4byte	0x6b
 10614 06b7 02       		.byte	0x2
 10615 06b8 23       		.byte	0x23
 10616 06b9 00       		.uleb128 0x0
 10617 06ba 1B       		.uleb128 0x1b
 10618 06bb 00001CF9 		.4byte	.LASF90
 10619 06bf 0E       		.byte	0xe
 10620 06c0 023B     		.2byte	0x23b
 10621 06c2 000008DB 		.4byte	0x8db
 10622 06c6 02       		.byte	0x2
 10623 06c7 23       		.byte	0x23
 10624 06c8 04       		.uleb128 0x4
 10625 06c9 1B       		.uleb128 0x1b
 10626 06ca 000014D5 		.4byte	.LASF91
 10627 06ce 0E       		.byte	0xe
 10628 06cf 023B     		.2byte	0x23b
 10629 06d1 000008DB 		.4byte	0x8db
 10630 06d5 02       		.byte	0x2
 10631 06d6 23       		.byte	0x23
 10632 06d7 08       		.uleb128 0x8
 10633 06d8 1B       		.uleb128 0x1b
 10634 06d9 0000137A 		.4byte	.LASF92
 10635 06dd 0E       		.byte	0xe
 10636 06de 023B     		.2byte	0x23b
 10637 06e0 000008DB 		.4byte	0x8db
 10638 06e4 02       		.byte	0x2
 10639 06e5 23       		.byte	0x23
 10640 06e6 0C       		.uleb128 0xc
 10641 06e7 1B       		.uleb128 0x1b
 10642 06e8 00000385 		.4byte	.LASF93
 10643 06ec 0E       		.byte	0xe
 10644 06ed 023D     		.2byte	0x23d
 10645 06ef 0000006B 		.4byte	0x6b
 10646 06f3 02       		.byte	0x2
 10647 06f4 23       		.byte	0x23
 10648 06f5 10       		.uleb128 0x10
 10649 06f6 1B       		.uleb128 0x1b
 10650 06f7 0000373F 		.4byte	.LASF94
 10651 06fb 0E       		.byte	0xe
 10652 06fc 023E     		.2byte	0x23e
 10653 06fe 0000097C 		.4byte	0x97c
 10654 0702 02       		.byte	0x2
 10655 0703 23       		.byte	0x23
 10656 0704 14       		.uleb128 0x14
 10657 0705 1B       		.uleb128 0x1b
 10658 0706 000048FD 		.4byte	.LASF95
 10659 070a 0E       		.byte	0xe
 10660 070b 0240     		.2byte	0x240
 10661 070d 0000006B 		.4byte	0x6b
 10662 0711 02       		.byte	0x2
 10663 0712 23       		.byte	0x23
 10664 0713 30       		.uleb128 0x30
 10665 0714 1B       		.uleb128 0x1b
 10666 0715 000008A0 		.4byte	.LASF96
 10667 0719 0E       		.byte	0xe
 10668 071a 0241     		.2byte	0x241
 10669 071c 0000081F 		.4byte	0x81f
 10670 0720 02       		.byte	0x2
 10671 0721 23       		.byte	0x23
 10672 0722 34       		.uleb128 0x34
 10673 0723 1B       		.uleb128 0x1b
 10674 0724 00004B85 		.4byte	.LASF97
 10675 0728 0E       		.byte	0xe
 10676 0729 0243     		.2byte	0x243
 10677 072b 0000006B 		.4byte	0x6b
 10678 072f 02       		.byte	0x2
 10679 0730 23       		.byte	0x23
 10680 0731 38       		.uleb128 0x38
 10681 0732 1B       		.uleb128 0x1b
 10682 0733 00004169 		.4byte	.LASF98
 10683 0737 0E       		.byte	0xe
 10684 0738 0245     		.2byte	0x245
 10685 073a 00000997 		.4byte	0x997
 10686 073e 02       		.byte	0x2
 10687 073f 23       		.byte	0x23
 10688 0740 3C       		.uleb128 0x3c
 10689 0741 1B       		.uleb128 0x1b
 10690 0742 00001382 		.4byte	.LASF99
 10691 0746 0E       		.byte	0xe
 10692 0747 0248     		.2byte	0x248
 10693 0749 0000023F 		.4byte	0x23f
 10694 074d 02       		.byte	0x2
 10695 074e 23       		.byte	0x23
 10696 074f 40       		.uleb128 0x40
 10697 0750 1B       		.uleb128 0x1b
 10698 0751 00001362 		.4byte	.LASF100
 10699 0755 0E       		.byte	0xe
 10700 0756 0249     		.2byte	0x249
 10701 0758 0000006B 		.4byte	0x6b
 10702 075c 02       		.byte	0x2
 10703 075d 23       		.byte	0x23
 10704 075e 44       		.uleb128 0x44
 10705 075f 1B       		.uleb128 0x1b
 10706 0760 000045F5 		.4byte	.LASF101
 10707 0764 0E       		.byte	0xe
 10708 0765 024A     		.2byte	0x24a
 10709 0767 0000023F 		.4byte	0x23f
 10710 076b 02       		.byte	0x2
 10711 076c 23       		.byte	0x23
 10712 076d 48       		.uleb128 0x48
 10713 076e 1B       		.uleb128 0x1b
 10714 076f 0000313F 		.4byte	.LASF102
 10715 0773 0E       		.byte	0xe
 10716 0774 024B     		.2byte	0x24b
 10717 0776 0000099D 		.4byte	0x99d
 10718 077a 02       		.byte	0x2
 10719 077b 23       		.byte	0x23
 10720 077c 4C       		.uleb128 0x4c
 10721 077d 1B       		.uleb128 0x1b
 10722 077e 000005A9 		.4byte	.LASF103
 10723 0782 0E       		.byte	0xe
 10724 0783 024E     		.2byte	0x24e
 10725 0785 0000006B 		.4byte	0x6b
 10726 0789 02       		.byte	0x2
 10727 078a 23       		.byte	0x23
 10728 078b 50       		.uleb128 0x50
 10729 078c 1B       		.uleb128 0x1b
 10730 078d 00002410 		.4byte	.LASF104
 10731 0791 0E       		.byte	0xe
 10732 0792 024F     		.2byte	0x24f
 10733 0794 00000092 		.4byte	0x92
 10734 0798 02       		.byte	0x2
 10735 0799 23       		.byte	0x23
 10736 079a 54       		.uleb128 0x54
 10737 079b 1B       		.uleb128 0x1b
 10738 079c 00002694 		.4byte	.LASF105
 10739 07a0 0E       		.byte	0xe
 10740 07a1 0271     		.2byte	0x271
 10741 07a3 00000535 		.4byte	0x535
 10742 07a7 02       		.byte	0x2
 10743 07a8 23       		.byte	0x23
 10744 07a9 58       		.uleb128 0x58
 10745 07aa 1B       		.uleb128 0x1b
 10746 07ab 0000025E 		.4byte	.LASF45
 10747 07af 0E       		.byte	0xe
 10748 07b0 0274     		.2byte	0x274
 10749 07b2 00000380 		.4byte	0x380
 10750 07b6 03       		.byte	0x3
 10751 07b7 23       		.byte	0x23
 10752 07b8 C802     		.uleb128 0x148
 10753 07ba 1B       		.uleb128 0x1b
 10754 07bb 00003E68 		.4byte	.LASF106
 10755 07bf 0E       		.byte	0xe
 10756 07c0 0275     		.2byte	0x275
 10757 07c2 00000339 		.4byte	0x339
 10758 07c6 03       		.byte	0x3
 10759 07c7 23       		.byte	0x23
 10760 07c8 CC02     		.uleb128 0x14c
 10761 07ca 1B       		.uleb128 0x1b
 10762 07cb 0000069F 		.4byte	.LASF107
 10763 07cf 0E       		.byte	0xe
 10764 07d0 0278     		.2byte	0x278
 10765 07d2 000009AE 		.4byte	0x9ae
 10766 07d6 03       		.byte	0x3
 10767 07d7 23       		.byte	0x23
 10768 07d8 DC05     		.uleb128 0x2dc
 10769 07da 1B       		.uleb128 0x1b
 10770 07db 000040D9 		.4byte	.LASF108
 10771 07df 0E       		.byte	0xe
 10772 07e0 027D     		.2byte	0x27d
 10773 07e2 0000089A 		.4byte	0x89a
 10774 07e6 03       		.byte	0x3
 10775 07e7 23       		.byte	0x23
 10776 07e8 E005     		.uleb128 0x2e0
 10777 07ea 1B       		.uleb128 0x1b
 10778 07eb 00000DBF 		.4byte	.LASF109
 10779 07ef 0E       		.byte	0xe
 10780 07f0 027E     		.2byte	0x27e
 10781 07f2 000009BA 		.4byte	0x9ba
 10782 07f6 03       		.byte	0x3
 10783 07f7 23       		.byte	0x23
 10784 07f8 EC05     		.uleb128 0x2ec
 10785 07fa 00       		.byte	0x0
 10786 07fb 05       		.uleb128 0x5
 10787 07fc 04       		.byte	0x4
 10788 07fd 00000503 		.4byte	0x503
 10789 0801 16       		.uleb128 0x16
 10790 0802 0000006B 		.4byte	0x6b
 10791 0806 0000081F 		.4byte	0x81f
 10792 080a 17       		.uleb128 0x17
 10793 080b 00000521 		.4byte	0x521
 10794 080f 17       		.uleb128 0x17
 10795 0810 000000C6 		.4byte	0xc6
 10796 0814 17       		.uleb128 0x17
 10797 0815 0000081F 		.4byte	0x81f
 10798 0819 17       		.uleb128 0x17
 10799 081a 0000006B 		.4byte	0x6b
 10800 081e 00       		.byte	0x0
 10801 081f 05       		.uleb128 0x5
 10802 0820 04       		.byte	0x4
 10803 0821 00000825 		.4byte	0x825
 10804 0825 1D       		.uleb128 0x1d
 10805 0826 00000098 		.4byte	0x98
 10806 082a 05       		.uleb128 0x5
 10807 082b 04       		.byte	0x4
 10808 082c 00000801 		.4byte	0x801
 10809 0830 16       		.uleb128 0x16
 10810 0831 00000145 		.4byte	0x145
 10811 0835 0000084E 		.4byte	0x84e
 10812 0839 17       		.uleb128 0x17
 10813 083a 00000521 		.4byte	0x521
 10814 083e 17       		.uleb128 0x17
 10815 083f 000000C6 		.4byte	0xc6
 10816 0843 17       		.uleb128 0x17
 10817 0844 00000145 		.4byte	0x145
 10818 0848 17       		.uleb128 0x17
 10819 0849 0000006B 		.4byte	0x6b
 10820 084d 00       		.byte	0x0
 10821 084e 05       		.uleb128 0x5
 10822 084f 04       		.byte	0x4
 10823 0850 00000830 		.4byte	0x830
 10824 0854 16       		.uleb128 0x16
 10825 0855 0000006B 		.4byte	0x6b
 10826 0859 00000868 		.4byte	0x868
 10827 085d 17       		.uleb128 0x17
 10828 085e 00000521 		.4byte	0x521
 10829 0862 17       		.uleb128 0x17
 10830 0863 000000C6 		.4byte	0xc6
 10831 0867 00       		.byte	0x0
 10832 0868 05       		.uleb128 0x5
 10833 0869 04       		.byte	0x4
 10834 086a 00000854 		.4byte	0x854
 10835 086e 08       		.uleb128 0x8
 10836 086f 0000002B 		.4byte	0x2b
 10837 0873 0000087E 		.4byte	0x87e
 10838 0877 09       		.uleb128 0x9
 10839 0878 000000AC 		.4byte	0xac
 10840 087c 02       		.byte	0x2
 10841 087d 00       		.byte	0x0
 10842 087e 08       		.uleb128 0x8
 10843 087f 0000002B 		.4byte	0x2b
 10844 0883 0000088E 		.4byte	0x88e
 10845 0887 09       		.uleb128 0x9
 10846 0888 000000AC 		.4byte	0xac
 10847 088c 00       		.byte	0x0
 10848 088d 00       		.byte	0x0
 10849 088e 0D       		.uleb128 0xd
 10850 088f 000042B3 		.4byte	.LASF110
 10851 0893 0E       		.byte	0xe
 10852 0894 0103     		.2byte	0x103
 10853 0896 000003C5 		.4byte	0x3c5
 10854 089a 0B       		.uleb128 0xb
 10855 089b 00003B7D 		.4byte	.LASF111
 10856 089f 0C       		.byte	0xc
 10857 08a0 0E       		.byte	0xe
 10858 08a1 0108     		.2byte	0x108
 10859 08a3 000008D5 		.4byte	0x8d5
 10860 08a7 1B       		.uleb128 0x1b
 10861 08a8 0000283D 		.4byte	.LASF26
 10862 08ac 0E       		.byte	0xe
 10863 08ad 0109     		.2byte	0x109
 10864 08af 000008D5 		.4byte	0x8d5
 10865 08b3 02       		.byte	0x2
 10866 08b4 23       		.byte	0x23
 10867 08b5 00       		.uleb128 0x0
 10868 08b6 1B       		.uleb128 0x1b
 10869 08b7 000026B4 		.4byte	.LASF112
 10870 08bb 0E       		.byte	0xe
 10871 08bc 010A     		.2byte	0x10a
 10872 08be 0000006B 		.4byte	0x6b
 10873 08c2 02       		.byte	0x2
 10874 08c3 23       		.byte	0x23
 10875 08c4 04       		.uleb128 0x4
 10876 08c5 1B       		.uleb128 0x1b
 10877 08c6 00003739 		.4byte	.LASF113
 10878 08ca 0E       		.byte	0xe
 10879 08cb 010B     		.2byte	0x10b
 10880 08cd 000008DB 		.4byte	0x8db
 10881 08d1 02       		.byte	0x2
 10882 08d2 23       		.byte	0x23
 10883 08d3 08       		.uleb128 0x8
 10884 08d4 00       		.byte	0x0
 10885 08d5 05       		.uleb128 0x5
 10886 08d6 04       		.byte	0x4
 10887 08d7 0000089A 		.4byte	0x89a
 10888 08db 05       		.uleb128 0x5
 10889 08dc 04       		.byte	0x4
 10890 08dd 0000088E 		.4byte	0x88e
 10891 08e1 0B       		.uleb128 0xb
 10892 08e2 0000535C 		.4byte	.LASF114
 10893 08e6 0E       		.byte	0xe
 10894 08e7 0E       		.byte	0xe
 10895 08e8 0123     		.2byte	0x123
 10896 08ea 0000091C 		.4byte	0x91c
 10897 08ee 1B       		.uleb128 0x1b
 10898 08ef 00002F3E 		.4byte	.LASF115
 10899 08f3 0E       		.byte	0xe
 10900 08f4 0124     		.2byte	0x124
 10901 08f6 0000091C 		.4byte	0x91c
 10902 08fa 02       		.byte	0x2
 10903 08fb 23       		.byte	0x23
 10904 08fc 00       		.uleb128 0x0
 10905 08fd 1B       		.uleb128 0x1b
 10906 08fe 00001A83 		.4byte	.LASF116
 10907 0902 0E       		.byte	0xe
 10908 0903 0125     		.2byte	0x125
 10909 0905 0000091C 		.4byte	0x91c
 10910 0909 02       		.byte	0x2
 10911 090a 23       		.byte	0x23
 10912 090b 06       		.uleb128 0x6
 10913 090c 1B       		.uleb128 0x1b
 10914 090d 000009BF 		.4byte	.LASF117
 10915 0911 0E       		.byte	0xe
 10916 0912 0126     		.2byte	0x126
 10917 0914 00000032 		.4byte	0x32
 10918 0918 02       		.byte	0x2
 10919 0919 23       		.byte	0x23
 10920 091a 0C       		.uleb128 0xc
 10921 091b 00       		.byte	0x0
 10922 091c 08       		.uleb128 0x8
 10923 091d 00000032 		.4byte	0x32
 10924 0921 0000092C 		.4byte	0x92c
 10925 0925 09       		.uleb128 0x9
 10926 0926 000000AC 		.4byte	0xac
 10927 092a 02       		.byte	0x2
 10928 092b 00       		.byte	0x0
 10929 092c 08       		.uleb128 0x8
 10930 092d 00000098 		.4byte	0x98
 10931 0931 0000093C 		.4byte	0x93c
 10932 0935 09       		.uleb128 0x9
 10933 0936 000000AC 		.4byte	0xac
 10934 093a 19       		.byte	0x19
 10935 093b 00       		.byte	0x0
 10936 093c 08       		.uleb128 0x8
 10937 093d 00000098 		.4byte	0x98
 10938 0941 0000094C 		.4byte	0x94c
 10939 0945 09       		.uleb128 0x9
 10940 0946 000000AC 		.4byte	0xac
 10941 094a 07       		.byte	0x7
 10942 094b 00       		.byte	0x0
 10943 094c 08       		.uleb128 0x8
 10944 094d 00000098 		.4byte	0x98
 10945 0951 0000095C 		.4byte	0x95c
 10946 0955 09       		.uleb128 0x9
 10947 0956 000000AC 		.4byte	0xac
 10948 095a 17       		.byte	0x17
 10949 095b 00       		.byte	0x0
 10950 095c 08       		.uleb128 0x8
 10951 095d 000003BF 		.4byte	0x3bf
 10952 0961 0000096C 		.4byte	0x96c
 10953 0965 09       		.uleb128 0x9
 10954 0966 000000AC 		.4byte	0xac
 10955 096a 1D       		.byte	0x1d
 10956 096b 00       		.byte	0x0
 10957 096c 08       		.uleb128 0x8
 10958 096d 00000044 		.4byte	0x44
 10959 0971 0000097C 		.4byte	0x97c
 10960 0975 09       		.uleb128 0x9
 10961 0976 000000AC 		.4byte	0xac
 10962 097a 1D       		.byte	0x1d
 10963 097b 00       		.byte	0x0
 10964 097c 08       		.uleb128 0x8
 10965 097d 00000098 		.4byte	0x98
 10966 0981 0000098C 		.4byte	0x98c
 10967 0985 09       		.uleb128 0x9
 10968 0986 000000AC 		.4byte	0xac
 10969 098a 18       		.byte	0x18
 10970 098b 00       		.byte	0x0
 10971 098c 1E       		.uleb128 0x1e
 10972 098d 00000997 		.4byte	0x997
 10973 0991 17       		.uleb128 0x17
 10974 0992 00000521 		.4byte	0x521
 10975 0996 00       		.byte	0x0
 10976 0997 05       		.uleb128 0x5
 10977 0998 04       		.byte	0x4
 10978 0999 0000098C 		.4byte	0x98c
 10979 099d 05       		.uleb128 0x5
 10980 099e 04       		.byte	0x4
 10981 099f 0000023F 		.4byte	0x23f
 10982 09a3 1E       		.uleb128 0x1e
 10983 09a4 000009AE 		.4byte	0x9ae
 10984 09a8 17       		.uleb128 0x17
 10985 09a9 0000006B 		.4byte	0x6b
 10986 09ad 00       		.byte	0x0
 10987 09ae 05       		.uleb128 0x5
 10988 09af 04       		.byte	0x4
 10989 09b0 000009B4 		.4byte	0x9b4
 10990 09b4 05       		.uleb128 0x5
 10991 09b5 04       		.byte	0x4
 10992 09b6 000009A3 		.4byte	0x9a3
 10993 09ba 08       		.uleb128 0x8
 10994 09bb 0000088E 		.4byte	0x88e
 10995 09bf 000009CA 		.4byte	0x9ca
 10996 09c3 09       		.uleb128 0x9
 10997 09c4 000000AC 		.4byte	0xac
 10998 09c8 02       		.byte	0x2
 10999 09c9 00       		.byte	0x0
 11000 09ca 0E       		.uleb128 0xe
 11001 09cb 00002203 		.4byte	.LASF118
 11002 09cf 0C       		.byte	0xc
 11003 09d0 D6       		.byte	0xd6
 11004 09d1 00000044 		.4byte	0x44
 11005 09d5 03       		.uleb128 0x3
 11006 09d6 04       		.byte	0x4
 11007 09d7 05       		.byte	0x5
 11008 09d8 0000358D 		.4byte	.LASF119
 11009 09dc 0E       		.uleb128 0xe
 11010 09dd 00002EF7 		.4byte	.LASF120
 11011 09e1 0F       		.byte	0xf
 11012 09e2 68       		.byte	0x68
 11013 09e3 000001D9 		.4byte	0x1d9
 11014 09e7 0E       		.uleb128 0xe
 11015 09e8 00000546 		.4byte	.LASF121
 11016 09ec 0F       		.byte	0xf
 11017 09ed 6D       		.byte	0x6d
 11018 09ee 000009D5 		.4byte	0x9d5
 11019 09f2 0F       		.uleb128 0xf
 11020 09f3 746D00   		.string	"tm"
 11021 09f6 24       		.byte	0x24
 11022 09f7 10       		.byte	0x10
 11023 09f8 22       		.byte	0x22
 11024 09f9 00000A7C 		.4byte	0xa7c
 11025 09fd 12       		.uleb128 0x12
 11026 09fe 00000202 		.4byte	.LASF122
 11027 0a02 10       		.byte	0x10
 11028 0a03 23       		.byte	0x23
 11029 0a04 0000006B 		.4byte	0x6b
 11030 0a08 02       		.byte	0x2
 11031 0a09 23       		.byte	0x23
 11032 0a0a 00       		.uleb128 0x0
 11033 0a0b 12       		.uleb128 0x12
 11034 0a0c 00002BCE 		.4byte	.LASF123
 11035 0a10 10       		.byte	0x10
 11036 0a11 24       		.byte	0x24
 11037 0a12 0000006B 		.4byte	0x6b
 11038 0a16 02       		.byte	0x2
 11039 0a17 23       		.byte	0x23
 11040 0a18 04       		.uleb128 0x4
 11041 0a19 12       		.uleb128 0x12
 11042 0a1a 00003F12 		.4byte	.LASF124
 11043 0a1e 10       		.byte	0x10
 11044 0a1f 25       		.byte	0x25
 11045 0a20 0000006B 		.4byte	0x6b
 11046 0a24 02       		.byte	0x2
 11047 0a25 23       		.byte	0x23
 11048 0a26 08       		.uleb128 0x8
 11049 0a27 12       		.uleb128 0x12
 11050 0a28 00003FF1 		.4byte	.LASF125
 11051 0a2c 10       		.byte	0x10
 11052 0a2d 26       		.byte	0x26
 11053 0a2e 0000006B 		.4byte	0x6b
 11054 0a32 02       		.byte	0x2
 11055 0a33 23       		.byte	0x23
 11056 0a34 0C       		.uleb128 0xc
 11057 0a35 12       		.uleb128 0x12
 11058 0a36 0000352C 		.4byte	.LASF126
 11059 0a3a 10       		.byte	0x10
 11060 0a3b 27       		.byte	0x27
 11061 0a3c 0000006B 		.4byte	0x6b
 11062 0a40 02       		.byte	0x2
 11063 0a41 23       		.byte	0x23
 11064 0a42 10       		.uleb128 0x10
 11065 0a43 12       		.uleb128 0x12
 11066 0a44 000035DF 		.4byte	.LASF127
 11067 0a48 10       		.byte	0x10
 11068 0a49 28       		.byte	0x28
 11069 0a4a 0000006B 		.4byte	0x6b
 11070 0a4e 02       		.byte	0x2
 11071 0a4f 23       		.byte	0x23
 11072 0a50 14       		.uleb128 0x14
 11073 0a51 12       		.uleb128 0x12
 11074 0a52 00003211 		.4byte	.LASF128
 11075 0a56 10       		.byte	0x10
 11076 0a57 29       		.byte	0x29
 11077 0a58 0000006B 		.4byte	0x6b
 11078 0a5c 02       		.byte	0x2
 11079 0a5d 23       		.byte	0x23
 11080 0a5e 18       		.uleb128 0x18
 11081 0a5f 12       		.uleb128 0x12
 11082 0a60 00003385 		.4byte	.LASF129
 11083 0a64 10       		.byte	0x10
 11084 0a65 2A       		.byte	0x2a
 11085 0a66 0000006B 		.4byte	0x6b
 11086 0a6a 02       		.byte	0x2
 11087 0a6b 23       		.byte	0x23
 11088 0a6c 1C       		.uleb128 0x1c
 11089 0a6d 12       		.uleb128 0x12
 11090 0a6e 00000728 		.4byte	.LASF130
 11091 0a72 10       		.byte	0x10
 11092 0a73 2B       		.byte	0x2b
 11093 0a74 0000006B 		.4byte	0x6b
 11094 0a78 02       		.byte	0x2
 11095 0a79 23       		.byte	0x23
 11096 0a7a 20       		.uleb128 0x20
 11097 0a7b 00       		.byte	0x0
 11098 0a7c 0E       		.uleb128 0xe
 11099 0a7d 00002287 		.4byte	.LASF131
 11100 0a81 11       		.byte	0x11
 11101 0a82 2E       		.byte	0x2e
 11102 0a83 0000002B 		.4byte	0x2b
 11103 0a87 0E       		.uleb128 0xe
 11104 0a88 00002FC4 		.4byte	.LASF132
 11105 0a8c 11       		.byte	0x11
 11106 0a8d 39       		.byte	0x39
 11107 0a8e 00000064 		.4byte	0x64
 11108 0a92 0E       		.uleb128 0xe
 11109 0a93 000004AF 		.4byte	.LASF133
 11110 0a97 11       		.byte	0x11
 11111 0a98 3A       		.byte	0x3a
 11112 0a99 00000032 		.4byte	0x32
 11113 0a9d 0E       		.uleb128 0xe
 11114 0a9e 000037A7 		.4byte	.LASF134
 11115 0aa2 11       		.byte	0x11
 11116 0aa3 54       		.byte	0x54
 11117 0aa4 00000044 		.4byte	0x44
 11118 0aa8 05       		.uleb128 0x5
 11119 0aa9 04       		.byte	0x4
 11120 0aaa 00000AAE 		.4byte	0xaae
 11121 0aae 1F       		.uleb128 0x1f
 11122 0aaf 0E       		.uleb128 0xe
 11123 0ab0 000013FE 		.4byte	.LASF135
 11124 0ab4 12       		.byte	0x12
 11125 0ab5 2B       		.byte	0x2b
 11126 0ab6 00000ABA 		.4byte	0xaba
 11127 0aba 08       		.uleb128 0x8
 11128 0abb 00000ACA 		.4byte	0xaca
 11129 0abf 00000ACA 		.4byte	0xaca
 11130 0ac3 09       		.uleb128 0x9
 11131 0ac4 000000AC 		.4byte	0xac
 11132 0ac8 00       		.byte	0x0
 11133 0ac9 00       		.byte	0x0
 11134 0aca 13       		.uleb128 0x13
 11135 0acb 00000C7A 		.4byte	.LASF136
 11136 0acf 0C       		.byte	0xc
 11137 0ad0 13       		.byte	0x13
 11138 0ad1 00       		.byte	0x0
 11139 0ad2 00000B1D 		.4byte	0xb1d
 11140 0ad6 14       		.uleb128 0x14
 11141 0ad7 67707200 		.string	"gpr"
 11142 0adb 13       		.byte	0x13
 11143 0adc 00       		.byte	0x0
 11144 0add 0000002B 		.4byte	0x2b
 11145 0ae1 02       		.byte	0x2
 11146 0ae2 23       		.byte	0x23
 11147 0ae3 00       		.uleb128 0x0
 11148 0ae4 14       		.uleb128 0x14
 11149 0ae5 66707200 		.string	"fpr"
 11150 0ae9 13       		.byte	0x13
 11151 0aea 00       		.byte	0x0
 11152 0aeb 0000002B 		.4byte	0x2b
 11153 0aef 02       		.byte	0x2
 11154 0af0 23       		.byte	0x23
 11155 0af1 01       		.uleb128 0x1
 11156 0af2 12       		.uleb128 0x12
 11157 0af3 000000AB 		.4byte	.LASF137
 11158 0af7 13       		.byte	0x13
 11159 0af8 00       		.byte	0x0
 11160 0af9 00000032 		.4byte	0x32
 11161 0afd 02       		.byte	0x2
 11162 0afe 23       		.byte	0x23
 11163 0aff 02       		.uleb128 0x2
 11164 0b00 12       		.uleb128 0x12
 11165 0b01 00000534 		.4byte	.LASF138
 11166 0b05 13       		.byte	0x13
 11167 0b06 00       		.byte	0x0
 11168 0b07 000000C6 		.4byte	0xc6
 11169 0b0b 02       		.byte	0x2
 11170 0b0c 23       		.byte	0x23
 11171 0b0d 04       		.uleb128 0x4
 11172 0b0e 12       		.uleb128 0x12
 11173 0b0f 0000059B 		.4byte	.LASF139
 11174 0b13 13       		.byte	0x13
 11175 0b14 00       		.byte	0x0
 11176 0b15 000000C6 		.4byte	0xc6
 11177 0b19 02       		.byte	0x2
 11178 0b1a 23       		.byte	0x23
 11179 0b1b 08       		.uleb128 0x8
 11180 0b1c 00       		.byte	0x0
 11181 0b1d 0E       		.uleb128 0xe
 11182 0b1e 00001FB0 		.4byte	.LASF140
 11183 0b22 14       		.byte	0x14
 11184 0b23 32       		.byte	0x32
 11185 0b24 0000088E 		.4byte	0x88e
 11186 0b28 0E       		.uleb128 0xe
 11187 0b29 00000257 		.4byte	.LASF141
 11188 0b2d 14       		.byte	0x14
 11189 0b2e 3B       		.byte	0x3b
 11190 0b2f 00000145 		.4byte	0x145
 11191 0b33 13       		.uleb128 0x13
 11192 0b34 00002A04 		.4byte	.LASF142
 11193 0b38 08       		.byte	0x8
 11194 0b39 15       		.byte	0x15
 11195 0b3a 1D       		.byte	0x1d
 11196 0b3b 00000B5C 		.4byte	0xb5c
 11197 0b3f 12       		.uleb128 0x12
 11198 0b40 0000228F 		.4byte	.LASF143
 11199 0b44 15       		.byte	0x15
 11200 0b45 1E       		.byte	0x1e
 11201 0b46 0000006B 		.4byte	0x6b
 11202 0b4a 02       		.byte	0x2
 11203 0b4b 23       		.byte	0x23
 11204 0b4c 00       		.uleb128 0x0
 11205 0b4d 14       		.uleb128 0x14
 11206 0b4e 72656D00 		.string	"rem"
 11207 0b52 15       		.byte	0x15
 11208 0b53 1F       		.byte	0x1f
 11209 0b54 0000006B 		.4byte	0x6b
 11210 0b58 02       		.byte	0x2
 11211 0b59 23       		.byte	0x23
 11212 0b5a 04       		.uleb128 0x4
 11213 0b5b 00       		.byte	0x0
 11214 0b5c 13       		.uleb128 0x13
 11215 0b5d 00002A09 		.4byte	.LASF144
 11216 0b61 08       		.byte	0x8
 11217 0b62 15       		.byte	0x15
 11218 0b63 23       		.byte	0x23
 11219 0b64 00000B85 		.4byte	0xb85
 11220 0b68 12       		.uleb128 0x12
 11221 0b69 0000228F 		.4byte	.LASF143
 11222 0b6d 15       		.byte	0x15
 11223 0b6e 24       		.byte	0x24
 11224 0b6f 000009D5 		.4byte	0x9d5
 11225 0b73 02       		.byte	0x2
 11226 0b74 23       		.byte	0x23
 11227 0b75 00       		.uleb128 0x0
 11228 0b76 14       		.uleb128 0x14
 11229 0b77 72656D00 		.string	"rem"
 11230 0b7b 15       		.byte	0x15
 11231 0b7c 25       		.byte	0x25
 11232 0b7d 000009D5 		.4byte	0x9d5
 11233 0b81 02       		.byte	0x2
 11234 0b82 23       		.byte	0x23
 11235 0b83 04       		.uleb128 0x4
 11236 0b84 00       		.byte	0x0
 11237 0b85 0E       		.uleb128 0xe
 11238 0b86 00001CF1 		.4byte	.LASF145
 11239 0b8a 12       		.byte	0x12
 11240 0b8b 55       		.byte	0x55
 11241 0b8c 00000AAF 		.4byte	0xaaf
 11242 0b90 0E       		.uleb128 0xe
 11243 0b91 00000495 		.4byte	.LASF146
 11244 0b95 16       		.byte	0x16
 11245 0b96 42       		.byte	0x42
 11246 0b97 00000B9B 		.4byte	0xb9b
 11247 0b9b 05       		.uleb128 0x5
 11248 0b9c 04       		.byte	0x4
 11249 0b9d 00000BA1 		.4byte	0xba1
 11250 0ba1 13       		.uleb128 0x13
 11251 0ba2 00000A3A 		.4byte	.LASF147
 11252 0ba6 10       		.byte	0x10
 11253 0ba7 16       		.byte	0x16
 11254 0ba8 AC       		.byte	0xac
 11255 0ba9 00000BE6 		.4byte	0xbe6
 11256 0bad 12       		.uleb128 0x12
 11257 0bae 00004E4A 		.4byte	.LASF148
 11258 0bb2 16       		.byte	0x16
 11259 0bb3 AD       		.byte	0xad
 11260 0bb4 000000C6 		.4byte	0xc6
 11261 0bb8 02       		.byte	0x2
 11262 0bb9 23       		.byte	0x23
 11263 0bba 00       		.uleb128 0x0
 11264 0bbb 12       		.uleb128 0x12
 11265 0bbc 000035D9 		.4byte	.LASF149
 11266 0bc0 16       		.byte	0x16
 11267 0bc1 AE       		.byte	0xae
 11268 0bc2 00000BE6 		.4byte	0xbe6
 11269 0bc6 02       		.byte	0x2
 11270 0bc7 23       		.byte	0x23
 11271 0bc8 04       		.uleb128 0x4
 11272 0bc9 12       		.uleb128 0x12
 11273 0bca 00000CA6 		.4byte	.LASF150
 11274 0bce 16       		.byte	0x16
 11275 0bcf AF       		.byte	0xaf
 11276 0bd0 00000C0B 		.4byte	0xc0b
 11277 0bd4 02       		.byte	0x2
 11278 0bd5 23       		.byte	0x23
 11279 0bd6 08       		.uleb128 0x8
 11280 0bd7 12       		.uleb128 0x12
 11281 0bd8 00003D37 		.4byte	.LASF151
 11282 0bdc 16       		.byte	0x16
 11283 0bdd B0       		.byte	0xb0
 11284 0bde 00000C2C 		.4byte	0xc2c
 11285 0be2 02       		.byte	0x2
 11286 0be3 23       		.byte	0x23
 11287 0be4 0C       		.uleb128 0xc
 11288 0be5 00       		.byte	0x0
 11289 0be6 0E       		.uleb128 0xe
 11290 0be7 0000136C 		.4byte	.LASF152
 11291 0beb 16       		.byte	0x16
 11292 0bec 5A       		.byte	0x5a
 11293 0bed 00000BF1 		.4byte	0xbf1
 11294 0bf1 05       		.uleb128 0x5
 11295 0bf2 04       		.byte	0x4
 11296 0bf3 00000BF7 		.4byte	0xbf7
 11297 0bf7 16       		.uleb128 0x16
 11298 0bf8 000000C6 		.4byte	0xc6
 11299 0bfc 00000C0B 		.4byte	0xc0b
 11300 0c00 17       		.uleb128 0x17
 11301 0c01 00000B90 		.4byte	0xb90
 11302 0c05 17       		.uleb128 0x17
 11303 0c06 000009D5 		.4byte	0x9d5
 11304 0c0a 00       		.byte	0x0
 11305 0c0b 0E       		.uleb128 0xe
 11306 0c0c 00002403 		.4byte	.LASF153
 11307 0c10 16       		.byte	0x16
 11308 0c11 6F       		.byte	0x6f
 11309 0c12 00000C16 		.4byte	0xc16
 11310 0c16 05       		.uleb128 0x5
 11311 0c17 04       		.byte	0x4
 11312 0c18 00000C1C 		.4byte	0xc1c
 11313 0c1c 1E       		.uleb128 0x1e
 11314 0c1d 00000C2C 		.4byte	0xc2c
 11315 0c21 17       		.uleb128 0x17
 11316 0c22 00000B90 		.4byte	0xb90
 11317 0c26 17       		.uleb128 0x17
 11318 0c27 000000C6 		.4byte	0xc6
 11319 0c2b 00       		.byte	0x0
 11320 0c2c 0E       		.uleb128 0xe
 11321 0c2d 00004EB7 		.4byte	.LASF154
 11322 0c31 16       		.byte	0x16
 11323 0c32 92       		.byte	0x92
 11324 0c33 00000C37 		.4byte	0xc37
 11325 0c37 05       		.uleb128 0x5
 11326 0c38 04       		.byte	0x4
 11327 0c39 00000C3D 		.4byte	0xc3d
 11328 0c3d 16       		.uleb128 0x16
 11329 0c3e 000000C6 		.4byte	0xc6
 11330 0c42 00000C5B 		.4byte	0xc5b
 11331 0c46 17       		.uleb128 0x17
 11332 0c47 00000B90 		.4byte	0xb90
 11333 0c4b 17       		.uleb128 0x17
 11334 0c4c 000009D5 		.4byte	0x9d5
 11335 0c50 17       		.uleb128 0x17
 11336 0c51 000009D5 		.4byte	0x9d5
 11337 0c55 17       		.uleb128 0x17
 11338 0c56 000000C6 		.4byte	0xc6
 11339 0c5a 00       		.byte	0x0
 11340 0c5b 0E       		.uleb128 0xe
 11341 0c5c 00003E71 		.4byte	.LASF155
 11342 0c60 16       		.byte	0x16
 11343 0c61 C4       		.byte	0xc4
 11344 0c62 00000C66 		.4byte	0xc66
 11345 0c66 05       		.uleb128 0x5
 11346 0c67 04       		.byte	0x4
 11347 0c68 00000C6C 		.4byte	0xc6c
 11348 0c6c 0B       		.uleb128 0xb
 11349 0c6d 000034F2 		.4byte	.LASF156
 11350 0c71 28       		.byte	0x28
 11351 0c72 16       		.byte	0x16
 11352 0c73 0141     		.2byte	0x141
 11353 0c75 00000D10 		.4byte	0xd10
 11354 0c79 1B       		.uleb128 0x1b
 11355 0c7a 0000462D 		.4byte	.LASF157
 11356 0c7e 16       		.byte	0x16
 11357 0c7f 0142     		.2byte	0x142
 11358 0c81 000003BF 		.4byte	0x3bf
 11359 0c85 02       		.byte	0x2
 11360 0c86 23       		.byte	0x23
 11361 0c87 00       		.uleb128 0x0
 11362 0c88 1B       		.uleb128 0x1b
 11363 0c89 00001F43 		.4byte	.LASF158
 11364 0c8d 16       		.byte	0x16
 11365 0c8e 0143     		.2byte	0x143
 11366 0c90 000001D9 		.4byte	0x1d9
 11367 0c94 02       		.byte	0x2
 11368 0c95 23       		.byte	0x23
 11369 0c96 04       		.uleb128 0x4
 11370 0c97 0C       		.uleb128 0xc
 11371 0c98 706F7300 		.string	"pos"
 11372 0c9c 16       		.byte	0x16
 11373 0c9d 0144     		.2byte	0x144
 11374 0c9f 000001D9 		.4byte	0x1d9
 11375 0ca3 02       		.byte	0x2
 11376 0ca4 23       		.byte	0x23
 11377 0ca5 08       		.uleb128 0x8
 11378 0ca6 1B       		.uleb128 0x1b
 11379 0ca7 00004FDF 		.4byte	.LASF159
 11380 0cab 16       		.byte	0x16
 11381 0cac 0146     		.2byte	0x146
 11382 0cae 00000D33 		.4byte	0xd33
 11383 0cb2 02       		.byte	0x2
 11384 0cb3 23       		.byte	0x23
 11385 0cb4 0C       		.uleb128 0xc
 11386 0cb5 1B       		.uleb128 0x1b
 11387 0cb6 0000112F 		.4byte	.LASF160
 11388 0cba 16       		.byte	0x16
 11389 0cbb 0147     		.2byte	0x147
 11390 0cbd 00000D33 		.4byte	0xd33
 11391 0cc1 02       		.byte	0x2
 11392 0cc2 23       		.byte	0x23
 11393 0cc3 10       		.uleb128 0x10
 11394 0cc4 1B       		.uleb128 0x1b
 11395 0cc5 000003E9 		.4byte	.LASF161
 11396 0cc9 16       		.byte	0x16
 11397 0cca 0148     		.2byte	0x148
 11398 0ccc 00000D3E 		.4byte	0xd3e
 11399 0cd0 02       		.byte	0x2
 11400 0cd1 23       		.byte	0x23
 11401 0cd2 14       		.uleb128 0x14
 11402 0cd3 1B       		.uleb128 0x1b
 11403 0cd4 00003533 		.4byte	.LASF162
 11404 0cd8 16       		.byte	0x16
 11405 0cd9 0149     		.2byte	0x149
 11406 0cdb 00000D6D 		.4byte	0xd6d
 11407 0cdf 02       		.byte	0x2
 11408 0ce0 23       		.byte	0x23
 11409 0ce1 18       		.uleb128 0x18
 11410 0ce2 1B       		.uleb128 0x1b
 11411 0ce3 00003274 		.4byte	.LASF163
 11412 0ce7 16       		.byte	0x16
 11413 0ce8 014B     		.2byte	0x14b
 11414 0cea 00000B90 		.4byte	0xb90
 11415 0cee 02       		.byte	0x2
 11416 0cef 23       		.byte	0x23
 11417 0cf0 1C       		.uleb128 0x1c
 11418 0cf1 1B       		.uleb128 0x1b
 11419 0cf2 00004D52 		.4byte	.LASF164
 11420 0cf6 16       		.byte	0x16
 11421 0cf7 014C     		.2byte	0x14c
 11422 0cf9 000003BF 		.4byte	0x3bf
 11423 0cfd 02       		.byte	0x2
 11424 0cfe 23       		.byte	0x23
 11425 0cff 20       		.uleb128 0x20
 11426 0d00 1B       		.uleb128 0x1b
 11427 0d01 000035F7 		.4byte	.LASF165
 11428 0d05 16       		.byte	0x16
 11429 0d06 014D     		.2byte	0x14d
 11430 0d08 000003BF 		.4byte	0x3bf
 11431 0d0c 02       		.byte	0x2
 11432 0d0d 23       		.byte	0x23
 11433 0d0e 24       		.uleb128 0x24
 11434 0d0f 00       		.byte	0x0
 11435 0d10 20       		.uleb128 0x20
 11436 0d11 00004C2E 		.4byte	.LASF166
 11437 0d15 04       		.byte	0x4
 11438 0d16 16       		.byte	0x16
 11439 0d17 D2       		.byte	0xd2
 11440 0d18 00000D33 		.4byte	0xd33
 11441 0d1c 11       		.uleb128 0x11
 11442 0d1d 000027C3 		.4byte	.LASF167
 11443 0d21 16       		.byte	0x16
 11444 0d22 D3       		.byte	0xd3
 11445 0d23 000009D5 		.4byte	0x9d5
 11446 0d27 11       		.uleb128 0x11
 11447 0d28 00002E89 		.4byte	.LASF168
 11448 0d2c 16       		.byte	0x16
 11449 0d2d D4       		.byte	0xd4
 11450 0d2e 000000C6 		.4byte	0xc6
 11451 0d32 00       		.byte	0x0
 11452 0d33 0E       		.uleb128 0xe
 11453 0d34 00003517 		.4byte	.LASF169
 11454 0d38 16       		.byte	0x16
 11455 0d39 D6       		.byte	0xd6
 11456 0d3a 00000D10 		.4byte	0xd10
 11457 0d3e 0E       		.uleb128 0xe
 11458 0d3f 00004C3D 		.4byte	.LASF170
 11459 0d43 16       		.byte	0x16
 11460 0d44 FA       		.byte	0xfa
 11461 0d45 00000D49 		.4byte	0xd49
 11462 0d49 05       		.uleb128 0x5
 11463 0d4a 04       		.byte	0x4
 11464 0d4b 00000D4F 		.4byte	0xd4f
 11465 0d4f 16       		.uleb128 0x16
 11466 0d50 000001D9 		.4byte	0x1d9
 11467 0d54 00000D6D 		.4byte	0xd6d
 11468 0d58 17       		.uleb128 0x17
 11469 0d59 00000C5B 		.4byte	0xc5b
 11470 0d5d 17       		.uleb128 0x17
 11471 0d5e 000001D9 		.4byte	0x1d9
 11472 0d62 17       		.uleb128 0x17
 11473 0d63 000003BF 		.4byte	0x3bf
 11474 0d67 17       		.uleb128 0x17
 11475 0d68 000001D9 		.4byte	0x1d9
 11476 0d6c 00       		.byte	0x0
 11477 0d6d 0D       		.uleb128 0xd
 11478 0d6e 00000EA6 		.4byte	.LASF171
 11479 0d72 16       		.byte	0x16
 11480 0d73 010B     		.2byte	0x10b
 11481 0d75 00000D79 		.4byte	0xd79
 11482 0d79 05       		.uleb128 0x5
 11483 0d7a 04       		.byte	0x4
 11484 0d7b 00000D7F 		.4byte	0xd7f
 11485 0d7f 1E       		.uleb128 0x1e
 11486 0d80 00000D8A 		.4byte	0xd8a
 11487 0d84 17       		.uleb128 0x17
 11488 0d85 00000C5B 		.4byte	0xc5b
 11489 0d89 00       		.byte	0x0
 11490 0d8a 0E       		.uleb128 0xe
 11491 0d8b 00002D49 		.4byte	.LASF172
 11492 0d8f 17       		.byte	0x17
 11493 0d90 3B       		.byte	0x3b
 11494 0d91 000009D5 		.4byte	0x9d5
 11495 0d95 13       		.uleb128 0x13
 11496 0d96 00001DEC 		.4byte	.LASF173
 11497 0d9a 08       		.byte	0x8
 11498 0d9b 17       		.byte	0x17
 11499 0d9c 4C       		.byte	0x4c
 11500 0d9d 00000DBA 		.4byte	0xdba
 11501 0da1 14       		.uleb128 0x14
 11502 0da2 7800     		.string	"x"
 11503 0da4 17       		.byte	0x17
 11504 0da5 4D       		.byte	0x4d
 11505 0da6 00000D8A 		.4byte	0xd8a
 11506 0daa 02       		.byte	0x2
 11507 0dab 23       		.byte	0x23
 11508 0dac 00       		.uleb128 0x0
 11509 0dad 14       		.uleb128 0x14
 11510 0dae 7900     		.string	"y"
 11511 0db0 17       		.byte	0x17
 11512 0db1 4E       		.byte	0x4e
 11513 0db2 00000D8A 		.4byte	0xd8a
 11514 0db6 02       		.byte	0x2
 11515 0db7 23       		.byte	0x23
 11516 0db8 04       		.uleb128 0x4
 11517 0db9 00       		.byte	0x0
 11518 0dba 0E       		.uleb128 0xe
 11519 0dbb 00002775 		.4byte	.LASF174
 11520 0dbf 17       		.byte	0x17
 11521 0dc0 50       		.byte	0x50
 11522 0dc1 00000D95 		.4byte	0xd95
 11523 0dc5 13       		.uleb128 0x13
 11524 0dc6 000050C0 		.4byte	.LASF175
 11525 0dca 10       		.byte	0x10
 11526 0dcb 17       		.byte	0x17
 11527 0dcc 67       		.byte	0x67
 11528 0dcd 00000E0A 		.4byte	0xe0a
 11529 0dd1 12       		.uleb128 0x12
 11530 0dd2 00004200 		.4byte	.LASF176
 11531 0dd6 17       		.byte	0x17
 11532 0dd7 68       		.byte	0x68
 11533 0dd8 00000D8A 		.4byte	0xd8a
 11534 0ddc 02       		.byte	0x2
 11535 0ddd 23       		.byte	0x23
 11536 0dde 00       		.uleb128 0x0
 11537 0ddf 12       		.uleb128 0x12
 11538 0de0 00001506 		.4byte	.LASF177
 11539 0de4 17       		.byte	0x17
 11540 0de5 68       		.byte	0x68
 11541 0de6 00000D8A 		.4byte	0xd8a
 11542 0dea 02       		.byte	0x2
 11543 0deb 23       		.byte	0x23
 11544 0dec 04       		.uleb128 0x4
 11545 0ded 12       		.uleb128 0x12
 11546 0dee 0000377E 		.4byte	.LASF178
 11547 0df2 17       		.byte	0x17
 11548 0df3 69       		.byte	0x69
 11549 0df4 00000D8A 		.4byte	0xd8a
 11550 0df8 02       		.byte	0x2
 11551 0df9 23       		.byte	0x23
 11552 0dfa 08       		.uleb128 0x8
 11553 0dfb 12       		.uleb128 0x12
 11554 0dfc 0000093E 		.4byte	.LASF179
 11555 0e00 17       		.byte	0x17
 11556 0e01 69       		.byte	0x69
 11557 0e02 00000D8A 		.4byte	0xd8a
 11558 0e06 02       		.byte	0x2
 11559 0e07 23       		.byte	0x23
 11560 0e08 0C       		.uleb128 0xc
 11561 0e09 00       		.byte	0x0
 11562 0e0a 0E       		.uleb128 0xe
 11563 0e0b 00000A75 		.4byte	.LASF180
 11564 0e0f 17       		.byte	0x17
 11565 0e10 6B       		.byte	0x6b
 11566 0e11 00000DC5 		.4byte	0xdc5
 11567 0e15 0B       		.uleb128 0xb
 11568 0e16 000032B1 		.4byte	.LASF181
 11569 0e1a 18       		.byte	0x18
 11570 0e1b 17       		.byte	0x17
 11571 0e1c 011A     		.2byte	0x11a
 11572 0e1e 00000E9B 		.4byte	0xe9b
 11573 0e22 1B       		.uleb128 0x1b
 11574 0e23 00002598 		.4byte	.LASF182
 11575 0e27 17       		.byte	0x17
 11576 0e28 011B     		.2byte	0x11b
 11577 0e2a 0000006B 		.4byte	0x6b
 11578 0e2e 02       		.byte	0x2
 11579 0e2f 23       		.byte	0x23
 11580 0e30 00       		.uleb128 0x0
 11581 0e31 1B       		.uleb128 0x1b
 11582 0e32 00004627 		.4byte	.LASF183
 11583 0e36 17       		.byte	0x17
 11584 0e37 011C     		.2byte	0x11c
 11585 0e39 0000006B 		.4byte	0x6b
 11586 0e3d 02       		.byte	0x2
 11587 0e3e 23       		.byte	0x23
 11588 0e3f 04       		.uleb128 0x4
 11589 0e40 1B       		.uleb128 0x1b
 11590 0e41 000028F7 		.4byte	.LASF184
 11591 0e45 17       		.byte	0x17
 11592 0e46 011D     		.2byte	0x11d
 11593 0e48 0000006B 		.4byte	0x6b
 11594 0e4c 02       		.byte	0x2
 11595 0e4d 23       		.byte	0x23
 11596 0e4e 08       		.uleb128 0x8
 11597 0e4f 1B       		.uleb128 0x1b
 11598 0e50 00003F1A 		.4byte	.LASF185
 11599 0e54 17       		.byte	0x17
 11600 0e55 011E     		.2byte	0x11e
 11601 0e57 000003BF 		.4byte	0x3bf
 11602 0e5b 02       		.byte	0x2
 11603 0e5c 23       		.byte	0x23
 11604 0e5d 0C       		.uleb128 0xc
 11605 0e5e 1B       		.uleb128 0x1b
 11606 0e5f 000045EB 		.4byte	.LASF186
 11607 0e63 17       		.byte	0x17
 11608 0e64 011F     		.2byte	0x11f
 11609 0e66 00000064 		.4byte	0x64
 11610 0e6a 02       		.byte	0x2
 11611 0e6b 23       		.byte	0x23
 11612 0e6c 10       		.uleb128 0x10
 11613 0e6d 1B       		.uleb128 0x1b
 11614 0e6e 000035EC 		.4byte	.LASF187
 11615 0e72 17       		.byte	0x17
 11616 0e73 0120     		.2byte	0x120
 11617 0e75 00000098 		.4byte	0x98
 11618 0e79 02       		.byte	0x2
 11619 0e7a 23       		.byte	0x23
 11620 0e7b 12       		.uleb128 0x12
 11621 0e7c 1B       		.uleb128 0x1b
 11622 0e7d 0000376C 		.4byte	.LASF188
 11623 0e81 17       		.byte	0x17
 11624 0e82 0121     		.2byte	0x121
 11625 0e84 00000098 		.4byte	0x98
 11626 0e88 02       		.byte	0x2
 11627 0e89 23       		.byte	0x23
 11628 0e8a 13       		.uleb128 0x13
 11629 0e8b 1B       		.uleb128 0x1b
 11630 0e8c 00002556 		.4byte	.LASF189
 11631 0e90 17       		.byte	0x17
 11632 0e91 0122     		.2byte	0x122
 11633 0e93 000000C6 		.4byte	0xc6
 11634 0e97 02       		.byte	0x2
 11635 0e98 23       		.byte	0x23
 11636 0e99 14       		.uleb128 0x14
 11637 0e9a 00       		.byte	0x0
 11638 0e9b 0D       		.uleb128 0xd
 11639 0e9c 0000372F 		.4byte	.LASF190
 11640 0ea0 17       		.byte	0x17
 11641 0ea1 0124     		.2byte	0x124
 11642 0ea3 00000E15 		.4byte	0xe15
 11643 0ea7 0B       		.uleb128 0xb
 11644 0ea8 000040C0 		.4byte	.LASF191
 11645 0eac 14       		.byte	0x14
 11646 0ead 17       		.byte	0x17
 11647 0eae 0154     		.2byte	0x154
 11648 0eb0 00000F0F 		.4byte	0xf0f
 11649 0eb4 1B       		.uleb128 0x1b
 11650 0eb5 0000440B 		.4byte	.LASF192
 11651 0eb9 17       		.byte	0x17
 11652 0eba 0155     		.2byte	0x155
 11653 0ebc 00000064 		.4byte	0x64
 11654 0ec0 02       		.byte	0x2
 11655 0ec1 23       		.byte	0x23
 11656 0ec2 00       		.uleb128 0x0
 11657 0ec3 1B       		.uleb128 0x1b
 11658 0ec4 00002D62 		.4byte	.LASF193
 11659 0ec8 17       		.byte	0x17
 11660 0ec9 0156     		.2byte	0x156
 11661 0ecb 00000064 		.4byte	0x64
 11662 0ecf 02       		.byte	0x2
 11663 0ed0 23       		.byte	0x23
 11664 0ed1 02       		.uleb128 0x2
 11665 0ed2 1B       		.uleb128 0x1b
 11666 0ed3 0000481B 		.4byte	.LASF194
 11667 0ed7 17       		.byte	0x17
 11668 0ed8 0158     		.2byte	0x158
 11669 0eda 00000F0F 		.4byte	0xf0f
 11670 0ede 02       		.byte	0x2
 11671 0edf 23       		.byte	0x23
 11672 0ee0 04       		.uleb128 0x4
 11673 0ee1 1B       		.uleb128 0x1b
 11674 0ee2 00003FE3 		.4byte	.LASF195
 11675 0ee6 17       		.byte	0x17
 11676 0ee7 0159     		.2byte	0x159
 11677 0ee9 00000092 		.4byte	0x92
 11678 0eed 02       		.byte	0x2
 11679 0eee 23       		.byte	0x23
 11680 0eef 08       		.uleb128 0x8
 11681 0ef0 1B       		.uleb128 0x1b
 11682 0ef1 00002420 		.4byte	.LASF196
 11683 0ef5 17       		.byte	0x17
 11684 0ef6 015A     		.2byte	0x15a
 11685 0ef8 00000F15 		.4byte	0xf15
 11686 0efc 02       		.byte	0x2
 11687 0efd 23       		.byte	0x23
 11688 0efe 0C       		.uleb128 0xc
 11689 0eff 1B       		.uleb128 0x1b
 11690 0f00 00005492 		.4byte	.LASF197
 11691 0f04 17       		.byte	0x17
 11692 0f05 015C     		.2byte	0x15c
 11693 0f07 0000006B 		.4byte	0x6b
 11694 0f0b 02       		.byte	0x2
 11695 0f0c 23       		.byte	0x23
 11696 0f0d 10       		.uleb128 0x10
 11697 0f0e 00       		.byte	0x0
 11698 0f0f 05       		.uleb128 0x5
 11699 0f10 04       		.byte	0x4
 11700 0f11 00000DBA 		.4byte	0xdba
 11701 0f15 05       		.uleb128 0x5
 11702 0f16 04       		.byte	0x4
 11703 0f17 00000064 		.4byte	0x64
 11704 0f1b 0D       		.uleb128 0xd
 11705 0f1c 00000E9B 		.4byte	.LASF198
 11706 0f20 17       		.byte	0x17
 11707 0f21 015E     		.2byte	0x15e
 11708 0f23 00000EA7 		.4byte	0xea7
 11709 0f27 21       		.uleb128 0x21
 11710 0f28 000008C0 		.4byte	.LASF300
 11711 0f2c 04       		.byte	0x4
 11712 0f2d 17       		.byte	0x17
 11713 0f2e 02CF     		.2byte	0x2cf
 11714 0f30 00000F63 		.4byte	0xf63
 11715 0f34 22       		.uleb128 0x22
 11716 0f35 00000C03 		.4byte	.LASF199
 11717 0f39 00       		.sleb128 0
 11718 0f3a 22       		.uleb128 0x22
 11719 0f3b 00001CD1 		.4byte	.LASF200
 11720 0f3f F0DABD9B 		.sleb128 1668246896
 11720      06
 11721 0f44 22       		.uleb128 0x22
 11722 0f45 00003500 		.4byte	.LASF201
 11723 0f49 F3E8A593 		.sleb128 1651078259
 11723      06
 11724 0f4e 22       		.uleb128 0x22
 11725 0f4f 00003DF6 		.4byte	.LASF202
 11726 0f53 ECE8D5FB 		.sleb128 1869968492
 11726      06
 11727 0f58 22       		.uleb128 0x22
 11728 0f59 00005069 		.4byte	.LASF203
 11729 0f5d F4DEB183 		.sleb128 1886154612
 11729      07
 11730 0f62 00       		.byte	0x0
 11731 0f63 0D       		.uleb128 0xd
 11732 0f64 00002D1F 		.4byte	.LASF204
 11733 0f68 17       		.byte	0x17
 11734 0f69 02D8     		.2byte	0x2d8
 11735 0f6b 00000F27 		.4byte	0xf27
 11736 0f6f 0E       		.uleb128 0xe
 11737 0f70 00001BA5 		.4byte	.LASF205
 11738 0f74 18       		.byte	0x18
 11739 0f75 B7       		.byte	0xb7
 11740 0f76 00000098 		.4byte	0x98
 11741 0f7a 0E       		.uleb128 0xe
 11742 0f7b 00002E73 		.4byte	.LASF206
 11743 0f7f 18       		.byte	0x18
 11744 0f80 C2       		.byte	0xc2
 11745 0f81 00000064 		.4byte	0x64
 11746 0f85 0E       		.uleb128 0xe
 11747 0f86 000046D8 		.4byte	.LASF207
 11748 0f8a 18       		.byte	0x18
 11749 0f8b CD       		.byte	0xcd
 11750 0f8c 00000032 		.4byte	0x32
 11751 0f90 0E       		.uleb128 0xe
 11752 0f91 0000468C 		.4byte	.LASF208
 11753 0f95 18       		.byte	0x18
 11754 0f96 D8       		.byte	0xd8
 11755 0f97 0000006B 		.4byte	0x6b
 11756 0f9b 0E       		.uleb128 0xe
 11757 0f9c 00005087 		.4byte	.LASF209
 11758 0fa0 18       		.byte	0x18
 11759 0fa1 E3       		.byte	0xe3
 11760 0fa2 00000044 		.4byte	0x44
 11761 0fa6 0E       		.uleb128 0xe
 11762 0fa7 00001847 		.4byte	.LASF210
 11763 0fab 18       		.byte	0x18
 11764 0fac EE       		.byte	0xee
 11765 0fad 000009D5 		.4byte	0x9d5
 11766 0fb1 0E       		.uleb128 0xe
 11767 0fb2 00003304 		.4byte	.LASF211
 11768 0fb6 18       		.byte	0x18
 11769 0fb7 F9       		.byte	0xf9
 11770 0fb8 000001D9 		.4byte	0x1d9
 11771 0fbc 0D       		.uleb128 0xd
 11772 0fbd 0000337C 		.4byte	.LASF212
 11773 0fc1 18       		.byte	0x18
 11774 0fc2 011C     		.2byte	0x11c
 11775 0fc4 000009D5 		.4byte	0x9d5
 11776 0fc8 0D       		.uleb128 0xd
 11777 0fc9 0000021B 		.4byte	.LASF213
 11778 0fcd 18       		.byte	0x18
 11779 0fce 01A8     		.2byte	0x1a8
 11780 0fd0 00000FD4 		.4byte	0xfd4
 11781 0fd4 05       		.uleb128 0x5
 11782 0fd5 04       		.byte	0x4
 11783 0fd6 00000FDA 		.4byte	0xfda
 11784 0fda 1E       		.uleb128 0x1e
 11785 0fdb 00000FE5 		.4byte	0xfe5
 11786 0fdf 17       		.uleb128 0x17
 11787 0fe0 000000C6 		.4byte	0xc6
 11788 0fe4 00       		.byte	0x0
 11789 0fe5 0B       		.uleb128 0xb
 11790 0fe6 00000A69 		.4byte	.LASF214
 11791 0fea 08       		.byte	0x8
 11792 0feb 18       		.byte	0x18
 11793 0fec 01C8     		.2byte	0x1c8
 11794 0fee 00001011 		.4byte	0x1011
 11795 0ff2 1B       		.uleb128 0x1b
 11796 0ff3 000044FA 		.4byte	.LASF215
 11797 0ff7 18       		.byte	0x18
 11798 0ff8 01C9     		.2byte	0x1c9
 11799 0ffa 000000C6 		.4byte	0xc6
 11800 0ffe 02       		.byte	0x2
 11801 0fff 23       		.byte	0x23
 11802 1000 00       		.uleb128 0x0
 11803 1001 1B       		.uleb128 0x1b
 11804 1002 0000126A 		.4byte	.LASF216
 11805 1006 18       		.byte	0x18
 11806 1007 01CA     		.2byte	0x1ca
 11807 1009 00000FC8 		.4byte	0xfc8
 11808 100d 02       		.byte	0x2
 11809 100e 23       		.byte	0x23
 11810 100f 04       		.uleb128 0x4
 11811 1010 00       		.byte	0x0
 11812 1011 0D       		.uleb128 0xd
 11813 1012 00000359 		.4byte	.LASF217
 11814 1016 18       		.byte	0x18
 11815 1017 01CC     		.2byte	0x1cc
 11816 1019 00000FE5 		.4byte	0xfe5
 11817 101d 0D       		.uleb128 0xd
 11818 101e 00004706 		.4byte	.LASF218
 11819 1022 18       		.byte	0x18
 11820 1023 01FE     		.2byte	0x1fe
 11821 1025 00001029 		.4byte	0x1029
 11822 1029 05       		.uleb128 0x5
 11823 102a 04       		.byte	0x4
 11824 102b 0000102F 		.4byte	0x102f
 11825 102f 0B       		.uleb128 0xb
 11826 1030 00003CDA 		.4byte	.LASF219
 11827 1034 0C       		.byte	0xc
 11828 1035 18       		.byte	0x18
 11829 1036 021C     		.2byte	0x21c
 11830 1038 0000106A 		.4byte	0x106a
 11831 103c 1B       		.uleb128 0x1b
 11832 103d 00005312 		.4byte	.LASF220
 11833 1041 18       		.byte	0x18
 11834 1042 021D     		.2byte	0x21d
 11835 1044 0000101D 		.4byte	0x101d
 11836 1048 02       		.byte	0x2
 11837 1049 23       		.byte	0x23
 11838 104a 00       		.uleb128 0x0
 11839 104b 1B       		.uleb128 0x1b
 11840 104c 00000554 		.4byte	.LASF221
 11841 1050 18       		.byte	0x18
 11842 1051 021E     		.2byte	0x21e
 11843 1053 0000101D 		.4byte	0x101d
 11844 1057 02       		.byte	0x2
 11845 1058 23       		.byte	0x23
 11846 1059 04       		.uleb128 0x4
 11847 105a 1B       		.uleb128 0x1b
 11848 105b 000044FA 		.4byte	.LASF215
 11849 105f 18       		.byte	0x18
 11850 1060 021F     		.2byte	0x21f
 11851 1062 000000C6 		.4byte	0xc6
 11852 1066 02       		.byte	0x2
 11853 1067 23       		.byte	0x23
 11854 1068 08       		.uleb128 0x8
 11855 1069 00       		.byte	0x0
 11856 106a 0B       		.uleb128 0xb
 11857 106b 000042A7 		.4byte	.LASF222
 11858 106f 08       		.byte	0x8
 11859 1070 18       		.byte	0x18
 11860 1071 0233     		.2byte	0x233
 11861 1073 00001096 		.4byte	0x1096
 11862 1077 1B       		.uleb128 0x1b
 11863 1078 0000458B 		.4byte	.LASF223
 11864 107c 18       		.byte	0x18
 11865 107d 0234     		.2byte	0x234
 11866 107f 0000101D 		.4byte	0x101d
 11867 1083 02       		.byte	0x2
 11868 1084 23       		.byte	0x23
 11869 1085 00       		.uleb128 0x0
 11870 1086 1B       		.uleb128 0x1b
 11871 1087 00003779 		.4byte	.LASF224
 11872 108b 18       		.byte	0x18
 11873 108c 0235     		.2byte	0x235
 11874 108e 0000101D 		.4byte	0x101d
 11875 1092 02       		.byte	0x2
 11876 1093 23       		.byte	0x23
 11877 1094 04       		.uleb128 0x4
 11878 1095 00       		.byte	0x0
 11879 1096 0D       		.uleb128 0xd
 11880 1097 00000B38 		.4byte	.LASF225
 11881 109b 18       		.byte	0x18
 11882 109c 0237     		.2byte	0x237
 11883 109e 0000106A 		.4byte	0x106a
 11884 10a2 13       		.uleb128 0x13
 11885 10a3 00000169 		.4byte	.LASF226
 11886 10a7 20       		.byte	0x20
 11887 10a8 19       		.byte	0x19
 11888 10a9 F3       		.byte	0xf3
 11889 10aa 0000111F 		.4byte	0x111f
 11890 10ae 12       		.uleb128 0x12
 11891 10af 00004627 		.4byte	.LASF183
 11892 10b3 19       		.byte	0x19
 11893 10b4 F4       		.byte	0xf4
 11894 10b5 00000D8A 		.4byte	0xd8a
 11895 10b9 02       		.byte	0x2
 11896 10ba 23       		.byte	0x23
 11897 10bb 00       		.uleb128 0x0
 11898 10bc 12       		.uleb128 0x12
 11899 10bd 00000731 		.4byte	.LASF227
 11900 10c1 19       		.byte	0x19
 11901 10c2 F5       		.byte	0xf5
 11902 10c3 00000D8A 		.4byte	0xd8a
 11903 10c7 02       		.byte	0x2
 11904 10c8 23       		.byte	0x23
 11905 10c9 04       		.uleb128 0x4
 11906 10ca 12       		.uleb128 0x12
 11907 10cb 00000893 		.4byte	.LASF228
 11908 10cf 19       		.byte	0x19
 11909 10d0 F7       		.byte	0xf7
 11910 10d1 00000D8A 		.4byte	0xd8a
 11911 10d5 02       		.byte	0x2
 11912 10d6 23       		.byte	0x23
 11913 10d7 08       		.uleb128 0x8
 11914 10d8 12       		.uleb128 0x12
 11915 10d9 0000374A 		.4byte	.LASF229
 11916 10dd 19       		.byte	0x19
 11917 10de F8       		.byte	0xf8
 11918 10df 00000D8A 		.4byte	0xd8a
 11919 10e3 02       		.byte	0x2
 11920 10e4 23       		.byte	0x23
 11921 10e5 0C       		.uleb128 0xc
 11922 10e6 12       		.uleb128 0x12
 11923 10e7 0000517F 		.4byte	.LASF230
 11924 10eb 19       		.byte	0x19
 11925 10ec F9       		.byte	0xf9
 11926 10ed 00000D8A 		.4byte	0xd8a
 11927 10f1 02       		.byte	0x2
 11928 10f2 23       		.byte	0x23
 11929 10f3 10       		.uleb128 0x10
 11930 10f4 12       		.uleb128 0x12
 11931 10f5 00004FC5 		.4byte	.LASF231
 11932 10f9 19       		.byte	0x19
 11933 10fa FB       		.byte	0xfb
 11934 10fb 00000D8A 		.4byte	0xd8a
 11935 10ff 02       		.byte	0x2
 11936 1100 23       		.byte	0x23
 11937 1101 14       		.uleb128 0x14
 11938 1102 12       		.uleb128 0x12
 11939 1103 00004FD2 		.4byte	.LASF232
 11940 1107 19       		.byte	0x19
 11941 1108 FC       		.byte	0xfc
 11942 1109 00000D8A 		.4byte	0xd8a
 11943 110d 02       		.byte	0x2
 11944 110e 23       		.byte	0x23
 11945 110f 18       		.uleb128 0x18
 11946 1110 12       		.uleb128 0x12
 11947 1111 000012D6 		.4byte	.LASF233
 11948 1115 19       		.byte	0x19
 11949 1116 FD       		.byte	0xfd
 11950 1117 00000D8A 		.4byte	0xd8a
 11951 111b 02       		.byte	0x2
 11952 111c 23       		.byte	0x23
 11953 111d 1C       		.uleb128 0x1c
 11954 111e 00       		.byte	0x0
 11955 111f 0E       		.uleb128 0xe
 11956 1120 0000520E 		.4byte	.LASF234
 11957 1124 19       		.byte	0x19
 11958 1125 FF       		.byte	0xff
 11959 1126 000010A2 		.4byte	0x10a2
 11960 112a 0B       		.uleb128 0xb
 11961 112b 0000115E 		.4byte	.LASF235
 11962 112f 10       		.byte	0x10
 11963 1130 19       		.byte	0x19
 11964 1131 0129     		.2byte	0x129
 11965 1133 00001183 		.4byte	0x1183
 11966 1137 1B       		.uleb128 0x1b
 11967 1138 00000731 		.4byte	.LASF227
 11968 113c 19       		.byte	0x19
 11969 113d 012A     		.2byte	0x12a
 11970 113f 00000F7A 		.4byte	0xf7a
 11971 1143 02       		.byte	0x2
 11972 1144 23       		.byte	0x23
 11973 1145 00       		.uleb128 0x0
 11974 1146 1B       		.uleb128 0x1b
 11975 1147 00004627 		.4byte	.LASF183
 11976 114b 19       		.byte	0x19
 11977 114c 012B     		.2byte	0x12b
 11978 114e 00000F7A 		.4byte	0xf7a
 11979 1152 02       		.byte	0x2
 11980 1153 23       		.byte	0x23
 11981 1154 02       		.uleb128 0x2
 11982 1155 1B       		.uleb128 0x1b
 11983 1156 00001F43 		.4byte	.LASF158
 11984 115a 19       		.byte	0x19
 11985 115b 012D     		.2byte	0x12d
 11986 115d 00000D8A 		.4byte	0xd8a
 11987 1161 02       		.byte	0x2
 11988 1162 23       		.byte	0x23
 11989 1163 04       		.uleb128 0x4
 11990 1164 1B       		.uleb128 0x1b
 11991 1165 000022B2 		.4byte	.LASF236
 11992 1169 19       		.byte	0x19
 11993 116a 012F     		.2byte	0x12f
 11994 116c 00000D8A 		.4byte	0xd8a
 11995 1170 02       		.byte	0x2
 11996 1171 23       		.byte	0x23
 11997 1172 08       		.uleb128 0x8
 11998 1173 1B       		.uleb128 0x1b
 11999 1174 00002070 		.4byte	.LASF237
 12000 1178 19       		.byte	0x19
 12001 1179 0130     		.2byte	0x130
 12002 117b 00000D8A 		.4byte	0xd8a
 12003 117f 02       		.byte	0x2
 12004 1180 23       		.byte	0x23
 12005 1181 0C       		.uleb128 0xc
 12006 1182 00       		.byte	0x0
 12007 1183 0D       		.uleb128 0xd
 12008 1184 0000490F 		.4byte	.LASF238
 12009 1188 19       		.byte	0x19
 12010 1189 0132     		.2byte	0x132
 12011 118b 0000112A 		.4byte	0x112a
 12012 118f 0D       		.uleb128 0xd
 12013 1190 00002DEF 		.4byte	.LASF239
 12014 1194 19       		.byte	0x19
 12015 1195 0151     		.2byte	0x151
 12016 1197 0000119B 		.4byte	0x119b
 12017 119b 05       		.uleb128 0x5
 12018 119c 04       		.byte	0x4
 12019 119d 000011A1 		.4byte	0x11a1
 12020 11a1 23       		.uleb128 0x23
 12021 11a2 00005098 		.4byte	.LASF241
 12022 11a6 01       		.byte	0x1
 12023 11a7 0D       		.uleb128 0xd
 12024 11a8 00002B04 		.4byte	.LASF240
 12025 11ac 19       		.byte	0x19
 12026 11ad 016A     		.2byte	0x16a
 12027 11af 000011B3 		.4byte	0x11b3
 12028 11b3 05       		.uleb128 0x5
 12029 11b4 04       		.byte	0x4
 12030 11b5 000011B9 		.4byte	0x11b9
 12031 11b9 23       		.uleb128 0x23
 12032 11ba 000036AC 		.4byte	.LASF242
 12033 11be 01       		.byte	0x1
 12034 11bf 0D       		.uleb128 0xd
 12035 11c0 000048F5 		.4byte	.LASF243
 12036 11c4 19       		.byte	0x19
 12037 11c5 0191     		.2byte	0x191
 12038 11c7 000011CB 		.4byte	0x11cb
 12039 11cb 05       		.uleb128 0x5
 12040 11cc 04       		.byte	0x4
 12041 11cd 000011D1 		.4byte	0x11d1
 12042 11d1 0B       		.uleb128 0xb
 12043 11d2 000047FB 		.4byte	.LASF244
 12044 11d6 84       		.byte	0x84
 12045 11d7 19       		.byte	0x19
 12046 11d8 0392     		.2byte	0x392
 12047 11da 000013B1 		.4byte	0x13b1
 12048 11de 1B       		.uleb128 0x1b
 12049 11df 00000C9C 		.4byte	.LASF245
 12050 11e3 19       		.byte	0x19
 12051 11e4 0393     		.2byte	0x393
 12052 11e6 00000FA6 		.4byte	0xfa6
 12053 11ea 02       		.byte	0x2
 12054 11eb 23       		.byte	0x23
 12055 11ec 00       		.uleb128 0x0
 12056 11ed 1B       		.uleb128 0x1b
 12057 11ee 00002A0E 		.4byte	.LASF246
 12058 11f2 19       		.byte	0x19
 12059 11f3 0394     		.2byte	0x394
 12060 11f5 00000FA6 		.4byte	0xfa6
 12061 11f9 02       		.byte	0x2
 12062 11fa 23       		.byte	0x23
 12063 11fb 04       		.uleb128 0x4
 12064 11fc 1B       		.uleb128 0x1b
 12065 11fd 000019E1 		.4byte	.LASF247
 12066 1201 19       		.byte	0x19
 12067 1202 0396     		.2byte	0x396
 12068 1204 00000FA6 		.4byte	0xfa6
 12069 1208 02       		.byte	0x2
 12070 1209 23       		.byte	0x23
 12071 120a 08       		.uleb128 0x8
 12072 120b 1B       		.uleb128 0x1b
 12073 120c 00002753 		.4byte	.LASF248
 12074 1210 19       		.byte	0x19
 12075 1211 0397     		.2byte	0x397
 12076 1213 00000FA6 		.4byte	0xfa6
 12077 1217 02       		.byte	0x2
 12078 1218 23       		.byte	0x23
 12079 1219 0C       		.uleb128 0xc
 12080 121a 1B       		.uleb128 0x1b
 12081 121b 000030BB 		.4byte	.LASF249
 12082 121f 19       		.byte	0x19
 12083 1220 0399     		.2byte	0x399
 12084 1222 00000FA6 		.4byte	0xfa6
 12085 1226 02       		.byte	0x2
 12086 1227 23       		.byte	0x23
 12087 1228 10       		.uleb128 0x10
 12088 1229 1B       		.uleb128 0x1b
 12089 122a 0000415D 		.4byte	.LASF250
 12090 122e 19       		.byte	0x19
 12091 122f 039B     		.2byte	0x39b
 12092 1231 000016C7 		.4byte	0x16c7
 12093 1235 02       		.byte	0x2
 12094 1236 23       		.byte	0x23
 12095 1237 14       		.uleb128 0x14
 12096 1238 1B       		.uleb128 0x1b
 12097 1239 00000000 		.4byte	.LASF251
 12098 123d 19       		.byte	0x19
 12099 123e 039C     		.2byte	0x39c
 12100 1240 000016C7 		.4byte	0x16c7
 12101 1244 02       		.byte	0x2
 12102 1245 23       		.byte	0x23
 12103 1246 18       		.uleb128 0x18
 12104 1247 1B       		.uleb128 0x1b
 12105 1248 00000D17 		.4byte	.LASF252
 12106 124c 19       		.byte	0x19
 12107 124d 039E     		.2byte	0x39e
 12108 124f 00000F90 		.4byte	0xf90
 12109 1253 02       		.byte	0x2
 12110 1254 23       		.byte	0x23
 12111 1255 1C       		.uleb128 0x1c
 12112 1256 1B       		.uleb128 0x1b
 12113 1257 00004D94 		.4byte	.LASF253
 12114 125b 19       		.byte	0x19
 12115 125c 039F     		.2byte	0x39f
 12116 125e 000016CD 		.4byte	0x16cd
 12117 1262 02       		.byte	0x2
 12118 1263 23       		.byte	0x23
 12119 1264 20       		.uleb128 0x20
 12120 1265 1B       		.uleb128 0x1b
 12121 1266 00004AE5 		.4byte	.LASF254
 12122 126a 19       		.byte	0x19
 12123 126b 03A1     		.2byte	0x3a1
 12124 126d 00000F90 		.4byte	0xf90
 12125 1271 02       		.byte	0x2
 12126 1272 23       		.byte	0x23
 12127 1273 24       		.uleb128 0x24
 12128 1274 1B       		.uleb128 0x1b
 12129 1275 00001D59 		.4byte	.LASF255
 12130 1279 19       		.byte	0x19
 12131 127a 03A2     		.2byte	0x3a2
 12132 127c 000016D3 		.4byte	0x16d3
 12133 1280 02       		.byte	0x2
 12134 1281 23       		.byte	0x23
 12135 1282 28       		.uleb128 0x28
 12136 1283 1B       		.uleb128 0x1b
 12137 1284 000007BD 		.4byte	.LASF256
 12138 1288 19       		.byte	0x19
 12139 1289 03A4     		.2byte	0x3a4
 12140 128b 00001011 		.4byte	0x1011
 12141 128f 02       		.byte	0x2
 12142 1290 23       		.byte	0x23
 12143 1291 2C       		.uleb128 0x2c
 12144 1292 1B       		.uleb128 0x1b
 12145 1293 00004807 		.4byte	.LASF257
 12146 1297 19       		.byte	0x19
 12147 1298 03A9     		.2byte	0x3a9
 12148 129a 00000E0A 		.4byte	0xe0a
 12149 129e 02       		.byte	0x2
 12150 129f 23       		.byte	0x23
 12151 12a0 34       		.uleb128 0x34
 12152 12a1 1B       		.uleb128 0x1b
 12153 12a2 00002CF6 		.4byte	.LASF258
 12154 12a6 19       		.byte	0x19
 12155 12a7 03AB     		.2byte	0x3ab
 12156 12a9 00000F85 		.4byte	0xf85
 12157 12ad 02       		.byte	0x2
 12158 12ae 23       		.byte	0x23
 12159 12af 44       		.uleb128 0x44
 12160 12b0 1B       		.uleb128 0x1b
 12161 12b1 00003099 		.4byte	.LASF259
 12162 12b5 19       		.byte	0x19
 12163 12b6 03AC     		.2byte	0x3ac
 12164 12b8 00000F7A 		.4byte	0xf7a
 12165 12bc 02       		.byte	0x2
 12166 12bd 23       		.byte	0x23
 12167 12be 46       		.uleb128 0x46
 12168 12bf 1B       		.uleb128 0x1b
 12169 12c0 00000290 		.4byte	.LASF260
 12170 12c4 19       		.byte	0x19
 12171 12c5 03AD     		.2byte	0x3ad
 12172 12c7 00000F7A 		.4byte	0xf7a
 12173 12cb 02       		.byte	0x2
 12174 12cc 23       		.byte	0x23
 12175 12cd 48       		.uleb128 0x48
 12176 12ce 1B       		.uleb128 0x1b
 12177 12cf 00000731 		.4byte	.LASF227
 12178 12d3 19       		.byte	0x19
 12179 12d4 03AE     		.2byte	0x3ae
 12180 12d6 00000F7A 		.4byte	0xf7a
 12181 12da 02       		.byte	0x2
 12182 12db 23       		.byte	0x23
 12183 12dc 4A       		.uleb128 0x4a
 12184 12dd 1B       		.uleb128 0x1b
 12185 12de 0000036D 		.4byte	.LASF261
 12186 12e2 19       		.byte	0x19
 12187 12e3 03B0     		.2byte	0x3b0
 12188 12e5 00000F7A 		.4byte	0xf7a
 12189 12e9 02       		.byte	0x2
 12190 12ea 23       		.byte	0x23
 12191 12eb 4C       		.uleb128 0x4c
 12192 12ec 1B       		.uleb128 0x1b
 12193 12ed 000002CE 		.4byte	.LASF262
 12194 12f1 19       		.byte	0x19
 12195 12f2 03B1     		.2byte	0x3b1
 12196 12f4 00000F7A 		.4byte	0xf7a
 12197 12f8 02       		.byte	0x2
 12198 12f9 23       		.byte	0x23
 12199 12fa 4E       		.uleb128 0x4e
 12200 12fb 1B       		.uleb128 0x1b
 12201 12fc 000014F3 		.4byte	.LASF263
 12202 1300 19       		.byte	0x19
 12203 1301 03B3     		.2byte	0x3b3
 12204 1303 00000F7A 		.4byte	0xf7a
 12205 1307 02       		.byte	0x2
 12206 1308 23       		.byte	0x23
 12207 1309 50       		.uleb128 0x50
 12208 130a 1B       		.uleb128 0x1b
 12209 130b 000002BA 		.4byte	.LASF264
 12210 130f 19       		.byte	0x19
 12211 1310 03B4     		.2byte	0x3b4
 12212 1312 00000F7A 		.4byte	0xf7a
 12213 1316 02       		.byte	0x2
 12214 1317 23       		.byte	0x23
 12215 1318 52       		.uleb128 0x52
 12216 1319 1B       		.uleb128 0x1b
 12217 131a 000042BA 		.4byte	.LASF265
 12218 131e 19       		.byte	0x19
 12219 131f 03B6     		.2byte	0x3b6
 12220 1321 0000140D 		.4byte	0x140d
 12221 1325 02       		.byte	0x2
 12222 1326 23       		.byte	0x23
 12223 1327 54       		.uleb128 0x54
 12224 1328 1B       		.uleb128 0x1b
 12225 1329 00001F43 		.4byte	.LASF158
 12226 132d 19       		.byte	0x19
 12227 132e 03B7     		.2byte	0x3b7
 12228 1330 000013B1 		.4byte	0x13b1
 12229 1334 02       		.byte	0x2
 12230 1335 23       		.byte	0x23
 12231 1336 58       		.uleb128 0x58
 12232 1337 1B       		.uleb128 0x1b
 12233 1338 000012CE 		.4byte	.LASF266
 12234 133c 19       		.byte	0x19
 12235 133d 03B8     		.2byte	0x3b8
 12236 133f 0000157F 		.4byte	0x157f
 12237 1343 02       		.byte	0x2
 12238 1344 23       		.byte	0x23
 12239 1345 5C       		.uleb128 0x5c
 12240 1346 1B       		.uleb128 0x1b
 12241 1347 0000114D 		.4byte	.LASF267
 12242 134b 19       		.byte	0x19
 12243 134c 03BC     		.2byte	0x3bc
 12244 134e 000011A7 		.4byte	0x11a7
 12245 1352 02       		.byte	0x2
 12246 1353 23       		.byte	0x23
 12247 1354 60       		.uleb128 0x60
 12248 1355 1B       		.uleb128 0x1b
 12249 1356 00003274 		.4byte	.LASF163
 12250 135a 19       		.byte	0x19
 12251 135b 03BD     		.2byte	0x3bd
 12252 135d 00000B90 		.4byte	0xb90
 12253 1361 02       		.byte	0x2
 12254 1362 23       		.byte	0x23
 12255 1363 64       		.uleb128 0x64
 12256 1364 1B       		.uleb128 0x1b
 12257 1365 000051BE 		.4byte	.LASF268
 12258 1369 19       		.byte	0x19
 12259 136a 03BE     		.2byte	0x3be
 12260 136c 00000C5B 		.4byte	0xc5b
 12261 1370 02       		.byte	0x2
 12262 1371 23       		.byte	0x23
 12263 1372 68       		.uleb128 0x68
 12264 1373 1B       		.uleb128 0x1b
 12265 1374 00000D95 		.4byte	.LASF269
 12266 1378 19       		.byte	0x19
 12267 1379 03C0     		.2byte	0x3c0
 12268 137b 00001096 		.4byte	0x1096
 12269 137f 02       		.byte	0x2
 12270 1380 23       		.byte	0x23
 12271 1381 6C       		.uleb128 0x6c
 12272 1382 1B       		.uleb128 0x1b
 12273 1383 00001359 		.4byte	.LASF270
 12274 1387 19       		.byte	0x19
 12275 1388 03C2     		.2byte	0x3c2
 12276 138a 00001011 		.4byte	0x1011
 12277 138e 02       		.byte	0x2
 12278 138f 23       		.byte	0x23
 12279 1390 74       		.uleb128 0x74
 12280 1391 1B       		.uleb128 0x1b
 12281 1392 00002BAC 		.4byte	.LASF271
 12282 1396 19       		.byte	0x19
 12283 1397 03C3     		.2byte	0x3c3
 12284 1399 000000C6 		.4byte	0xc6
 12285 139d 02       		.byte	0x2
 12286 139e 23       		.byte	0x23
 12287 139f 7C       		.uleb128 0x7c
 12288 13a0 1B       		.uleb128 0x1b
 12289 13a1 00004AF2 		.4byte	.LASF272
 12290 13a5 19       		.byte	0x19
 12291 13a6 03C5     		.2byte	0x3c5
 12292 13a8 000016AF 		.4byte	0x16af
 12293 13ac 03       		.byte	0x3
 12294 13ad 23       		.byte	0x23
 12295 13ae 8001     		.uleb128 0x80
 12296 13b0 00       		.byte	0x0
 12297 13b1 0D       		.uleb128 0xd
 12298 13b2 000017DF 		.4byte	.LASF273
 12299 13b6 19       		.byte	0x19
 12300 13b7 01AF     		.2byte	0x1af
 12301 13b9 000013BD 		.4byte	0x13bd
 12302 13bd 05       		.uleb128 0x5
 12303 13be 04       		.byte	0x4
 12304 13bf 000013C3 		.4byte	0x13c3
 12305 13c3 0B       		.uleb128 0xb
 12306 13c4 000028AF 		.4byte	.LASF274
 12307 13c8 2C       		.byte	0x2c
 12308 13c9 19       		.byte	0x19
 12309 13ca 0575     		.2byte	0x575
 12310 13cc 0000140D 		.4byte	0x140d
 12311 13d0 1B       		.uleb128 0x1b
 12312 13d1 00002ADF 		.4byte	.LASF275
 12313 13d5 19       		.byte	0x19
 12314 13d6 0576     		.2byte	0x576
 12315 13d8 000011BF 		.4byte	0x11bf
 12316 13dc 02       		.byte	0x2
 12317 13dd 23       		.byte	0x23
 12318 13de 00       		.uleb128 0x0
 12319 13df 1B       		.uleb128 0x1b
 12320 13e0 000007BD 		.4byte	.LASF256
 12321 13e4 19       		.byte	0x19
 12322 13e5 0577     		.2byte	0x577
 12323 13e7 00001011 		.4byte	0x1011
 12324 13eb 02       		.byte	0x2
 12325 13ec 23       		.byte	0x23
 12326 13ed 04       		.uleb128 0x4
 12327 13ee 1B       		.uleb128 0x1b
 12328 13ef 00003137 		.4byte	.LASF276
 12329 13f3 19       		.byte	0x19
 12330 13f4 0578     		.2byte	0x578
 12331 13f6 00001777 		.4byte	0x1777
 12332 13fa 02       		.byte	0x2
 12333 13fb 23       		.byte	0x23
 12334 13fc 0C       		.uleb128 0xc
 12335 13fd 1B       		.uleb128 0x1b
 12336 13fe 00004AF2 		.4byte	.LASF272
 12337 1402 19       		.byte	0x19
 12338 1403 0579     		.2byte	0x579
 12339 1405 000016D9 		.4byte	0x16d9
 12340 1409 02       		.byte	0x2
 12341 140a 23       		.byte	0x23
 12342 140b 28       		.uleb128 0x28
 12343 140c 00       		.byte	0x0
 12344 140d 0D       		.uleb128 0xd
 12345 140e 00001DDF 		.4byte	.LASF277
 12346 1412 19       		.byte	0x19
 12347 1413 01C4     		.2byte	0x1c4
 12348 1415 00001419 		.4byte	0x1419
 12349 1419 05       		.uleb128 0x5
 12350 141a 04       		.byte	0x4
 12351 141b 0000141F 		.4byte	0x141f
 12352 141f 0B       		.uleb128 0xb
 12353 1420 0000074A 		.4byte	.LASF278
 12354 1424 A0       		.byte	0xa0
 12355 1425 19       		.byte	0x19
 12356 1426 0642     		.2byte	0x642
 12357 1428 0000157F 		.4byte	0x157f
 12358 142c 1B       		.uleb128 0x1b
 12359 142d 0000542B 		.4byte	.LASF279
 12360 1431 19       		.byte	0x19
 12361 1432 0643     		.2byte	0x643
 12362 1434 0000118F 		.4byte	0x118f
 12363 1438 02       		.byte	0x2
 12364 1439 23       		.byte	0x23
 12365 143a 00       		.uleb128 0x0
 12366 143b 1B       		.uleb128 0x1b
 12367 143c 00002ADF 		.4byte	.LASF275
 12368 1440 19       		.byte	0x19
 12369 1441 0644     		.2byte	0x644
 12370 1443 000011BF 		.4byte	0x11bf
 12371 1447 02       		.byte	0x2
 12372 1448 23       		.byte	0x23
 12373 1449 04       		.uleb128 0x4
 12374 144a 1B       		.uleb128 0x1b
 12375 144b 00000554 		.4byte	.LASF221
 12376 144f 19       		.byte	0x19
 12377 1450 0645     		.2byte	0x645
 12378 1452 0000140D 		.4byte	0x140d
 12379 1456 02       		.byte	0x2
 12380 1457 23       		.byte	0x23
 12381 1458 08       		.uleb128 0x8
 12382 1459 1B       		.uleb128 0x1b
 12383 145a 000000AB 		.4byte	.LASF137
 12384 145e 19       		.byte	0x19
 12385 145f 0646     		.2byte	0x646
 12386 1461 00000F9B 		.4byte	0xf9b
 12387 1465 02       		.byte	0x2
 12388 1466 23       		.byte	0x23
 12389 1467 0C       		.uleb128 0xc
 12390 1468 1B       		.uleb128 0x1b
 12391 1469 000007BD 		.4byte	.LASF256
 12392 146d 19       		.byte	0x19
 12393 146e 0647     		.2byte	0x647
 12394 1470 00001011 		.4byte	0x1011
 12395 1474 02       		.byte	0x2
 12396 1475 23       		.byte	0x23
 12397 1476 10       		.uleb128 0x10
 12398 1477 1B       		.uleb128 0x1b
 12399 1478 00003137 		.4byte	.LASF276
 12400 147c 19       		.byte	0x19
 12401 147d 0649     		.2byte	0x649
 12402 147f 0000111F 		.4byte	0x111f
 12403 1483 02       		.byte	0x2
 12404 1484 23       		.byte	0x23
 12405 1485 18       		.uleb128 0x18
 12406 1486 1B       		.uleb128 0x1b
 12407 1487 00003539 		.4byte	.LASF280
 12408 148b 19       		.byte	0x19
 12409 148c 064A     		.2byte	0x64a
 12410 148e 00000FBC 		.4byte	0xfbc
 12411 1492 02       		.byte	0x2
 12412 1493 23       		.byte	0x23
 12413 1494 38       		.uleb128 0x38
 12414 1495 1B       		.uleb128 0x1b
 12415 1496 00002B0E 		.4byte	.LASF281
 12416 149a 19       		.byte	0x19
 12417 149b 064B     		.2byte	0x64b
 12418 149d 00000FBC 		.4byte	0xfbc
 12419 14a1 02       		.byte	0x2
 12420 14a2 23       		.byte	0x23
 12421 14a3 3C       		.uleb128 0x3c
 12422 14a4 1B       		.uleb128 0x1b
 12423 14a5 00002AF3 		.4byte	.LASF282
 12424 14a9 19       		.byte	0x19
 12425 14aa 064C     		.2byte	0x64c
 12426 14ac 00000DBA 		.4byte	0xdba
 12427 14b0 02       		.byte	0x2
 12428 14b1 23       		.byte	0x23
 12429 14b2 40       		.uleb128 0x40
 12430 14b3 1B       		.uleb128 0x1b
 12431 14b4 000035D2 		.4byte	.LASF283
 12432 14b8 19       		.byte	0x19
 12433 14b9 064E     		.2byte	0x64e
 12434 14bb 00000F63 		.4byte	0xf63
 12435 14bf 02       		.byte	0x2
 12436 14c0 23       		.byte	0x23
 12437 14c1 48       		.uleb128 0x48
 12438 14c2 1B       		.uleb128 0x1b
 12439 14c3 00003296 		.4byte	.LASF284
 12440 14c7 19       		.byte	0x19
 12441 14c8 0650     		.2byte	0x650
 12442 14ca 00000E9B 		.4byte	0xe9b
 12443 14ce 02       		.byte	0x2
 12444 14cf 23       		.byte	0x23
 12445 14d0 4C       		.uleb128 0x4c
 12446 14d1 1B       		.uleb128 0x1b
 12447 14d2 000028C0 		.4byte	.LASF285
 12448 14d6 19       		.byte	0x19
 12449 14d7 0651     		.2byte	0x651
 12450 14d9 00000F90 		.4byte	0xf90
 12451 14dd 02       		.byte	0x2
 12452 14de 23       		.byte	0x23
 12453 14df 64       		.uleb128 0x64
 12454 14e0 1B       		.uleb128 0x1b
 12455 14e1 000014BC 		.4byte	.LASF286
 12456 14e5 19       		.byte	0x19
 12457 14e6 0652     		.2byte	0x652
 12458 14e8 00000F90 		.4byte	0xf90
 12459 14ec 02       		.byte	0x2
 12460 14ed 23       		.byte	0x23
 12461 14ee 68       		.uleb128 0x68
 12462 14ef 1B       		.uleb128 0x1b
 12463 14f0 0000387B 		.4byte	.LASF287
 12464 14f4 19       		.byte	0x19
 12465 14f5 0654     		.2byte	0x654
 12466 14f7 00000F1B 		.4byte	0xf1b
 12467 14fb 02       		.byte	0x2
 12468 14fc 23       		.byte	0x23
 12469 14fd 6C       		.uleb128 0x6c
 12470 14fe 1B       		.uleb128 0x1b
 12471 14ff 00001009 		.4byte	.LASF288
 12472 1503 19       		.byte	0x19
 12473 1504 0656     		.2byte	0x656
 12474 1506 00000F9B 		.4byte	0xf9b
 12475 150a 03       		.byte	0x3
 12476 150b 23       		.byte	0x23
 12477 150c 8001     		.uleb128 0x80
 12478 150e 1B       		.uleb128 0x1b
 12479 150f 00002066 		.4byte	.LASF289
 12480 1513 19       		.byte	0x19
 12481 1514 0657     		.2byte	0x657
 12482 1516 00001783 		.4byte	0x1783
 12483 151a 03       		.byte	0x3
 12484 151b 23       		.byte	0x23
 12485 151c 8401     		.uleb128 0x84
 12486 151e 1B       		.uleb128 0x1b
 12487 151f 000054D7 		.4byte	.LASF290
 12488 1523 19       		.byte	0x19
 12489 1524 0659     		.2byte	0x659
 12490 1526 000000C6 		.4byte	0xc6
 12491 152a 03       		.byte	0x3
 12492 152b 23       		.byte	0x23
 12493 152c 8801     		.uleb128 0x88
 12494 152e 1B       		.uleb128 0x1b
 12495 152f 000037C0 		.4byte	.LASF291
 12496 1533 19       		.byte	0x19
 12497 1534 065A     		.2byte	0x65a
 12498 1536 000009D5 		.4byte	0x9d5
 12499 153a 03       		.byte	0x3
 12500 153b 23       		.byte	0x23
 12501 153c 8C01     		.uleb128 0x8c
 12502 153e 1B       		.uleb128 0x1b
 12503 153f 00003999 		.4byte	.LASF292
 12504 1543 19       		.byte	0x19
 12505 1544 065C     		.2byte	0x65c
 12506 1546 00000D8A 		.4byte	0xd8a
 12507 154a 03       		.byte	0x3
 12508 154b 23       		.byte	0x23
 12509 154c 9001     		.uleb128 0x90
 12510 154e 1B       		.uleb128 0x1b
 12511 154f 000041C4 		.4byte	.LASF293
 12512 1553 19       		.byte	0x19
 12513 1554 065D     		.2byte	0x65d
 12514 1556 00000D8A 		.4byte	0xd8a
 12515 155a 03       		.byte	0x3
 12516 155b 23       		.byte	0x23
 12517 155c 9401     		.uleb128 0x94
 12518 155e 1B       		.uleb128 0x1b
 12519 155f 00001CCB 		.4byte	.LASF294
 12520 1563 19       		.byte	0x19
 12521 1564 065F     		.2byte	0x65f
 12522 1566 000000C6 		.4byte	0xc6
 12523 156a 03       		.byte	0x3
 12524 156b 23       		.byte	0x23
 12525 156c 9801     		.uleb128 0x98
 12526 156e 1B       		.uleb128 0x1b
 12527 156f 00004AF2 		.4byte	.LASF272
 12528 1573 19       		.byte	0x19
 12529 1574 0661     		.2byte	0x661
 12530 1576 0000179B 		.4byte	0x179b
 12531 157a 03       		.byte	0x3
 12532 157b 23       		.byte	0x23
 12533 157c 9C01     		.uleb128 0x9c
 12534 157e 00       		.byte	0x0
 12535 157f 0D       		.uleb128 0xd
 12536 1580 000037E7 		.4byte	.LASF295
 12537 1584 19       		.byte	0x19
 12538 1585 01E4     		.2byte	0x1e4
 12539 1587 0000158B 		.4byte	0x158b
 12540 158b 05       		.uleb128 0x5
 12541 158c 04       		.byte	0x4
 12542 158d 00001591 		.4byte	0x1591
 12543 1591 0B       		.uleb128 0xb
 12544 1592 0000023E 		.4byte	.LASF296
 12545 1596 0C       		.byte	0xc
 12546 1597 19       		.byte	0x19
 12547 1598 02E2     		.2byte	0x2e2
 12548 159a 000015DB 		.4byte	0x15db
 12549 159e 1B       		.uleb128 0x1b
 12550 159f 00002ADF 		.4byte	.LASF275
 12551 15a3 19       		.byte	0x19
 12552 15a4 02E3     		.2byte	0x2e3
 12553 15a6 000011BF 		.4byte	0x11bf
 12554 15aa 02       		.byte	0x2
 12555 15ab 23       		.byte	0x23
 12556 15ac 00       		.uleb128 0x0
 12557 15ad 1B       		.uleb128 0x1b
 12558 15ae 00002D59 		.4byte	.LASF297
 12559 15b2 19       		.byte	0x19
 12560 15b3 02E4     		.2byte	0x2e4
 12561 15b5 000016A3 		.4byte	0x16a3
 12562 15b9 02       		.byte	0x2
 12563 15ba 23       		.byte	0x23
 12564 15bb 04       		.uleb128 0x4
 12565 15bc 1B       		.uleb128 0x1b
 12566 15bd 0000255E 		.4byte	.LASF298
 12567 15c1 19       		.byte	0x19
 12568 15c2 02E5     		.2byte	0x2e5
 12569 15c4 00000F85 		.4byte	0xf85
 12570 15c8 02       		.byte	0x2
 12571 15c9 23       		.byte	0x23
 12572 15ca 08       		.uleb128 0x8
 12573 15cb 1B       		.uleb128 0x1b
 12574 15cc 0000187B 		.4byte	.LASF299
 12575 15d0 19       		.byte	0x19
 12576 15d1 02E6     		.2byte	0x2e6
 12577 15d3 00000F85 		.4byte	0xf85
 12578 15d7 02       		.byte	0x2
 12579 15d8 23       		.byte	0x23
 12580 15d9 0A       		.uleb128 0xa
 12581 15da 00       		.byte	0x0
 12582 15db 21       		.uleb128 0x21
 12583 15dc 000039B5 		.4byte	.LASF301
 12584 15e0 04       		.byte	0x4
 12585 15e1 19       		.byte	0x19
 12586 15e2 0290     		.2byte	0x290
 12587 15e4 000016A3 		.4byte	0x16a3
 12588 15e8 22       		.uleb128 0x22
 12589 15e9 00004983 		.4byte	.LASF302
 12590 15ed 00       		.sleb128 0
 12591 15ee 22       		.uleb128 0x22
 12592 15ef 000014DD 		.4byte	.LASF303
 12593 15f3 E2DAE59B 		.sleb128 1937337698
 12593      07
 12594 15f8 22       		.uleb128 0x22
 12595 15f9 0000109C 		.4byte	.LASF304
 12596 15fd E3D2B9AB 		.sleb128 1970170211
 12596      07
 12597 1602 22       		.uleb128 0x22
 12598 1603 00003EED 		.4byte	.LASF305
 12599 1607 F3D2A99B 		.sleb128 1936353651
 12599      07
 12600 160c 22       		.uleb128 0x22
 12601 160d 000037CC 		.4byte	.LASF306
 12602 1611 A0C088BB 		.sleb128 1734484000
 12602      06
 12603 1616 22       		.uleb128 0x22
 12604 1617 00002545 		.4byte	.LASF307
 12605 161b B5CEA593 		.sleb128 1651074869
 12605      06
 12606 1620 22       		.uleb128 0x22
 12607 1621 000009C4 		.4byte	.LASF308
 12608 1625 F3DC85BB 		.sleb128 2002873971
 12608      07
 12609 162a 22       		.uleb128 0x22
 12610 162b 00003BCD 		.4byte	.LASF309
 12611 162f E1D0BDD3 		.sleb128 1785686113
 12611      06
 12612 1634 22       		.uleb128 0x22
 12613 1635 000007DE 		.4byte	.LASF310
 12614 1639 F3D2A99B 		.sleb128 1936353651
 12614      07
 12615 163e 22       		.uleb128 0x22
 12616 163f 00002B7E 		.4byte	.LASF311
 12617 1643 A0C088BB 		.sleb128 1734484000
 12617      06
 12618 1648 22       		.uleb128 0x22
 12619 1649 000041DE 		.4byte	.LASF312
 12620 164d B5CEA593 		.sleb128 1651074869
 12620      06
 12621 1652 22       		.uleb128 0x22
 12622 1653 00002BE3 		.4byte	.LASF313
 12623 1657 F3DC85BB 		.sleb128 2002873971
 12623      07
 12624 165c 22       		.uleb128 0x22
 12625 165d 0000027B 		.4byte	.LASF314
 12626 1661 E1D0BDD3 		.sleb128 1785686113
 12626      06
 12627 1666 22       		.uleb128 0x22
 12628 1667 0000327B 		.4byte	.LASF315
 12629 166b C29E918A 		.sleb128 1094995778
 12629      04
 12630 1670 22       		.uleb128 0x22
 12631 1671 00003E7B 		.4byte	.LASF316
 12632 1675 C584918A 		.sleb128 1094992453
 12632      04
 12633 167a 22       		.uleb128 0x22
 12634 167b 00004E88 		.4byte	.LASF317
 12635 167f C384918A 		.sleb128 1094992451
 12635      04
 12636 1684 22       		.uleb128 0x22
 12637 1685 00003149 		.4byte	.LASF318
 12638 1689 B1E885E3 		.sleb128 1818326065
 12638      06
 12639 168e 22       		.uleb128 0x22
 12640 168f 000052A8 		.4byte	.LASF319
 12641 1693 B2E885E3 		.sleb128 1818326066
 12641      06
 12642 1698 22       		.uleb128 0x22
 12643 1699 00000A7D 		.4byte	.LASF320
 12644 169d EEDAC98B 		.sleb128 1634889070
 12644      06
 12645 16a2 00       		.byte	0x0
 12646 16a3 0D       		.uleb128 0xd
 12647 16a4 0000275F 		.4byte	.LASF321
 12648 16a8 19       		.byte	0x19
 12649 16a9 02AD     		.2byte	0x2ad
 12650 16ab 000015DB 		.4byte	0x15db
 12651 16af 0D       		.uleb128 0xd
 12652 16b0 0000017B 		.4byte	.LASF322
 12653 16b4 19       		.byte	0x19
 12654 16b5 0300     		.2byte	0x300
 12655 16b7 000016BB 		.4byte	0x16bb
 12656 16bb 05       		.uleb128 0x5
 12657 16bc 04       		.byte	0x4
 12658 16bd 000016C1 		.4byte	0x16c1
 12659 16c1 23       		.uleb128 0x23
 12660 16c2 00003340 		.4byte	.LASF323
 12661 16c6 01       		.byte	0x1
 12662 16c7 05       		.uleb128 0x5
 12663 16c8 04       		.byte	0x4
 12664 16c9 00000F6F 		.4byte	0xf6f
 12665 16cd 05       		.uleb128 0x5
 12666 16ce 04       		.byte	0x4
 12667 16cf 00001183 		.4byte	0x1183
 12668 16d3 05       		.uleb128 0x5
 12669 16d4 04       		.byte	0x4
 12670 16d5 0000157F 		.4byte	0x157f
 12671 16d9 0D       		.uleb128 0xd
 12672 16da 00005364 		.4byte	.LASF324
 12673 16de 19       		.byte	0x19
 12674 16df 0517     		.2byte	0x517
 12675 16e1 000016E5 		.4byte	0x16e5
 12676 16e5 05       		.uleb128 0x5
 12677 16e6 04       		.byte	0x4
 12678 16e7 000016EB 		.4byte	0x16eb
 12679 16eb 23       		.uleb128 0x23
 12680 16ec 000028DB 		.4byte	.LASF325
 12681 16f0 01       		.byte	0x1
 12682 16f1 0B       		.uleb128 0xb
 12683 16f2 000009D8 		.4byte	.LASF326
 12684 16f6 1C       		.byte	0x1c
 12685 16f7 19       		.byte	0x19
 12686 16f8 0552     		.2byte	0x552
 12687 16fa 00001777 		.4byte	0x1777
 12688 16fe 1B       		.uleb128 0x1b
 12689 16ff 000022B2 		.4byte	.LASF236
 12690 1703 19       		.byte	0x19
 12691 1704 0553     		.2byte	0x553
 12692 1706 00000F85 		.4byte	0xf85
 12693 170a 02       		.byte	0x2
 12694 170b 23       		.byte	0x23
 12695 170c 00       		.uleb128 0x0
 12696 170d 1B       		.uleb128 0x1b
 12697 170e 00002070 		.4byte	.LASF237
 12698 1712 19       		.byte	0x19
 12699 1713 0554     		.2byte	0x554
 12700 1715 00000F85 		.4byte	0xf85
 12701 1719 02       		.byte	0x2
 12702 171a 23       		.byte	0x23
 12703 171b 02       		.uleb128 0x2
 12704 171c 1B       		.uleb128 0x1b
 12705 171d 00002418 		.4byte	.LASF327
 12706 1721 19       		.byte	0x19
 12707 1722 0556     		.2byte	0x556
 12708 1724 00000FBC 		.4byte	0xfbc
 12709 1728 02       		.byte	0x2
 12710 1729 23       		.byte	0x23
 12711 172a 04       		.uleb128 0x4
 12712 172b 1B       		.uleb128 0x1b
 12713 172c 00003374 		.4byte	.LASF328
 12714 1730 19       		.byte	0x19
 12715 1731 0557     		.2byte	0x557
 12716 1733 00000FBC 		.4byte	0xfbc
 12717 1737 02       		.byte	0x2
 12718 1738 23       		.byte	0x23
 12719 1739 08       		.uleb128 0x8
 12720 173a 1B       		.uleb128 0x1b
 12721 173b 00003099 		.4byte	.LASF259
 12722 173f 19       		.byte	0x19
 12723 1740 0559     		.2byte	0x559
 12724 1742 00000D8A 		.4byte	0xd8a
 12725 1746 02       		.byte	0x2
 12726 1747 23       		.byte	0x23
 12727 1748 0C       		.uleb128 0xc
 12728 1749 1B       		.uleb128 0x1b
 12729 174a 00000290 		.4byte	.LASF260
 12730 174e 19       		.byte	0x19
 12731 174f 055A     		.2byte	0x55a
 12732 1751 00000D8A 		.4byte	0xd8a
 12733 1755 02       		.byte	0x2
 12734 1756 23       		.byte	0x23
 12735 1757 10       		.uleb128 0x10
 12736 1758 1B       		.uleb128 0x1b
 12737 1759 00000731 		.4byte	.LASF227
 12738 175d 19       		.byte	0x19
 12739 175e 055B     		.2byte	0x55b
 12740 1760 00000D8A 		.4byte	0xd8a
 12741 1764 02       		.byte	0x2
 12742 1765 23       		.byte	0x23
 12743 1766 14       		.uleb128 0x14
 12744 1767 1B       		.uleb128 0x1b
 12745 1768 0000331E 		.4byte	.LASF329
 12746 176c 19       		.byte	0x19
 12747 176d 055C     		.2byte	0x55c
 12748 176f 00000D8A 		.4byte	0xd8a
 12749 1773 02       		.byte	0x2
 12750 1774 23       		.byte	0x23
 12751 1775 18       		.uleb128 0x18
 12752 1776 00       		.byte	0x0
 12753 1777 0D       		.uleb128 0xd
 12754 1778 000008B0 		.4byte	.LASF330
 12755 177c 19       		.byte	0x19
 12756 177d 055E     		.2byte	0x55e
 12757 177f 000016F1 		.4byte	0x16f1
 12758 1783 0D       		.uleb128 0xd
 12759 1784 0000332A 		.4byte	.LASF331
 12760 1788 19       		.byte	0x19
 12761 1789 058E     		.2byte	0x58e
 12762 178b 0000178F 		.4byte	0x178f
 12763 178f 05       		.uleb128 0x5
 12764 1790 04       		.byte	0x4
 12765 1791 00001795 		.4byte	0x1795
 12766 1795 23       		.uleb128 0x23
 12767 1796 00000349 		.4byte	.LASF332
 12768 179a 01       		.byte	0x1
 12769 179b 0D       		.uleb128 0xd
 12770 179c 000051A7 		.4byte	.LASF333
 12771 17a0 19       		.byte	0x19
 12772 17a1 059A     		.2byte	0x59a
 12773 17a3 000017A7 		.4byte	0x17a7
 12774 17a7 05       		.uleb128 0x5
 12775 17a8 04       		.byte	0x4
 12776 17a9 000017AD 		.4byte	0x17ad
 12777 17ad 23       		.uleb128 0x23
 12778 17ae 000023E0 		.4byte	.LASF334
 12779 17b2 01       		.byte	0x1
 12780 17b3 21       		.uleb128 0x21
 12781 17b4 000046E2 		.4byte	.LASF335
 12782 17b8 04       		.byte	0x4
 12783 17b9 19       		.byte	0x19
 12784 17ba 0A5E     		.2byte	0xa5e
 12785 17bc 000017E5 		.4byte	0x17e5
 12786 17c0 22       		.uleb128 0x22
 12787 17c1 00004D34 		.4byte	.LASF336
 12788 17c5 00       		.sleb128 0
 12789 17c6 22       		.uleb128 0x22
 12790 17c7 000042C0 		.4byte	.LASF337
 12791 17cb 01       		.sleb128 1
 12792 17cc 22       		.uleb128 0x22
 12793 17cd 0000018C 		.4byte	.LASF338
 12794 17d1 02       		.sleb128 2
 12795 17d2 22       		.uleb128 0x22
 12796 17d3 00000B25 		.4byte	.LASF339
 12797 17d7 03       		.sleb128 3
 12798 17d8 22       		.uleb128 0x22
 12799 17d9 00005192 		.4byte	.LASF340
 12800 17dd 04       		.sleb128 4
 12801 17de 22       		.uleb128 0x22
 12802 17df 00001787 		.4byte	.LASF341
 12803 17e3 05       		.sleb128 5
 12804 17e4 00       		.byte	0x0
 12805 17e5 21       		.uleb128 0x21
 12806 17e6 000051DF 		.4byte	.LASF342
 12807 17ea 04       		.byte	0x4
 12808 17eb 19       		.byte	0x19
 12809 17ec 0AAA     		.2byte	0xaaa
 12810 17ee 00001805 		.4byte	0x1805
 12811 17f2 22       		.uleb128 0x22
 12812 17f3 000026A1 		.4byte	.LASF343
 12813 17f7 00       		.sleb128 0
 12814 17f8 22       		.uleb128 0x22
 12815 17f9 000046F2 		.4byte	.LASF344
 12816 17fd 01       		.sleb128 1
 12817 17fe 22       		.uleb128 0x22
 12818 17ff 0000329D 		.4byte	.LASF345
 12819 1803 02       		.sleb128 2
 12820 1804 00       		.byte	0x0
 12821 1805 24       		.uleb128 0x24
 12822 1806 73746400 		.string	"std"
 12823 180a 13       		.byte	0x13
 12824 180b 00       		.byte	0x0
 12825 180c 00001B1C 		.4byte	0x1b1c
 12826 1810 25       		.uleb128 0x25
 12827 1811 1A       		.byte	0x1a
 12828 1812 37       		.byte	0x37
 12829 1813 00001B1C 		.4byte	0x1b1c
 12830 1817 25       		.uleb128 0x25
 12831 1818 1A       		.byte	0x1a
 12832 1819 38       		.byte	0x38
 12833 181a 00001B1F 		.4byte	0x1b1f
 12834 181e 25       		.uleb128 0x25
 12835 181f 1B       		.byte	0x1b
 12836 1820 58       		.byte	0x58
 12837 1821 00001B22 		.4byte	0x1b22
 12838 1825 25       		.uleb128 0x25
 12839 1826 1B       		.byte	0x1b
 12840 1827 5A       		.byte	0x5a
 12841 1828 00001B3E 		.4byte	0x1b3e
 12842 182c 25       		.uleb128 0x25
 12843 182d 1B       		.byte	0x1b
 12844 182e 5D       		.byte	0x5d
 12845 182f 00001B5F 		.4byte	0x1b5f
 12846 1833 25       		.uleb128 0x25
 12847 1834 1B       		.byte	0x1b
 12848 1835 5F       		.byte	0x5f
 12849 1836 00001B7B 		.4byte	0x1b7b
 12850 183a 25       		.uleb128 0x25
 12851 183b 1B       		.byte	0x1b
 12852 183c 62       		.byte	0x62
 12853 183d 00001B92 		.4byte	0x1b92
 12854 1841 25       		.uleb128 0x25
 12855 1842 1C       		.byte	0x1c
 12856 1843 6A       		.byte	0x6a
 12857 1844 00000B33 		.4byte	0xb33
 12858 1848 25       		.uleb128 0x25
 12859 1849 1C       		.byte	0x1c
 12860 184a 6B       		.byte	0x6b
 12861 184b 00000B5C 		.4byte	0xb5c
 12862 184f 25       		.uleb128 0x25
 12863 1850 1C       		.byte	0x1c
 12864 1851 6F       		.byte	0x6f
 12865 1852 00001BB3 		.4byte	0x1bb3
 12866 1856 25       		.uleb128 0x25
 12867 1857 1C       		.byte	0x1c
 12868 1858 70       		.byte	0x70
 12869 1859 00001BCA 		.4byte	0x1bca
 12870 185d 25       		.uleb128 0x25
 12871 185e 1C       		.byte	0x1c
 12872 185f 71       		.byte	0x71
 12873 1860 00001BE1 		.4byte	0x1be1
 12874 1864 25       		.uleb128 0x25
 12875 1865 1C       		.byte	0x1c
 12876 1866 72       		.byte	0x72
 12877 1867 00001BF8 		.4byte	0x1bf8
 12878 186b 25       		.uleb128 0x25
 12879 186c 1C       		.byte	0x1c
 12880 186d 73       		.byte	0x73
 12881 186e 00001C0F 		.4byte	0x1c0f
 12882 1872 25       		.uleb128 0x25
 12883 1873 1C       		.byte	0x1c
 12884 1874 75       		.byte	0x75
 12885 1875 00001C54 		.4byte	0x1c54
 12886 1879 25       		.uleb128 0x25
 12887 187a 1C       		.byte	0x1c
 12888 187b 77       		.byte	0x77
 12889 187c 00001C70 		.4byte	0x1c70
 12890 1880 25       		.uleb128 0x25
 12891 1881 1C       		.byte	0x1c
 12892 1882 78       		.byte	0x78
 12893 1883 00001C83 		.4byte	0x1c83
 12894 1887 25       		.uleb128 0x25
 12895 1888 1C       		.byte	0x1c
 12896 1889 7A       		.byte	0x7a
 12897 188a 00001C9A 		.4byte	0x1c9a
 12898 188e 25       		.uleb128 0x25
 12899 188f 1C       		.byte	0x1c
 12900 1890 7D       		.byte	0x7d
 12901 1891 00001CB6 		.4byte	0x1cb6
 12902 1895 25       		.uleb128 0x25
 12903 1896 1C       		.byte	0x1c
 12904 1897 7E       		.byte	0x7e
 12905 1898 00001CD2 		.4byte	0x1cd2
 12906 189c 25       		.uleb128 0x25
 12907 189d 1C       		.byte	0x1c
 12908 189e 7F       		.byte	0x7f
 12909 189f 00001D00 		.4byte	0x1d00
 12910 18a3 25       		.uleb128 0x25
 12911 18a4 1C       		.byte	0x1c
 12912 18a5 81       		.byte	0x81
 12913 18a6 00001D21 		.4byte	0x1d21
 12914 18aa 25       		.uleb128 0x25
 12915 18ab 1C       		.byte	0x1c
 12916 18ac 82       		.byte	0x82
 12917 18ad 00001D43 		.4byte	0x1d43
 12918 18b1 25       		.uleb128 0x25
 12919 18b2 1C       		.byte	0x1c
 12920 18b3 83       		.byte	0x83
 12921 18b4 00001D50 		.4byte	0x1d50
 12922 18b8 25       		.uleb128 0x25
 12923 18b9 1C       		.byte	0x1c
 12924 18ba 84       		.byte	0x84
 12925 18bb 00001D6C 		.4byte	0x1d6c
 12926 18bf 25       		.uleb128 0x25
 12927 18c0 1C       		.byte	0x1c
 12928 18c1 85       		.byte	0x85
 12929 18c2 00001D7F 		.4byte	0x1d7f
 12930 18c6 25       		.uleb128 0x25
 12931 18c7 1C       		.byte	0x1c
 12932 18c8 86       		.byte	0x86
 12933 18c9 00001D9B 		.4byte	0x1d9b
 12934 18cd 25       		.uleb128 0x25
 12935 18ce 1C       		.byte	0x1c
 12936 18cf 87       		.byte	0x87
 12937 18d0 00001DBC 		.4byte	0x1dbc
 12938 18d4 25       		.uleb128 0x25
 12939 18d5 1C       		.byte	0x1c
 12940 18d6 88       		.byte	0x88
 12941 18d7 00001DDD 		.4byte	0x1ddd
 12942 18db 25       		.uleb128 0x25
 12943 18dc 1D       		.byte	0x1d
 12944 18dd 3B       		.byte	0x3b
 12945 18de 00001DF4 		.4byte	0x1df4
 12946 18e2 25       		.uleb128 0x25
 12947 18e3 1D       		.byte	0x1d
 12948 18e4 3C       		.byte	0x3c
 12949 18e5 00001EFD 		.4byte	0x1efd
 12950 18e9 25       		.uleb128 0x25
 12951 18ea 1D       		.byte	0x1d
 12952 18eb 3D       		.byte	0x3d
 12953 18ec 00001F19 		.4byte	0x1f19
 12954 18f0 25       		.uleb128 0x25
 12955 18f1 1E       		.byte	0x1e
 12956 18f2 64       		.byte	0x64
 12957 18f3 00000B1D 		.4byte	0xb1d
 12958 18f7 25       		.uleb128 0x25
 12959 18f8 1E       		.byte	0x1e
 12960 18f9 65       		.byte	0x65
 12961 18fa 00001F2C 		.4byte	0x1f2c
 12962 18fe 25       		.uleb128 0x25
 12963 18ff 1E       		.byte	0x1e
 12964 1900 67       		.byte	0x67
 12965 1901 00001F2F 		.4byte	0x1f2f
 12966 1905 25       		.uleb128 0x25
 12967 1906 1E       		.byte	0x1e
 12968 1907 68       		.byte	0x68
 12969 1908 00001F48 		.4byte	0x1f48
 12970 190c 25       		.uleb128 0x25
 12971 190d 1E       		.byte	0x1e
 12972 190e 69       		.byte	0x69
 12973 190f 00001F5F 		.4byte	0x1f5f
 12974 1913 25       		.uleb128 0x25
 12975 1914 1E       		.byte	0x1e
 12976 1915 6A       		.byte	0x6a
 12977 1916 00001F76 		.4byte	0x1f76
 12978 191a 25       		.uleb128 0x25
 12979 191b 1E       		.byte	0x1e
 12980 191c 6B       		.byte	0x6b
 12981 191d 00001F8D 		.4byte	0x1f8d
 12982 1921 25       		.uleb128 0x25
 12983 1922 1E       		.byte	0x1e
 12984 1923 6C       		.byte	0x6c
 12985 1924 00001FA4 		.4byte	0x1fa4
 12986 1928 25       		.uleb128 0x25
 12987 1929 1E       		.byte	0x1e
 12988 192a 6D       		.byte	0x6d
 12989 192b 00001FBB 		.4byte	0x1fbb
 12990 192f 25       		.uleb128 0x25
 12991 1930 1E       		.byte	0x1e
 12992 1931 6E       		.byte	0x6e
 12993 1932 00001FDD 		.4byte	0x1fdd
 12994 1936 25       		.uleb128 0x25
 12995 1937 1E       		.byte	0x1e
 12996 1938 6F       		.byte	0x6f
 12997 1939 00001FFE 		.4byte	0x1ffe
 12998 193d 25       		.uleb128 0x25
 12999 193e 1E       		.byte	0x1e
 13000 193f 73       		.byte	0x73
 13001 1940 0000201A 		.4byte	0x201a
 13002 1944 25       		.uleb128 0x25
 13003 1945 1E       		.byte	0x1e
 13004 1946 74       		.byte	0x74
 13005 1947 00002040 		.4byte	0x2040
 13006 194b 25       		.uleb128 0x25
 13007 194c 1E       		.byte	0x1e
 13008 194d 76       		.byte	0x76
 13009 194e 00002061 		.4byte	0x2061
 13010 1952 25       		.uleb128 0x25
 13011 1953 1E       		.byte	0x1e
 13012 1954 77       		.byte	0x77
 13013 1955 00002082 		.4byte	0x2082
 13014 1959 25       		.uleb128 0x25
 13015 195a 1E       		.byte	0x1e
 13016 195b 78       		.byte	0x78
 13017 195c 000020A9 		.4byte	0x20a9
 13018 1960 25       		.uleb128 0x25
 13019 1961 1E       		.byte	0x1e
 13020 1962 7A       		.byte	0x7a
 13021 1963 000020C0 		.4byte	0x20c0
 13022 1967 25       		.uleb128 0x25
 13023 1968 1E       		.byte	0x1e
 13024 1969 7B       		.byte	0x7b
 13025 196a 000020D7 		.4byte	0x20d7
 13026 196e 25       		.uleb128 0x25
 13027 196f 1E       		.byte	0x1e
 13028 1970 7C       		.byte	0x7c
 13029 1971 000020E4 		.4byte	0x20e4
 13030 1975 25       		.uleb128 0x25
 13031 1976 1E       		.byte	0x1e
 13032 1977 7D       		.byte	0x7d
 13033 1978 000020FB 		.4byte	0x20fb
 13034 197c 25       		.uleb128 0x25
 13035 197d 1E       		.byte	0x1e
 13036 197e 82       		.byte	0x82
 13037 197f 0000210E 		.4byte	0x210e
 13038 1983 25       		.uleb128 0x25
 13039 1984 1E       		.byte	0x1e
 13040 1985 83       		.byte	0x83
 13041 1986 00002125 		.4byte	0x2125
 13042 198a 25       		.uleb128 0x25
 13043 198b 1E       		.byte	0x1e
 13044 198c 84       		.byte	0x84
 13045 198d 00002141 		.4byte	0x2141
 13046 1991 25       		.uleb128 0x25
 13047 1992 1E       		.byte	0x1e
 13048 1993 86       		.byte	0x86
 13049 1994 00002154 		.4byte	0x2154
 13050 1998 25       		.uleb128 0x25
 13051 1999 1E       		.byte	0x1e
 13052 199a 87       		.byte	0x87
 13053 199b 0000216C 		.4byte	0x216c
 13054 199f 25       		.uleb128 0x25
 13055 19a0 1E       		.byte	0x1e
 13056 19a1 8A       		.byte	0x8a
 13057 19a2 00002192 		.4byte	0x2192
 13058 19a6 25       		.uleb128 0x25
 13059 19a7 1E       		.byte	0x1e
 13060 19a8 8B       		.byte	0x8b
 13061 19a9 0000219F 		.4byte	0x219f
 13062 19ad 25       		.uleb128 0x25
 13063 19ae 1E       		.byte	0x1e
 13064 19af 8C       		.byte	0x8c
 13065 19b0 000021B6 		.4byte	0x21b6
 13066 19b4 25       		.uleb128 0x25
 13067 19b5 1F       		.byte	0x1f
 13068 19b6 3C       		.byte	0x3c
 13069 19b7 00000B85 		.4byte	0xb85
 13070 19bb 25       		.uleb128 0x25
 13071 19bc 20       		.byte	0x20
 13072 19bd 42       		.byte	0x42
 13073 19be 000021D2 		.4byte	0x21d2
 13074 19c2 25       		.uleb128 0x25
 13075 19c3 20       		.byte	0x20
 13076 19c4 43       		.byte	0x43
 13077 19c5 000021D5 		.4byte	0x21d5
 13078 19c9 25       		.uleb128 0x25
 13079 19ca 20       		.byte	0x20
 13080 19cb 44       		.byte	0x44
 13081 19cc 000009F2 		.4byte	0x9f2
 13082 19d0 25       		.uleb128 0x25
 13083 19d1 20       		.byte	0x20
 13084 19d2 46       		.byte	0x46
 13085 19d3 000021D8 		.4byte	0x21d8
 13086 19d7 25       		.uleb128 0x25
 13087 19d8 20       		.byte	0x20
 13088 19d9 47       		.byte	0x47
 13089 19da 000021E5 		.4byte	0x21e5
 13090 19de 25       		.uleb128 0x25
 13091 19df 20       		.byte	0x20
 13092 19e0 48       		.byte	0x48
 13093 19e1 00002201 		.4byte	0x2201
 13094 19e5 25       		.uleb128 0x25
 13095 19e6 20       		.byte	0x20
 13096 19e7 49       		.byte	0x49
 13097 19e8 0000221E 		.4byte	0x221e
 13098 19ec 25       		.uleb128 0x25
 13099 19ed 20       		.byte	0x20
 13100 19ee 4A       		.byte	0x4a
 13101 19ef 0000223B 		.4byte	0x223b
 13102 19f3 25       		.uleb128 0x25
 13103 19f4 20       		.byte	0x20
 13104 19f5 4B       		.byte	0x4b
 13105 19f6 0000225D 		.4byte	0x225d
 13106 19fa 25       		.uleb128 0x25
 13107 19fb 20       		.byte	0x20
 13108 19fc 4C       		.byte	0x4c
 13109 19fd 0000227F 		.4byte	0x227f
 13110 1a01 25       		.uleb128 0x25
 13111 1a02 20       		.byte	0x20
 13112 1a03 4D       		.byte	0x4d
 13113 1a04 00002296 		.4byte	0x2296
 13114 1a08 25       		.uleb128 0x25
 13115 1a09 20       		.byte	0x20
 13116 1a0a 4E       		.byte	0x4e
 13117 1a0b 000022AD 		.4byte	0x22ad
 13118 1a0f 25       		.uleb128 0x25
 13119 1a10 21       		.byte	0x21
 13120 1a11 48       		.byte	0x48
 13121 1a12 000022D3 		.4byte	0x22d3
 13122 1a16 26       		.uleb128 0x26
 13123 1a17 000009B7 		.4byte	.LASF451
 13124 1a1b 26       		.byte	0x26
 13125 1a1c 31       		.byte	0x31
 13126 1a1d 27       		.uleb128 0x27
 13127 1a1e 00000BF4 		.4byte	.LASF346
 13128 1a22 04       		.byte	0x4
 13129 1a23 02       		.byte	0x2
 13130 1a24 5B       		.byte	0x5b
 13131 1a25 00001A36 		.4byte	0x1a36
 13132 1a29 22       		.uleb128 0x22
 13133 1a2a 000029B3 		.4byte	.LASF347
 13134 1a2e 00       		.sleb128 0
 13135 1a2f 22       		.uleb128 0x22
 13136 1a30 00001093 		.4byte	.LASF348
 13137 1a34 01       		.sleb128 1
 13138 1a35 00       		.byte	0x0
 13139 1a36 23       		.uleb128 0x23
 13140 1a37 00001C0B 		.4byte	.LASF349
 13141 1a3b 01       		.byte	0x1
 13142 1a3c 23       		.uleb128 0x23
 13143 1a3d 00000CAB 		.4byte	.LASF350
 13144 1a41 01       		.byte	0x1
 13145 1a42 23       		.uleb128 0x23
 13146 1a43 00004086 		.4byte	.LASF351
 13147 1a47 01       		.byte	0x1
 13148 1a48 23       		.uleb128 0x23
 13149 1a49 000006A9 		.4byte	.LASF352
 13150 1a4d 01       		.byte	0x1
 13151 1a4e 23       		.uleb128 0x23
 13152 1a4f 00003F37 		.4byte	.LASF353
 13153 1a53 01       		.byte	0x1
 13154 1a54 23       		.uleb128 0x23
 13155 1a55 00001B30 		.4byte	.LASF354
 13156 1a59 01       		.byte	0x1
 13157 1a5a 23       		.uleb128 0x23
 13158 1a5b 00000266 		.4byte	.LASF355
 13159 1a5f 01       		.byte	0x1
 13160 1a60 28       		.uleb128 0x28
 13161 1a61 00002142 		.4byte	.LASF807
 13162 1a65 01       		.byte	0x1
 13163 1a66 00001ADF 		.4byte	0x1adf
 13164 1a6a 29       		.uleb128 0x29
 13165 1a6b 00004423 		.4byte	.LASF808
 13166 1a6f 18       		.byte	0x18
 13167 1a70 02       		.byte	0x2
 13168 1a71 0198     		.2byte	0x198
 13169 1a73 2A       		.uleb128 0x2a
 13170 1a74 00002811 		.4byte	0x2811
 13171 1a78 02       		.byte	0x2
 13172 1a79 23       		.byte	0x23
 13173 1a7a 00       		.uleb128 0x0
 13174 1a7b 01       		.byte	0x1
 13175 1a7c 1B       		.uleb128 0x1b
 13176 1a7d 00002FA3 		.4byte	.LASF356
 13177 1a81 02       		.byte	0x2
 13178 1a82 0199     		.2byte	0x199
 13179 1a84 0000289C 		.4byte	0x289c
 13180 1a88 02       		.byte	0x2
 13181 1a89 23       		.byte	0x23
 13182 1a8a 00       		.uleb128 0x0
 13183 1a8b 1B       		.uleb128 0x1b
 13184 1a8c 0000330D 		.4byte	.LASF357
 13185 1a90 02       		.byte	0x2
 13186 1a91 019A     		.2byte	0x19a
 13187 1a93 0000233C 		.4byte	0x233c
 13188 1a97 02       		.byte	0x2
 13189 1a98 23       		.byte	0x23
 13190 1a99 04       		.uleb128 0x4
 13191 1a9a 1B       		.uleb128 0x1b
 13192 1a9b 00001A75 		.4byte	.LASF358
 13193 1a9f 02       		.byte	0x2
 13194 1aa0 019B     		.2byte	0x19b
 13195 1aa2 000009CA 		.4byte	0x9ca
 13196 1aa6 02       		.byte	0x2
 13197 1aa7 23       		.byte	0x23
 13198 1aa8 14       		.uleb128 0x14
 13199 1aa9 2B       		.uleb128 0x2b
 13200 1aaa 01       		.byte	0x1
 13201 1aab 00000EBA 		.4byte	.LASF379
 13202 1aaf 02       		.byte	0x2
 13203 1ab0 019E     		.2byte	0x19e
 13204 1ab2 01       		.byte	0x1
 13205 1ab3 00001AC8 		.4byte	0x1ac8
 13206 1ab7 2C       		.uleb128 0x2c
 13207 1ab8 000028DF 		.4byte	0x28df
 13208 1abc 01       		.byte	0x1
 13209 1abd 17       		.uleb128 0x17
 13210 1abe 00002889 		.4byte	0x2889
 13211 1ac2 17       		.uleb128 0x17
 13212 1ac3 000028E5 		.4byte	0x28e5
 13213 1ac7 00       		.byte	0x0
 13214 1ac8 2D       		.uleb128 0x2d
 13215 1ac9 01       		.byte	0x1
 13216 1aca 00003FF9 		.4byte	.LASF656
 13217 1ace 01       		.byte	0x1
 13218 1acf 01       		.byte	0x1
 13219 1ad0 2C       		.uleb128 0x2c
 13220 1ad1 000028DF 		.4byte	0x28df
 13221 1ad5 01       		.byte	0x1
 13222 1ad6 2C       		.uleb128 0x2c
 13223 1ad7 0000006B 		.4byte	0x6b
 13224 1adb 01       		.byte	0x1
 13225 1adc 00       		.byte	0x0
 13226 1add 00       		.byte	0x0
 13227 1ade 00       		.byte	0x0
 13228 1adf 23       		.uleb128 0x23
 13229 1ae0 00004640 		.4byte	.LASF359
 13230 1ae4 01       		.byte	0x1
 13231 1ae5 23       		.uleb128 0x23
 13232 1ae6 00003CEA 		.4byte	.LASF360
 13233 1aea 01       		.byte	0x1
 13234 1aeb 23       		.uleb128 0x23
 13235 1aec 00002219 		.4byte	.LASF361
 13236 1af0 01       		.byte	0x1
 13237 1af1 23       		.uleb128 0x23
 13238 1af2 00000A95 		.4byte	.LASF362
 13239 1af6 01       		.byte	0x1
 13240 1af7 23       		.uleb128 0x23
 13241 1af8 000052C6 		.4byte	.LASF363
 13242 1afc 01       		.byte	0x1
 13243 1afd 23       		.uleb128 0x23
 13244 1afe 000019EC 		.4byte	.LASF364
 13245 1b02 01       		.byte	0x1
 13246 1b03 23       		.uleb128 0x23
 13247 1b04 00003904 		.4byte	.LASF365
 13248 1b08 01       		.byte	0x1
 13249 1b09 23       		.uleb128 0x23
 13250 1b0a 0000138A 		.4byte	.LASF366
 13251 1b0e 01       		.byte	0x1
 13252 1b0f 23       		.uleb128 0x23
 13253 1b10 00002B2A 		.4byte	.LASF367
 13254 1b14 01       		.byte	0x1
 13255 1b15 23       		.uleb128 0x23
 13256 1b16 00003054 		.4byte	.LASF368
 13257 1b1a 01       		.byte	0x1
 13258 1b1b 00       		.byte	0x0
 13259 1b1c 07       		.uleb128 0x7
 13260 1b1d 04       		.byte	0x4
 13261 1b1e 05       		.byte	0x5
 13262 1b1f 07       		.uleb128 0x7
 13263 1b20 04       		.byte	0x4
 13264 1b21 07       		.byte	0x7
 13265 1b22 2E       		.uleb128 0x2e
 13266 1b23 01       		.byte	0x1
 13267 1b24 0000087A 		.4byte	.LASF369
 13268 1b28 22       		.byte	0x22
 13269 1b29 1E       		.byte	0x1e
 13270 1b2a 0000006B 		.4byte	0x6b
 13271 1b2e 01       		.byte	0x1
 13272 1b2f 00001B3E 		.4byte	0x1b3e
 13273 1b33 17       		.uleb128 0x17
 13274 1b34 0000081F 		.4byte	0x81f
 13275 1b38 17       		.uleb128 0x17
 13276 1b39 0000081F 		.4byte	0x81f
 13277 1b3d 00       		.byte	0x0
 13278 1b3e 2E       		.uleb128 0x2e
 13279 1b3f 01       		.byte	0x1
 13280 1b40 000029F4 		.4byte	.LASF370
 13281 1b44 22       		.byte	0x22
 13282 1b45 2F       		.byte	0x2f
 13283 1b46 000009CA 		.4byte	0x9ca
 13284 1b4a 01       		.byte	0x1
 13285 1b4b 00001B5F 		.4byte	0x1b5f
 13286 1b4f 17       		.uleb128 0x17
 13287 1b50 00000092 		.4byte	0x92
 13288 1b54 17       		.uleb128 0x17
 13289 1b55 0000081F 		.4byte	0x81f
 13290 1b59 17       		.uleb128 0x17
 13291 1b5a 000009CA 		.4byte	0x9ca
 13292 1b5e 00       		.byte	0x0
 13293 1b5f 2E       		.uleb128 0x2e
 13294 1b60 01       		.byte	0x1
 13295 1b61 00003866 		.4byte	.LASF371
 13296 1b65 22       		.byte	0x22
 13297 1b66 2C       		.byte	0x2c
 13298 1b67 00000092 		.4byte	0x92
 13299 1b6b 01       		.byte	0x1
 13300 1b6c 00001B7B 		.4byte	0x1b7b
 13301 1b70 17       		.uleb128 0x17
 13302 1b71 00000092 		.4byte	0x92
 13303 1b75 17       		.uleb128 0x17
 13304 1b76 0000081F 		.4byte	0x81f
 13305 1b7a 00       		.byte	0x0
 13306 1b7b 2E       		.uleb128 0x2e
 13307 1b7c 01       		.byte	0x1
 13308 1b7d 000029E0 		.4byte	.LASF372
 13309 1b81 22       		.byte	0x22
 13310 1b82 21       		.byte	0x21
 13311 1b83 00000092 		.4byte	0x92
 13312 1b87 01       		.byte	0x1
 13313 1b88 00001B92 		.4byte	0x1b92
 13314 1b8c 17       		.uleb128 0x17
 13315 1b8d 0000006B 		.4byte	0x6b
 13316 1b91 00       		.byte	0x0
 13317 1b92 2E       		.uleb128 0x2e
 13318 1b93 01       		.byte	0x1
 13319 1b94 0000548B 		.4byte	.LASF373
 13320 1b98 22       		.byte	0x22
 13321 1b99 16       		.byte	0x16
 13322 1b9a 000000C6 		.4byte	0xc6
 13323 1b9e 01       		.byte	0x1
 13324 1b9f 00001BB3 		.4byte	0x1bb3
 13325 1ba3 17       		.uleb128 0x17
 13326 1ba4 00000AA8 		.4byte	0xaa8
 13327 1ba8 17       		.uleb128 0x17
 13328 1ba9 0000006B 		.4byte	0x6b
 13329 1bad 17       		.uleb128 0x17
 13330 1bae 000009CA 		.4byte	0x9ca
 13331 1bb2 00       		.byte	0x0
 13332 1bb3 2E       		.uleb128 0x2e
 13333 1bb4 01       		.byte	0x1
 13334 1bb5 00000B43 		.4byte	.LASF374
 13335 1bb9 15       		.byte	0x15
 13336 1bba 3F       		.byte	0x3f
 13337 1bbb 0000006B 		.4byte	0x6b
 13338 1bbf 01       		.byte	0x1
 13339 1bc0 00001BCA 		.4byte	0x1bca
 13340 1bc4 17       		.uleb128 0x17
 13341 1bc5 000000A5 		.4byte	0xa5
 13342 1bc9 00       		.byte	0x0
 13343 1bca 2E       		.uleb128 0x2e
 13344 1bcb 01       		.byte	0x1
 13345 1bcc 00003767 		.4byte	.LASF375
 13346 1bd0 15       		.byte	0x15
 13347 1bd1 40       		.byte	0x40
 13348 1bd2 0000008B 		.4byte	0x8b
 13349 1bd6 01       		.byte	0x1
 13350 1bd7 00001BE1 		.4byte	0x1be1
 13351 1bdb 17       		.uleb128 0x17
 13352 1bdc 0000081F 		.4byte	0x81f
 13353 1be0 00       		.byte	0x0
 13354 1be1 2E       		.uleb128 0x2e
 13355 1be2 01       		.byte	0x1
 13356 1be3 00000862 		.4byte	.LASF376
 13357 1be7 15       		.byte	0x15
 13358 1be8 44       		.byte	0x44
 13359 1be9 0000006B 		.4byte	0x6b
 13360 1bed 01       		.byte	0x1
 13361 1bee 00001BF8 		.4byte	0x1bf8
 13362 1bf2 17       		.uleb128 0x17
 13363 1bf3 0000081F 		.4byte	0x81f
 13364 1bf7 00       		.byte	0x0
 13365 1bf8 2E       		.uleb128 0x2e
 13366 1bf9 01       		.byte	0x1
 13367 1bfa 00000867 		.4byte	.LASF377
 13368 1bfe 15       		.byte	0x15
 13369 1bff 46       		.byte	0x46
 13370 1c00 000009D5 		.4byte	0x9d5
 13371 1c04 01       		.byte	0x1
 13372 1c05 00001C0F 		.4byte	0x1c0f
 13373 1c09 17       		.uleb128 0x17
 13374 1c0a 0000081F 		.4byte	0x81f
 13375 1c0e 00       		.byte	0x0
 13376 1c0f 2E       		.uleb128 0x2e
 13377 1c10 01       		.byte	0x1
 13378 1c11 00003FCC 		.4byte	.LASF378
 13379 1c15 15       		.byte	0x15
 13380 1c16 48       		.byte	0x48
 13381 1c17 000000C6 		.4byte	0xc6
 13382 1c1b 01       		.byte	0x1
 13383 1c1c 00001C3A 		.4byte	0x1c3a
 13384 1c20 17       		.uleb128 0x17
 13385 1c21 00000AA8 		.4byte	0xaa8
 13386 1c25 17       		.uleb128 0x17
 13387 1c26 00000AA8 		.4byte	0xaa8
 13388 1c2a 17       		.uleb128 0x17
 13389 1c2b 000009CA 		.4byte	0x9ca
 13390 1c2f 17       		.uleb128 0x17
 13391 1c30 000009CA 		.4byte	0x9ca
 13392 1c34 17       		.uleb128 0x17
 13393 1c35 00001C3A 		.4byte	0x1c3a
 13394 1c39 00       		.byte	0x0
 13395 1c3a 05       		.uleb128 0x5
 13396 1c3b 04       		.byte	0x4
 13397 1c3c 00001C40 		.4byte	0x1c40
 13398 1c40 16       		.uleb128 0x16
 13399 1c41 0000006B 		.4byte	0x6b
 13400 1c45 00001C54 		.4byte	0x1c54
 13401 1c49 17       		.uleb128 0x17
 13402 1c4a 00000AA8 		.4byte	0xaa8
 13403 1c4e 17       		.uleb128 0x17
 13404 1c4f 00000AA8 		.4byte	0xaa8
 13405 1c53 00       		.byte	0x0
 13406 1c54 2F       		.uleb128 0x2f
 13407 1c55 01       		.byte	0x1
 13408 1c56 64697600 		.string	"div"
 13409 1c5a 15       		.byte	0x15
 13410 1c5b 4E       		.byte	0x4e
 13411 1c5c 00000B33 		.4byte	0xb33
 13412 1c60 01       		.byte	0x1
 13413 1c61 00001C70 		.4byte	0x1c70
 13414 1c65 17       		.uleb128 0x17
 13415 1c66 0000006B 		.4byte	0x6b
 13416 1c6a 17       		.uleb128 0x17
 13417 1c6b 0000006B 		.4byte	0x6b
 13418 1c6f 00       		.byte	0x0
 13419 1c70 30       		.uleb128 0x30
 13420 1c71 01       		.byte	0x1
 13421 1c72 00000CA6 		.4byte	.LASF150
 13422 1c76 23       		.byte	0x23
 13423 1c77 2D       		.byte	0x2d
 13424 1c78 01       		.byte	0x1
 13425 1c79 00001C83 		.4byte	0x1c83
 13426 1c7d 17       		.uleb128 0x17
 13427 1c7e 000000C6 		.4byte	0xc6
 13428 1c82 00       		.byte	0x0
 13429 1c83 2E       		.uleb128 0x2e
 13430 1c84 01       		.byte	0x1
 13431 1c85 00004B7E 		.4byte	.LASF380
 13432 1c89 15       		.byte	0x15
 13433 1c8a 51       		.byte	0x51
 13434 1c8b 00000092 		.4byte	0x92
 13435 1c8f 01       		.byte	0x1
 13436 1c90 00001C9A 		.4byte	0x1c9a
 13437 1c94 17       		.uleb128 0x17
 13438 1c95 0000081F 		.4byte	0x81f
 13439 1c99 00       		.byte	0x0
 13440 1c9a 2E       		.uleb128 0x2e
 13441 1c9b 01       		.byte	0x1
 13442 1c9c 00004230 		.4byte	.LASF381
 13443 1ca0 15       		.byte	0x15
 13444 1ca1 56       		.byte	0x56
 13445 1ca2 00000B5C 		.4byte	0xb5c
 13446 1ca6 01       		.byte	0x1
 13447 1ca7 00001CB6 		.4byte	0x1cb6
 13448 1cab 17       		.uleb128 0x17
 13449 1cac 000009D5 		.4byte	0x9d5
 13450 1cb0 17       		.uleb128 0x17
 13451 1cb1 000009D5 		.4byte	0x9d5
 13452 1cb5 00       		.byte	0x0
 13453 1cb6 2E       		.uleb128 0x2e
 13454 1cb7 01       		.byte	0x1
 13455 1cb8 00002632 		.4byte	.LASF382
 13456 1cbc 15       		.byte	0x15
 13457 1cbd 58       		.byte	0x58
 13458 1cbe 0000006B 		.4byte	0x6b
 13459 1cc2 01       		.byte	0x1
 13460 1cc3 00001CD2 		.4byte	0x1cd2
 13461 1cc7 17       		.uleb128 0x17
 13462 1cc8 0000081F 		.4byte	0x81f
 13463 1ccc 17       		.uleb128 0x17
 13464 1ccd 000009CA 		.4byte	0x9ca
 13465 1cd1 00       		.byte	0x0
 13466 1cd2 2E       		.uleb128 0x2e
 13467 1cd3 01       		.byte	0x1
 13468 1cd4 00003FE8 		.4byte	.LASF383
 13469 1cd8 15       		.byte	0x15
 13470 1cd9 5E       		.byte	0x5e
 13471 1cda 000009CA 		.4byte	0x9ca
 13472 1cde 01       		.byte	0x1
 13473 1cdf 00001CF3 		.4byte	0x1cf3
 13474 1ce3 17       		.uleb128 0x17
 13475 1ce4 00001CF3 		.4byte	0x1cf3
 13476 1ce8 17       		.uleb128 0x17
 13477 1ce9 0000081F 		.4byte	0x81f
 13478 1ced 17       		.uleb128 0x17
 13479 1cee 000009CA 		.4byte	0x9ca
 13480 1cf2 00       		.byte	0x0
 13481 1cf3 05       		.uleb128 0x5
 13482 1cf4 04       		.byte	0x4
 13483 1cf5 00001CF9 		.4byte	0x1cf9
 13484 1cf9 03       		.uleb128 0x3
 13485 1cfa 04       		.byte	0x4
 13486 1cfb 05       		.byte	0x5
 13487 1cfc 00003219 		.4byte	.LASF384
 13488 1d00 2E       		.uleb128 0x2e
 13489 1d01 01       		.byte	0x1
 13490 1d02 00004749 		.4byte	.LASF385
 13491 1d06 15       		.byte	0x15
 13492 1d07 5A       		.byte	0x5a
 13493 1d08 0000006B 		.4byte	0x6b
 13494 1d0c 01       		.byte	0x1
 13495 1d0d 00001D21 		.4byte	0x1d21
 13496 1d11 17       		.uleb128 0x17
 13497 1d12 00001CF3 		.4byte	0x1cf3
 13498 1d16 17       		.uleb128 0x17
 13499 1d17 0000081F 		.4byte	0x81f
 13500 1d1b 17       		.uleb128 0x17
 13501 1d1c 000009CA 		.4byte	0x9ca
 13502 1d20 00       		.byte	0x0
 13503 1d21 30       		.uleb128 0x30
 13504 1d22 01       		.byte	0x1
 13505 1d23 000044B1 		.4byte	.LASF386
 13506 1d27 15       		.byte	0x15
 13507 1d28 68       		.byte	0x68
 13508 1d29 01       		.byte	0x1
 13509 1d2a 00001D43 		.4byte	0x1d43
 13510 1d2e 17       		.uleb128 0x17
 13511 1d2f 000000C6 		.4byte	0xc6
 13512 1d33 17       		.uleb128 0x17
 13513 1d34 000009CA 		.4byte	0x9ca
 13514 1d38 17       		.uleb128 0x17
 13515 1d39 000009CA 		.4byte	0x9ca
 13516 1d3d 17       		.uleb128 0x17
 13517 1d3e 00001C3A 		.4byte	0x1c3a
 13518 1d42 00       		.byte	0x0
 13519 1d43 31       		.uleb128 0x31
 13520 1d44 01       		.byte	0x1
 13521 1d45 00004B90 		.4byte	.LASF412
 13522 1d49 15       		.byte	0x15
 13523 1d4a 69       		.byte	0x69
 13524 1d4b 0000006B 		.4byte	0x6b
 13525 1d4f 01       		.byte	0x1
 13526 1d50 2E       		.uleb128 0x2e
 13527 1d51 01       		.byte	0x1
 13528 1d52 00003D37 		.4byte	.LASF151
 13529 1d56 23       		.byte	0x23
 13530 1d57 35       		.byte	0x35
 13531 1d58 000000C6 		.4byte	0xc6
 13532 1d5c 01       		.byte	0x1
 13533 1d5d 00001D6C 		.4byte	0x1d6c
 13534 1d61 17       		.uleb128 0x17
 13535 1d62 000000C6 		.4byte	0xc6
 13536 1d66 17       		.uleb128 0x17
 13537 1d67 000009CA 		.4byte	0x9ca
 13538 1d6b 00       		.byte	0x0
 13539 1d6c 30       		.uleb128 0x30
 13540 1d6d 01       		.byte	0x1
 13541 1d6e 00002D0B 		.4byte	.LASF387
 13542 1d72 15       		.byte	0x15
 13543 1d73 6B       		.byte	0x6b
 13544 1d74 01       		.byte	0x1
 13545 1d75 00001D7F 		.4byte	0x1d7f
 13546 1d79 17       		.uleb128 0x17
 13547 1d7a 00000044 		.4byte	0x44
 13548 1d7e 00       		.byte	0x0
 13549 1d7f 2E       		.uleb128 0x2e
 13550 1d80 01       		.byte	0x1
 13551 1d81 00003856 		.4byte	.LASF388
 13552 1d85 15       		.byte	0x15
 13553 1d86 6C       		.byte	0x6c
 13554 1d87 0000008B 		.4byte	0x8b
 13555 1d8b 01       		.byte	0x1
 13556 1d8c 00001D9B 		.4byte	0x1d9b
 13557 1d90 17       		.uleb128 0x17
 13558 1d91 0000081F 		.4byte	0x81f
 13559 1d95 17       		.uleb128 0x17
 13560 1d96 0000009F 		.4byte	0x9f
 13561 1d9a 00       		.byte	0x0
 13562 1d9b 2E       		.uleb128 0x2e
 13563 1d9c 01       		.byte	0x1
 13564 1d9d 0000386D 		.4byte	.LASF389
 13565 1da1 15       		.byte	0x15
 13566 1da2 75       		.byte	0x75
 13567 1da3 000009D5 		.4byte	0x9d5
 13568 1da7 01       		.byte	0x1
 13569 1da8 00001DBC 		.4byte	0x1dbc
 13570 1dac 17       		.uleb128 0x17
 13571 1dad 0000081F 		.4byte	0x81f
 13572 1db1 17       		.uleb128 0x17
 13573 1db2 0000009F 		.4byte	0x9f
 13574 1db6 17       		.uleb128 0x17
 13575 1db7 0000006B 		.4byte	0x6b
 13576 1dbb 00       		.byte	0x0
 13577 1dbc 2E       		.uleb128 0x2e
 13578 1dbd 01       		.byte	0x1
 13579 1dbe 000028FD 		.4byte	.LASF390
 13580 1dc2 15       		.byte	0x15
 13581 1dc3 77       		.byte	0x77
 13582 1dc4 000001D9 		.4byte	0x1d9
 13583 1dc8 01       		.byte	0x1
 13584 1dc9 00001DDD 		.4byte	0x1ddd
 13585 1dcd 17       		.uleb128 0x17
 13586 1dce 0000081F 		.4byte	0x81f
 13587 1dd2 17       		.uleb128 0x17
 13588 1dd3 0000009F 		.4byte	0x9f
 13589 1dd7 17       		.uleb128 0x17
 13590 1dd8 0000006B 		.4byte	0x6b
 13591 1ddc 00       		.byte	0x0
 13592 1ddd 2E       		.uleb128 0x2e
 13593 1dde 01       		.byte	0x1
 13594 1ddf 00002FB2 		.4byte	.LASF391
 13595 1de3 15       		.byte	0x15
 13596 1de4 7A       		.byte	0x7a
 13597 1de5 0000006B 		.4byte	0x6b
 13598 1de9 01       		.byte	0x1
 13599 1dea 00001DF4 		.4byte	0x1df4
 13600 1dee 17       		.uleb128 0x17
 13601 1def 0000081F 		.4byte	0x81f
 13602 1df3 00       		.byte	0x0
 13603 1df4 13       		.uleb128 0x13
 13604 1df5 0000006D 		.4byte	.LASF392
 13605 1df9 30       		.byte	0x30
 13606 1dfa 24       		.byte	0x24
 13607 1dfb 1B       		.byte	0x1b
 13608 1dfc 00001EFD 		.4byte	0x1efd
 13609 1e00 12       		.uleb128 0x12
 13610 1e01 00002885 		.4byte	.LASF393
 13611 1e05 24       		.byte	0x24
 13612 1e06 1C       		.byte	0x1c
 13613 1e07 00000092 		.4byte	0x92
 13614 1e0b 02       		.byte	0x2
 13615 1e0c 23       		.byte	0x23
 13616 1e0d 00       		.uleb128 0x0
 13617 1e0e 12       		.uleb128 0x12
 13618 1e0f 00000EC8 		.4byte	.LASF394
 13619 1e13 24       		.byte	0x24
 13620 1e14 1D       		.byte	0x1d
 13621 1e15 00000092 		.4byte	0x92
 13622 1e19 02       		.byte	0x2
 13623 1e1a 23       		.byte	0x23
 13624 1e1b 04       		.uleb128 0x4
 13625 1e1c 12       		.uleb128 0x12
 13626 1e1d 00000738 		.4byte	.LASF395
 13627 1e21 24       		.byte	0x24
 13628 1e22 1E       		.byte	0x1e
 13629 1e23 00000092 		.4byte	0x92
 13630 1e27 02       		.byte	0x2
 13631 1e28 23       		.byte	0x23
 13632 1e29 08       		.uleb128 0x8
 13633 1e2a 12       		.uleb128 0x12
 13634 1e2b 000009E9 		.4byte	.LASF396
 13635 1e2f 24       		.byte	0x24
 13636 1e30 1F       		.byte	0x1f
 13637 1e31 00000092 		.4byte	0x92
 13638 1e35 02       		.byte	0x2
 13639 1e36 23       		.byte	0x23
 13640 1e37 0C       		.uleb128 0xc
 13641 1e38 12       		.uleb128 0x12
 13642 1e39 000012E2 		.4byte	.LASF397
 13643 1e3d 24       		.byte	0x24
 13644 1e3e 20       		.byte	0x20
 13645 1e3f 00000092 		.4byte	0x92
 13646 1e43 02       		.byte	0x2
 13647 1e44 23       		.byte	0x23
 13648 1e45 10       		.uleb128 0x10
 13649 1e46 12       		.uleb128 0x12
 13650 1e47 00003795 		.4byte	.LASF398
 13651 1e4b 24       		.byte	0x24
 13652 1e4c 21       		.byte	0x21
 13653 1e4d 00000092 		.4byte	0x92
 13654 1e51 02       		.byte	0x2
 13655 1e52 23       		.byte	0x23
 13656 1e53 14       		.uleb128 0x14
 13657 1e54 12       		.uleb128 0x12
 13658 1e55 00002579 		.4byte	.LASF399
 13659 1e59 24       		.byte	0x24
 13660 1e5a 22       		.byte	0x22
 13661 1e5b 00000092 		.4byte	0x92
 13662 1e5f 02       		.byte	0x2
 13663 1e60 23       		.byte	0x23
 13664 1e61 18       		.uleb128 0x18
 13665 1e62 12       		.uleb128 0x12
 13666 1e63 00002E05 		.4byte	.LASF400
 13667 1e67 24       		.byte	0x24
 13668 1e68 23       		.byte	0x23
 13669 1e69 00000092 		.4byte	0x92
 13670 1e6d 02       		.byte	0x2
 13671 1e6e 23       		.byte	0x23
 13672 1e6f 1C       		.uleb128 0x1c
 13673 1e70 12       		.uleb128 0x12
 13674 1e71 00004632 		.4byte	.LASF401
 13675 1e75 24       		.byte	0x24
 13676 1e76 24       		.byte	0x24
 13677 1e77 00000092 		.4byte	0x92
 13678 1e7b 02       		.byte	0x2
 13679 1e7c 23       		.byte	0x23
 13680 1e7d 20       		.uleb128 0x20
 13681 1e7e 12       		.uleb128 0x12
 13682 1e7f 00001BFD 		.4byte	.LASF402
 13683 1e83 24       		.byte	0x24
 13684 1e84 25       		.byte	0x25
 13685 1e85 00000092 		.4byte	0x92
 13686 1e89 02       		.byte	0x2
 13687 1e8a 23       		.byte	0x23
 13688 1e8b 24       		.uleb128 0x24
 13689 1e8c 12       		.uleb128 0x12
 13690 1e8d 00000E7D 		.4byte	.LASF403
 13691 1e91 24       		.byte	0x24
 13692 1e92 26       		.byte	0x26
 13693 1e93 00000098 		.4byte	0x98
 13694 1e97 02       		.byte	0x2
 13695 1e98 23       		.byte	0x23
 13696 1e99 28       		.uleb128 0x28
 13697 1e9a 12       		.uleb128 0x12
 13698 1e9b 0000295F 		.4byte	.LASF404
 13699 1e9f 24       		.byte	0x24
 13700 1ea0 27       		.byte	0x27
 13701 1ea1 00000098 		.4byte	0x98
 13702 1ea5 02       		.byte	0x2
 13703 1ea6 23       		.byte	0x23
 13704 1ea7 29       		.uleb128 0x29
 13705 1ea8 12       		.uleb128 0x12
 13706 1ea9 00002D11 		.4byte	.LASF405
 13707 1ead 24       		.byte	0x24
 13708 1eae 28       		.byte	0x28
 13709 1eaf 00000098 		.4byte	0x98
 13710 1eb3 02       		.byte	0x2
 13711 1eb4 23       		.byte	0x23
 13712 1eb5 2A       		.uleb128 0x2a
 13713 1eb6 12       		.uleb128 0x12
 13714 1eb7 000038C3 		.4byte	.LASF406
 13715 1ebb 24       		.byte	0x24
 13716 1ebc 29       		.byte	0x29
 13717 1ebd 00000098 		.4byte	0x98
 13718 1ec1 02       		.byte	0x2
 13719 1ec2 23       		.byte	0x23
 13720 1ec3 2B       		.uleb128 0x2b
 13721 1ec4 12       		.uleb128 0x12
 13722 1ec5 00004EA9 		.4byte	.LASF407
 13723 1ec9 24       		.byte	0x24
 13724 1eca 2A       		.byte	0x2a
 13725 1ecb 00000098 		.4byte	0x98
 13726 1ecf 02       		.byte	0x2
 13727 1ed0 23       		.byte	0x23
 13728 1ed1 2C       		.uleb128 0x2c
 13729 1ed2 12       		.uleb128 0x12
 13730 1ed3 00002B9D 		.4byte	.LASF408
 13731 1ed7 24       		.byte	0x24
 13732 1ed8 2B       		.byte	0x2b
 13733 1ed9 00000098 		.4byte	0x98
 13734 1edd 02       		.byte	0x2
 13735 1ede 23       		.byte	0x23
 13736 1edf 2D       		.uleb128 0x2d
 13737 1ee0 12       		.uleb128 0x12
 13738 1ee1 00004CBF 		.4byte	.LASF409
 13739 1ee5 24       		.byte	0x24
 13740 1ee6 2C       		.byte	0x2c
 13741 1ee7 00000098 		.4byte	0x98
 13742 1eeb 02       		.byte	0x2
 13743 1eec 23       		.byte	0x23
 13744 1eed 2E       		.uleb128 0x2e
 13745 1eee 12       		.uleb128 0x12
 13746 1eef 0000335F 		.4byte	.LASF410
 13747 1ef3 24       		.byte	0x24
 13748 1ef4 2D       		.byte	0x2d
 13749 1ef5 00000098 		.4byte	0x98
 13750 1ef9 02       		.byte	0x2
 13751 1efa 23       		.byte	0x23
 13752 1efb 2F       		.uleb128 0x2f
 13753 1efc 00       		.byte	0x0
 13754 1efd 2E       		.uleb128 0x2e
 13755 1efe 01       		.byte	0x1
 13756 1eff 00000A48 		.4byte	.LASF411
 13757 1f03 24       		.byte	0x24
 13758 1f04 31       		.byte	0x31
 13759 1f05 00000092 		.4byte	0x92
 13760 1f09 01       		.byte	0x1
 13761 1f0a 00001F19 		.4byte	0x1f19
 13762 1f0e 17       		.uleb128 0x17
 13763 1f0f 0000006B 		.4byte	0x6b
 13764 1f13 17       		.uleb128 0x17
 13765 1f14 0000081F 		.4byte	0x81f
 13766 1f18 00       		.byte	0x0
 13767 1f19 31       		.uleb128 0x31
 13768 1f1a 01       		.byte	0x1
 13769 1f1b 00004FBA 		.4byte	.LASF413
 13770 1f1f 24       		.byte	0x24
 13771 1f20 32       		.byte	0x32
 13772 1f21 00001F26 		.4byte	0x1f26
 13773 1f25 01       		.byte	0x1
 13774 1f26 05       		.uleb128 0x5
 13775 1f27 04       		.byte	0x4
 13776 1f28 00001DF4 		.4byte	0x1df4
 13777 1f2c 07       		.uleb128 0x7
 13778 1f2d 08       		.byte	0x8
 13779 1f2e 05       		.byte	0x5
 13780 1f2f 30       		.uleb128 0x30
 13781 1f30 01       		.byte	0x1
 13782 1f31 00002B94 		.4byte	.LASF414
 13783 1f35 14       		.byte	0x14
 13784 1f36 DB       		.byte	0xdb
 13785 1f37 01       		.byte	0x1
 13786 1f38 00001F42 		.4byte	0x1f42
 13787 1f3c 17       		.uleb128 0x17
 13788 1f3d 00001F42 		.4byte	0x1f42
 13789 1f41 00       		.byte	0x0
 13790 1f42 05       		.uleb128 0x5
 13791 1f43 04       		.byte	0x4
 13792 1f44 00000B1D 		.4byte	0xb1d
 13793 1f48 2E       		.uleb128 0x2e
 13794 1f49 01       		.byte	0x1
 13795 1f4a 000028F0 		.4byte	.LASF415
 13796 1f4e 14       		.byte	0x14
 13797 1f4f AC       		.byte	0xac
 13798 1f50 0000006B 		.4byte	0x6b
 13799 1f54 01       		.byte	0x1
 13800 1f55 00001F5F 		.4byte	0x1f5f
 13801 1f59 17       		.uleb128 0x17
 13802 1f5a 00001F42 		.4byte	0x1f42
 13803 1f5e 00       		.byte	0x0
 13804 1f5f 2E       		.uleb128 0x2e
 13805 1f60 01       		.byte	0x1
 13806 1f61 0000049F 		.4byte	.LASF416
 13807 1f65 14       		.byte	0x14
 13808 1f66 DC       		.byte	0xdc
 13809 1f67 0000006B 		.4byte	0x6b
 13810 1f6b 01       		.byte	0x1
 13811 1f6c 00001F76 		.4byte	0x1f76
 13812 1f70 17       		.uleb128 0x17
 13813 1f71 00001F42 		.4byte	0x1f42
 13814 1f75 00       		.byte	0x0
 13815 1f76 2E       		.uleb128 0x2e
 13816 1f77 01       		.byte	0x1
 13817 1f78 00003A22 		.4byte	.LASF417
 13818 1f7c 14       		.byte	0x14
 13819 1f7d DD       		.byte	0xdd
 13820 1f7e 0000006B 		.4byte	0x6b
 13821 1f82 01       		.byte	0x1
 13822 1f83 00001F8D 		.4byte	0x1f8d
 13823 1f87 17       		.uleb128 0x17
 13824 1f88 00001F42 		.4byte	0x1f42
 13825 1f8c 00       		.byte	0x0
 13826 1f8d 2E       		.uleb128 0x2e
 13827 1f8e 01       		.byte	0x1
 13828 1f8f 000051CF 		.4byte	.LASF418
 13829 1f93 14       		.byte	0x14
 13830 1f94 AD       		.byte	0xad
 13831 1f95 0000006B 		.4byte	0x6b
 13832 1f99 01       		.byte	0x1
 13833 1f9a 00001FA4 		.4byte	0x1fa4
 13834 1f9e 17       		.uleb128 0x17
 13835 1f9f 00001F42 		.4byte	0x1f42
 13836 1fa3 00       		.byte	0x0
 13837 1fa4 2E       		.uleb128 0x2e
 13838 1fa5 01       		.byte	0x1
 13839 1fa6 00002E6D 		.4byte	.LASF419
 13840 1faa 14       		.byte	0x14
 13841 1fab C1       		.byte	0xc1
 13842 1fac 0000006B 		.4byte	0x6b
 13843 1fb0 01       		.byte	0x1
 13844 1fb1 00001FBB 		.4byte	0x1fbb
 13845 1fb5 17       		.uleb128 0x17
 13846 1fb6 00001F42 		.4byte	0x1f42
 13847 1fba 00       		.byte	0x0
 13848 1fbb 2E       		.uleb128 0x2e
 13849 1fbc 01       		.byte	0x1
 13850 1fbd 00003596 		.4byte	.LASF420
 13851 1fc1 14       		.byte	0x14
 13852 1fc2 D1       		.byte	0xd1
 13853 1fc3 0000006B 		.4byte	0x6b
 13854 1fc7 01       		.byte	0x1
 13855 1fc8 00001FD7 		.4byte	0x1fd7
 13856 1fcc 17       		.uleb128 0x17
 13857 1fcd 00001F42 		.4byte	0x1f42
 13858 1fd1 17       		.uleb128 0x17
 13859 1fd2 00001FD7 		.4byte	0x1fd7
 13860 1fd6 00       		.byte	0x0
 13861 1fd7 05       		.uleb128 0x5
 13862 1fd8 04       		.byte	0x4
 13863 1fd9 00000B28 		.4byte	0xb28
 13864 1fdd 2E       		.uleb128 0x2e
 13865 1fde 01       		.byte	0x1
 13866 1fdf 00000F32 		.4byte	.LASF421
 13867 1fe3 14       		.byte	0x14
 13868 1fe4 C2       		.byte	0xc2
 13869 1fe5 00000092 		.4byte	0x92
 13870 1fe9 01       		.byte	0x1
 13871 1fea 00001FFE 		.4byte	0x1ffe
 13872 1fee 17       		.uleb128 0x17
 13873 1fef 00000092 		.4byte	0x92
 13874 1ff3 17       		.uleb128 0x17
 13875 1ff4 0000006B 		.4byte	0x6b
 13876 1ff8 17       		.uleb128 0x17
 13877 1ff9 00001F42 		.4byte	0x1f42
 13878 1ffd 00       		.byte	0x0
 13879 1ffe 2E       		.uleb128 0x2e
 13880 1fff 01       		.byte	0x1
 13881 2000 0000491E 		.4byte	.LASF422
 13882 2004 14       		.byte	0x14
 13883 2005 E0       		.byte	0xe0
 13884 2006 00001F42 		.4byte	0x1f42
 13885 200a 01       		.byte	0x1
 13886 200b 0000201A 		.4byte	0x201a
 13887 200f 17       		.uleb128 0x17
 13888 2010 0000081F 		.4byte	0x81f
 13889 2014 17       		.uleb128 0x17
 13890 2015 0000081F 		.4byte	0x81f
 13891 2019 00       		.byte	0x0
 13892 201a 2E       		.uleb128 0x2e
 13893 201b 01       		.byte	0x1
 13894 201c 00000E77 		.4byte	.LASF423
 13895 2020 14       		.byte	0x14
 13896 2021 CC       		.byte	0xcc
 13897 2022 000009CA 		.4byte	0x9ca
 13898 2026 01       		.byte	0x1
 13899 2027 00002040 		.4byte	0x2040
 13900 202b 17       		.uleb128 0x17
 13901 202c 000000C6 		.4byte	0xc6
 13902 2030 17       		.uleb128 0x17
 13903 2031 000009CA 		.4byte	0x9ca
 13904 2035 17       		.uleb128 0x17
 13905 2036 000009CA 		.4byte	0x9ca
 13906 203a 17       		.uleb128 0x17
 13907 203b 00001F42 		.4byte	0x1f42
 13908 203f 00       		.byte	0x0
 13909 2040 2E       		.uleb128 0x2e
 13910 2041 01       		.byte	0x1
 13911 2042 00000FA0 		.4byte	.LASF424
 13912 2046 14       		.byte	0x14
 13913 2047 AE       		.byte	0xae
 13914 2048 00001F42 		.4byte	0x1f42
 13915 204c 01       		.byte	0x1
 13916 204d 00002061 		.4byte	0x2061
 13917 2051 17       		.uleb128 0x17
 13918 2052 0000081F 		.4byte	0x81f
 13919 2056 17       		.uleb128 0x17
 13920 2057 0000081F 		.4byte	0x81f
 13921 205b 17       		.uleb128 0x17
 13922 205c 00001F42 		.4byte	0x1f42
 13923 2060 00       		.byte	0x0
 13924 2061 2E       		.uleb128 0x2e
 13925 2062 01       		.byte	0x1
 13926 2063 00003F6F 		.4byte	.LASF425
 13927 2067 14       		.byte	0x14
 13928 2068 D3       		.byte	0xd3
 13929 2069 0000006B 		.4byte	0x6b
 13930 206d 01       		.byte	0x1
 13931 206e 00002082 		.4byte	0x2082
 13932 2072 17       		.uleb128 0x17
 13933 2073 00001F42 		.4byte	0x1f42
 13934 2077 17       		.uleb128 0x17
 13935 2078 000009D5 		.4byte	0x9d5
 13936 207c 17       		.uleb128 0x17
 13937 207d 0000006B 		.4byte	0x6b
 13938 2081 00       		.byte	0x0
 13939 2082 2E       		.uleb128 0x2e
 13940 2083 01       		.byte	0x1
 13941 2084 000040E1 		.4byte	.LASF426
 13942 2088 14       		.byte	0x14
 13943 2089 D7       		.byte	0xd7
 13944 208a 0000006B 		.4byte	0x6b
 13945 208e 01       		.byte	0x1
 13946 208f 0000209E 		.4byte	0x209e
 13947 2093 17       		.uleb128 0x17
 13948 2094 00001F42 		.4byte	0x1f42
 13949 2098 17       		.uleb128 0x17
 13950 2099 0000209E 		.4byte	0x209e
 13951 209d 00       		.byte	0x0
 13952 209e 05       		.uleb128 0x5
 13953 209f 04       		.byte	0x4
 13954 20a0 000020A4 		.4byte	0x20a4
 13955 20a4 1D       		.uleb128 0x1d
 13956 20a5 00000B28 		.4byte	0xb28
 13957 20a9 2E       		.uleb128 0x2e
 13958 20aa 01       		.byte	0x1
 13959 20ab 00001CEB 		.4byte	.LASF427
 13960 20af 14       		.byte	0x14
 13961 20b0 D9       		.byte	0xd9
 13962 20b1 000009D5 		.4byte	0x9d5
 13963 20b5 01       		.byte	0x1
 13964 20b6 000020C0 		.4byte	0x20c0
 13965 20ba 17       		.uleb128 0x17
 13966 20bb 00001F42 		.4byte	0x1f42
 13967 20bf 00       		.byte	0x0
 13968 20c0 2E       		.uleb128 0x2e
 13969 20c1 01       		.byte	0x1
 13970 20c2 0000372A 		.4byte	.LASF428
 13971 20c6 14       		.byte	0x14
 13972 20c7 C5       		.byte	0xc5
 13973 20c8 0000006B 		.4byte	0x6b
 13974 20cc 01       		.byte	0x1
 13975 20cd 000020D7 		.4byte	0x20d7
 13976 20d1 17       		.uleb128 0x17
 13977 20d2 00001F42 		.4byte	0x1f42
 13978 20d6 00       		.byte	0x0
 13979 20d7 31       		.uleb128 0x31
 13980 20d8 01       		.byte	0x1
 13981 20d9 00004D4A 		.4byte	.LASF429
 13982 20dd 14       		.byte	0x14
 13983 20de C6       		.byte	0xc6
 13984 20df 0000006B 		.4byte	0x6b
 13985 20e3 01       		.byte	0x1
 13986 20e4 2E       		.uleb128 0x2e
 13987 20e5 01       		.byte	0x1
 13988 20e6 00004C29 		.4byte	.LASF430
 13989 20ea 14       		.byte	0x14
 13990 20eb C7       		.byte	0xc7
 13991 20ec 00000092 		.4byte	0x92
 13992 20f0 01       		.byte	0x1
 13993 20f1 000020FB 		.4byte	0x20fb
 13994 20f5 17       		.uleb128 0x17
 13995 20f6 00000092 		.4byte	0x92
 13996 20fa 00       		.byte	0x0
 13997 20fb 30       		.uleb128 0x30
 13998 20fc 01       		.byte	0x1
 13999 20fd 000023F5 		.4byte	.LASF431
 14000 2101 14       		.byte	0x14
 14001 2102 DE       		.byte	0xde
 14002 2103 01       		.byte	0x1
 14003 2104 0000210E 		.4byte	0x210e
 14004 2108 17       		.uleb128 0x17
 14005 2109 0000081F 		.4byte	0x81f
 14006 210d 00       		.byte	0x0
 14007 210e 2E       		.uleb128 0x2e
 14008 210f 01       		.byte	0x1
 14009 2110 00003525 		.4byte	.LASF432
 14010 2114 14       		.byte	0x14
 14011 2115 E3       		.byte	0xe3
 14012 2116 0000006B 		.4byte	0x6b
 14013 211a 01       		.byte	0x1
 14014 211b 00002125 		.4byte	0x2125
 14015 211f 17       		.uleb128 0x17
 14016 2120 0000081F 		.4byte	0x81f
 14017 2124 00       		.byte	0x0
 14018 2125 2E       		.uleb128 0x2e
 14019 2126 01       		.byte	0x1
 14020 2127 00000D87 		.4byte	.LASF433
 14021 212b 14       		.byte	0x14
 14022 212c E4       		.byte	0xe4
 14023 212d 0000006B 		.4byte	0x6b
 14024 2131 01       		.byte	0x1
 14025 2132 00002141 		.4byte	0x2141
 14026 2136 17       		.uleb128 0x17
 14027 2137 0000081F 		.4byte	0x81f
 14028 213b 17       		.uleb128 0x17
 14029 213c 0000081F 		.4byte	0x81f
 14030 2140 00       		.byte	0x0
 14031 2141 30       		.uleb128 0x30
 14032 2142 01       		.byte	0x1
 14033 2143 00001915 		.4byte	.LASF434
 14034 2147 14       		.byte	0x14
 14035 2148 DA       		.byte	0xda
 14036 2149 01       		.byte	0x1
 14037 214a 00002154 		.4byte	0x2154
 14038 214e 17       		.uleb128 0x17
 14039 214f 00001F42 		.4byte	0x1f42
 14040 2153 00       		.byte	0x0
 14041 2154 30       		.uleb128 0x30
 14042 2155 01       		.byte	0x1
 14043 2156 00001780 		.4byte	.LASF435
 14044 215a 14       		.byte	0x14
 14045 215b AF       		.byte	0xaf
 14046 215c 01       		.byte	0x1
 14047 215d 0000216C 		.4byte	0x216c
 14048 2161 17       		.uleb128 0x17
 14049 2162 00001F42 		.4byte	0x1f42
 14050 2166 17       		.uleb128 0x17
 14051 2167 00000092 		.4byte	0x92
 14052 216b 00       		.byte	0x0
 14053 216c 2E       		.uleb128 0x2e
 14054 216d 01       		.byte	0x1
 14055 216e 0000467C 		.4byte	.LASF436
 14056 2172 14       		.byte	0x14
 14057 2173 B0       		.byte	0xb0
 14058 2174 0000006B 		.4byte	0x6b
 14059 2178 01       		.byte	0x1
 14060 2179 00002192 		.4byte	0x2192
 14061 217d 17       		.uleb128 0x17
 14062 217e 00001F42 		.4byte	0x1f42
 14063 2182 17       		.uleb128 0x17
 14064 2183 00000092 		.4byte	0x92
 14065 2187 17       		.uleb128 0x17
 14066 2188 0000006B 		.4byte	0x6b
 14067 218c 17       		.uleb128 0x17
 14068 218d 000009CA 		.4byte	0x9ca
 14069 2191 00       		.byte	0x0
 14070 2192 31       		.uleb128 0x31
 14071 2193 01       		.byte	0x1
 14072 2194 000029FC 		.4byte	.LASF437
 14073 2198 14       		.byte	0x14
 14074 2199 AA       		.byte	0xaa
 14075 219a 00001F42 		.4byte	0x1f42
 14076 219e 01       		.byte	0x1
 14077 219f 2E       		.uleb128 0x2e
 14078 21a0 01       		.byte	0x1
 14079 21a1 000039AE 		.4byte	.LASF438
 14080 21a5 14       		.byte	0x14
 14081 21a6 AB       		.byte	0xab
 14082 21a7 00000092 		.4byte	0x92
 14083 21ab 01       		.byte	0x1
 14084 21ac 000021B6 		.4byte	0x21b6
 14085 21b0 17       		.uleb128 0x17
 14086 21b1 00000092 		.4byte	0x92
 14087 21b5 00       		.byte	0x0
 14088 21b6 2E       		.uleb128 0x2e
 14089 21b7 01       		.byte	0x1
 14090 21b8 00002BC7 		.4byte	.LASF439
 14091 21bc 14       		.byte	0x14
 14092 21bd CB       		.byte	0xcb
 14093 21be 0000006B 		.4byte	0x6b
 14094 21c2 01       		.byte	0x1
 14095 21c3 000021D2 		.4byte	0x21d2
 14096 21c7 17       		.uleb128 0x17
 14097 21c8 0000006B 		.4byte	0x6b
 14098 21cc 17       		.uleb128 0x17
 14099 21cd 00001F42 		.4byte	0x1f42
 14100 21d1 00       		.byte	0x0
 14101 21d2 07       		.uleb128 0x7
 14102 21d3 04       		.byte	0x4
 14103 21d4 07       		.byte	0x7
 14104 21d5 07       		.uleb128 0x7
 14105 21d6 04       		.byte	0x4
 14106 21d7 05       		.byte	0x5
 14107 21d8 31       		.uleb128 0x31
 14108 21d9 01       		.byte	0x1
 14109 21da 00001FBF 		.4byte	.LASF440
 14110 21de 10       		.byte	0x10
 14111 21df 2E       		.byte	0x2e
 14112 21e0 000009DC 		.4byte	0x9dc
 14113 21e4 01       		.byte	0x1
 14114 21e5 2E       		.uleb128 0x2e
 14115 21e6 01       		.byte	0x1
 14116 21e7 00003D58 		.4byte	.LASF441
 14117 21eb 10       		.byte	0x10
 14118 21ec 2F       		.byte	0x2f
 14119 21ed 0000008B 		.4byte	0x8b
 14120 21f1 01       		.byte	0x1
 14121 21f2 00002201 		.4byte	0x2201
 14122 21f6 17       		.uleb128 0x17
 14123 21f7 000009E7 		.4byte	0x9e7
 14124 21fb 17       		.uleb128 0x17
 14125 21fc 000009E7 		.4byte	0x9e7
 14126 2200 00       		.byte	0x0
 14127 2201 2E       		.uleb128 0x2e
 14128 2202 01       		.byte	0x1
 14129 2203 00004D08 		.4byte	.LASF442
 14130 2207 10       		.byte	0x10
 14131 2208 30       		.byte	0x30
 14132 2209 000009E7 		.4byte	0x9e7
 14133 220d 01       		.byte	0x1
 14134 220e 00002218 		.4byte	0x2218
 14135 2212 17       		.uleb128 0x17
 14136 2213 00002218 		.4byte	0x2218
 14137 2217 00       		.byte	0x0
 14138 2218 05       		.uleb128 0x5
 14139 2219 04       		.byte	0x4
 14140 221a 000009F2 		.4byte	0x9f2
 14141 221e 2E       		.uleb128 0x2e
 14142 221f 01       		.byte	0x1
 14143 2220 0000355D 		.4byte	.LASF443
 14144 2224 10       		.byte	0x10
 14145 2225 31       		.byte	0x31
 14146 2226 000009E7 		.4byte	0x9e7
 14147 222a 01       		.byte	0x1
 14148 222b 00002235 		.4byte	0x2235
 14149 222f 17       		.uleb128 0x17
 14150 2230 00002235 		.4byte	0x2235
 14151 2234 00       		.byte	0x0
 14152 2235 05       		.uleb128 0x5
 14153 2236 04       		.byte	0x4
 14154 2237 000009E7 		.4byte	0x9e7
 14155 223b 2E       		.uleb128 0x2e
 14156 223c 01       		.byte	0x1
 14157 223d 00002077 		.4byte	.LASF444
 14158 2241 10       		.byte	0x10
 14159 2242 33       		.byte	0x33
 14160 2243 00000092 		.4byte	0x92
 14161 2247 01       		.byte	0x1
 14162 2248 00002252 		.4byte	0x2252
 14163 224c 17       		.uleb128 0x17
 14164 224d 00002252 		.4byte	0x2252
 14165 2251 00       		.byte	0x0
 14166 2252 05       		.uleb128 0x5
 14167 2253 04       		.byte	0x4
 14168 2254 00002258 		.4byte	0x2258
 14169 2258 1D       		.uleb128 0x1d
 14170 2259 000009F2 		.4byte	0x9f2
 14171 225d 2E       		.uleb128 0x2e
 14172 225e 01       		.byte	0x1
 14173 225f 00004416 		.4byte	.LASF445
 14174 2263 10       		.byte	0x10
 14175 2264 34       		.byte	0x34
 14176 2265 00000092 		.4byte	0x92
 14177 2269 01       		.byte	0x1
 14178 226a 00002274 		.4byte	0x2274
 14179 226e 17       		.uleb128 0x17
 14180 226f 00002274 		.4byte	0x2274
 14181 2273 00       		.byte	0x0
 14182 2274 05       		.uleb128 0x5
 14183 2275 04       		.byte	0x4
 14184 2276 0000227A 		.4byte	0x227a
 14185 227a 1D       		.uleb128 0x1d
 14186 227b 000009E7 		.4byte	0x9e7
 14187 227f 2E       		.uleb128 0x2e
 14188 2280 01       		.byte	0x1
 14189 2281 00002278 		.4byte	.LASF446
 14190 2285 10       		.byte	0x10
 14191 2286 35       		.byte	0x35
 14192 2287 00002218 		.4byte	0x2218
 14193 228b 01       		.byte	0x1
 14194 228c 00002296 		.4byte	0x2296
 14195 2290 17       		.uleb128 0x17
 14196 2291 00002274 		.4byte	0x2274
 14197 2295 00       		.byte	0x0
 14198 2296 2E       		.uleb128 0x2e
 14199 2297 01       		.byte	0x1
 14200 2298 00000DA0 		.4byte	.LASF447
 14201 229c 10       		.byte	0x10
 14202 229d 36       		.byte	0x36
 14203 229e 00002218 		.4byte	0x2218
 14204 22a2 01       		.byte	0x1
 14205 22a3 000022AD 		.4byte	0x22ad
 14206 22a7 17       		.uleb128 0x17
 14207 22a8 00002274 		.4byte	0x2274
 14208 22ac 00       		.byte	0x0
 14209 22ad 2E       		.uleb128 0x2e
 14210 22ae 01       		.byte	0x1
 14211 22af 00004712 		.4byte	.LASF448
 14212 22b3 10       		.byte	0x10
 14213 22b4 38       		.byte	0x38
 14214 22b5 000009CA 		.4byte	0x9ca
 14215 22b9 01       		.byte	0x1
 14216 22ba 000022D3 		.4byte	0x22d3
 14217 22be 17       		.uleb128 0x17
 14218 22bf 00000092 		.4byte	0x92
 14219 22c3 17       		.uleb128 0x17
 14220 22c4 000009CA 		.4byte	0x9ca
 14221 22c8 17       		.uleb128 0x17
 14222 22c9 0000081F 		.4byte	0x81f
 14223 22cd 17       		.uleb128 0x17
 14224 22ce 00002252 		.4byte	0x2252
 14225 22d2 00       		.byte	0x0
 14226 22d3 0E       		.uleb128 0xe
 14227 22d4 00003355 		.4byte	.LASF449
 14228 22d8 25       		.byte	0x25
 14229 22d9 28       		.byte	0x28
 14230 22da 00000167 		.4byte	0x167
 14231 22de 32       		.uleb128 0x32
 14232 22df 000002E1 		.4byte	.LASF450
 14233 22e3 27       		.byte	0x27
 14234 22e4 4A       		.byte	0x4a
 14235 22e5 0000230B 		.4byte	0x230b
 14236 22e9 26       		.uleb128 0x26
 14237 22ea 000009B7 		.4byte	.LASF451
 14238 22ee 26       		.byte	0x26
 14239 22ef 36       		.byte	0x36
 14240 22f0 25       		.uleb128 0x25
 14241 22f1 05       		.byte	0x5
 14242 22f2 2A       		.byte	0x2a
 14243 22f3 00002325 		.4byte	0x2325
 14244 22f7 25       		.uleb128 0x25
 14245 22f8 05       		.byte	0x5
 14246 22f9 2B       		.byte	0x2b
 14247 22fa 00002328 		.4byte	0x2328
 14248 22fe 23       		.uleb128 0x23
 14249 22ff 00000073 		.4byte	.LASF452
 14250 2303 01       		.byte	0x1
 14251 2304 23       		.uleb128 0x23
 14252 2305 00005433 		.4byte	.LASF453
 14253 2309 01       		.byte	0x1
 14254 230a 00       		.byte	0x0
 14255 230b 32       		.uleb128 0x32
 14256 230c 00001138 		.4byte	.LASF454
 14257 2310 26       		.byte	0x26
 14258 2311 3A       		.byte	0x3a
 14259 2312 00002325 		.4byte	0x2325
 14260 2316 33       		.uleb128 0x33
 14261 2317 26       		.byte	0x26
 14262 2318 3B       		.byte	0x3b
 14263 2319 00001A16 		.4byte	0x1a16
 14264 231d 33       		.uleb128 0x33
 14265 231e 26       		.byte	0x26
 14266 231f 3C       		.byte	0x3c
 14267 2320 000022E9 		.4byte	0x22e9
 14268 2324 00       		.byte	0x0
 14269 2325 07       		.uleb128 0x7
 14270 2326 04       		.byte	0x4
 14271 2327 07       		.byte	0x7
 14272 2328 07       		.uleb128 0x7
 14273 2329 04       		.byte	0x4
 14274 232a 05       		.byte	0x5
 14275 232b 05       		.uleb128 0x5
 14276 232c 04       		.byte	0x4
 14277 232d 00002331 		.4byte	0x2331
 14278 2331 1D       		.uleb128 0x1d
 14279 2332 00001CF9 		.4byte	0x1cf9
 14280 2336 34       		.uleb128 0x34
 14281 2337 04       		.byte	0x4
 14282 2338 00002331 		.4byte	0x2331
 14283 233c 35       		.uleb128 0x35
 14284 233d 00001A36 		.4byte	0x1a36
 14285 2341 10       		.byte	0x10
 14286 2342 02       		.byte	0x2
 14287 2343 5E       		.byte	0x5e
 14288 2344 000023E9 		.4byte	0x23e9
 14289 2348 12       		.uleb128 0x12
 14290 2349 00002D50 		.4byte	.LASF455
 14291 234d 02       		.byte	0x2
 14292 234e 62       		.byte	0x62
 14293 234f 00001A1D 		.4byte	0x1a1d
 14294 2353 02       		.byte	0x2
 14295 2354 23       		.byte	0x23
 14296 2355 00       		.uleb128 0x0
 14297 2356 12       		.uleb128 0x12
 14298 2357 000050C9 		.4byte	.LASF456
 14299 235b 02       		.byte	0x2
 14300 235c 63       		.byte	0x63
 14301 235d 000023E9 		.4byte	0x23e9
 14302 2361 02       		.byte	0x2
 14303 2362 23       		.byte	0x23
 14304 2363 04       		.uleb128 0x4
 14305 2364 12       		.uleb128 0x12
 14306 2365 0000359E 		.4byte	.LASF457
 14307 2369 02       		.byte	0x2
 14308 236a 64       		.byte	0x64
 14309 236b 000023E9 		.4byte	0x23e9
 14310 236f 02       		.byte	0x2
 14311 2370 23       		.byte	0x23
 14312 2371 08       		.uleb128 0x8
 14313 2372 12       		.uleb128 0x12
 14314 2373 000051D6 		.4byte	.LASF458
 14315 2377 02       		.byte	0x2
 14316 2378 65       		.byte	0x65
 14317 2379 000023E9 		.4byte	0x23e9
 14318 237d 02       		.byte	0x2
 14319 237e 23       		.byte	0x23
 14320 237f 0C       		.uleb128 0xc
 14321 2380 36       		.uleb128 0x36
 14322 2381 01       		.byte	0x1
 14323 2382 000039A3 		.4byte	.LASF459
 14324 2386 02       		.byte	0x2
 14325 2387 68       		.byte	0x68
 14326 2388 00004590 		.4byte	.LASF460
 14327 238c 000023E9 		.4byte	0x23e9
 14328 2390 01       		.byte	0x1
 14329 2391 0000239B 		.4byte	0x239b
 14330 2395 17       		.uleb128 0x17
 14331 2396 000023E9 		.4byte	0x23e9
 14332 239a 00       		.byte	0x0
 14333 239b 36       		.uleb128 0x36
 14334 239c 01       		.byte	0x1
 14335 239d 000039A3 		.4byte	.LASF459
 14336 23a1 02       		.byte	0x2
 14337 23a2 6F       		.byte	0x6f
 14338 23a3 00004205 		.4byte	.LASF461
 14339 23a7 000023EF 		.4byte	0x23ef
 14340 23ab 01       		.byte	0x1
 14341 23ac 000023B6 		.4byte	0x23b6
 14342 23b0 17       		.uleb128 0x17
 14343 23b1 000023EF 		.4byte	0x23ef
 14344 23b5 00       		.byte	0x0
 14345 23b6 36       		.uleb128 0x36
 14346 23b7 01       		.byte	0x1
 14347 23b8 00000448 		.4byte	.LASF462
 14348 23bc 02       		.byte	0x2
 14349 23bd 76       		.byte	0x76
 14350 23be 000046AE 		.4byte	.LASF463
 14351 23c2 000023E9 		.4byte	0x23e9
 14352 23c6 01       		.byte	0x1
 14353 23c7 000023D1 		.4byte	0x23d1
 14354 23cb 17       		.uleb128 0x17
 14355 23cc 000023E9 		.4byte	0x23e9
 14356 23d0 00       		.byte	0x0
 14357 23d1 37       		.uleb128 0x37
 14358 23d2 01       		.byte	0x1
 14359 23d3 00000448 		.4byte	.LASF462
 14360 23d7 02       		.byte	0x2
 14361 23d8 7D       		.byte	0x7d
 14362 23d9 000006FD 		.4byte	.LASF484
 14363 23dd 000023EF 		.4byte	0x23ef
 14364 23e1 01       		.byte	0x1
 14365 23e2 17       		.uleb128 0x17
 14366 23e3 000023EF 		.4byte	0x23ef
 14367 23e7 00       		.byte	0x0
 14368 23e8 00       		.byte	0x0
 14369 23e9 05       		.uleb128 0x5
 14370 23ea 04       		.byte	0x4
 14371 23eb 0000233C 		.4byte	0x233c
 14372 23ef 05       		.uleb128 0x5
 14373 23f0 04       		.byte	0x4
 14374 23f1 000023F5 		.4byte	0x23f5
 14375 23f5 1D       		.uleb128 0x1d
 14376 23f6 0000233C 		.4byte	0x233c
 14377 23fa 13       		.uleb128 0x13
 14378 23fb 00000C8E 		.4byte	.LASF464
 14379 23ff 14       		.byte	0x14
 14380 2400 03       		.byte	0x3
 14381 2401 A8       		.byte	0xa8
 14382 2402 00002477 		.4byte	0x2477
 14383 2406 12       		.uleb128 0x12
 14384 2407 00002951 		.4byte	.LASF465
 14385 240b 03       		.byte	0x3
 14386 240c A9       		.byte	0xa9
 14387 240d 00000A92 		.4byte	0xa92
 14388 2411 02       		.byte	0x2
 14389 2412 23       		.byte	0x23
 14390 2413 00       		.uleb128 0x0
 14391 2414 12       		.uleb128 0x12
 14392 2415 00002DFA 		.4byte	.LASF466
 14393 2419 03       		.byte	0x3
 14394 241a AA       		.byte	0xaa
 14395 241b 00000A92 		.4byte	0xa92
 14396 241f 02       		.byte	0x2
 14397 2420 23       		.byte	0x23
 14398 2421 02       		.uleb128 0x2
 14399 2422 12       		.uleb128 0x12
 14400 2423 000037F2 		.4byte	.LASF467
 14401 2427 03       		.byte	0x3
 14402 2428 AC       		.byte	0xac
 14403 2429 00000A92 		.4byte	0xa92
 14404 242d 02       		.byte	0x2
 14405 242e 23       		.byte	0x23
 14406 242f 04       		.uleb128 0x4
 14407 2430 12       		.uleb128 0x12
 14408 2431 0000086C 		.4byte	.LASF468
 14409 2435 03       		.byte	0x3
 14410 2436 AD       		.byte	0xad
 14411 2437 00000A92 		.4byte	0xa92
 14412 243b 02       		.byte	0x2
 14413 243c 23       		.byte	0x23
 14414 243d 06       		.uleb128 0x6
 14415 243e 12       		.uleb128 0x12
 14416 243f 000046A0 		.4byte	.LASF469
 14417 2443 03       		.byte	0x3
 14418 2444 AF       		.byte	0xaf
 14419 2445 00000A92 		.4byte	0xa92
 14420 2449 02       		.byte	0x2
 14421 244a 23       		.byte	0x23
 14422 244b 08       		.uleb128 0x8
 14423 244c 12       		.uleb128 0x12
 14424 244d 00002BB7 		.4byte	.LASF470
 14425 2451 03       		.byte	0x3
 14426 2452 B0       		.byte	0xb0
 14427 2453 00000A92 		.4byte	0xa92
 14428 2457 02       		.byte	0x2
 14429 2458 23       		.byte	0x23
 14430 2459 0A       		.uleb128 0xa
 14431 245a 12       		.uleb128 0x12
 14432 245b 00003757 		.4byte	.LASF471
 14433 245f 03       		.byte	0x3
 14434 2460 B1       		.byte	0xb1
 14435 2461 00000A92 		.4byte	0xa92
 14436 2465 02       		.byte	0x2
 14437 2466 23       		.byte	0x23
 14438 2467 0C       		.uleb128 0xc
 14439 2468 12       		.uleb128 0x12
 14440 2469 00000338 		.4byte	.LASF472
 14441 246d 03       		.byte	0x3
 14442 246e B3       		.byte	0xb3
 14443 246f 00002477 		.4byte	0x2477
 14444 2473 02       		.byte	0x2
 14445 2474 23       		.byte	0x23
 14446 2475 10       		.uleb128 0x10
 14447 2476 00       		.byte	0x0
 14448 2477 05       		.uleb128 0x5
 14449 2478 04       		.byte	0x4
 14450 2479 00000A9D 		.4byte	0xa9d
 14451 247d 0E       		.uleb128 0xe
 14452 247e 00004D27 		.4byte	.LASF473
 14453 2482 03       		.byte	0x3
 14454 2483 B4       		.byte	0xb4
 14455 2484 000023FA 		.4byte	0x23fa
 14456 2488 13       		.uleb128 0x13
 14457 2489 00004CF8 		.4byte	.LASF474
 14458 248d 04       		.byte	0x4
 14459 248e 03       		.byte	0x3
 14460 248f BA       		.byte	0xba
 14461 2490 000024B1 		.4byte	0x24b1
 14462 2494 14       		.uleb128 0x14
 14463 2495 6D617800 		.string	"max"
 14464 2499 03       		.byte	0x3
 14465 249a BB       		.byte	0xbb
 14466 249b 00000A87 		.4byte	0xa87
 14467 249f 02       		.byte	0x2
 14468 24a0 23       		.byte	0x23
 14469 24a1 00       		.uleb128 0x0
 14470 24a2 14       		.uleb128 0x14
 14471 24a3 6D696E00 		.string	"min"
 14472 24a7 03       		.byte	0x3
 14473 24a8 BC       		.byte	0xbc
 14474 24a9 00000A87 		.4byte	0xa87
 14475 24ad 02       		.byte	0x2
 14476 24ae 23       		.byte	0x23
 14477 24af 02       		.uleb128 0x2
 14478 24b0 00       		.byte	0x0
 14479 24b1 0E       		.uleb128 0xe
 14480 24b2 0000150B 		.4byte	.LASF475
 14481 24b6 03       		.byte	0x3
 14482 24b7 BD       		.byte	0xbd
 14483 24b8 00002488 		.4byte	0x2488
 14484 24bc 35       		.uleb128 0x35
 14485 24bd 000022FE 		.4byte	0x22fe
 14486 24c1 01       		.byte	0x1
 14487 24c2 05       		.byte	0x5
 14488 24c3 36       		.byte	0x36
 14489 24c4 000025F1 		.4byte	0x25f1
 14490 24c8 30       		.uleb128 0x30
 14491 24c9 01       		.byte	0x1
 14492 24ca 00000230 		.4byte	.LASF476
 14493 24ce 05       		.byte	0x5
 14494 24cf 44       		.byte	0x44
 14495 24d0 01       		.byte	0x1
 14496 24d1 000024DC 		.4byte	0x24dc
 14497 24d5 2C       		.uleb128 0x2c
 14498 24d6 0000260E 		.4byte	0x260e
 14499 24da 01       		.byte	0x1
 14500 24db 00       		.byte	0x0
 14501 24dc 30       		.uleb128 0x30
 14502 24dd 01       		.byte	0x1
 14503 24de 00000230 		.4byte	.LASF476
 14504 24e2 05       		.byte	0x5
 14505 24e3 46       		.byte	0x46
 14506 24e4 01       		.byte	0x1
 14507 24e5 000024F5 		.4byte	0x24f5
 14508 24e9 2C       		.uleb128 0x2c
 14509 24ea 0000260E 		.4byte	0x260e
 14510 24ee 01       		.byte	0x1
 14511 24ef 17       		.uleb128 0x17
 14512 24f0 00002614 		.4byte	0x2614
 14513 24f4 00       		.byte	0x0
 14514 24f5 30       		.uleb128 0x30
 14515 24f6 01       		.byte	0x1
 14516 24f7 00003FD4 		.4byte	.LASF477
 14517 24fb 05       		.byte	0x5
 14518 24fc 4B       		.byte	0x4b
 14519 24fd 01       		.byte	0x1
 14520 24fe 0000250F 		.4byte	0x250f
 14521 2502 2C       		.uleb128 0x2c
 14522 2503 0000260E 		.4byte	0x260e
 14523 2507 01       		.byte	0x1
 14524 2508 2C       		.uleb128 0x2c
 14525 2509 0000006B 		.4byte	0x6b
 14526 250d 01       		.byte	0x1
 14527 250e 00       		.byte	0x0
 14528 250f 36       		.uleb128 0x36
 14529 2510 01       		.byte	0x1
 14530 2511 00002893 		.4byte	.LASF478
 14531 2515 05       		.byte	0x5
 14532 2516 4E       		.byte	0x4e
 14533 2517 0000172D 		.4byte	.LASF479
 14534 251b 000025F1 		.4byte	0x25f1
 14535 251f 01       		.byte	0x1
 14536 2520 00002530 		.4byte	0x2530
 14537 2524 2C       		.uleb128 0x2c
 14538 2525 0000261F 		.4byte	0x261f
 14539 2529 01       		.byte	0x1
 14540 252a 17       		.uleb128 0x17
 14541 252b 00002602 		.4byte	0x2602
 14542 252f 00       		.byte	0x0
 14543 2530 36       		.uleb128 0x36
 14544 2531 01       		.byte	0x1
 14545 2532 00002893 		.4byte	.LASF478
 14546 2536 05       		.byte	0x5
 14547 2537 51       		.byte	0x51
 14548 2538 000032BC 		.4byte	.LASF480
 14549 253c 000025F7 		.4byte	0x25f7
 14550 2540 01       		.byte	0x1
 14551 2541 00002551 		.4byte	0x2551
 14552 2545 2C       		.uleb128 0x2c
 14553 2546 0000261F 		.4byte	0x261f
 14554 254a 01       		.byte	0x1
 14555 254b 17       		.uleb128 0x17
 14556 254c 00002608 		.4byte	0x2608
 14557 2550 00       		.byte	0x0
 14558 2551 36       		.uleb128 0x36
 14559 2552 01       		.byte	0x1
 14560 2553 00000212 		.4byte	.LASF481
 14561 2557 05       		.byte	0x5
 14562 2558 56       		.byte	0x56
 14563 2559 000017FB 		.4byte	.LASF482
 14564 255d 000025F1 		.4byte	0x25f1
 14565 2561 01       		.byte	0x1
 14566 2562 00002577 		.4byte	0x2577
 14567 2566 2C       		.uleb128 0x2c
 14568 2567 0000260E 		.4byte	0x260e
 14569 256b 01       		.byte	0x1
 14570 256c 17       		.uleb128 0x17
 14571 256d 00000044 		.4byte	0x44
 14572 2571 17       		.uleb128 0x17
 14573 2572 00000AA8 		.4byte	0xaa8
 14574 2576 00       		.byte	0x0
 14575 2577 38       		.uleb128 0x38
 14576 2578 01       		.byte	0x1
 14577 2579 000006F2 		.4byte	.LASF483
 14578 257d 05       		.byte	0x5
 14579 257e 60       		.byte	0x60
 14580 257f 00001606 		.4byte	.LASF485
 14581 2583 01       		.byte	0x1
 14582 2584 00002599 		.4byte	0x2599
 14583 2588 2C       		.uleb128 0x2c
 14584 2589 0000260E 		.4byte	0x260e
 14585 258d 01       		.byte	0x1
 14586 258e 17       		.uleb128 0x17
 14587 258f 000025F1 		.4byte	0x25f1
 14588 2593 17       		.uleb128 0x17
 14589 2594 00000044 		.4byte	0x44
 14590 2598 00       		.byte	0x0
 14591 2599 36       		.uleb128 0x36
 14592 259a 01       		.byte	0x1
 14593 259b 000007F2 		.4byte	.LASF486
 14594 259f 05       		.byte	0x5
 14595 25a0 64       		.byte	0x64
 14596 25a1 00005317 		.4byte	.LASF487
 14597 25a5 000009CA 		.4byte	0x9ca
 14598 25a9 01       		.byte	0x1
 14599 25aa 000025B5 		.4byte	0x25b5
 14600 25ae 2C       		.uleb128 0x2c
 14601 25af 0000261F 		.4byte	0x261f
 14602 25b3 01       		.byte	0x1
 14603 25b4 00       		.byte	0x0
 14604 25b5 38       		.uleb128 0x38
 14605 25b6 01       		.byte	0x1
 14606 25b7 00004721 		.4byte	.LASF488
 14607 25bb 05       		.byte	0x5
 14608 25bc 6A       		.byte	0x6a
 14609 25bd 00003809 		.4byte	.LASF489
 14610 25c1 01       		.byte	0x1
 14611 25c2 000025D7 		.4byte	0x25d7
 14612 25c6 2C       		.uleb128 0x2c
 14613 25c7 0000260E 		.4byte	0x260e
 14614 25cb 01       		.byte	0x1
 14615 25cc 17       		.uleb128 0x17
 14616 25cd 000025F1 		.4byte	0x25f1
 14617 25d1 17       		.uleb128 0x17
 14618 25d2 00002608 		.4byte	0x2608
 14619 25d6 00       		.byte	0x0
 14620 25d7 39       		.uleb128 0x39
 14621 25d8 01       		.byte	0x1
 14622 25d9 000022AA 		.4byte	.LASF490
 14623 25dd 05       		.byte	0x5
 14624 25de 6E       		.byte	0x6e
 14625 25df 00000C34 		.4byte	.LASF499
 14626 25e3 01       		.byte	0x1
 14627 25e4 2C       		.uleb128 0x2c
 14628 25e5 0000260E 		.4byte	0x260e
 14629 25e9 01       		.byte	0x1
 14630 25ea 17       		.uleb128 0x17
 14631 25eb 000025F1 		.4byte	0x25f1
 14632 25ef 00       		.byte	0x0
 14633 25f0 00       		.byte	0x0
 14634 25f1 05       		.uleb128 0x5
 14635 25f2 04       		.byte	0x4
 14636 25f3 00001A3C 		.4byte	0x1a3c
 14637 25f7 05       		.uleb128 0x5
 14638 25f8 04       		.byte	0x4
 14639 25f9 000025FD 		.4byte	0x25fd
 14640 25fd 1D       		.uleb128 0x1d
 14641 25fe 00001A3C 		.4byte	0x1a3c
 14642 2602 34       		.uleb128 0x34
 14643 2603 04       		.byte	0x4
 14644 2604 00001A3C 		.4byte	0x1a3c
 14645 2608 34       		.uleb128 0x34
 14646 2609 04       		.byte	0x4
 14647 260a 000025FD 		.4byte	0x25fd
 14648 260e 05       		.uleb128 0x5
 14649 260f 04       		.byte	0x4
 14650 2610 000024BC 		.4byte	0x24bc
 14651 2614 34       		.uleb128 0x34
 14652 2615 04       		.byte	0x4
 14653 2616 0000261A 		.4byte	0x261a
 14654 261a 1D       		.uleb128 0x1d
 14655 261b 000024BC 		.4byte	0x24bc
 14656 261f 05       		.uleb128 0x5
 14657 2620 04       		.byte	0x4
 14658 2621 0000261A 		.4byte	0x261a
 14659 2625 35       		.uleb128 0x35
 14660 2626 00001A42 		.4byte	0x1a42
 14661 262a 01       		.byte	0x1
 14662 262b 28       		.byte	0x28
 14663 262c 56       		.byte	0x56
 14664 262d 00002697 		.4byte	0x2697
 14665 2631 2A       		.uleb128 0x2a
 14666 2632 000024BC 		.4byte	0x24bc
 14667 2636 02       		.byte	0x2
 14668 2637 23       		.byte	0x23
 14669 2638 00       		.uleb128 0x0
 14670 2639 01       		.byte	0x1
 14671 263a 30       		.uleb128 0x30
 14672 263b 01       		.byte	0x1
 14673 263c 000007AB 		.4byte	.LASF491
 14674 2640 28       		.byte	0x28
 14675 2641 64       		.byte	0x64
 14676 2642 01       		.byte	0x1
 14677 2643 0000264E 		.4byte	0x264e
 14678 2647 2C       		.uleb128 0x2c
 14679 2648 00002697 		.4byte	0x2697
 14680 264c 01       		.byte	0x1
 14681 264d 00       		.byte	0x0
 14682 264e 30       		.uleb128 0x30
 14683 264f 01       		.byte	0x1
 14684 2650 000007AB 		.4byte	.LASF491
 14685 2654 28       		.byte	0x28
 14686 2655 66       		.byte	0x66
 14687 2656 01       		.byte	0x1
 14688 2657 00002667 		.4byte	0x2667
 14689 265b 2C       		.uleb128 0x2c
 14690 265c 00002697 		.4byte	0x2697
 14691 2660 01       		.byte	0x1
 14692 2661 17       		.uleb128 0x17
 14693 2662 0000269D 		.4byte	0x269d
 14694 2666 00       		.byte	0x0
 14695 2667 30       		.uleb128 0x30
 14696 2668 01       		.byte	0x1
 14697 2669 00005480 		.4byte	.LASF492
 14698 266d 28       		.byte	0x28
 14699 266e 6C       		.byte	0x6c
 14700 266f 01       		.byte	0x1
 14701 2670 00002681 		.4byte	0x2681
 14702 2674 2C       		.uleb128 0x2c
 14703 2675 00002697 		.4byte	0x2697
 14704 2679 01       		.byte	0x1
 14705 267a 2C       		.uleb128 0x2c
 14706 267b 0000006B 		.4byte	0x6b
 14707 267f 01       		.byte	0x1
 14708 2680 00       		.byte	0x0
 14709 2681 3A       		.uleb128 0x3a
 14710 2682 01       		.byte	0x1
 14711 2683 000006A9 		.4byte	.LASF352
 14712 2687 28       		.byte	0x28
 14713 2688 6A       		.byte	0x6a
 14714 2689 01       		.byte	0x1
 14715 268a 2C       		.uleb128 0x2c
 14716 268b 00002697 		.4byte	0x2697
 14717 268f 01       		.byte	0x1
 14718 2690 17       		.uleb128 0x17
 14719 2691 00002889 		.4byte	0x2889
 14720 2695 00       		.byte	0x0
 14721 2696 00       		.byte	0x0
 14722 2697 05       		.uleb128 0x5
 14723 2698 04       		.byte	0x4
 14724 2699 00002625 		.4byte	0x2625
 14725 269d 34       		.uleb128 0x34
 14726 269e 04       		.byte	0x4
 14727 269f 000026A3 		.4byte	0x26a3
 14728 26a3 1D       		.uleb128 0x1d
 14729 26a4 00002625 		.4byte	0x2625
 14730 26a8 35       		.uleb128 0x35
 14731 26a9 00002304 		.4byte	0x2304
 14732 26ad 01       		.byte	0x1
 14733 26ae 05       		.byte	0x5
 14734 26af 36       		.byte	0x36
 14735 26b0 000027DD 		.4byte	0x27dd
 14736 26b4 30       		.uleb128 0x30
 14737 26b5 01       		.byte	0x1
 14738 26b6 00000230 		.4byte	.LASF476
 14739 26ba 05       		.byte	0x5
 14740 26bb 44       		.byte	0x44
 14741 26bc 01       		.byte	0x1
 14742 26bd 000026C8 		.4byte	0x26c8
 14743 26c1 2C       		.uleb128 0x2c
 14744 26c2 000027FA 		.4byte	0x27fa
 14745 26c6 01       		.byte	0x1
 14746 26c7 00       		.byte	0x0
 14747 26c8 30       		.uleb128 0x30
 14748 26c9 01       		.byte	0x1
 14749 26ca 00000230 		.4byte	.LASF476
 14750 26ce 05       		.byte	0x5
 14751 26cf 46       		.byte	0x46
 14752 26d0 01       		.byte	0x1
 14753 26d1 000026E1 		.4byte	0x26e1
 14754 26d5 2C       		.uleb128 0x2c
 14755 26d6 000027FA 		.4byte	0x27fa
 14756 26da 01       		.byte	0x1
 14757 26db 17       		.uleb128 0x17
 14758 26dc 00002800 		.4byte	0x2800
 14759 26e0 00       		.byte	0x0
 14760 26e1 30       		.uleb128 0x30
 14761 26e2 01       		.byte	0x1
 14762 26e3 00003FD4 		.4byte	.LASF477
 14763 26e7 05       		.byte	0x5
 14764 26e8 4B       		.byte	0x4b
 14765 26e9 01       		.byte	0x1
 14766 26ea 000026FB 		.4byte	0x26fb
 14767 26ee 2C       		.uleb128 0x2c
 14768 26ef 000027FA 		.4byte	0x27fa
 14769 26f3 01       		.byte	0x1
 14770 26f4 2C       		.uleb128 0x2c
 14771 26f5 0000006B 		.4byte	0x6b
 14772 26f9 01       		.byte	0x1
 14773 26fa 00       		.byte	0x0
 14774 26fb 36       		.uleb128 0x36
 14775 26fc 01       		.byte	0x1
 14776 26fd 00002893 		.4byte	.LASF478
 14777 2701 05       		.byte	0x5
 14778 2702 4E       		.byte	0x4e
 14779 2703 0000038F 		.4byte	.LASF493
 14780 2707 000027DD 		.4byte	0x27dd
 14781 270b 01       		.byte	0x1
 14782 270c 0000271C 		.4byte	0x271c
 14783 2710 2C       		.uleb128 0x2c
 14784 2711 0000280B 		.4byte	0x280b
 14785 2715 01       		.byte	0x1
 14786 2716 17       		.uleb128 0x17
 14787 2717 000027EE 		.4byte	0x27ee
 14788 271b 00       		.byte	0x0
 14789 271c 36       		.uleb128 0x36
 14790 271d 01       		.byte	0x1
 14791 271e 00002893 		.4byte	.LASF478
 14792 2722 05       		.byte	0x5
 14793 2723 51       		.byte	0x51
 14794 2724 00000943 		.4byte	.LASF494
 14795 2728 000027E3 		.4byte	0x27e3
 14796 272c 01       		.byte	0x1
 14797 272d 0000273D 		.4byte	0x273d
 14798 2731 2C       		.uleb128 0x2c
 14799 2732 0000280B 		.4byte	0x280b
 14800 2736 01       		.byte	0x1
 14801 2737 17       		.uleb128 0x17
 14802 2738 000027F4 		.4byte	0x27f4
 14803 273c 00       		.byte	0x0
 14804 273d 36       		.uleb128 0x36
 14805 273e 01       		.byte	0x1
 14806 273f 00000212 		.4byte	.LASF481
 14807 2743 05       		.byte	0x5
 14808 2744 56       		.byte	0x56
 14809 2745 0000140D 		.4byte	.LASF495
 14810 2749 000027DD 		.4byte	0x27dd
 14811 274d 01       		.byte	0x1
 14812 274e 00002763 		.4byte	0x2763
 14813 2752 2C       		.uleb128 0x2c
 14814 2753 000027FA 		.4byte	0x27fa
 14815 2757 01       		.byte	0x1
 14816 2758 17       		.uleb128 0x17
 14817 2759 00000044 		.4byte	0x44
 14818 275d 17       		.uleb128 0x17
 14819 275e 00000AA8 		.4byte	0xaa8
 14820 2762 00       		.byte	0x0
 14821 2763 38       		.uleb128 0x38
 14822 2764 01       		.byte	0x1
 14823 2765 000006F2 		.4byte	.LASF483
 14824 2769 05       		.byte	0x5
 14825 276a 60       		.byte	0x60
 14826 276b 00005375 		.4byte	.LASF496
 14827 276f 01       		.byte	0x1
 14828 2770 00002785 		.4byte	0x2785
 14829 2774 2C       		.uleb128 0x2c
 14830 2775 000027FA 		.4byte	0x27fa
 14831 2779 01       		.byte	0x1
 14832 277a 17       		.uleb128 0x17
 14833 277b 000027DD 		.4byte	0x27dd
 14834 277f 17       		.uleb128 0x17
 14835 2780 00000044 		.4byte	0x44
 14836 2784 00       		.byte	0x0
 14837 2785 36       		.uleb128 0x36
 14838 2786 01       		.byte	0x1
 14839 2787 000007F2 		.4byte	.LASF486
 14840 278b 05       		.byte	0x5
 14841 278c 64       		.byte	0x64
 14842 278d 000001AA 		.4byte	.LASF497
 14843 2791 000009CA 		.4byte	0x9ca
 14844 2795 01       		.byte	0x1
 14845 2796 000027A1 		.4byte	0x27a1
 14846 279a 2C       		.uleb128 0x2c
 14847 279b 0000280B 		.4byte	0x280b
 14848 279f 01       		.byte	0x1
 14849 27a0 00       		.byte	0x0
 14850 27a1 38       		.uleb128 0x38
 14851 27a2 01       		.byte	0x1
 14852 27a3 00004721 		.4byte	.LASF488
 14853 27a7 05       		.byte	0x5
 14854 27a8 6A       		.byte	0x6a
 14855 27a9 00000D27 		.4byte	.LASF498
 14856 27ad 01       		.byte	0x1
 14857 27ae 000027C3 		.4byte	0x27c3
 14858 27b2 2C       		.uleb128 0x2c
 14859 27b3 000027FA 		.4byte	0x27fa
 14860 27b7 01       		.byte	0x1
 14861 27b8 17       		.uleb128 0x17
 14862 27b9 000027DD 		.4byte	0x27dd
 14863 27bd 17       		.uleb128 0x17
 14864 27be 000027F4 		.4byte	0x27f4
 14865 27c2 00       		.byte	0x0
 14866 27c3 39       		.uleb128 0x39
 14867 27c4 01       		.byte	0x1
 14868 27c5 000022AA 		.4byte	.LASF490
 14869 27c9 05       		.byte	0x5
 14870 27ca 6E       		.byte	0x6e
 14871 27cb 00003E94 		.4byte	.LASF500
 14872 27cf 01       		.byte	0x1
 14873 27d0 2C       		.uleb128 0x2c
 14874 27d1 000027FA 		.4byte	0x27fa
 14875 27d5 01       		.byte	0x1
 14876 27d6 17       		.uleb128 0x17
 14877 27d7 000027DD 		.4byte	0x27dd
 14878 27db 00       		.byte	0x0
 14879 27dc 00       		.byte	0x0
 14880 27dd 05       		.uleb128 0x5
 14881 27de 04       		.byte	0x4
 14882 27df 00001A4E 		.4byte	0x1a4e
 14883 27e3 05       		.uleb128 0x5
 14884 27e4 04       		.byte	0x4
 14885 27e5 000027E9 		.4byte	0x27e9
 14886 27e9 1D       		.uleb128 0x1d
 14887 27ea 00001A4E 		.4byte	0x1a4e
 14888 27ee 34       		.uleb128 0x34
 14889 27ef 04       		.byte	0x4
 14890 27f0 00001A4E 		.4byte	0x1a4e
 14891 27f4 34       		.uleb128 0x34
 14892 27f5 04       		.byte	0x4
 14893 27f6 000027E9 		.4byte	0x27e9
 14894 27fa 05       		.uleb128 0x5
 14895 27fb 04       		.byte	0x4
 14896 27fc 000026A8 		.4byte	0x26a8
 14897 2800 34       		.uleb128 0x34
 14898 2801 04       		.byte	0x4
 14899 2802 00002806 		.4byte	0x2806
 14900 2806 1D       		.uleb128 0x1d
 14901 2807 000026A8 		.4byte	0x26a8
 14902 280b 05       		.uleb128 0x5
 14903 280c 04       		.byte	0x4
 14904 280d 00002806 		.4byte	0x2806
 14905 2811 35       		.uleb128 0x35
 14906 2812 00001A48 		.4byte	0x1a48
 14907 2816 01       		.byte	0x1
 14908 2817 28       		.byte	0x28
 14909 2818 56       		.byte	0x56
 14910 2819 00002883 		.4byte	0x2883
 14911 281d 2A       		.uleb128 0x2a
 14912 281e 000026A8 		.4byte	0x26a8
 14913 2822 02       		.byte	0x2
 14914 2823 23       		.byte	0x23
 14915 2824 00       		.uleb128 0x0
 14916 2825 01       		.byte	0x1
 14917 2826 30       		.uleb128 0x30
 14918 2827 01       		.byte	0x1
 14919 2828 000007AB 		.4byte	.LASF491
 14920 282c 28       		.byte	0x28
 14921 282d 64       		.byte	0x64
 14922 282e 01       		.byte	0x1
 14923 282f 0000283A 		.4byte	0x283a
 14924 2833 2C       		.uleb128 0x2c
 14925 2834 00002883 		.4byte	0x2883
 14926 2838 01       		.byte	0x1
 14927 2839 00       		.byte	0x0
 14928 283a 30       		.uleb128 0x30
 14929 283b 01       		.byte	0x1
 14930 283c 000007AB 		.4byte	.LASF491
 14931 2840 28       		.byte	0x28
 14932 2841 66       		.byte	0x66
 14933 2842 01       		.byte	0x1
 14934 2843 00002853 		.4byte	0x2853
 14935 2847 2C       		.uleb128 0x2c
 14936 2848 00002883 		.4byte	0x2883
 14937 284c 01       		.byte	0x1
 14938 284d 17       		.uleb128 0x17
 14939 284e 00002889 		.4byte	0x2889
 14940 2852 00       		.byte	0x0
 14941 2853 30       		.uleb128 0x30
 14942 2854 01       		.byte	0x1
 14943 2855 00005480 		.4byte	.LASF492
 14944 2859 28       		.byte	0x28
 14945 285a 6C       		.byte	0x6c
 14946 285b 01       		.byte	0x1
 14947 285c 0000286D 		.4byte	0x286d
 14948 2860 2C       		.uleb128 0x2c
 14949 2861 00002883 		.4byte	0x2883
 14950 2865 01       		.byte	0x1
 14951 2866 2C       		.uleb128 0x2c
 14952 2867 0000006B 		.4byte	0x6b
 14953 286b 01       		.byte	0x1
 14954 286c 00       		.byte	0x0
 14955 286d 3A       		.uleb128 0x3a
 14956 286e 01       		.byte	0x1
 14957 286f 00004086 		.4byte	.LASF351
 14958 2873 28       		.byte	0x28
 14959 2874 6A       		.byte	0x6a
 14960 2875 01       		.byte	0x1
 14961 2876 2C       		.uleb128 0x2c
 14962 2877 00002883 		.4byte	0x2883
 14963 287b 01       		.byte	0x1
 14964 287c 17       		.uleb128 0x17
 14965 287d 0000269D 		.4byte	0x269d
 14966 2881 00       		.byte	0x0
 14967 2882 00       		.byte	0x0
 14968 2883 05       		.uleb128 0x5
 14969 2884 04       		.byte	0x4
 14970 2885 00002811 		.4byte	0x2811
 14971 2889 34       		.uleb128 0x34
 14972 288a 04       		.byte	0x4
 14973 288b 0000288F 		.4byte	0x288f
 14974 288f 1D       		.uleb128 0x1d
 14975 2890 00002811 		.4byte	0x2811
 14976 2894 3B       		.uleb128 0x3b
 14977 2895 00001A54 		.4byte	0x1a54
 14978 2899 01       		.byte	0x1
 14979 289a 06       		.byte	0x6
 14980 289b 73       		.byte	0x73
 14981 289c 35       		.uleb128 0x35
 14982 289d 00001A5A 		.4byte	0x1a5a
 14983 28a1 01       		.byte	0x1
 14984 28a2 06       		.byte	0x6
 14985 28a3 E0       		.byte	0xe0
 14986 28a4 000028D4 		.4byte	0x28d4
 14987 28a8 2A       		.uleb128 0x2a
 14988 28a9 00002894 		.4byte	0x2894
 14989 28ad 02       		.byte	0x2
 14990 28ae 23       		.byte	0x23
 14991 28af 00       		.uleb128 0x0
 14992 28b0 01       		.byte	0x1
 14993 28b1 37       		.uleb128 0x37
 14994 28b2 01       		.byte	0x1
 14995 28b3 00002FB9 		.4byte	.LASF501
 14996 28b7 06       		.byte	0x6
 14997 28b8 E2       		.byte	0xe2
 14998 28b9 00004605 		.4byte	.LASF502
 14999 28bd 000000AF 		.4byte	0xaf
 15000 28c1 01       		.byte	0x1
 15001 28c2 2C       		.uleb128 0x2c
 15002 28c3 000028D4 		.4byte	0x28d4
 15003 28c7 01       		.byte	0x1
 15004 28c8 17       		.uleb128 0x17
 15005 28c9 00002336 		.4byte	0x2336
 15006 28cd 17       		.uleb128 0x17
 15007 28ce 00002336 		.4byte	0x2336
 15008 28d2 00       		.byte	0x0
 15009 28d3 00       		.byte	0x0
 15010 28d4 05       		.uleb128 0x5
 15011 28d5 04       		.byte	0x4
 15012 28d6 000028DA 		.4byte	0x28da
 15013 28da 1D       		.uleb128 0x1d
 15014 28db 0000289C 		.4byte	0x289c
 15015 28df 05       		.uleb128 0x5
 15016 28e0 04       		.byte	0x4
 15017 28e1 00001A6A 		.4byte	0x1a6a
 15018 28e5 34       		.uleb128 0x34
 15019 28e6 04       		.byte	0x4
 15020 28e7 000028DA 		.4byte	0x28da
 15021 28eb 3C       		.uleb128 0x3c
 15022 28ec 00001A60 		.4byte	0x1a60
 15023 28f0 18       		.byte	0x18
 15024 28f1 02       		.byte	0x2
 15025 28f2 014A     		.2byte	0x14a
 15026 28f4 000032A4 		.4byte	0x32a4
 15027 28f8 3D       		.uleb128 0x3d
 15028 28f9 000027BB 		.4byte	.LASF616
 15029 28fd 02       		.byte	0x2
 15030 28fe 01BE     		.2byte	0x1be
 15031 2900 00001A6A 		.4byte	0x1a6a
 15032 2904 02       		.byte	0x2
 15033 2905 23       		.byte	0x23
 15034 2906 00       		.uleb128 0x0
 15035 2907 02       		.byte	0x2
 15036 2908 3E       		.uleb128 0x3e
 15037 2909 01       		.byte	0x1
 15038 290a 00005415 		.4byte	.LASF503
 15039 290e 02       		.byte	0x2
 15040 290f 0161     		.2byte	0x161
 15041 2911 00005230 		.4byte	.LASF504
 15042 2915 000032A4 		.4byte	0x32a4
 15043 2919 01       		.byte	0x1
 15044 291a 00002925 		.4byte	0x2925
 15045 291e 2C       		.uleb128 0x2c
 15046 291f 000032AA 		.4byte	0x32aa
 15047 2923 01       		.byte	0x1
 15048 2924 00       		.byte	0x0
 15049 2925 3E       		.uleb128 0x3e
 15050 2926 01       		.byte	0x1
 15051 2927 00005415 		.4byte	.LASF503
 15052 292b 02       		.byte	0x2
 15053 292c 0165     		.2byte	0x165
 15054 292e 000042D5 		.4byte	.LASF505
 15055 2932 00002889 		.4byte	0x2889
 15056 2936 01       		.byte	0x1
 15057 2937 00002942 		.4byte	0x2942
 15058 293b 2C       		.uleb128 0x2c
 15059 293c 000032B0 		.4byte	0x32b0
 15060 2940 01       		.byte	0x1
 15061 2941 00       		.byte	0x0
 15062 2942 3E       		.uleb128 0x3e
 15063 2943 01       		.byte	0x1
 15064 2944 00002843 		.4byte	.LASF506
 15065 2948 02       		.byte	0x2
 15066 2949 0169     		.2byte	0x169
 15067 294b 00000800 		.4byte	.LASF507
 15068 294f 00002625 		.4byte	0x2625
 15069 2953 01       		.byte	0x1
 15070 2954 0000295F 		.4byte	0x295f
 15071 2958 2C       		.uleb128 0x2c
 15072 2959 000032B0 		.4byte	0x32b0
 15073 295d 01       		.byte	0x1
 15074 295e 00       		.byte	0x0
 15075 295f 3F       		.uleb128 0x3f
 15076 2960 01       		.byte	0x1
 15077 2961 00002945 		.4byte	.LASF510
 15078 2965 02       		.byte	0x2
 15079 2966 016E     		.2byte	0x16e
 15080 2968 00004924 		.4byte	.LASF512
 15081 296c 000027DD 		.4byte	0x27dd
 15082 2970 02       		.byte	0x2
 15083 2971 01       		.byte	0x1
 15084 2972 0000297D 		.4byte	0x297d
 15085 2976 2C       		.uleb128 0x2c
 15086 2977 000032AA 		.4byte	0x32aa
 15087 297b 01       		.byte	0x1
 15088 297c 00       		.byte	0x0
 15089 297d 40       		.uleb128 0x40
 15090 297e 01       		.byte	0x1
 15091 297f 00004ED2 		.4byte	.LASF508
 15092 2983 02       		.byte	0x2
 15093 2984 0172     		.2byte	0x172
 15094 2986 0000236B 		.4byte	.LASF509
 15095 298a 02       		.byte	0x2
 15096 298b 01       		.byte	0x1
 15097 298c 0000299C 		.4byte	0x299c
 15098 2990 2C       		.uleb128 0x2c
 15099 2991 000032AA 		.4byte	0x32aa
 15100 2995 01       		.byte	0x1
 15101 2996 17       		.uleb128 0x17
 15102 2997 000027DD 		.4byte	0x27dd
 15103 299b 00       		.byte	0x0
 15104 299c 3F       		.uleb128 0x3f
 15105 299d 01       		.byte	0x1
 15106 299e 00001573 		.4byte	.LASF511
 15107 29a2 02       		.byte	0x2
 15108 29a3 0176     		.2byte	0x176
 15109 29a5 0000444B 		.4byte	.LASF513
 15110 29a9 000027DD 		.4byte	0x27dd
 15111 29ad 02       		.byte	0x2
 15112 29ae 01       		.byte	0x1
 15113 29af 000029BF 		.4byte	0x29bf
 15114 29b3 2C       		.uleb128 0x2c
 15115 29b4 000032AA 		.4byte	0x32aa
 15116 29b8 01       		.byte	0x1
 15117 29b9 17       		.uleb128 0x17
 15118 29ba 00002608 		.4byte	0x2608
 15119 29be 00       		.byte	0x0
 15120 29bf 3F       		.uleb128 0x3f
 15121 29c0 01       		.byte	0x1
 15122 29c1 00002B70 		.4byte	.LASF514
 15123 29c5 02       		.byte	0x2
 15124 29c6 0184     		.2byte	0x184
 15125 29c8 000026CC 		.4byte	.LASF515
 15126 29cc 000027DD 		.4byte	0x27dd
 15127 29d0 02       		.byte	0x2
 15128 29d1 01       		.byte	0x1
 15129 29d2 000029E2 		.4byte	0x29e2
 15130 29d6 2C       		.uleb128 0x2c
 15131 29d7 000032AA 		.4byte	0x32aa
 15132 29db 01       		.byte	0x1
 15133 29dc 17       		.uleb128 0x17
 15134 29dd 000027E3 		.4byte	0x27e3
 15135 29e1 00       		.byte	0x0
 15136 29e2 40       		.uleb128 0x40
 15137 29e3 01       		.byte	0x1
 15138 29e4 000027AB 		.4byte	.LASF516
 15139 29e8 02       		.byte	0x2
 15140 29e9 018E     		.2byte	0x18e
 15141 29eb 00001887 		.4byte	.LASF517
 15142 29ef 02       		.byte	0x2
 15143 29f0 01       		.byte	0x1
 15144 29f1 00002A01 		.4byte	0x2a01
 15145 29f5 2C       		.uleb128 0x2c
 15146 29f6 000032AA 		.4byte	0x32aa
 15147 29fa 01       		.byte	0x1
 15148 29fb 17       		.uleb128 0x17
 15149 29fc 000027DD 		.4byte	0x27dd
 15150 2a00 00       		.byte	0x0
 15151 2a01 3F       		.uleb128 0x3f
 15152 2a02 01       		.byte	0x1
 15153 2a03 000044FF 		.4byte	.LASF518
 15154 2a07 02       		.byte	0x2
 15155 2a08 01C2     		.2byte	0x1c2
 15156 2a0a 00001274 		.4byte	.LASF519
 15157 2a0e 000032BB 		.4byte	0x32bb
 15158 2a12 02       		.byte	0x2
 15159 2a13 01       		.byte	0x1
 15160 2a14 00002A1F 		.4byte	0x2a1f
 15161 2a18 2C       		.uleb128 0x2c
 15162 2a19 000032AA 		.4byte	0x32aa
 15163 2a1d 01       		.byte	0x1
 15164 2a1e 00       		.byte	0x0
 15165 2a1f 3F       		.uleb128 0x3f
 15166 2a20 01       		.byte	0x1
 15167 2a21 000044FF 		.4byte	.LASF518
 15168 2a25 02       		.byte	0x2
 15169 2a26 01C6     		.2byte	0x1c6
 15170 2a28 00002E12 		.4byte	.LASF520
 15171 2a2c 000023EF 		.4byte	0x23ef
 15172 2a30 02       		.byte	0x2
 15173 2a31 01       		.byte	0x1
 15174 2a32 00002A3D 		.4byte	0x2a3d
 15175 2a36 2C       		.uleb128 0x2c
 15176 2a37 000032B0 		.4byte	0x32b0
 15177 2a3b 01       		.byte	0x1
 15178 2a3c 00       		.byte	0x0
 15179 2a3d 3F       		.uleb128 0x3f
 15180 2a3e 01       		.byte	0x1
 15181 2a3f 0000235F 		.4byte	.LASF521
 15182 2a43 02       		.byte	0x2
 15183 2a44 01CA     		.2byte	0x1ca
 15184 2a46 00000F38 		.4byte	.LASF522
 15185 2a4a 000032BB 		.4byte	0x32bb
 15186 2a4e 02       		.byte	0x2
 15187 2a4f 01       		.byte	0x1
 15188 2a50 00002A5B 		.4byte	0x2a5b
 15189 2a54 2C       		.uleb128 0x2c
 15190 2a55 000032AA 		.4byte	0x32aa
 15191 2a59 01       		.byte	0x1
 15192 2a5a 00       		.byte	0x0
 15193 2a5b 3F       		.uleb128 0x3f
 15194 2a5c 01       		.byte	0x1
 15195 2a5d 0000235F 		.4byte	.LASF521
 15196 2a61 02       		.byte	0x2
 15197 2a62 01CE     		.2byte	0x1ce
 15198 2a64 00002FCC 		.4byte	.LASF523
 15199 2a68 000023EF 		.4byte	0x23ef
 15200 2a6c 02       		.byte	0x2
 15201 2a6d 01       		.byte	0x1
 15202 2a6e 00002A79 		.4byte	0x2a79
 15203 2a72 2C       		.uleb128 0x2c
 15204 2a73 000032B0 		.4byte	0x32b0
 15205 2a77 01       		.byte	0x1
 15206 2a78 00       		.byte	0x0
 15207 2a79 3F       		.uleb128 0x3f
 15208 2a7a 01       		.byte	0x1
 15209 2a7b 0000433F 		.4byte	.LASF524
 15210 2a7f 02       		.byte	0x2
 15211 2a80 01D2     		.2byte	0x1d2
 15212 2a82 00000B4A 		.4byte	.LASF525
 15213 2a86 000032BB 		.4byte	0x32bb
 15214 2a8a 02       		.byte	0x2
 15215 2a8b 01       		.byte	0x1
 15216 2a8c 00002A97 		.4byte	0x2a97
 15217 2a90 2C       		.uleb128 0x2c
 15218 2a91 000032AA 		.4byte	0x32aa
 15219 2a95 01       		.byte	0x1
 15220 2a96 00       		.byte	0x0
 15221 2a97 3F       		.uleb128 0x3f
 15222 2a98 01       		.byte	0x1
 15223 2a99 0000433F 		.4byte	.LASF524
 15224 2a9d 02       		.byte	0x2
 15225 2a9e 01D6     		.2byte	0x1d6
 15226 2aa0 0000434C 		.4byte	.LASF526
 15227 2aa4 000023EF 		.4byte	0x23ef
 15228 2aa8 02       		.byte	0x2
 15229 2aa9 01       		.byte	0x1
 15230 2aaa 00002AB5 		.4byte	0x2ab5
 15231 2aae 2C       		.uleb128 0x2c
 15232 2aaf 000032B0 		.4byte	0x32b0
 15233 2ab3 01       		.byte	0x1
 15234 2ab4 00       		.byte	0x0
 15235 2ab5 3F       		.uleb128 0x3f
 15236 2ab6 01       		.byte	0x1
 15237 2ab7 00004507 		.4byte	.LASF527
 15238 2abb 02       		.byte	0x2
 15239 2abc 01DA     		.2byte	0x1da
 15240 2abe 00002E91 		.4byte	.LASF528
 15241 2ac2 000027DD 		.4byte	0x27dd
 15242 2ac6 02       		.byte	0x2
 15243 2ac7 01       		.byte	0x1
 15244 2ac8 00002AD3 		.4byte	0x2ad3
 15245 2acc 2C       		.uleb128 0x2c
 15246 2acd 000032AA 		.4byte	0x32aa
 15247 2ad1 01       		.byte	0x1
 15248 2ad2 00       		.byte	0x0
 15249 2ad3 3F       		.uleb128 0x3f
 15250 2ad4 01       		.byte	0x1
 15251 2ad5 00004507 		.4byte	.LASF527
 15252 2ad9 02       		.byte	0x2
 15253 2ada 01DE     		.2byte	0x1de
 15254 2adc 00002638 		.4byte	.LASF529
 15255 2ae0 000027E3 		.4byte	0x27e3
 15256 2ae4 02       		.byte	0x2
 15257 2ae5 01       		.byte	0x1
 15258 2ae6 00002AF1 		.4byte	0x2af1
 15259 2aea 2C       		.uleb128 0x2c
 15260 2aeb 000032B0 		.4byte	0x32b0
 15261 2aef 01       		.byte	0x1
 15262 2af0 00       		.byte	0x0
 15263 2af1 3F       		.uleb128 0x3f
 15264 2af2 01       		.byte	0x1
 15265 2af3 00002A9D 		.4byte	.LASF530
 15266 2af7 02       		.byte	0x2
 15267 2af8 01E5     		.2byte	0x1e5
 15268 2afa 000004B8 		.4byte	.LASF531
 15269 2afe 000027DD 		.4byte	0x27dd
 15270 2b02 02       		.byte	0x2
 15271 2b03 01       		.byte	0x1
 15272 2b04 00002B0F 		.4byte	0x2b0f
 15273 2b08 2C       		.uleb128 0x2c
 15274 2b09 000032AA 		.4byte	0x32aa
 15275 2b0d 01       		.byte	0x1
 15276 2b0e 00       		.byte	0x0
 15277 2b0f 3F       		.uleb128 0x3f
 15278 2b10 01       		.byte	0x1
 15279 2b11 00002A9D 		.4byte	.LASF530
 15280 2b15 02       		.byte	0x2
 15281 2b16 01E9     		.2byte	0x1e9
 15282 2b18 00003E0E 		.4byte	.LASF532
 15283 2b1c 000027E3 		.4byte	0x27e3
 15284 2b20 02       		.byte	0x2
 15285 2b21 01       		.byte	0x1
 15286 2b22 00002B2D 		.4byte	0x2b2d
 15287 2b26 2C       		.uleb128 0x2c
 15288 2b27 000032B0 		.4byte	0x32b0
 15289 2b2b 01       		.byte	0x1
 15290 2b2c 00       		.byte	0x0
 15291 2b2d 3F       		.uleb128 0x3f
 15292 2b2e 01       		.byte	0x1
 15293 2b2f 0000296B 		.4byte	.LASF533
 15294 2b33 02       		.byte	0x2
 15295 2b34 01ED     		.2byte	0x1ed
 15296 2b36 00001021 		.4byte	.LASF534
 15297 2b3a 00002608 		.4byte	0x2608
 15298 2b3e 02       		.byte	0x2
 15299 2b3f 01       		.byte	0x1
 15300 2b40 00002B4A 		.4byte	0x2b4a
 15301 2b44 17       		.uleb128 0x17
 15302 2b45 000027E3 		.4byte	0x27e3
 15303 2b49 00       		.byte	0x0
 15304 2b4a 3F       		.uleb128 0x3f
 15305 2b4b 01       		.byte	0x1
 15306 2b4c 0000441C 		.4byte	.LASF535
 15307 2b50 02       		.byte	0x2
 15308 2b51 01F1     		.2byte	0x1f1
 15309 2b53 00004F4A 		.4byte	.LASF536
 15310 2b57 00002336 		.4byte	0x2336
 15311 2b5b 02       		.byte	0x2
 15312 2b5c 01       		.byte	0x1
 15313 2b5d 00002B67 		.4byte	0x2b67
 15314 2b61 17       		.uleb128 0x17
 15315 2b62 000027E3 		.4byte	0x27e3
 15316 2b66 00       		.byte	0x0
 15317 2b67 3F       		.uleb128 0x3f
 15318 2b68 01       		.byte	0x1
 15319 2b69 00002699 		.4byte	.LASF537
 15320 2b6d 02       		.byte	0x2
 15321 2b6e 01F5     		.2byte	0x1f5
 15322 2b70 00001E51 		.4byte	.LASF538
 15323 2b74 000027DD 		.4byte	0x27dd
 15324 2b78 02       		.byte	0x2
 15325 2b79 01       		.byte	0x1
 15326 2b7a 00002B84 		.4byte	0x2b84
 15327 2b7e 17       		.uleb128 0x17
 15328 2b7f 000023E9 		.4byte	0x23e9
 15329 2b83 00       		.byte	0x0
 15330 2b84 3F       		.uleb128 0x3f
 15331 2b85 01       		.byte	0x1
 15332 2b86 00002699 		.4byte	.LASF537
 15333 2b8a 02       		.byte	0x2
 15334 2b8b 01F9     		.2byte	0x1f9
 15335 2b8d 00001ED2 		.4byte	.LASF539
 15336 2b91 000027E3 		.4byte	0x27e3
 15337 2b95 02       		.byte	0x2
 15338 2b96 01       		.byte	0x1
 15339 2b97 00002BA1 		.4byte	0x2ba1
 15340 2b9b 17       		.uleb128 0x17
 15341 2b9c 000023EF 		.4byte	0x23ef
 15342 2ba0 00       		.byte	0x0
 15343 2ba1 3F       		.uleb128 0x3f
 15344 2ba2 01       		.byte	0x1
 15345 2ba3 00002851 		.4byte	.LASF540
 15346 2ba7 02       		.byte	0x2
 15347 2ba8 01FD     		.2byte	0x1fd
 15348 2baa 00004FF8 		.4byte	.LASF541
 15349 2bae 000027DD 		.4byte	0x27dd
 15350 2bb2 02       		.byte	0x2
 15351 2bb3 01       		.byte	0x1
 15352 2bb4 00002BBE 		.4byte	0x2bbe
 15353 2bb8 17       		.uleb128 0x17
 15354 2bb9 000023E9 		.4byte	0x23e9
 15355 2bbd 00       		.byte	0x0
 15356 2bbe 3F       		.uleb128 0x3f
 15357 2bbf 01       		.byte	0x1
 15358 2bc0 00002851 		.4byte	.LASF540
 15359 2bc4 02       		.byte	0x2
 15360 2bc5 0201     		.2byte	0x201
 15361 2bc7 000020D0 		.4byte	.LASF542
 15362 2bcb 000027E3 		.4byte	0x27e3
 15363 2bcf 02       		.byte	0x2
 15364 2bd0 01       		.byte	0x1
 15365 2bd1 00002BDB 		.4byte	0x2bdb
 15366 2bd5 17       		.uleb128 0x17
 15367 2bd6 000023EF 		.4byte	0x23ef
 15368 2bda 00       		.byte	0x0
 15369 2bdb 3F       		.uleb128 0x3f
 15370 2bdc 01       		.byte	0x1
 15371 2bdd 0000296B 		.4byte	.LASF533
 15372 2be1 02       		.byte	0x2
 15373 2be2 0205     		.2byte	0x205
 15374 2be4 00002C84 		.4byte	.LASF543
 15375 2be8 00002608 		.4byte	0x2608
 15376 2bec 02       		.byte	0x2
 15377 2bed 01       		.byte	0x1
 15378 2bee 00002BF8 		.4byte	0x2bf8
 15379 2bf2 17       		.uleb128 0x17
 15380 2bf3 000023EF 		.4byte	0x23ef
 15381 2bf7 00       		.byte	0x0
 15382 2bf8 3F       		.uleb128 0x3f
 15383 2bf9 01       		.byte	0x1
 15384 2bfa 0000441C 		.4byte	.LASF535
 15385 2bfe 02       		.byte	0x2
 15386 2bff 0209     		.2byte	0x209
 15387 2c01 000036BA 		.4byte	.LASF544
 15388 2c05 00002336 		.4byte	0x2336
 15389 2c09 02       		.byte	0x2
 15390 2c0a 01       		.byte	0x1
 15391 2c0b 00002C15 		.4byte	0x2c15
 15392 2c0f 17       		.uleb128 0x17
 15393 2c10 000023EF 		.4byte	0x23ef
 15394 2c14 00       		.byte	0x0
 15395 2c15 3F       		.uleb128 0x3f
 15396 2c16 01       		.byte	0x1
 15397 2c17 000039A3 		.4byte	.LASF459
 15398 2c1b 02       		.byte	0x2
 15399 2c1c 020D     		.2byte	0x20d
 15400 2c1e 00003C66 		.4byte	.LASF545
 15401 2c22 000023E9 		.4byte	0x23e9
 15402 2c26 02       		.byte	0x2
 15403 2c27 01       		.byte	0x1
 15404 2c28 00002C32 		.4byte	0x2c32
 15405 2c2c 17       		.uleb128 0x17
 15406 2c2d 000023E9 		.4byte	0x23e9
 15407 2c31 00       		.byte	0x0
 15408 2c32 3F       		.uleb128 0x3f
 15409 2c33 01       		.byte	0x1
 15410 2c34 000039A3 		.4byte	.LASF459
 15411 2c38 02       		.byte	0x2
 15412 2c39 0211     		.2byte	0x211
 15413 2c3b 000010BA 		.4byte	.LASF546
 15414 2c3f 000023EF 		.4byte	0x23ef
 15415 2c43 02       		.byte	0x2
 15416 2c44 01       		.byte	0x1
 15417 2c45 00002C4F 		.4byte	0x2c4f
 15418 2c49 17       		.uleb128 0x17
 15419 2c4a 000023EF 		.4byte	0x23ef
 15420 2c4e 00       		.byte	0x0
 15421 2c4f 3F       		.uleb128 0x3f
 15422 2c50 01       		.byte	0x1
 15423 2c51 00000448 		.4byte	.LASF462
 15424 2c55 02       		.byte	0x2
 15425 2c56 0215     		.2byte	0x215
 15426 2c58 00001D62 		.4byte	.LASF547
 15427 2c5c 000023E9 		.4byte	0x23e9
 15428 2c60 02       		.byte	0x2
 15429 2c61 01       		.byte	0x1
 15430 2c62 00002C6C 		.4byte	0x2c6c
 15431 2c66 17       		.uleb128 0x17
 15432 2c67 000023E9 		.4byte	0x23e9
 15433 2c6b 00       		.byte	0x0
 15434 2c6c 3F       		.uleb128 0x3f
 15435 2c6d 01       		.byte	0x1
 15436 2c6e 00000448 		.4byte	.LASF462
 15437 2c72 02       		.byte	0x2
 15438 2c73 0219     		.2byte	0x219
 15439 2c75 00004A2A 		.4byte	.LASF548
 15440 2c79 000023EF 		.4byte	0x23ef
 15441 2c7d 02       		.byte	0x2
 15442 2c7e 01       		.byte	0x1
 15443 2c7f 00002C89 		.4byte	0x2c89
 15444 2c83 17       		.uleb128 0x17
 15445 2c84 000023EF 		.4byte	0x23ef
 15446 2c88 00       		.byte	0x0
 15447 2c89 3F       		.uleb128 0x3f
 15448 2c8a 01       		.byte	0x1
 15449 2c8b 0000461D 		.4byte	.LASF549
 15450 2c8f 02       		.byte	0x2
 15451 2c90 0340     		.2byte	0x340
 15452 2c92 00004BA5 		.4byte	.LASF550
 15453 2c96 00001ADF 		.4byte	0x1adf
 15454 2c9a 03       		.byte	0x3
 15455 2c9b 01       		.byte	0x1
 15456 2c9c 00002CB6 		.4byte	0x2cb6
 15457 2ca0 2C       		.uleb128 0x2c
 15458 2ca1 000032AA 		.4byte	0x32aa
 15459 2ca5 01       		.byte	0x1
 15460 2ca6 17       		.uleb128 0x17
 15461 2ca7 000023E9 		.4byte	0x23e9
 15462 2cab 17       		.uleb128 0x17
 15463 2cac 000023E9 		.4byte	0x23e9
 15464 2cb0 17       		.uleb128 0x17
 15465 2cb1 00002608 		.4byte	0x2608
 15466 2cb5 00       		.byte	0x0
 15467 2cb6 3F       		.uleb128 0x3f
 15468 2cb7 01       		.byte	0x1
 15469 2cb8 0000260C 		.4byte	.LASF551
 15470 2cbc 02       		.byte	0x2
 15471 2cbd 0352     		.2byte	0x352
 15472 2cbf 00000DC4 		.4byte	.LASF552
 15473 2cc3 00001ADF 		.4byte	0x1adf
 15474 2cc7 03       		.byte	0x3
 15475 2cc8 01       		.byte	0x1
 15476 2cc9 00002CE3 		.4byte	0x2ce3
 15477 2ccd 2C       		.uleb128 0x2c
 15478 2cce 000032AA 		.4byte	0x32aa
 15479 2cd2 01       		.byte	0x1
 15480 2cd3 17       		.uleb128 0x17
 15481 2cd4 000023E9 		.4byte	0x23e9
 15482 2cd8 17       		.uleb128 0x17
 15483 2cd9 000023E9 		.4byte	0x23e9
 15484 2cdd 17       		.uleb128 0x17
 15485 2cde 00002608 		.4byte	0x2608
 15486 2ce2 00       		.byte	0x0
 15487 2ce3 3F       		.uleb128 0x3f
 15488 2ce4 01       		.byte	0x1
 15489 2ce5 0000461D 		.4byte	.LASF549
 15490 2ce9 02       		.byte	0x2
 15491 2cea 0364     		.2byte	0x364
 15492 2cec 000005B1 		.4byte	.LASF553
 15493 2cf0 00001AE5 		.4byte	0x1ae5
 15494 2cf4 03       		.byte	0x3
 15495 2cf5 01       		.byte	0x1
 15496 2cf6 00002D10 		.4byte	0x2d10
 15497 2cfa 2C       		.uleb128 0x2c
 15498 2cfb 000032AA 		.4byte	0x32aa
 15499 2cff 01       		.byte	0x1
 15500 2d00 17       		.uleb128 0x17
 15501 2d01 000023EF 		.4byte	0x23ef
 15502 2d05 17       		.uleb128 0x17
 15503 2d06 000023EF 		.4byte	0x23ef
 15504 2d0a 17       		.uleb128 0x17
 15505 2d0b 00002608 		.4byte	0x2608
 15506 2d0f 00       		.byte	0x0
 15507 2d10 3F       		.uleb128 0x3f
 15508 2d11 01       		.byte	0x1
 15509 2d12 00002744 		.4byte	.LASF554
 15510 2d16 02       		.byte	0x2
 15511 2d17 0502     		.2byte	0x502
 15512 2d19 00002A1F 		.4byte	.LASF555
 15513 2d1d 000027DD 		.4byte	0x27dd
 15514 2d21 03       		.byte	0x3
 15515 2d22 01       		.byte	0x1
 15516 2d23 00002D38 		.4byte	0x2d38
 15517 2d27 2C       		.uleb128 0x2c
 15518 2d28 000032AA 		.4byte	0x32aa
 15519 2d2c 01       		.byte	0x1
 15520 2d2d 17       		.uleb128 0x17
 15521 2d2e 000027E3 		.4byte	0x27e3
 15522 2d32 17       		.uleb128 0x17
 15523 2d33 000027DD 		.4byte	0x27dd
 15524 2d37 00       		.byte	0x0
 15525 2d38 40       		.uleb128 0x40
 15526 2d39 01       		.byte	0x1
 15527 2d3a 0000336B 		.4byte	.LASF556
 15528 2d3e 02       		.byte	0x2
 15529 2d3f 0526     		.2byte	0x526
 15530 2d41 00004C4E 		.4byte	.LASF557
 15531 2d45 03       		.byte	0x3
 15532 2d46 01       		.byte	0x1
 15533 2d47 00002D57 		.4byte	0x2d57
 15534 2d4b 2C       		.uleb128 0x2c
 15535 2d4c 000032AA 		.4byte	0x32aa
 15536 2d50 01       		.byte	0x1
 15537 2d51 17       		.uleb128 0x17
 15538 2d52 000027DD 		.4byte	0x27dd
 15539 2d56 00       		.byte	0x0
 15540 2d57 2B       		.uleb128 0x2b
 15541 2d58 01       		.byte	0x1
 15542 2d59 0000529F 		.4byte	.LASF558
 15543 2d5d 02       		.byte	0x2
 15544 2d5e 0238     		.2byte	0x238
 15545 2d60 01       		.byte	0x1
 15546 2d61 00002D6C 		.4byte	0x2d6c
 15547 2d65 2C       		.uleb128 0x2c
 15548 2d66 000032AA 		.4byte	0x32aa
 15549 2d6a 01       		.byte	0x1
 15550 2d6b 00       		.byte	0x0
 15551 2d6c 2B       		.uleb128 0x2b
 15552 2d6d 01       		.byte	0x1
 15553 2d6e 0000529F 		.4byte	.LASF558
 15554 2d72 02       		.byte	0x2
 15555 2d73 023B     		.2byte	0x23b
 15556 2d75 01       		.byte	0x1
 15557 2d76 00002D86 		.4byte	0x2d86
 15558 2d7a 2C       		.uleb128 0x2c
 15559 2d7b 000032AA 		.4byte	0x32aa
 15560 2d7f 01       		.byte	0x1
 15561 2d80 17       		.uleb128 0x17
 15562 2d81 000028E5 		.4byte	0x28e5
 15563 2d85 00       		.byte	0x0
 15564 2d86 2B       		.uleb128 0x2b
 15565 2d87 01       		.byte	0x1
 15566 2d88 0000529F 		.4byte	.LASF558
 15567 2d8c 02       		.byte	0x2
 15568 2d8d 023F     		.2byte	0x23f
 15569 2d8f 01       		.byte	0x1
 15570 2d90 00002DA5 		.4byte	0x2da5
 15571 2d94 2C       		.uleb128 0x2c
 15572 2d95 000032AA 		.4byte	0x32aa
 15573 2d99 01       		.byte	0x1
 15574 2d9a 17       		.uleb128 0x17
 15575 2d9b 000028E5 		.4byte	0x28e5
 15576 2d9f 17       		.uleb128 0x17
 15577 2da0 0000269D 		.4byte	0x269d
 15578 2da4 00       		.byte	0x0
 15579 2da5 2B       		.uleb128 0x2b
 15580 2da6 01       		.byte	0x1
 15581 2da7 0000529F 		.4byte	.LASF558
 15582 2dab 02       		.byte	0x2
 15583 2dac 0243     		.2byte	0x243
 15584 2dae 01       		.byte	0x1
 15585 2daf 00002DBF 		.4byte	0x2dbf
 15586 2db3 2C       		.uleb128 0x2c
 15587 2db4 000032AA 		.4byte	0x32aa
 15588 2db8 01       		.byte	0x1
 15589 2db9 17       		.uleb128 0x17
 15590 2dba 000032C1 		.4byte	0x32c1
 15591 2dbe 00       		.byte	0x0
 15592 2dbf 2B       		.uleb128 0x2b
 15593 2dc0 01       		.byte	0x1
 15594 2dc1 000001A0 		.4byte	.LASF559
 15595 2dc5 02       		.byte	0x2
 15596 2dc6 024F     		.2byte	0x24f
 15597 2dc8 01       		.byte	0x1
 15598 2dc9 00002DDA 		.4byte	0x2dda
 15599 2dcd 2C       		.uleb128 0x2c
 15600 2dce 000032AA 		.4byte	0x32aa
 15601 2dd2 01       		.byte	0x1
 15602 2dd3 2C       		.uleb128 0x2c
 15603 2dd4 0000006B 		.4byte	0x6b
 15604 2dd8 01       		.byte	0x1
 15605 2dd9 00       		.byte	0x0
 15606 2dda 3E       		.uleb128 0x3e
 15607 2ddb 01       		.byte	0x1
 15608 2ddc 00001154 		.4byte	.LASF560
 15609 2de0 02       		.byte	0x2
 15610 2de1 032A     		.2byte	0x32a
 15611 2de3 00000111 		.4byte	.LASF561
 15612 2de7 000032C7 		.4byte	0x32c7
 15613 2deb 01       		.byte	0x1
 15614 2dec 00002DFC 		.4byte	0x2dfc
 15615 2df0 2C       		.uleb128 0x2c
 15616 2df1 000032AA 		.4byte	0x32aa
 15617 2df5 01       		.byte	0x1
 15618 2df6 17       		.uleb128 0x17
 15619 2df7 000032C1 		.4byte	0x32c1
 15620 2dfb 00       		.byte	0x0
 15621 2dfc 3E       		.uleb128 0x3e
 15622 2dfd 01       		.byte	0x1
 15623 2dfe 0000304B 		.4byte	.LASF562
 15624 2e02 02       		.byte	0x2
 15625 2e03 0257     		.2byte	0x257
 15626 2e05 00000FAD 		.4byte	.LASF563
 15627 2e09 0000289C 		.4byte	0x289c
 15628 2e0d 01       		.byte	0x1
 15629 2e0e 00002E19 		.4byte	0x2e19
 15630 2e12 2C       		.uleb128 0x2c
 15631 2e13 000032B0 		.4byte	0x32b0
 15632 2e17 01       		.byte	0x1
 15633 2e18 00       		.byte	0x0
 15634 2e19 3E       		.uleb128 0x3e
 15635 2e1a 01       		.byte	0x1
 15636 2e1b 00005299 		.4byte	.LASF564
 15637 2e1f 02       		.byte	0x2
 15638 2e20 025B     		.2byte	0x25b
 15639 2e22 00003654 		.4byte	.LASF565
 15640 2e26 00001ADF 		.4byte	0x1adf
 15641 2e2a 01       		.byte	0x1
 15642 2e2b 00002E36 		.4byte	0x2e36
 15643 2e2f 2C       		.uleb128 0x2c
 15644 2e30 000032AA 		.4byte	0x32aa
 15645 2e34 01       		.byte	0x1
 15646 2e35 00       		.byte	0x0
 15647 2e36 3E       		.uleb128 0x3e
 15648 2e37 01       		.byte	0x1
 15649 2e38 00005299 		.4byte	.LASF564
 15650 2e3c 02       		.byte	0x2
 15651 2e3d 0262     		.2byte	0x262
 15652 2e3f 00001926 		.4byte	.LASF566
 15653 2e43 00001AE5 		.4byte	0x1ae5
 15654 2e47 01       		.byte	0x1
 15655 2e48 00002E53 		.4byte	0x2e53
 15656 2e4c 2C       		.uleb128 0x2c
 15657 2e4d 000032B0 		.4byte	0x32b0
 15658 2e51 01       		.byte	0x1
 15659 2e52 00       		.byte	0x0
 15660 2e53 41       		.uleb128 0x41
 15661 2e54 01       		.byte	0x1
 15662 2e55 656E6400 		.string	"end"
 15663 2e59 02       		.byte	0x2
 15664 2e5a 0269     		.2byte	0x269
 15665 2e5c 00003ADB 		.4byte	.LASF567
 15666 2e60 00001ADF 		.4byte	0x1adf
 15667 2e64 01       		.byte	0x1
 15668 2e65 00002E70 		.4byte	0x2e70
 15669 2e69 2C       		.uleb128 0x2c
 15670 2e6a 000032AA 		.4byte	0x32aa
 15671 2e6e 01       		.byte	0x1
 15672 2e6f 00       		.byte	0x0
 15673 2e70 41       		.uleb128 0x41
 15674 2e71 01       		.byte	0x1
 15675 2e72 656E6400 		.string	"end"
 15676 2e76 02       		.byte	0x2
 15677 2e77 026D     		.2byte	0x26d
 15678 2e79 00003F75 		.4byte	.LASF568
 15679 2e7d 00001AE5 		.4byte	0x1ae5
 15680 2e81 01       		.byte	0x1
 15681 2e82 00002E8D 		.4byte	0x2e8d
 15682 2e86 2C       		.uleb128 0x2c
 15683 2e87 000032B0 		.4byte	0x32b0
 15684 2e8b 01       		.byte	0x1
 15685 2e8c 00       		.byte	0x0
 15686 2e8d 3E       		.uleb128 0x3e
 15687 2e8e 01       		.byte	0x1
 15688 2e8f 000026BB 		.4byte	.LASF569
 15689 2e93 02       		.byte	0x2
 15690 2e94 0274     		.2byte	0x274
 15691 2e96 0000151A 		.4byte	.LASF570
 15692 2e9a 00001AEB 		.4byte	0x1aeb
 15693 2e9e 01       		.byte	0x1
 15694 2e9f 00002EAA 		.4byte	0x2eaa
 15695 2ea3 2C       		.uleb128 0x2c
 15696 2ea4 000032AA 		.4byte	0x32aa
 15697 2ea8 01       		.byte	0x1
 15698 2ea9 00       		.byte	0x0
 15699 2eaa 3E       		.uleb128 0x3e
 15700 2eab 01       		.byte	0x1
 15701 2eac 000026BB 		.4byte	.LASF569
 15702 2eb0 02       		.byte	0x2
 15703 2eb1 0278     		.2byte	0x278
 15704 2eb3 00001DF7 		.4byte	.LASF571
 15705 2eb7 00001AF1 		.4byte	0x1af1
 15706 2ebb 01       		.byte	0x1
 15707 2ebc 00002EC7 		.4byte	0x2ec7
 15708 2ec0 2C       		.uleb128 0x2c
 15709 2ec1 000032B0 		.4byte	0x32b0
 15710 2ec5 01       		.byte	0x1
 15711 2ec6 00       		.byte	0x0
 15712 2ec7 3E       		.uleb128 0x3e
 15713 2ec8 01       		.byte	0x1
 15714 2ec9 00001774 		.4byte	.LASF572
 15715 2ecd 02       		.byte	0x2
 15716 2ece 027C     		.2byte	0x27c
 15717 2ed0 000035FD 		.4byte	.LASF573
 15718 2ed4 00001AEB 		.4byte	0x1aeb
 15719 2ed8 01       		.byte	0x1
 15720 2ed9 00002EE4 		.4byte	0x2ee4
 15721 2edd 2C       		.uleb128 0x2c
 15722 2ede 000032AA 		.4byte	0x32aa
 15723 2ee2 01       		.byte	0x1
 15724 2ee3 00       		.byte	0x0
 15725 2ee4 3E       		.uleb128 0x3e
 15726 2ee5 01       		.byte	0x1
 15727 2ee6 00001774 		.4byte	.LASF572
 15728 2eea 02       		.byte	0x2
 15729 2eeb 0280     		.2byte	0x280
 15730 2eed 00002429 		.4byte	.LASF574
 15731 2ef1 00001AF1 		.4byte	0x1af1
 15732 2ef5 01       		.byte	0x1
 15733 2ef6 00002F01 		.4byte	0x2f01
 15734 2efa 2C       		.uleb128 0x2c
 15735 2efb 000032B0 		.4byte	0x32b0
 15736 2eff 01       		.byte	0x1
 15737 2f00 00       		.byte	0x0
 15738 2f01 3E       		.uleb128 0x3e
 15739 2f02 01       		.byte	0x1
 15740 2f03 0000471B 		.4byte	.LASF575
 15741 2f07 02       		.byte	0x2
 15742 2f08 0284     		.2byte	0x284
 15743 2f0a 00001D00 		.4byte	.LASF576
 15744 2f0e 000000AF 		.4byte	0xaf
 15745 2f12 01       		.byte	0x1
 15746 2f13 00002F1E 		.4byte	0x2f1e
 15747 2f17 2C       		.uleb128 0x2c
 15748 2f18 000032B0 		.4byte	0x32b0
 15749 2f1c 01       		.byte	0x1
 15750 2f1d 00       		.byte	0x0
 15751 2f1e 3E       		.uleb128 0x3e
 15752 2f1f 01       		.byte	0x1
 15753 2f20 00001F43 		.4byte	.LASF158
 15754 2f24 02       		.byte	0x2
 15755 2f25 0288     		.2byte	0x288
 15756 2f27 00004235 		.4byte	.LASF577
 15757 2f2b 000009CA 		.4byte	0x9ca
 15758 2f2f 01       		.byte	0x1
 15759 2f30 00002F3B 		.4byte	0x2f3b
 15760 2f34 2C       		.uleb128 0x2c
 15761 2f35 000032B0 		.4byte	0x32b0
 15762 2f39 01       		.byte	0x1
 15763 2f3a 00       		.byte	0x0
 15764 2f3b 3E       		.uleb128 0x3e
 15765 2f3c 01       		.byte	0x1
 15766 2f3d 000007F2 		.4byte	.LASF486
 15767 2f41 02       		.byte	0x2
 15768 2f42 028C     		.2byte	0x28c
 15769 2f44 000022B9 		.4byte	.LASF578
 15770 2f48 000009CA 		.4byte	0x9ca
 15771 2f4c 01       		.byte	0x1
 15772 2f4d 00002F58 		.4byte	0x2f58
 15773 2f51 2C       		.uleb128 0x2c
 15774 2f52 000032B0 		.4byte	0x32b0
 15775 2f56 01       		.byte	0x1
 15776 2f57 00       		.byte	0x0
 15777 2f58 42       		.uleb128 0x42
 15778 2f59 01       		.byte	0x1
 15779 2f5a 00001842 		.4byte	.LASF579
 15780 2f5e 02       		.byte	0x2
 15781 2f5f 0399     		.2byte	0x399
 15782 2f61 00001FC5 		.4byte	.LASF591
 15783 2f65 01       		.byte	0x1
 15784 2f66 00002F76 		.4byte	0x2f76
 15785 2f6a 2C       		.uleb128 0x2c
 15786 2f6b 000032AA 		.4byte	0x32aa
 15787 2f6f 01       		.byte	0x1
 15788 2f70 17       		.uleb128 0x17
 15789 2f71 000032C7 		.4byte	0x32c7
 15790 2f75 00       		.byte	0x0
 15791 2f76 3E       		.uleb128 0x3e
 15792 2f77 01       		.byte	0x1
 15793 2f78 000011BB 		.4byte	.LASF580
 15794 2f7c 02       		.byte	0x2
 15795 2f7d 03CC     		.2byte	0x3cc
 15796 2f7f 00001F48 		.4byte	.LASF581
 15797 2f83 00001AF7 		.4byte	0x1af7
 15798 2f87 01       		.byte	0x1
 15799 2f88 00002F98 		.4byte	0x2f98
 15800 2f8c 2C       		.uleb128 0x2c
 15801 2f8d 000032AA 		.4byte	0x32aa
 15802 2f91 01       		.byte	0x1
 15803 2f92 17       		.uleb128 0x17
 15804 2f93 00002608 		.4byte	0x2608
 15805 2f97 00       		.byte	0x0
 15806 2f98 3E       		.uleb128 0x3e
 15807 2f99 01       		.byte	0x1
 15808 2f9a 00004CE8 		.4byte	.LASF582
 15809 2f9e 02       		.byte	0x2
 15810 2f9f 0377     		.2byte	0x377
 15811 2fa1 000012F2 		.4byte	.LASF583
 15812 2fa5 00001ADF 		.4byte	0x1adf
 15813 2fa9 01       		.byte	0x1
 15814 2faa 00002FBA 		.4byte	0x2fba
 15815 2fae 2C       		.uleb128 0x2c
 15816 2faf 000032AA 		.4byte	0x32aa
 15817 2fb3 01       		.byte	0x1
 15818 2fb4 17       		.uleb128 0x17
 15819 2fb5 00002608 		.4byte	0x2608
 15820 2fb9 00       		.byte	0x0
 15821 2fba 3E       		.uleb128 0x3e
 15822 2fbb 01       		.byte	0x1
 15823 2fbc 00002294 		.4byte	.LASF584
 15824 2fc0 02       		.byte	0x2
 15825 2fc1 0388     		.2byte	0x388
 15826 2fc3 000008D1 		.4byte	.LASF585
 15827 2fc7 00001ADF 		.4byte	0x1adf
 15828 2fcb 01       		.byte	0x1
 15829 2fcc 00002FDC 		.4byte	0x2fdc
 15830 2fd0 2C       		.uleb128 0x2c
 15831 2fd1 000032AA 		.4byte	0x32aa
 15832 2fd5 01       		.byte	0x1
 15833 2fd6 17       		.uleb128 0x17
 15834 2fd7 00002608 		.4byte	0x2608
 15835 2fdb 00       		.byte	0x0
 15836 2fdc 3E       		.uleb128 0x3e
 15837 2fdd 01       		.byte	0x1
 15838 2fde 000011BB 		.4byte	.LASF580
 15839 2fe2 02       		.byte	0x2
 15840 2fe3 03E6     		.2byte	0x3e6
 15841 2fe5 00002C02 		.4byte	.LASF586
 15842 2fe9 00001ADF 		.4byte	0x1adf
 15843 2fed 01       		.byte	0x1
 15844 2fee 00003003 		.4byte	0x3003
 15845 2ff2 2C       		.uleb128 0x2c
 15846 2ff3 000032AA 		.4byte	0x32aa
 15847 2ff7 01       		.byte	0x1
 15848 2ff8 17       		.uleb128 0x17
 15849 2ff9 00001ADF 		.4byte	0x1adf
 15850 2ffd 17       		.uleb128 0x17
 15851 2ffe 00002608 		.4byte	0x2608
 15852 3002 00       		.byte	0x0
 15853 3003 3E       		.uleb128 0x3e
 15854 3004 01       		.byte	0x1
 15855 3005 000011BB 		.4byte	.LASF580
 15856 3009 02       		.byte	0x2
 15857 300a 041F     		.2byte	0x41f
 15858 300c 0000486D 		.4byte	.LASF587
 15859 3010 00001AE5 		.4byte	0x1ae5
 15860 3014 01       		.byte	0x1
 15861 3015 0000302A 		.4byte	0x302a
 15862 3019 2C       		.uleb128 0x2c
 15863 301a 000032AA 		.4byte	0x32aa
 15864 301e 01       		.byte	0x1
 15865 301f 17       		.uleb128 0x17
 15866 3020 00001AE5 		.4byte	0x1ae5
 15867 3024 17       		.uleb128 0x17
 15868 3025 00002608 		.4byte	0x2608
 15869 3029 00       		.byte	0x0
 15870 302a 3E       		.uleb128 0x3e
 15871 302b 01       		.byte	0x1
 15872 302c 00004CE8 		.4byte	.LASF582
 15873 3030 02       		.byte	0x2
 15874 3031 0458     		.2byte	0x458
 15875 3033 000024C4 		.4byte	.LASF588
 15876 3037 00001ADF 		.4byte	0x1adf
 15877 303b 01       		.byte	0x1
 15878 303c 00003051 		.4byte	0x3051
 15879 3040 2C       		.uleb128 0x2c
 15880 3041 000032AA 		.4byte	0x32aa
 15881 3045 01       		.byte	0x1
 15882 3046 17       		.uleb128 0x17
 15883 3047 00001ADF 		.4byte	0x1adf
 15884 304b 17       		.uleb128 0x17
 15885 304c 00002608 		.4byte	0x2608
 15886 3050 00       		.byte	0x0
 15887 3051 3E       		.uleb128 0x3e
 15888 3052 01       		.byte	0x1
 15889 3053 00004CE8 		.4byte	.LASF582
 15890 3057 02       		.byte	0x2
 15891 3058 048E     		.2byte	0x48e
 15892 305a 00003BDF 		.4byte	.LASF589
 15893 305e 00001AE5 		.4byte	0x1ae5
 15894 3062 01       		.byte	0x1
 15895 3063 00003078 		.4byte	0x3078
 15896 3067 2C       		.uleb128 0x2c
 15897 3068 000032AA 		.4byte	0x32aa
 15898 306c 01       		.byte	0x1
 15899 306d 17       		.uleb128 0x17
 15900 306e 00001AE5 		.4byte	0x1ae5
 15901 3072 17       		.uleb128 0x17
 15902 3073 00002608 		.4byte	0x2608
 15903 3077 00       		.byte	0x0
 15904 3078 42       		.uleb128 0x42
 15905 3079 01       		.byte	0x1
 15906 307a 00004295 		.4byte	.LASF590
 15907 307e 02       		.byte	0x2
 15908 307f 04DA     		.2byte	0x4da
 15909 3081 000030C6 		.4byte	.LASF592
 15910 3085 01       		.byte	0x1
 15911 3086 00003096 		.4byte	0x3096
 15912 308a 2C       		.uleb128 0x2c
 15913 308b 000032AA 		.4byte	0x32aa
 15914 308f 01       		.byte	0x1
 15915 3090 17       		.uleb128 0x17
 15916 3091 00001ADF 		.4byte	0x1adf
 15917 3095 00       		.byte	0x0
 15918 3096 42       		.uleb128 0x42
 15919 3097 01       		.byte	0x1
 15920 3098 00004295 		.4byte	.LASF590
 15921 309c 02       		.byte	0x2
 15922 309d 04E8     		.2byte	0x4e8
 15923 309f 00004750 		.4byte	.LASF593
 15924 30a3 01       		.byte	0x1
 15925 30a4 000030B4 		.4byte	0x30b4
 15926 30a8 2C       		.uleb128 0x2c
 15927 30a9 000032AA 		.4byte	0x32aa
 15928 30ad 01       		.byte	0x1
 15929 30ae 17       		.uleb128 0x17
 15930 30af 00001AE5 		.4byte	0x1ae5
 15931 30b3 00       		.byte	0x0
 15932 30b4 3E       		.uleb128 0x3e
 15933 30b5 01       		.byte	0x1
 15934 30b6 00004295 		.4byte	.LASF590
 15935 30ba 02       		.byte	0x2
 15936 30bb 04F6     		.2byte	0x4f6
 15937 30bd 00001598 		.4byte	.LASF594
 15938 30c1 000009CA 		.4byte	0x9ca
 15939 30c5 01       		.byte	0x1
 15940 30c6 000030D6 		.4byte	0x30d6
 15941 30ca 2C       		.uleb128 0x2c
 15942 30cb 000032AA 		.4byte	0x32aa
 15943 30cf 01       		.byte	0x1
 15944 30d0 17       		.uleb128 0x17
 15945 30d1 00002336 		.4byte	0x2336
 15946 30d5 00       		.byte	0x0
 15947 30d6 42       		.uleb128 0x42
 15948 30d7 01       		.byte	0x1
 15949 30d8 00004295 		.4byte	.LASF590
 15950 30dc 02       		.byte	0x2
 15951 30dd 0536     		.2byte	0x536
 15952 30df 000040E9 		.4byte	.LASF595
 15953 30e3 01       		.byte	0x1
 15954 30e4 000030F9 		.4byte	0x30f9
 15955 30e8 2C       		.uleb128 0x2c
 15956 30e9 000032AA 		.4byte	0x32aa
 15957 30ed 01       		.byte	0x1
 15958 30ee 17       		.uleb128 0x17
 15959 30ef 00001ADF 		.4byte	0x1adf
 15960 30f3 17       		.uleb128 0x17
 15961 30f4 00001ADF 		.4byte	0x1adf
 15962 30f8 00       		.byte	0x0
 15963 30f9 42       		.uleb128 0x42
 15964 30fa 01       		.byte	0x1
 15965 30fb 00004295 		.4byte	.LASF590
 15966 30ff 02       		.byte	0x2
 15967 3100 0543     		.2byte	0x543
 15968 3102 0000338D 		.4byte	.LASF596
 15969 3106 01       		.byte	0x1
 15970 3107 0000311C 		.4byte	0x311c
 15971 310b 2C       		.uleb128 0x2c
 15972 310c 000032AA 		.4byte	0x32aa
 15973 3110 01       		.byte	0x1
 15974 3111 17       		.uleb128 0x17
 15975 3112 00001AE5 		.4byte	0x1ae5
 15976 3116 17       		.uleb128 0x17
 15977 3117 00001AE5 		.4byte	0x1ae5
 15978 311b 00       		.byte	0x0
 15979 311c 42       		.uleb128 0x42
 15980 311d 01       		.byte	0x1
 15981 311e 00004295 		.4byte	.LASF590
 15982 3122 02       		.byte	0x2
 15983 3123 0550     		.2byte	0x550
 15984 3125 00003407 		.4byte	.LASF597
 15985 3129 01       		.byte	0x1
 15986 312a 0000313F 		.4byte	0x313f
 15987 312e 2C       		.uleb128 0x2c
 15988 312f 000032AA 		.4byte	0x32aa
 15989 3133 01       		.byte	0x1
 15990 3134 17       		.uleb128 0x17
 15991 3135 0000232B 		.4byte	0x232b
 15992 3139 17       		.uleb128 0x17
 15993 313a 0000232B 		.4byte	0x232b
 15994 313e 00       		.byte	0x0
 15995 313f 42       		.uleb128 0x42
 15996 3140 01       		.byte	0x1
 15997 3141 00002060 		.4byte	.LASF598
 15998 3145 02       		.byte	0x2
 15999 3146 02C5     		.2byte	0x2c5
 16000 3148 00003A62 		.4byte	.LASF599
 16001 314c 01       		.byte	0x1
 16002 314d 00003158 		.4byte	0x3158
 16003 3151 2C       		.uleb128 0x2c
 16004 3152 000032AA 		.4byte	0x32aa
 16005 3156 01       		.byte	0x1
 16006 3157 00       		.byte	0x0
 16007 3158 3E       		.uleb128 0x3e
 16008 3159 01       		.byte	0x1
 16009 315a 00002838 		.4byte	.LASF600
 16010 315e 02       		.byte	0x2
 16011 315f 055A     		.2byte	0x55a
 16012 3161 000003EE 		.4byte	.LASF601
 16013 3165 00001ADF 		.4byte	0x1adf
 16014 3169 01       		.byte	0x1
 16015 316a 0000317A 		.4byte	0x317a
 16016 316e 2C       		.uleb128 0x2c
 16017 316f 000032AA 		.4byte	0x32aa
 16018 3173 01       		.byte	0x1
 16019 3174 17       		.uleb128 0x17
 16020 3175 00002336 		.4byte	0x2336
 16021 3179 00       		.byte	0x0
 16022 317a 3E       		.uleb128 0x3e
 16023 317b 01       		.byte	0x1
 16024 317c 00002838 		.4byte	.LASF600
 16025 3180 02       		.byte	0x2
 16026 3181 056F     		.2byte	0x56f
 16027 3183 00004DA4 		.4byte	.LASF602
 16028 3187 00001AE5 		.4byte	0x1ae5
 16029 318b 01       		.byte	0x1
 16030 318c 0000319C 		.4byte	0x319c
 16031 3190 2C       		.uleb128 0x2c
 16032 3191 000032B0 		.4byte	0x32b0
 16033 3195 01       		.byte	0x1
 16034 3196 17       		.uleb128 0x17
 16035 3197 00002336 		.4byte	0x2336
 16036 319b 00       		.byte	0x0
 16037 319c 3E       		.uleb128 0x3e
 16038 319d 01       		.byte	0x1
 16039 319e 000030AB 		.4byte	.LASF603
 16040 31a2 02       		.byte	0x2
 16041 31a3 0585     		.2byte	0x585
 16042 31a5 00000ED6 		.4byte	.LASF604
 16043 31a9 000009CA 		.4byte	0x9ca
 16044 31ad 01       		.byte	0x1
 16045 31ae 000031BE 		.4byte	0x31be
 16046 31b2 2C       		.uleb128 0x2c
 16047 31b3 000032B0 		.4byte	0x32b0
 16048 31b7 01       		.byte	0x1
 16049 31b8 17       		.uleb128 0x17
 16050 31b9 00002336 		.4byte	0x2336
 16051 31bd 00       		.byte	0x0
 16052 31be 3E       		.uleb128 0x3e
 16053 31bf 01       		.byte	0x1
 16054 31c0 000025AC 		.4byte	.LASF605
 16055 31c4 02       		.byte	0x2
 16056 31c5 0590     		.2byte	0x590
 16057 31c7 0000197F 		.4byte	.LASF606
 16058 31cb 00001ADF 		.4byte	0x1adf
 16059 31cf 01       		.byte	0x1
 16060 31d0 000031E0 		.4byte	0x31e0
 16061 31d4 2C       		.uleb128 0x2c
 16062 31d5 000032AA 		.4byte	0x32aa
 16063 31d9 01       		.byte	0x1
 16064 31da 17       		.uleb128 0x17
 16065 31db 00002336 		.4byte	0x2336
 16066 31df 00       		.byte	0x0
 16067 31e0 3E       		.uleb128 0x3e
 16068 31e1 01       		.byte	0x1
 16069 31e2 000025AC 		.4byte	.LASF605
 16070 31e6 02       		.byte	0x2
 16071 31e7 05A2     		.2byte	0x5a2
 16072 31e9 00004B1B 		.4byte	.LASF607
 16073 31ed 00001AE5 		.4byte	0x1ae5
 16074 31f1 01       		.byte	0x1
 16075 31f2 00003202 		.4byte	0x3202
 16076 31f6 2C       		.uleb128 0x2c
 16077 31f7 000032B0 		.4byte	0x32b0
 16078 31fb 01       		.byte	0x1
 16079 31fc 17       		.uleb128 0x17
 16080 31fd 00002336 		.4byte	0x2336
 16081 3201 00       		.byte	0x0
 16082 3202 3E       		.uleb128 0x3e
 16083 3203 01       		.byte	0x1
 16084 3204 000047D1 		.4byte	.LASF608
 16085 3208 02       		.byte	0x2
 16086 3209 05B4     		.2byte	0x5b4
 16087 320b 0000000B 		.4byte	.LASF609
 16088 320f 00001ADF 		.4byte	0x1adf
 16089 3213 01       		.byte	0x1
 16090 3214 00003224 		.4byte	0x3224
 16091 3218 2C       		.uleb128 0x2c
 16092 3219 000032AA 		.4byte	0x32aa
 16093 321d 01       		.byte	0x1
 16094 321e 17       		.uleb128 0x17
 16095 321f 00002336 		.4byte	0x2336
 16096 3223 00       		.byte	0x0
 16097 3224 3E       		.uleb128 0x3e
 16098 3225 01       		.byte	0x1
 16099 3226 000047D1 		.4byte	.LASF608
 16100 322a 02       		.byte	0x2
 16101 322b 05C6     		.2byte	0x5c6
 16102 322d 00004EE7 		.4byte	.LASF610
 16103 3231 00001AE5 		.4byte	0x1ae5
 16104 3235 01       		.byte	0x1
 16105 3236 00003246 		.4byte	0x3246
 16106 323a 2C       		.uleb128 0x2c
 16107 323b 000032B0 		.4byte	0x32b0
 16108 323f 01       		.byte	0x1
 16109 3240 17       		.uleb128 0x17
 16110 3241 00002336 		.4byte	0x2336
 16111 3245 00       		.byte	0x0
 16112 3246 3E       		.uleb128 0x3e
 16113 3247 01       		.byte	0x1
 16114 3248 000028A3 		.4byte	.LASF611
 16115 324c 02       		.byte	0x2
 16116 324d 05DB     		.2byte	0x5db
 16117 324f 00001ACE 		.4byte	.LASF612
 16118 3253 00001AFD 		.4byte	0x1afd
 16119 3257 01       		.byte	0x1
 16120 3258 00003268 		.4byte	0x3268
 16121 325c 2C       		.uleb128 0x2c
 16122 325d 000032AA 		.4byte	0x32aa
 16123 3261 01       		.byte	0x1
 16124 3262 17       		.uleb128 0x17
 16125 3263 00002336 		.4byte	0x2336
 16126 3267 00       		.byte	0x0
 16127 3268 3E       		.uleb128 0x3e
 16128 3269 01       		.byte	0x1
 16129 326a 000028A3 		.4byte	.LASF611
 16130 326e 02       		.byte	0x2
 16131 326f 05E5     		.2byte	0x5e5
 16132 3271 00001C68 		.4byte	.LASF613
 16133 3275 00001B03 		.4byte	0x1b03
 16134 3279 01       		.byte	0x1
 16135 327a 0000328A 		.4byte	0x328a
 16136 327e 2C       		.uleb128 0x2c
 16137 327f 000032B0 		.4byte	0x32b0
 16138 3283 01       		.byte	0x1
 16139 3284 17       		.uleb128 0x17
 16140 3285 00002336 		.4byte	0x2336
 16141 3289 00       		.byte	0x0
 16142 328a 43       		.uleb128 0x43
 16143 328b 01       		.byte	0x1
 16144 328c 00003EFE 		.4byte	.LASF614
 16145 3290 02       		.byte	0x2
 16146 3291 05F0     		.2byte	0x5f0
 16147 3293 000039C2 		.4byte	.LASF615
 16148 3297 000000AF 		.4byte	0xaf
 16149 329b 01       		.byte	0x1
 16150 329c 2C       		.uleb128 0x2c
 16151 329d 000032B0 		.4byte	0x32b0
 16152 32a1 01       		.byte	0x1
 16153 32a2 00       		.byte	0x0
 16154 32a3 00       		.byte	0x0
 16155 32a4 34       		.uleb128 0x34
 16156 32a5 04       		.byte	0x4
 16157 32a6 00002811 		.4byte	0x2811
 16158 32aa 05       		.uleb128 0x5
 16159 32ab 04       		.byte	0x4
 16160 32ac 000028EB 		.4byte	0x28eb
 16161 32b0 05       		.uleb128 0x5
 16162 32b1 04       		.byte	0x4
 16163 32b2 000032B6 		.4byte	0x32b6
 16164 32b6 1D       		.uleb128 0x1d
 16165 32b7 000028EB 		.4byte	0x28eb
 16166 32bb 34       		.uleb128 0x34
 16167 32bc 04       		.byte	0x4
 16168 32bd 000023E9 		.4byte	0x23e9
 16169 32c1 34       		.uleb128 0x34
 16170 32c2 04       		.byte	0x4
 16171 32c3 000032B6 		.4byte	0x32b6
 16172 32c7 34       		.uleb128 0x34
 16173 32c8 04       		.byte	0x4
 16174 32c9 000028EB 		.4byte	0x28eb
 16175 32cd 35       		.uleb128 0x35
 16176 32ce 00001B09 		.4byte	0x1b09
 16177 32d2 18       		.byte	0x18
 16178 32d3 07       		.byte	0x7
 16179 32d4 5E       		.byte	0x5e
 16180 32d5 0000377C 		.4byte	0x377c
 16181 32d9 44       		.uleb128 0x44
 16182 32da 00000882 		.4byte	.LASF617
 16183 32de 07       		.byte	0x7
 16184 32df 87       		.byte	0x87
 16185 32e0 000028EB 		.4byte	0x28eb
 16186 32e4 02       		.byte	0x2
 16187 32e5 23       		.byte	0x23
 16188 32e6 00       		.uleb128 0x0
 16189 32e7 03       		.byte	0x3
 16190 32e8 23       		.uleb128 0x23
 16191 32e9 000050A7 		.4byte	.LASF618
 16192 32ed 01       		.byte	0x1
 16193 32ee 45       		.uleb128 0x45
 16194 32ef 01       		.byte	0x1
 16195 32f0 6D617000 		.string	"map"
 16196 32f4 07       		.byte	0x7
 16197 32f5 9D       		.byte	0x9d
 16198 32f6 01       		.byte	0x1
 16199 32f7 00003302 		.4byte	0x3302
 16200 32fb 2C       		.uleb128 0x2c
 16201 32fc 0000377C 		.4byte	0x377c
 16202 3300 01       		.byte	0x1
 16203 3301 00       		.byte	0x0
 16204 3302 45       		.uleb128 0x45
 16205 3303 01       		.byte	0x1
 16206 3304 6D617000 		.string	"map"
 16207 3308 07       		.byte	0x7
 16208 3309 A5       		.byte	0xa5
 16209 330a 01       		.byte	0x1
 16210 330b 00003320 		.4byte	0x3320
 16211 330f 2C       		.uleb128 0x2c
 16212 3310 0000377C 		.4byte	0x377c
 16213 3314 01       		.byte	0x1
 16214 3315 17       		.uleb128 0x17
 16215 3316 000028E5 		.4byte	0x28e5
 16216 331a 17       		.uleb128 0x17
 16217 331b 0000269D 		.4byte	0x269d
 16218 331f 00       		.byte	0x0
 16219 3320 45       		.uleb128 0x45
 16220 3321 01       		.byte	0x1
 16221 3322 6D617000 		.string	"map"
 16222 3326 07       		.byte	0x7
 16223 3327 AF       		.byte	0xaf
 16224 3328 01       		.byte	0x1
 16225 3329 00003339 		.4byte	0x3339
 16226 332d 2C       		.uleb128 0x2c
 16227 332e 0000377C 		.4byte	0x377c
 16228 3332 01       		.byte	0x1
 16229 3333 17       		.uleb128 0x17
 16230 3334 00003782 		.4byte	0x3782
 16231 3338 00       		.byte	0x0
 16232 3339 36       		.uleb128 0x36
 16233 333a 01       		.byte	0x1
 16234 333b 00001154 		.4byte	.LASF560
 16235 333f 07       		.byte	0x7
 16236 3340 E2       		.byte	0xe2
 16237 3341 000002EB 		.4byte	.LASF619
 16238 3345 0000378D 		.4byte	0x378d
 16239 3349 01       		.byte	0x1
 16240 334a 0000335A 		.4byte	0x335a
 16241 334e 2C       		.uleb128 0x2c
 16242 334f 0000377C 		.4byte	0x377c
 16243 3353 01       		.byte	0x1
 16244 3354 17       		.uleb128 0x17
 16245 3355 00003782 		.4byte	0x3782
 16246 3359 00       		.byte	0x0
 16247 335a 36       		.uleb128 0x36
 16248 335b 01       		.byte	0x1
 16249 335c 00002843 		.4byte	.LASF506
 16250 3360 07       		.byte	0x7
 16251 3361 EA       		.byte	0xea
 16252 3362 00002315 		.4byte	.LASF620
 16253 3366 00002625 		.4byte	0x2625
 16254 336a 01       		.byte	0x1
 16255 336b 00003376 		.4byte	0x3376
 16256 336f 2C       		.uleb128 0x2c
 16257 3370 00003793 		.4byte	0x3793
 16258 3374 01       		.byte	0x1
 16259 3375 00       		.byte	0x0
 16260 3376 36       		.uleb128 0x36
 16261 3377 01       		.byte	0x1
 16262 3378 00005299 		.4byte	.LASF564
 16263 337c 07       		.byte	0x7
 16264 337d F4       		.byte	0xf4
 16265 337e 00001BAF 		.4byte	.LASF621
 16266 3382 00001ADF 		.4byte	0x1adf
 16267 3386 01       		.byte	0x1
 16268 3387 00003392 		.4byte	0x3392
 16269 338b 2C       		.uleb128 0x2c
 16270 338c 0000377C 		.4byte	0x377c
 16271 3390 01       		.byte	0x1
 16272 3391 00       		.byte	0x0
 16273 3392 36       		.uleb128 0x36
 16274 3393 01       		.byte	0x1
 16275 3394 00005299 		.4byte	.LASF564
 16276 3398 07       		.byte	0x7
 16277 3399 FD       		.byte	0xfd
 16278 339a 00000BAA 		.4byte	.LASF622
 16279 339e 00001AE5 		.4byte	0x1ae5
 16280 33a2 01       		.byte	0x1
 16281 33a3 000033AE 		.4byte	0x33ae
 16282 33a7 2C       		.uleb128 0x2c
 16283 33a8 00003793 		.4byte	0x3793
 16284 33ac 01       		.byte	0x1
 16285 33ad 00       		.byte	0x0
 16286 33ae 41       		.uleb128 0x41
 16287 33af 01       		.byte	0x1
 16288 33b0 656E6400 		.string	"end"
 16289 33b4 07       		.byte	0x7
 16290 33b5 0106     		.2byte	0x106
 16291 33b7 000016A0 		.4byte	.LASF623
 16292 33bb 00001ADF 		.4byte	0x1adf
 16293 33bf 01       		.byte	0x1
 16294 33c0 000033CB 		.4byte	0x33cb
 16295 33c4 2C       		.uleb128 0x2c
 16296 33c5 0000377C 		.4byte	0x377c
 16297 33c9 01       		.byte	0x1
 16298 33ca 00       		.byte	0x0
 16299 33cb 41       		.uleb128 0x41
 16300 33cc 01       		.byte	0x1
 16301 33cd 656E6400 		.string	"end"
 16302 33d1 07       		.byte	0x7
 16303 33d2 010F     		.2byte	0x10f
 16304 33d4 00002974 		.4byte	.LASF624
 16305 33d8 00001AE5 		.4byte	0x1ae5
 16306 33dc 01       		.byte	0x1
 16307 33dd 000033E8 		.4byte	0x33e8
 16308 33e1 2C       		.uleb128 0x2c
 16309 33e2 00003793 		.4byte	0x3793
 16310 33e6 01       		.byte	0x1
 16311 33e7 00       		.byte	0x0
 16312 33e8 3E       		.uleb128 0x3e
 16313 33e9 01       		.byte	0x1
 16314 33ea 000026BB 		.4byte	.LASF569
 16315 33ee 07       		.byte	0x7
 16316 33ef 0118     		.2byte	0x118
 16317 33f1 0000201F 		.4byte	.LASF625
 16318 33f5 00001AEB 		.4byte	0x1aeb
 16319 33f9 01       		.byte	0x1
 16320 33fa 00003405 		.4byte	0x3405
 16321 33fe 2C       		.uleb128 0x2c
 16322 33ff 0000377C 		.4byte	0x377c
 16323 3403 01       		.byte	0x1
 16324 3404 00       		.byte	0x0
 16325 3405 3E       		.uleb128 0x3e
 16326 3406 01       		.byte	0x1
 16327 3407 000026BB 		.4byte	.LASF569
 16328 340b 07       		.byte	0x7
 16329 340c 0121     		.2byte	0x121
 16330 340e 00000559 		.4byte	.LASF626
 16331 3412 00001AF1 		.4byte	0x1af1
 16332 3416 01       		.byte	0x1
 16333 3417 00003422 		.4byte	0x3422
 16334 341b 2C       		.uleb128 0x2c
 16335 341c 00003793 		.4byte	0x3793
 16336 3420 01       		.byte	0x1
 16337 3421 00       		.byte	0x0
 16338 3422 3E       		.uleb128 0x3e
 16339 3423 01       		.byte	0x1
 16340 3424 00001774 		.4byte	.LASF572
 16341 3428 07       		.byte	0x7
 16342 3429 012A     		.2byte	0x12a
 16343 342b 00003472 		.4byte	.LASF627
 16344 342f 00001AEB 		.4byte	0x1aeb
 16345 3433 01       		.byte	0x1
 16346 3434 0000343F 		.4byte	0x343f
 16347 3438 2C       		.uleb128 0x2c
 16348 3439 0000377C 		.4byte	0x377c
 16349 343d 01       		.byte	0x1
 16350 343e 00       		.byte	0x0
 16351 343f 3E       		.uleb128 0x3e
 16352 3440 01       		.byte	0x1
 16353 3441 00001774 		.4byte	.LASF572
 16354 3445 07       		.byte	0x7
 16355 3446 0133     		.2byte	0x133
 16356 3448 00003883 		.4byte	.LASF628
 16357 344c 00001AF1 		.4byte	0x1af1
 16358 3450 01       		.byte	0x1
 16359 3451 0000345C 		.4byte	0x345c
 16360 3455 2C       		.uleb128 0x2c
 16361 3456 00003793 		.4byte	0x3793
 16362 345a 01       		.byte	0x1
 16363 345b 00       		.byte	0x0
 16364 345c 3E       		.uleb128 0x3e
 16365 345d 01       		.byte	0x1
 16366 345e 0000471B 		.4byte	.LASF575
 16367 3462 07       		.byte	0x7
 16368 3463 013B     		.2byte	0x13b
 16369 3465 00000CD6 		.4byte	.LASF629
 16370 3469 000000AF 		.4byte	0xaf
 16371 346d 01       		.byte	0x1
 16372 346e 00003479 		.4byte	0x3479
 16373 3472 2C       		.uleb128 0x2c
 16374 3473 00003793 		.4byte	0x3793
 16375 3477 01       		.byte	0x1
 16376 3478 00       		.byte	0x0
 16377 3479 3E       		.uleb128 0x3e
 16378 347a 01       		.byte	0x1
 16379 347b 00001F43 		.4byte	.LASF158
 16380 347f 07       		.byte	0x7
 16381 3480 0140     		.2byte	0x140
 16382 3482 0000122A 		.4byte	.LASF630
 16383 3486 000009CA 		.4byte	0x9ca
 16384 348a 01       		.byte	0x1
 16385 348b 00003496 		.4byte	0x3496
 16386 348f 2C       		.uleb128 0x2c
 16387 3490 00003793 		.4byte	0x3793
 16388 3494 01       		.byte	0x1
 16389 3495 00       		.byte	0x0
 16390 3496 3E       		.uleb128 0x3e
 16391 3497 01       		.byte	0x1
 16392 3498 000007F2 		.4byte	.LASF486
 16393 349c 07       		.byte	0x7
 16394 349d 0145     		.2byte	0x145
 16395 349f 00003221 		.4byte	.LASF631
 16396 34a3 000009CA 		.4byte	0x9ca
 16397 34a7 01       		.byte	0x1
 16398 34a8 000034B3 		.4byte	0x34b3
 16399 34ac 2C       		.uleb128 0x2c
 16400 34ad 00003793 		.4byte	0x3793
 16401 34b1 01       		.byte	0x1
 16402 34b2 00       		.byte	0x0
 16403 34b3 3E       		.uleb128 0x3e
 16404 34b4 01       		.byte	0x1
 16405 34b5 000029E9 		.4byte	.LASF632
 16406 34b9 07       		.byte	0x7
 16407 34ba 0156     		.2byte	0x156
 16408 34bc 00002EFF 		.4byte	.LASF633
 16409 34c0 00003799 		.4byte	0x3799
 16410 34c4 01       		.byte	0x1
 16411 34c5 000034D5 		.4byte	0x34d5
 16412 34c9 2C       		.uleb128 0x2c
 16413 34ca 0000377C 		.4byte	0x377c
 16414 34ce 01       		.byte	0x1
 16415 34cf 17       		.uleb128 0x17
 16416 34d0 00002336 		.4byte	0x2336
 16417 34d4 00       		.byte	0x0
 16418 34d5 41       		.uleb128 0x41
 16419 34d6 01       		.byte	0x1
 16420 34d7 617400   		.string	"at"
 16421 34da 07       		.byte	0x7
 16422 34db 016C     		.2byte	0x16c
 16423 34dd 00004DFF 		.4byte	.LASF634
 16424 34e1 00003799 		.4byte	0x3799
 16425 34e5 01       		.byte	0x1
 16426 34e6 000034F6 		.4byte	0x34f6
 16427 34ea 2C       		.uleb128 0x2c
 16428 34eb 0000377C 		.4byte	0x377c
 16429 34ef 01       		.byte	0x1
 16430 34f0 17       		.uleb128 0x17
 16431 34f1 00002336 		.4byte	0x2336
 16432 34f5 00       		.byte	0x0
 16433 34f6 41       		.uleb128 0x41
 16434 34f7 01       		.byte	0x1
 16435 34f8 617400   		.string	"at"
 16436 34fb 07       		.byte	0x7
 16437 34fc 0175     		.2byte	0x175
 16438 34fe 00004173 		.4byte	.LASF635
 16439 3502 0000379F 		.4byte	0x379f
 16440 3506 01       		.byte	0x1
 16441 3507 00003517 		.4byte	0x3517
 16442 350b 2C       		.uleb128 0x2c
 16443 350c 00003793 		.4byte	0x3793
 16444 3510 01       		.byte	0x1
 16445 3511 17       		.uleb128 0x17
 16446 3512 00002336 		.4byte	0x2336
 16447 3516 00       		.byte	0x0
 16448 3517 3E       		.uleb128 0x3e
 16449 3518 01       		.byte	0x1
 16450 3519 00003B8E 		.4byte	.LASF636
 16451 351d 07       		.byte	0x7
 16452 351e 018F     		.2byte	0x18f
 16453 3520 00001A89 		.4byte	.LASF637
 16454 3524 00001AF7 		.4byte	0x1af7
 16455 3528 01       		.byte	0x1
 16456 3529 00003539 		.4byte	0x3539
 16457 352d 2C       		.uleb128 0x2c
 16458 352e 0000377C 		.4byte	0x377c
 16459 3532 01       		.byte	0x1
 16460 3533 17       		.uleb128 0x17
 16461 3534 00002608 		.4byte	0x2608
 16462 3538 00       		.byte	0x0
 16463 3539 3E       		.uleb128 0x3e
 16464 353a 01       		.byte	0x1
 16465 353b 00003B8E 		.4byte	.LASF636
 16466 353f 07       		.byte	0x7
 16467 3540 01AA     		.2byte	0x1aa
 16468 3542 0000062C 		.4byte	.LASF638
 16469 3546 00001ADF 		.4byte	0x1adf
 16470 354a 01       		.byte	0x1
 16471 354b 00003560 		.4byte	0x3560
 16472 354f 2C       		.uleb128 0x2c
 16473 3550 0000377C 		.4byte	0x377c
 16474 3554 01       		.byte	0x1
 16475 3555 17       		.uleb128 0x17
 16476 3556 00001ADF 		.4byte	0x1adf
 16477 355a 17       		.uleb128 0x17
 16478 355b 00002608 		.4byte	0x2608
 16479 355f 00       		.byte	0x0
 16480 3560 42       		.uleb128 0x42
 16481 3561 01       		.byte	0x1
 16482 3562 00004295 		.4byte	.LASF590
 16483 3566 07       		.byte	0x7
 16484 3567 01C5     		.2byte	0x1c5
 16485 3569 00002F44 		.4byte	.LASF639
 16486 356d 01       		.byte	0x1
 16487 356e 0000357E 		.4byte	0x357e
 16488 3572 2C       		.uleb128 0x2c
 16489 3573 0000377C 		.4byte	0x377c
 16490 3577 01       		.byte	0x1
 16491 3578 17       		.uleb128 0x17
 16492 3579 00001ADF 		.4byte	0x1adf
 16493 357d 00       		.byte	0x0
 16494 357e 3E       		.uleb128 0x3e
 16495 357f 01       		.byte	0x1
 16496 3580 00004295 		.4byte	.LASF590
 16497 3584 07       		.byte	0x7
 16498 3585 01D4     		.2byte	0x1d4
 16499 3587 000044B7 		.4byte	.LASF640
 16500 358b 000009CA 		.4byte	0x9ca
 16501 358f 01       		.byte	0x1
 16502 3590 000035A0 		.4byte	0x35a0
 16503 3594 2C       		.uleb128 0x2c
 16504 3595 0000377C 		.4byte	0x377c
 16505 3599 01       		.byte	0x1
 16506 359a 17       		.uleb128 0x17
 16507 359b 00002336 		.4byte	0x2336
 16508 359f 00       		.byte	0x0
 16509 35a0 42       		.uleb128 0x42
 16510 35a1 01       		.byte	0x1
 16511 35a2 00004295 		.4byte	.LASF590
 16512 35a6 07       		.byte	0x7
 16513 35a7 01E3     		.2byte	0x1e3
 16514 35a9 0000316E 		.4byte	.LASF641
 16515 35ad 01       		.byte	0x1
 16516 35ae 000035C3 		.4byte	0x35c3
 16517 35b2 2C       		.uleb128 0x2c
 16518 35b3 0000377C 		.4byte	0x377c
 16519 35b7 01       		.byte	0x1
 16520 35b8 17       		.uleb128 0x17
 16521 35b9 00001ADF 		.4byte	0x1adf
 16522 35bd 17       		.uleb128 0x17
 16523 35be 00001ADF 		.4byte	0x1adf
 16524 35c2 00       		.byte	0x0
 16525 35c3 42       		.uleb128 0x42
 16526 35c4 01       		.byte	0x1
 16527 35c5 00001842 		.4byte	.LASF579
 16528 35c9 07       		.byte	0x7
 16529 35ca 01F2     		.2byte	0x1f2
 16530 35cc 000049E8 		.4byte	.LASF642
 16531 35d0 01       		.byte	0x1
 16532 35d1 000035E1 		.4byte	0x35e1
 16533 35d5 2C       		.uleb128 0x2c
 16534 35d6 0000377C 		.4byte	0x377c
 16535 35da 01       		.byte	0x1
 16536 35db 17       		.uleb128 0x17
 16537 35dc 0000378D 		.4byte	0x378d
 16538 35e0 00       		.byte	0x0
 16539 35e1 42       		.uleb128 0x42
 16540 35e2 01       		.byte	0x1
 16541 35e3 00002060 		.4byte	.LASF598
 16542 35e7 07       		.byte	0x7
 16543 35e8 01FC     		.2byte	0x1fc
 16544 35ea 000000B4 		.4byte	.LASF643
 16545 35ee 01       		.byte	0x1
 16546 35ef 000035FA 		.4byte	0x35fa
 16547 35f3 2C       		.uleb128 0x2c
 16548 35f4 0000377C 		.4byte	0x377c
 16549 35f8 01       		.byte	0x1
 16550 35f9 00       		.byte	0x0
 16551 35fa 3E       		.uleb128 0x3e
 16552 35fb 01       		.byte	0x1
 16553 35fc 0000304B 		.4byte	.LASF562
 16554 3600 07       		.byte	0x7
 16555 3601 0205     		.2byte	0x205
 16556 3603 000025C8 		.4byte	.LASF644
 16557 3607 0000289C 		.4byte	0x289c
 16558 360b 01       		.byte	0x1
 16559 360c 00003617 		.4byte	0x3617
 16560 3610 2C       		.uleb128 0x2c
 16561 3611 00003793 		.4byte	0x3793
 16562 3615 01       		.byte	0x1
 16563 3616 00       		.byte	0x0
 16564 3617 3E       		.uleb128 0x3e
 16565 3618 01       		.byte	0x1
 16566 3619 00004EC7 		.4byte	.LASF645
 16567 361d 07       		.byte	0x7
 16568 361e 020D     		.2byte	0x20d
 16569 3620 000031CA 		.4byte	.LASF646
 16570 3624 000032E8 		.4byte	0x32e8
 16571 3628 01       		.byte	0x1
 16572 3629 00003634 		.4byte	0x3634
 16573 362d 2C       		.uleb128 0x2c
 16574 362e 00003793 		.4byte	0x3793
 16575 3632 01       		.byte	0x1
 16576 3633 00       		.byte	0x0
 16577 3634 3E       		.uleb128 0x3e
 16578 3635 01       		.byte	0x1
 16579 3636 00002838 		.4byte	.LASF600
 16580 363a 07       		.byte	0x7
 16581 363b 021D     		.2byte	0x21d
 16582 363d 000053D3 		.4byte	.LASF647
 16583 3641 00001ADF 		.4byte	0x1adf
 16584 3645 01       		.byte	0x1
 16585 3646 00003656 		.4byte	0x3656
 16586 364a 2C       		.uleb128 0x2c
 16587 364b 0000377C 		.4byte	0x377c
 16588 364f 01       		.byte	0x1
 16589 3650 17       		.uleb128 0x17
 16590 3651 00002336 		.4byte	0x2336
 16591 3655 00       		.byte	0x0
 16592 3656 3E       		.uleb128 0x3e
 16593 3657 01       		.byte	0x1
 16594 3658 00002838 		.4byte	.LASF600
 16595 365c 07       		.byte	0x7
 16596 365d 022C     		.2byte	0x22c
 16597 365f 00002481 		.4byte	.LASF648
 16598 3663 00001AE5 		.4byte	0x1ae5
 16599 3667 01       		.byte	0x1
 16600 3668 00003678 		.4byte	0x3678
 16601 366c 2C       		.uleb128 0x2c
 16602 366d 00003793 		.4byte	0x3793
 16603 3671 01       		.byte	0x1
 16604 3672 17       		.uleb128 0x17
 16605 3673 00002336 		.4byte	0x2336
 16606 3677 00       		.byte	0x0
 16607 3678 3E       		.uleb128 0x3e
 16608 3679 01       		.byte	0x1
 16609 367a 000030AB 		.4byte	.LASF603
 16610 367e 07       		.byte	0x7
 16611 367f 0238     		.2byte	0x238
 16612 3681 0000453F 		.4byte	.LASF649
 16613 3685 000009CA 		.4byte	0x9ca
 16614 3689 01       		.byte	0x1
 16615 368a 0000369A 		.4byte	0x369a
 16616 368e 2C       		.uleb128 0x2c
 16617 368f 00003793 		.4byte	0x3793
 16618 3693 01       		.byte	0x1
 16619 3694 17       		.uleb128 0x17
 16620 3695 00002336 		.4byte	0x2336
 16621 3699 00       		.byte	0x0
 16622 369a 3E       		.uleb128 0x3e
 16623 369b 01       		.byte	0x1
 16624 369c 000025AC 		.4byte	.LASF605
 16625 36a0 07       		.byte	0x7
 16626 36a1 0247     		.2byte	0x247
 16627 36a3 00002D6B 		.4byte	.LASF650
 16628 36a7 00001ADF 		.4byte	0x1adf
 16629 36ab 01       		.byte	0x1
 16630 36ac 000036BC 		.4byte	0x36bc
 16631 36b0 2C       		.uleb128 0x2c
 16632 36b1 0000377C 		.4byte	0x377c
 16633 36b5 01       		.byte	0x1
 16634 36b6 17       		.uleb128 0x17
 16635 36b7 00002336 		.4byte	0x2336
 16636 36bb 00       		.byte	0x0
 16637 36bc 3E       		.uleb128 0x3e
 16638 36bd 01       		.byte	0x1
 16639 36be 000025AC 		.4byte	.LASF605
 16640 36c2 07       		.byte	0x7
 16641 36c3 0256     		.2byte	0x256
 16642 36c5 00004822 		.4byte	.LASF651
 16643 36c9 00001AE5 		.4byte	0x1ae5
 16644 36cd 01       		.byte	0x1
 16645 36ce 000036DE 		.4byte	0x36de
 16646 36d2 2C       		.uleb128 0x2c
 16647 36d3 00003793 		.4byte	0x3793
 16648 36d7 01       		.byte	0x1
 16649 36d8 17       		.uleb128 0x17
 16650 36d9 00002336 		.4byte	0x2336
 16651 36dd 00       		.byte	0x0
 16652 36de 3E       		.uleb128 0x3e
 16653 36df 01       		.byte	0x1
 16654 36e0 000047D1 		.4byte	.LASF608
 16655 36e4 07       		.byte	0x7
 16656 36e5 0260     		.2byte	0x260
 16657 36e7 000011E0 		.4byte	.LASF652
 16658 36eb 00001ADF 		.4byte	0x1adf
 16659 36ef 01       		.byte	0x1
 16660 36f0 00003700 		.4byte	0x3700
 16661 36f4 2C       		.uleb128 0x2c
 16662 36f5 0000377C 		.4byte	0x377c
 16663 36f9 01       		.byte	0x1
 16664 36fa 17       		.uleb128 0x17
 16665 36fb 00002336 		.4byte	0x2336
 16666 36ff 00       		.byte	0x0
 16667 3700 3E       		.uleb128 0x3e
 16668 3701 01       		.byte	0x1
 16669 3702 000047D1 		.4byte	.LASF608
 16670 3706 07       		.byte	0x7
 16671 3707 026A     		.2byte	0x26a
 16672 3709 000043AD 		.4byte	.LASF653
 16673 370d 00001AE5 		.4byte	0x1ae5
 16674 3711 01       		.byte	0x1
 16675 3712 00003722 		.4byte	0x3722
 16676 3716 2C       		.uleb128 0x2c
 16677 3717 00003793 		.4byte	0x3793
 16678 371b 01       		.byte	0x1
 16679 371c 17       		.uleb128 0x17
 16680 371d 00002336 		.4byte	0x2336
 16681 3721 00       		.byte	0x0
 16682 3722 3E       		.uleb128 0x3e
 16683 3723 01       		.byte	0x1
 16684 3724 000028A3 		.4byte	.LASF611
 16685 3728 07       		.byte	0x7
 16686 3729 027D     		.2byte	0x27d
 16687 372b 00001C1E 		.4byte	.LASF654
 16688 372f 00001AFD 		.4byte	0x1afd
 16689 3733 01       		.byte	0x1
 16690 3734 00003744 		.4byte	0x3744
 16691 3738 2C       		.uleb128 0x2c
 16692 3739 0000377C 		.4byte	0x377c
 16693 373d 01       		.byte	0x1
 16694 373e 17       		.uleb128 0x17
 16695 373f 00002336 		.4byte	0x2336
 16696 3743 00       		.byte	0x0
 16697 3744 3E       		.uleb128 0x3e
 16698 3745 01       		.byte	0x1
 16699 3746 000028A3 		.4byte	.LASF611
 16700 374a 07       		.byte	0x7
 16701 374b 0290     		.2byte	0x290
 16702 374d 00004008 		.4byte	.LASF655
 16703 3751 00001B03 		.4byte	0x1b03
 16704 3755 01       		.byte	0x1
 16705 3756 00003766 		.4byte	0x3766
 16706 375a 2C       		.uleb128 0x2c
 16707 375b 00003793 		.4byte	0x3793
 16708 375f 01       		.byte	0x1
 16709 3760 17       		.uleb128 0x17
 16710 3761 00002336 		.4byte	0x2336
 16711 3765 00       		.byte	0x0
 16712 3766 2D       		.uleb128 0x2d
 16713 3767 01       		.byte	0x1
 16714 3768 000035E7 		.4byte	.LASF657
 16715 376c 01       		.byte	0x1
 16716 376d 01       		.byte	0x1
 16717 376e 2C       		.uleb128 0x2c
 16718 376f 0000377C 		.4byte	0x377c
 16719 3773 01       		.byte	0x1
 16720 3774 2C       		.uleb128 0x2c
 16721 3775 0000006B 		.4byte	0x6b
 16722 3779 01       		.byte	0x1
 16723 377a 00       		.byte	0x0
 16724 377b 00       		.byte	0x0
 16725 377c 05       		.uleb128 0x5
 16726 377d 04       		.byte	0x4
 16727 377e 000032CD 		.4byte	0x32cd
 16728 3782 34       		.uleb128 0x34
 16729 3783 04       		.byte	0x4
 16730 3784 00003788 		.4byte	0x3788
 16731 3788 1D       		.uleb128 0x1d
 16732 3789 000032CD 		.4byte	0x32cd
 16733 378d 34       		.uleb128 0x34
 16734 378e 04       		.byte	0x4
 16735 378f 000032CD 		.4byte	0x32cd
 16736 3793 05       		.uleb128 0x5
 16737 3794 04       		.byte	0x4
 16738 3795 00003788 		.4byte	0x3788
 16739 3799 34       		.uleb128 0x34
 16740 379a 04       		.byte	0x4
 16741 379b 000023FA 		.4byte	0x23fa
 16742 379f 34       		.uleb128 0x34
 16743 37a0 04       		.byte	0x4
 16744 37a1 000037A5 		.4byte	0x37a5
 16745 37a5 1D       		.uleb128 0x1d
 16746 37a6 000023FA 		.4byte	0x23fa
 16747 37aa 13       		.uleb128 0x13
 16748 37ab 00002EEC 		.4byte	.LASF658
 16749 37af 30       		.byte	0x30
 16750 37b0 03       		.byte	0x3
 16751 37b1 E7       		.byte	0xe7
 16752 37b2 00003C5C 		.4byte	0x3c5c
 16753 37b6 44       		.uleb128 0x44
 16754 37b7 00001FB5 		.4byte	.LASF659
 16755 37bb 03       		.byte	0x3
 16756 37bc EA       		.byte	0xea
 16757 37bd 0000118F 		.4byte	0x118f
 16758 37c1 02       		.byte	0x2
 16759 37c2 23       		.byte	0x23
 16760 37c3 00       		.uleb128 0x0
 16761 37c4 03       		.byte	0x3
 16762 37c5 44       		.uleb128 0x44
 16763 37c6 00004736 		.4byte	.LASF660
 16764 37ca 03       		.byte	0x3
 16765 37cb EB       		.byte	0xeb
 16766 37cc 000011BF 		.4byte	0x11bf
 16767 37d0 02       		.byte	0x2
 16768 37d1 23       		.byte	0x23
 16769 37d2 04       		.uleb128 0x4
 16770 37d3 03       		.byte	0x3
 16771 37d4 44       		.uleb128 0x44
 16772 37d5 000023FC 		.4byte	.LASF661
 16773 37d9 03       		.byte	0x3
 16774 37da EC       		.byte	0xec
 16775 37db 0000140D 		.4byte	0x140d
 16776 37df 02       		.byte	0x2
 16777 37e0 23       		.byte	0x23
 16778 37e1 08       		.uleb128 0x8
 16779 37e2 03       		.byte	0x3
 16780 37e3 44       		.uleb128 0x44
 16781 37e4 00000887 		.4byte	.LASF662
 16782 37e8 03       		.byte	0x3
 16783 37e9 ED       		.byte	0xed
 16784 37ea 00000F9B 		.4byte	0xf9b
 16785 37ee 02       		.byte	0x2
 16786 37ef 23       		.byte	0x23
 16787 37f0 0C       		.uleb128 0xc
 16788 37f1 03       		.byte	0x3
 16789 37f2 44       		.uleb128 0x44
 16790 37f3 00001EC1 		.4byte	.LASF663
 16791 37f7 03       		.byte	0x3
 16792 37f8 EE       		.byte	0xee
 16793 37f9 000000AF 		.4byte	0xaf
 16794 37fd 02       		.byte	0x2
 16795 37fe 23       		.byte	0x23
 16796 37ff 10       		.uleb128 0x10
 16797 3800 03       		.byte	0x3
 16798 3801 44       		.uleb128 0x44
 16799 3802 00002BD5 		.4byte	.LASF664
 16800 3806 03       		.byte	0x3
 16801 3807 F0       		.byte	0xf0
 16802 3808 00000A7C 		.4byte	0xa7c
 16803 380c 02       		.byte	0x2
 16804 380d 23       		.byte	0x23
 16805 380e 11       		.uleb128 0x11
 16806 380f 03       		.byte	0x3
 16807 3810 44       		.uleb128 0x44
 16808 3811 000043FF 		.4byte	.LASF665
 16809 3815 03       		.byte	0x3
 16810 3816 F1       		.byte	0xf1
 16811 3817 00000A7C 		.4byte	0xa7c
 16812 381b 02       		.byte	0x2
 16813 381c 23       		.byte	0x23
 16814 381d 12       		.uleb128 0x12
 16815 381e 03       		.byte	0x3
 16816 381f 44       		.uleb128 0x44
 16817 3820 00004D59 		.4byte	.LASF666
 16818 3824 03       		.byte	0x3
 16819 3825 F2       		.byte	0xf2
 16820 3826 00000A9D 		.4byte	0xa9d
 16821 382a 02       		.byte	0x2
 16822 382b 23       		.byte	0x23
 16823 382c 14       		.uleb128 0x14
 16824 382d 03       		.byte	0x3
 16825 382e 44       		.uleb128 0x44
 16826 382f 00004510 		.4byte	.LASF667
 16827 3833 03       		.byte	0x3
 16828 3834 F3       		.byte	0xf3
 16829 3835 000032CD 		.4byte	0x32cd
 16830 3839 02       		.byte	0x2
 16831 383a 23       		.byte	0x23
 16832 383b 18       		.uleb128 0x18
 16833 383c 03       		.byte	0x3
 16834 383d 46       		.uleb128 0x46
 16835 383e 01       		.byte	0x1
 16836 383f 0000207F 		.4byte	.LASF668
 16837 3843 03       		.byte	0x3
 16838 3844 F5       		.byte	0xf5
 16839 3845 00001B7E 		.4byte	.LASF670
 16840 3849 00000A92 		.4byte	0xa92
 16841 384d 03       		.byte	0x3
 16842 384e 01       		.byte	0x1
 16843 384f 0000385E 		.4byte	0x385e
 16844 3853 17       		.uleb128 0x17
 16845 3854 00000A92 		.4byte	0xa92
 16846 3858 17       		.uleb128 0x17
 16847 3859 00000A7C 		.4byte	0xa7c
 16848 385d 00       		.byte	0x0
 16849 385e 46       		.uleb128 0x46
 16850 385f 01       		.byte	0x1
 16851 3860 000017E7 		.4byte	.LASF669
 16852 3864 03       		.byte	0x3
 16853 3865 F6       		.byte	0xf6
 16854 3866 000045BA 		.4byte	.LASF671
 16855 386a 00000A92 		.4byte	0xa92
 16856 386e 03       		.byte	0x3
 16857 386f 01       		.byte	0x1
 16858 3870 0000387F 		.4byte	0x387f
 16859 3874 17       		.uleb128 0x17
 16860 3875 00000A92 		.4byte	0xa92
 16861 3879 17       		.uleb128 0x17
 16862 387a 00000A7C 		.4byte	0xa7c
 16863 387e 00       		.byte	0x0
 16864 387f 46       		.uleb128 0x46
 16865 3880 01       		.byte	0x1
 16866 3881 000011CC 		.4byte	.LASF672
 16867 3885 03       		.byte	0x3
 16868 3886 F8       		.byte	0xf8
 16869 3887 00001B56 		.4byte	.LASF673
 16870 388b 00000A92 		.4byte	0xa92
 16871 388f 03       		.byte	0x3
 16872 3890 01       		.byte	0x1
 16873 3891 000038A0 		.4byte	0x38a0
 16874 3895 17       		.uleb128 0x17
 16875 3896 00000A92 		.4byte	0xa92
 16876 389a 17       		.uleb128 0x17
 16877 389b 00000A92 		.4byte	0xa92
 16878 389f 00       		.byte	0x0
 16879 38a0 46       		.uleb128 0x46
 16880 38a1 01       		.byte	0x1
 16881 38a2 00003AC6 		.4byte	.LASF674
 16882 38a6 03       		.byte	0x3
 16883 38a7 F9       		.byte	0xf9
 16884 38a8 00003A29 		.4byte	.LASF675
 16885 38ac 00000A92 		.4byte	0xa92
 16886 38b0 03       		.byte	0x3
 16887 38b1 01       		.byte	0x1
 16888 38b2 000038C1 		.4byte	0x38c1
 16889 38b6 17       		.uleb128 0x17
 16890 38b7 000024B1 		.4byte	0x24b1
 16891 38bb 17       		.uleb128 0x17
 16892 38bc 00000A92 		.4byte	0xa92
 16893 38c0 00       		.byte	0x0
 16894 38c1 47       		.uleb128 0x47
 16895 38c2 01       		.byte	0x1
 16896 38c3 00001900 		.4byte	.LASF676
 16897 38c7 03       		.byte	0x3
 16898 38c8 FB       		.byte	0xfb
 16899 38c9 00004519 		.4byte	.LASF677
 16900 38cd 03       		.byte	0x3
 16901 38ce 01       		.byte	0x1
 16902 38cf 000038DA 		.4byte	0x38da
 16903 38d3 2C       		.uleb128 0x2c
 16904 38d4 00003C5C 		.4byte	0x3c5c
 16905 38d8 01       		.byte	0x1
 16906 38d9 00       		.byte	0x0
 16907 38da 46       		.uleb128 0x46
 16908 38db 01       		.byte	0x1
 16909 38dc 00002623 		.4byte	.LASF678
 16910 38e0 03       		.byte	0x3
 16911 38e1 FC       		.byte	0xfc
 16912 38e2 00003562 		.4byte	.LASF679
 16913 38e6 00003C62 		.4byte	0x3c62
 16914 38ea 03       		.byte	0x3
 16915 38eb 01       		.byte	0x1
 16916 38ec 000038FC 		.4byte	0x38fc
 16917 38f0 2C       		.uleb128 0x2c
 16918 38f1 00003C5C 		.4byte	0x3c5c
 16919 38f5 01       		.byte	0x1
 16920 38f6 17       		.uleb128 0x17
 16921 38f7 00001CF9 		.4byte	0x1cf9
 16922 38fb 00       		.byte	0x0
 16923 38fc 46       		.uleb128 0x46
 16924 38fd 01       		.byte	0x1
 16925 38fe 000049D1 		.4byte	.LASF680
 16926 3902 03       		.byte	0x3
 16927 3903 FD       		.byte	0xfd
 16928 3904 000034C8 		.4byte	.LASF681
 16929 3908 00000A92 		.4byte	0xa92
 16930 390c 03       		.byte	0x3
 16931 390d 01       		.byte	0x1
 16932 390e 00003919 		.4byte	0x3919
 16933 3912 2C       		.uleb128 0x2c
 16934 3913 00003C5C 		.4byte	0x3c5c
 16935 3917 01       		.byte	0x1
 16936 3918 00       		.byte	0x0
 16937 3919 47       		.uleb128 0x47
 16938 391a 01       		.byte	0x1
 16939 391b 00004FEA 		.4byte	.LASF682
 16940 391f 03       		.byte	0x3
 16941 3920 FE       		.byte	0xfe
 16942 3921 00004994 		.4byte	.LASF683
 16943 3925 03       		.byte	0x3
 16944 3926 01       		.byte	0x1
 16945 3927 0000393C 		.4byte	0x393c
 16946 392b 2C       		.uleb128 0x2c
 16947 392c 00003C5C 		.4byte	0x3c5c
 16948 3930 01       		.byte	0x1
 16949 3931 17       		.uleb128 0x17
 16950 3932 00003C68 		.4byte	0x3c68
 16951 3936 17       		.uleb128 0x17
 16952 3937 00003C62 		.4byte	0x3c62
 16953 393b 00       		.byte	0x0
 16954 393c 40       		.uleb128 0x40
 16955 393d 01       		.byte	0x1
 16956 393e 00002D2F 		.4byte	.LASF684
 16957 3942 03       		.byte	0x3
 16958 3943 0100     		.2byte	0x100
 16959 3945 0000184F 		.4byte	.LASF685
 16960 3949 03       		.byte	0x3
 16961 394a 01       		.byte	0x1
 16962 394b 00003956 		.4byte	0x3956
 16963 394f 2C       		.uleb128 0x2c
 16964 3950 00003C5C 		.4byte	0x3c5c
 16965 3954 01       		.byte	0x1
 16966 3955 00       		.byte	0x0
 16967 3956 40       		.uleb128 0x40
 16968 3957 01       		.byte	0x1
 16969 3958 000037B0 		.4byte	.LASF686
 16970 395c 03       		.byte	0x3
 16971 395d 0102     		.2byte	0x102
 16972 395f 000009F9 		.4byte	.LASF687
 16973 3963 03       		.byte	0x3
 16974 3964 01       		.byte	0x1
 16975 3965 0000398E 		.4byte	0x398e
 16976 3969 2C       		.uleb128 0x2c
 16977 396a 00003C5C 		.4byte	0x3c5c
 16978 396e 01       		.byte	0x1
 16979 396f 17       		.uleb128 0x17
 16980 3970 00000A87 		.4byte	0xa87
 16981 3974 17       		.uleb128 0x17
 16982 3975 00000A87 		.4byte	0xa87
 16983 3979 17       		.uleb128 0x17
 16984 397a 00000A92 		.4byte	0xa92
 16985 397e 17       		.uleb128 0x17
 16986 397f 000024B1 		.4byte	0x24b1
 16987 3983 17       		.uleb128 0x17
 16988 3984 00000A92 		.4byte	0xa92
 16989 3988 17       		.uleb128 0x17
 16990 3989 0000010A 		.4byte	0x10a
 16991 398d 00       		.byte	0x0
 16992 398e 40       		.uleb128 0x40
 16993 398f 01       		.byte	0x1
 16994 3990 000007C5 		.4byte	.LASF688
 16995 3994 03       		.byte	0x3
 16996 3995 0103     		.2byte	0x103
 16997 3997 00004A9F 		.4byte	.LASF689
 16998 399b 03       		.byte	0x3
 16999 399c 01       		.byte	0x1
 17000 399d 000039C6 		.4byte	0x39c6
 17001 39a1 2C       		.uleb128 0x2c
 17002 39a2 00003C5C 		.4byte	0x3c5c
 17003 39a6 01       		.byte	0x1
 17004 39a7 17       		.uleb128 0x17
 17005 39a8 0000013F 		.4byte	0x13f
 17006 39ac 17       		.uleb128 0x17
 17007 39ad 00000079 		.4byte	0x79
 17008 39b1 17       		.uleb128 0x17
 17009 39b2 00000079 		.4byte	0x79
 17010 39b6 17       		.uleb128 0x17
 17011 39b7 00000A87 		.4byte	0xa87
 17012 39bb 17       		.uleb128 0x17
 17013 39bc 00000A87 		.4byte	0xa87
 17014 39c0 17       		.uleb128 0x17
 17015 39c1 0000010A 		.4byte	0x10a
 17016 39c5 00       		.byte	0x0
 17017 39c6 40       		.uleb128 0x40
 17018 39c7 01       		.byte	0x1
 17019 39c8 0000099E 		.4byte	.LASF690
 17020 39cc 03       		.byte	0x3
 17021 39cd 0104     		.2byte	0x104
 17022 39cf 00004E4F 		.4byte	.LASF691
 17023 39d3 03       		.byte	0x3
 17024 39d4 01       		.byte	0x1
 17025 39d5 000039F9 		.4byte	0x39f9
 17026 39d9 2C       		.uleb128 0x2c
 17027 39da 00003C5C 		.4byte	0x3c5c
 17028 39de 01       		.byte	0x1
 17029 39df 17       		.uleb128 0x17
 17030 39e0 00000079 		.4byte	0x79
 17031 39e4 17       		.uleb128 0x17
 17032 39e5 00000079 		.4byte	0x79
 17033 39e9 17       		.uleb128 0x17
 17034 39ea 00000A87 		.4byte	0xa87
 17035 39ee 17       		.uleb128 0x17
 17036 39ef 00000A87 		.4byte	0xa87
 17037 39f3 17       		.uleb128 0x17
 17038 39f4 0000010A 		.4byte	0x10a
 17039 39f8 00       		.byte	0x0
 17040 39f9 2B       		.uleb128 0x2b
 17041 39fa 01       		.byte	0x1
 17042 39fb 00002EEC 		.4byte	.LASF658
 17043 39ff 03       		.byte	0x3
 17044 3a00 0107     		.2byte	0x107
 17045 3a02 01       		.byte	0x1
 17046 3a03 00003A18 		.4byte	0x3a18
 17047 3a07 2C       		.uleb128 0x2c
 17048 3a08 00003C5C 		.4byte	0x3c5c
 17049 3a0c 01       		.byte	0x1
 17050 3a0d 17       		.uleb128 0x17
 17051 3a0e 00000A7C 		.4byte	0xa7c
 17052 3a12 17       		.uleb128 0x17
 17053 3a13 00000A7C 		.4byte	0xa7c
 17054 3a17 00       		.byte	0x0
 17055 3a18 2B       		.uleb128 0x2b
 17056 3a19 01       		.byte	0x1
 17057 3a1a 0000473D 		.4byte	.LASF692
 17058 3a1e 03       		.byte	0x3
 17059 3a1f 0108     		.2byte	0x108
 17060 3a21 01       		.byte	0x1
 17061 3a22 00003A33 		.4byte	0x3a33
 17062 3a26 2C       		.uleb128 0x2c
 17063 3a27 00003C5C 		.4byte	0x3c5c
 17064 3a2b 01       		.byte	0x1
 17065 3a2c 2C       		.uleb128 0x2c
 17066 3a2d 0000006B 		.4byte	0x6b
 17067 3a31 01       		.byte	0x1
 17068 3a32 00       		.byte	0x0
 17069 3a33 3E       		.uleb128 0x3e
 17070 3a34 01       		.byte	0x1
 17071 3a35 00004CD9 		.4byte	.LASF693
 17072 3a39 03       		.byte	0x3
 17073 3a3a 010A     		.2byte	0x10a
 17074 3a3c 00000511 		.4byte	.LASF694
 17075 3a40 00001CF3 		.4byte	0x1cf3
 17076 3a44 01       		.byte	0x1
 17077 3a45 00003A4F 		.4byte	0x3a4f
 17078 3a49 17       		.uleb128 0x17
 17079 3a4a 00000092 		.4byte	0x92
 17080 3a4e 00       		.byte	0x0
 17081 3a4f 3E       		.uleb128 0x3e
 17082 3a50 01       		.byte	0x1
 17083 3a51 00004CD9 		.4byte	.LASF693
 17084 3a55 03       		.byte	0x3
 17085 3a56 010B     		.2byte	0x10b
 17086 3a58 00002ABB 		.4byte	.LASF695
 17087 3a5c 00001CF3 		.4byte	0x1cf3
 17088 3a60 01       		.byte	0x1
 17089 3a61 00003A6B 		.4byte	0x3a6b
 17090 3a65 17       		.uleb128 0x17
 17091 3a66 0000081F 		.4byte	0x81f
 17092 3a6a 00       		.byte	0x0
 17093 3a6b 42       		.uleb128 0x42
 17094 3a6c 01       		.byte	0x1
 17095 3a6d 00003089 		.4byte	.LASF696
 17096 3a71 03       		.byte	0x3
 17097 3a72 010C     		.2byte	0x10c
 17098 3a74 00003D9A 		.4byte	.LASF697
 17099 3a78 01       		.byte	0x1
 17100 3a79 00003A89 		.4byte	0x3a89
 17101 3a7d 2C       		.uleb128 0x2c
 17102 3a7e 00003C5C 		.4byte	0x3c5c
 17103 3a82 01       		.byte	0x1
 17104 3a83 17       		.uleb128 0x17
 17105 3a84 00000A7C 		.4byte	0xa7c
 17106 3a88 00       		.byte	0x0
 17107 3a89 42       		.uleb128 0x42
 17108 3a8a 01       		.byte	0x1
 17109 3a8b 00000DAA 		.4byte	.LASF698
 17110 3a8f 03       		.byte	0x3
 17111 3a90 010D     		.2byte	0x10d
 17112 3a92 000050D3 		.4byte	.LASF699
 17113 3a96 01       		.byte	0x1
 17114 3a97 00003AA7 		.4byte	0x3aa7
 17115 3a9b 2C       		.uleb128 0x2c
 17116 3a9c 00003C5C 		.4byte	0x3c5c
 17117 3aa0 01       		.byte	0x1
 17118 3aa1 17       		.uleb128 0x17
 17119 3aa2 00000A9D 		.4byte	0xa9d
 17120 3aa6 00       		.byte	0x0
 17121 3aa7 3E       		.uleb128 0x3e
 17122 3aa8 01       		.byte	0x1
 17123 3aa9 00000209 		.4byte	.LASF700
 17124 3aad 03       		.byte	0x3
 17125 3aae 010F     		.2byte	0x10f
 17126 3ab0 0000285A 		.4byte	.LASF701
 17127 3ab4 00000A92 		.4byte	0xa92
 17128 3ab8 01       		.byte	0x1
 17129 3ab9 00003AD8 		.4byte	0x3ad8
 17130 3abd 2C       		.uleb128 0x2c
 17131 3abe 00003C5C 		.4byte	0x3c5c
 17132 3ac2 01       		.byte	0x1
 17133 3ac3 17       		.uleb128 0x17
 17134 3ac4 00003C6E 		.4byte	0x3c6e
 17135 3ac8 17       		.uleb128 0x17
 17136 3ac9 00000FA6 		.4byte	0xfa6
 17137 3acd 17       		.uleb128 0x17
 17138 3ace 00000F9B 		.4byte	0xf9b
 17139 3ad2 17       		.uleb128 0x17
 17140 3ad3 000000AF 		.4byte	0xaf
 17141 3ad7 00       		.byte	0x0
 17142 3ad8 3E       		.uleb128 0x3e
 17143 3ad9 01       		.byte	0x1
 17144 3ada 00000209 		.4byte	.LASF700
 17145 3ade 03       		.byte	0x3
 17146 3adf 0110     		.2byte	0x110
 17147 3ae1 0000029A 		.4byte	.LASF702
 17148 3ae5 00000A92 		.4byte	0xa92
 17149 3ae9 01       		.byte	0x1
 17150 3aea 00003B09 		.4byte	0x3b09
 17151 3aee 2C       		.uleb128 0x2c
 17152 3aef 00003C5C 		.4byte	0x3c5c
 17153 3af3 01       		.byte	0x1
 17154 3af4 17       		.uleb128 0x17
 17155 3af5 00003C74 		.4byte	0x3c74
 17156 3af9 17       		.uleb128 0x17
 17157 3afa 00000FA6 		.4byte	0xfa6
 17158 3afe 17       		.uleb128 0x17
 17159 3aff 00000F9B 		.4byte	0xf9b
 17160 3b03 17       		.uleb128 0x17
 17161 3b04 000000AF 		.4byte	0xaf
 17162 3b08 00       		.byte	0x0
 17163 3b09 42       		.uleb128 0x42
 17164 3b0a 01       		.byte	0x1
 17165 3b0b 00003163 		.4byte	.LASF703
 17166 3b0f 03       		.byte	0x3
 17167 3b10 0111     		.2byte	0x111
 17168 3b12 00000453 		.4byte	.LASF704
 17169 3b16 01       		.byte	0x1
 17170 3b17 00003B27 		.4byte	0x3b27
 17171 3b1b 2C       		.uleb128 0x2c
 17172 3b1c 00003C5C 		.4byte	0x3c5c
 17173 3b20 01       		.byte	0x1
 17174 3b21 17       		.uleb128 0x17
 17175 3b22 00000F9B 		.4byte	0xf9b
 17176 3b26 00       		.byte	0x0
 17177 3b27 3E       		.uleb128 0x3e
 17178 3b28 01       		.byte	0x1
 17179 3b29 00004EDE 		.4byte	.LASF705
 17180 3b2d 03       		.byte	0x3
 17181 3b2e 0113     		.2byte	0x113
 17182 3b30 00004D6B 		.4byte	.LASF706
 17183 3b34 00000A92 		.4byte	0xa92
 17184 3b38 01       		.byte	0x1
 17185 3b39 00003B5D 		.4byte	0x3b5d
 17186 3b3d 2C       		.uleb128 0x2c
 17187 3b3e 00003C5C 		.4byte	0x3c5c
 17188 3b42 01       		.byte	0x1
 17189 3b43 17       		.uleb128 0x17
 17190 3b44 00000A87 		.4byte	0xa87
 17191 3b48 17       		.uleb128 0x17
 17192 3b49 00000A87 		.4byte	0xa87
 17193 3b4d 17       		.uleb128 0x17
 17194 3b4e 00001CF3 		.4byte	0x1cf3
 17195 3b52 17       		.uleb128 0x17
 17196 3b53 0000010A 		.4byte	0x10a
 17197 3b57 17       		.uleb128 0x17
 17198 3b58 00000A92 		.4byte	0xa92
 17199 3b5c 00       		.byte	0x0
 17200 3b5d 3E       		.uleb128 0x3e
 17201 3b5e 01       		.byte	0x1
 17202 3b5f 00004EDE 		.4byte	.LASF705
 17203 3b63 03       		.byte	0x3
 17204 3b64 0114     		.2byte	0x114
 17205 3b66 00004053 		.4byte	.LASF707
 17206 3b6a 00000A92 		.4byte	0xa92
 17207 3b6e 01       		.byte	0x1
 17208 3b6f 00003B93 		.4byte	0x3b93
 17209 3b73 2C       		.uleb128 0x2c
 17210 3b74 00003C5C 		.4byte	0x3c5c
 17211 3b78 01       		.byte	0x1
 17212 3b79 17       		.uleb128 0x17
 17213 3b7a 00000A87 		.4byte	0xa87
 17214 3b7e 17       		.uleb128 0x17
 17215 3b7f 00000A87 		.4byte	0xa87
 17216 3b83 17       		.uleb128 0x17
 17217 3b84 0000232B 		.4byte	0x232b
 17218 3b88 17       		.uleb128 0x17
 17219 3b89 0000010A 		.4byte	0x10a
 17220 3b8d 17       		.uleb128 0x17
 17221 3b8e 00000A92 		.4byte	0xa92
 17222 3b92 00       		.byte	0x0
 17223 3b93 3E       		.uleb128 0x3e
 17224 3b94 01       		.byte	0x1
 17225 3b95 00000741 		.4byte	.LASF708
 17226 3b99 03       		.byte	0x3
 17227 3b9a 0116     		.2byte	0x116
 17228 3b9c 00000C18 		.4byte	.LASF709
 17229 3ba0 00000A92 		.4byte	0xa92
 17230 3ba4 01       		.byte	0x1
 17231 3ba5 00003BB5 		.4byte	0x3bb5
 17232 3ba9 2C       		.uleb128 0x2c
 17233 3baa 00003C5C 		.4byte	0x3c5c
 17234 3bae 01       		.byte	0x1
 17235 3baf 17       		.uleb128 0x17
 17236 3bb0 00001CF3 		.4byte	0x1cf3
 17237 3bb4 00       		.byte	0x0
 17238 3bb5 3E       		.uleb128 0x3e
 17239 3bb6 01       		.byte	0x1
 17240 3bb7 00000741 		.4byte	.LASF708
 17241 3bbb 03       		.byte	0x3
 17242 3bbc 0117     		.2byte	0x117
 17243 3bbe 000000F4 		.4byte	.LASF710
 17244 3bc2 00000A92 		.4byte	0xa92
 17245 3bc6 01       		.byte	0x1
 17246 3bc7 00003BD7 		.4byte	0x3bd7
 17247 3bcb 2C       		.uleb128 0x2c
 17248 3bcc 00003C5C 		.4byte	0x3c5c
 17249 3bd0 01       		.byte	0x1
 17250 3bd1 17       		.uleb128 0x17
 17251 3bd2 0000232B 		.4byte	0x232b
 17252 3bd6 00       		.byte	0x0
 17253 3bd7 3E       		.uleb128 0x3e
 17254 3bd8 01       		.byte	0x1
 17255 3bd9 000037FF 		.4byte	.LASF711
 17256 3bdd 03       		.byte	0x3
 17257 3bde 0118     		.2byte	0x118
 17258 3be0 00000E45 		.4byte	.LASF712
 17259 3be4 00000A92 		.4byte	0xa92
 17260 3be8 01       		.byte	0x1
 17261 3be9 00003BF9 		.4byte	0x3bf9
 17262 3bed 2C       		.uleb128 0x2c
 17263 3bee 00003C5C 		.4byte	0x3c5c
 17264 3bf2 01       		.byte	0x1
 17265 3bf3 17       		.uleb128 0x17
 17266 3bf4 00001CF3 		.4byte	0x1cf3
 17267 3bf8 00       		.byte	0x0
 17268 3bf9 3E       		.uleb128 0x3e
 17269 3bfa 01       		.byte	0x1
 17270 3bfb 000037FF 		.4byte	.LASF711
 17271 3bff 03       		.byte	0x3
 17272 3c00 0119     		.2byte	0x119
 17273 3c02 000035B4 		.4byte	.LASF713
 17274 3c06 00000A92 		.4byte	0xa92
 17275 3c0a 01       		.byte	0x1
 17276 3c0b 00003C1B 		.4byte	0x3c1b
 17277 3c0f 2C       		.uleb128 0x2c
 17278 3c10 00003C5C 		.4byte	0x3c5c
 17279 3c14 01       		.byte	0x1
 17280 3c15 17       		.uleb128 0x17
 17281 3c16 0000232B 		.4byte	0x232b
 17282 3c1a 00       		.byte	0x0
 17283 3c1b 3E       		.uleb128 0x3e
 17284 3c1c 01       		.byte	0x1
 17285 3c1d 000047C7 		.4byte	.LASF714
 17286 3c21 03       		.byte	0x3
 17287 3c22 011A     		.2byte	0x11a
 17288 3c24 000029BA 		.4byte	.LASF715
 17289 3c28 000024B1 		.4byte	0x24b1
 17290 3c2c 01       		.byte	0x1
 17291 3c2d 00003C3D 		.4byte	0x3c3d
 17292 3c31 2C       		.uleb128 0x2c
 17293 3c32 00003C5C 		.4byte	0x3c5c
 17294 3c36 01       		.byte	0x1
 17295 3c37 17       		.uleb128 0x17
 17296 3c38 00001CF3 		.4byte	0x1cf3
 17297 3c3c 00       		.byte	0x0
 17298 3c3d 43       		.uleb128 0x43
 17299 3c3e 01       		.byte	0x1
 17300 3c3f 000047C7 		.4byte	.LASF714
 17301 3c43 03       		.byte	0x3
 17302 3c44 011B     		.2byte	0x11b
 17303 3c46 000051F0 		.4byte	.LASF716
 17304 3c4a 000024B1 		.4byte	0x24b1
 17305 3c4e 01       		.byte	0x1
 17306 3c4f 2C       		.uleb128 0x2c
 17307 3c50 00003C5C 		.4byte	0x3c5c
 17308 3c54 01       		.byte	0x1
 17309 3c55 17       		.uleb128 0x17
 17310 3c56 0000232B 		.4byte	0x232b
 17311 3c5a 00       		.byte	0x0
 17312 3c5b 00       		.byte	0x0
 17313 3c5c 05       		.uleb128 0x5
 17314 3c5d 04       		.byte	0x4
 17315 3c5e 000037AA 		.4byte	0x37aa
 17316 3c62 05       		.uleb128 0x5
 17317 3c63 04       		.byte	0x4
 17318 3c64 0000247D 		.4byte	0x247d
 17319 3c68 05       		.uleb128 0x5
 17320 3c69 04       		.byte	0x4
 17321 3c6a 00000E9B 		.4byte	0xe9b
 17322 3c6e 05       		.uleb128 0x5
 17323 3c6f 04       		.byte	0x4
 17324 3c70 00000A7C 		.4byte	0xa7c
 17325 3c74 05       		.uleb128 0x5
 17326 3c75 04       		.byte	0x4
 17327 3c76 00003C7A 		.4byte	0x3c7a
 17328 3c7a 1D       		.uleb128 0x1d
 17329 3c7b 00000A7C 		.4byte	0xa7c
 17330 3c7f 35       		.uleb128 0x35
 17331 3c80 00001ADF 		.4byte	0x1adf
 17332 3c84 04       		.byte	0x4
 17333 3c85 02       		.byte	0x2
 17334 3c86 99       		.byte	0x99
 17335 3c87 00003DB7 		.4byte	0x3db7
 17336 3c8b 12       		.uleb128 0x12
 17337 3c8c 00002D03 		.4byte	.LASF717
 17338 3c90 02       		.byte	0x2
 17339 3c91 DA       		.byte	0xda
 17340 3c92 000023E9 		.4byte	0x23e9
 17341 3c96 02       		.byte	0x2
 17342 3c97 23       		.byte	0x23
 17343 3c98 00       		.uleb128 0x0
 17344 3c99 30       		.uleb128 0x30
 17345 3c9a 01       		.byte	0x1
 17346 3c9b 000038D2 		.4byte	.LASF718
 17347 3c9f 02       		.byte	0x2
 17348 3ca0 A5       		.byte	0xa5
 17349 3ca1 01       		.byte	0x1
 17350 3ca2 00003CAD 		.4byte	0x3cad
 17351 3ca6 2C       		.uleb128 0x2c
 17352 3ca7 00003DB7 		.4byte	0x3db7
 17353 3cab 01       		.byte	0x1
 17354 3cac 00       		.byte	0x0
 17355 3cad 30       		.uleb128 0x30
 17356 3cae 01       		.byte	0x1
 17357 3caf 000038D2 		.4byte	.LASF718
 17358 3cb3 02       		.byte	0x2
 17359 3cb4 A9       		.byte	0xa9
 17360 3cb5 01       		.byte	0x1
 17361 3cb6 00003CC6 		.4byte	0x3cc6
 17362 3cba 2C       		.uleb128 0x2c
 17363 3cbb 00003DB7 		.4byte	0x3db7
 17364 3cbf 01       		.byte	0x1
 17365 3cc0 17       		.uleb128 0x17
 17366 3cc1 000027DD 		.4byte	0x27dd
 17367 3cc5 00       		.byte	0x0
 17368 3cc6 36       		.uleb128 0x36
 17369 3cc7 01       		.byte	0x1
 17370 3cc8 000010B0 		.4byte	.LASF719
 17371 3ccc 02       		.byte	0x2
 17372 3ccd AD       		.byte	0xad
 17373 3cce 0000179A 		.4byte	.LASF720
 17374 3cd2 00002602 		.4byte	0x2602
 17375 3cd6 01       		.byte	0x1
 17376 3cd7 00003CE2 		.4byte	0x3ce2
 17377 3cdb 2C       		.uleb128 0x2c
 17378 3cdc 00003DBD 		.4byte	0x3dbd
 17379 3ce0 01       		.byte	0x1
 17380 3ce1 00       		.byte	0x0
 17381 3ce2 36       		.uleb128 0x36
 17382 3ce3 01       		.byte	0x1
 17383 3ce4 00003D45 		.4byte	.LASF721
 17384 3ce8 02       		.byte	0x2
 17385 3ce9 B1       		.byte	0xb1
 17386 3cea 00002DB5 		.4byte	.LASF722
 17387 3cee 000025F1 		.4byte	0x25f1
 17388 3cf2 01       		.byte	0x1
 17389 3cf3 00003CFE 		.4byte	0x3cfe
 17390 3cf7 2C       		.uleb128 0x2c
 17391 3cf8 00003DBD 		.4byte	0x3dbd
 17392 3cfc 01       		.byte	0x1
 17393 3cfd 00       		.byte	0x0
 17394 3cfe 36       		.uleb128 0x36
 17395 3cff 01       		.byte	0x1
 17396 3d00 00003B83 		.4byte	.LASF723
 17397 3d04 02       		.byte	0x2
 17398 3d05 B5       		.byte	0xb5
 17399 3d06 00003DBD 		.4byte	.LASF724
 17400 3d0a 00003DC8 		.4byte	0x3dc8
 17401 3d0e 01       		.byte	0x1
 17402 3d0f 00003D1A 		.4byte	0x3d1a
 17403 3d13 2C       		.uleb128 0x2c
 17404 3d14 00003DB7 		.4byte	0x3db7
 17405 3d18 01       		.byte	0x1
 17406 3d19 00       		.byte	0x0
 17407 3d1a 36       		.uleb128 0x36
 17408 3d1b 01       		.byte	0x1
 17409 3d1c 00003B83 		.4byte	.LASF723
 17410 3d20 02       		.byte	0x2
 17411 3d21 BC       		.byte	0xbc
 17412 3d22 00003D61 		.4byte	.LASF725
 17413 3d26 00003C7F 		.4byte	0x3c7f
 17414 3d2a 01       		.byte	0x1
 17415 3d2b 00003D3B 		.4byte	0x3d3b
 17416 3d2f 2C       		.uleb128 0x2c
 17417 3d30 00003DB7 		.4byte	0x3db7
 17418 3d34 01       		.byte	0x1
 17419 3d35 17       		.uleb128 0x17
 17420 3d36 0000006B 		.4byte	0x6b
 17421 3d3a 00       		.byte	0x0
 17422 3d3b 36       		.uleb128 0x36
 17423 3d3c 01       		.byte	0x1
 17424 3d3d 00003D2C 		.4byte	.LASF726
 17425 3d41 02       		.byte	0x2
 17426 3d42 C4       		.byte	0xc4
 17427 3d43 00005134 		.4byte	.LASF727
 17428 3d47 00003DC8 		.4byte	0x3dc8
 17429 3d4b 01       		.byte	0x1
 17430 3d4c 00003D57 		.4byte	0x3d57
 17431 3d50 2C       		.uleb128 0x2c
 17432 3d51 00003DB7 		.4byte	0x3db7
 17433 3d55 01       		.byte	0x1
 17434 3d56 00       		.byte	0x0
 17435 3d57 36       		.uleb128 0x36
 17436 3d58 01       		.byte	0x1
 17437 3d59 00003D2C 		.4byte	.LASF726
 17438 3d5d 02       		.byte	0x2
 17439 3d5e CB       		.byte	0xcb
 17440 3d5f 000050FB 		.4byte	.LASF728
 17441 3d63 00003C7F 		.4byte	0x3c7f
 17442 3d67 01       		.byte	0x1
 17443 3d68 00003D78 		.4byte	0x3d78
 17444 3d6c 2C       		.uleb128 0x2c
 17445 3d6d 00003DB7 		.4byte	0x3db7
 17446 3d71 01       		.byte	0x1
 17447 3d72 17       		.uleb128 0x17
 17448 3d73 0000006B 		.4byte	0x6b
 17449 3d77 00       		.byte	0x0
 17450 3d78 36       		.uleb128 0x36
 17451 3d79 01       		.byte	0x1
 17452 3d7a 000050B5 		.4byte	.LASF729
 17453 3d7e 02       		.byte	0x2
 17454 3d7f D3       		.byte	0xd3
 17455 3d80 00002092 		.4byte	.LASF730
 17456 3d84 000000AF 		.4byte	0xaf
 17457 3d88 01       		.byte	0x1
 17458 3d89 00003D99 		.4byte	0x3d99
 17459 3d8d 2C       		.uleb128 0x2c
 17460 3d8e 00003DBD 		.4byte	0x3dbd
 17461 3d92 01       		.byte	0x1
 17462 3d93 17       		.uleb128 0x17
 17463 3d94 00003DCE 		.4byte	0x3dce
 17464 3d98 00       		.byte	0x0
 17465 3d99 37       		.uleb128 0x37
 17466 3d9a 01       		.byte	0x1
 17467 3d9b 0000226D 		.4byte	.LASF731
 17468 3d9f 02       		.byte	0x2
 17469 3da0 D7       		.byte	0xd7
 17470 3da1 000027D5 		.4byte	.LASF732
 17471 3da5 000000AF 		.4byte	0xaf
 17472 3da9 01       		.byte	0x1
 17473 3daa 2C       		.uleb128 0x2c
 17474 3dab 00003DBD 		.4byte	0x3dbd
 17475 3daf 01       		.byte	0x1
 17476 3db0 17       		.uleb128 0x17
 17477 3db1 00003DCE 		.4byte	0x3dce
 17478 3db5 00       		.byte	0x0
 17479 3db6 00       		.byte	0x0
 17480 3db7 05       		.uleb128 0x5
 17481 3db8 04       		.byte	0x4
 17482 3db9 00003C7F 		.4byte	0x3c7f
 17483 3dbd 05       		.uleb128 0x5
 17484 3dbe 04       		.byte	0x4
 17485 3dbf 00003DC3 		.4byte	0x3dc3
 17486 3dc3 1D       		.uleb128 0x1d
 17487 3dc4 00003C7F 		.4byte	0x3c7f
 17488 3dc8 34       		.uleb128 0x34
 17489 3dc9 04       		.byte	0x4
 17490 3dca 00003C7F 		.4byte	0x3c7f
 17491 3dce 34       		.uleb128 0x34
 17492 3dcf 04       		.byte	0x4
 17493 3dd0 00003DC3 		.4byte	0x3dc3
 17494 3dd4 35       		.uleb128 0x35
 17495 3dd5 00001A3C 		.4byte	0x1a3c
 17496 3dd9 18       		.byte	0x18
 17497 3dda 08       		.byte	0x8
 17498 3ddb 45       		.byte	0x45
 17499 3ddc 00003E44 		.4byte	0x3e44
 17500 3de0 12       		.uleb128 0x12
 17501 3de1 000025C2 		.4byte	.LASF733
 17502 3de5 08       		.byte	0x8
 17503 3de6 49       		.byte	0x49
 17504 3de7 00002331 		.4byte	0x2331
 17505 3deb 02       		.byte	0x2
 17506 3dec 23       		.byte	0x23
 17507 3ded 00       		.uleb128 0x0
 17508 3dee 12       		.uleb128 0x12
 17509 3def 0000326D 		.4byte	.LASF734
 17510 3df3 08       		.byte	0x8
 17511 3df4 4A       		.byte	0x4a
 17512 3df5 000023FA 		.4byte	0x23fa
 17513 3df9 02       		.byte	0x2
 17514 3dfa 23       		.byte	0x23
 17515 3dfb 04       		.uleb128 0x4
 17516 3dfc 30       		.uleb128 0x30
 17517 3dfd 01       		.byte	0x1
 17518 3dfe 000026C7 		.4byte	.LASF735
 17519 3e02 08       		.byte	0x8
 17520 3e03 50       		.byte	0x50
 17521 3e04 01       		.byte	0x1
 17522 3e05 00003E10 		.4byte	0x3e10
 17523 3e09 2C       		.uleb128 0x2c
 17524 3e0a 000025F1 		.4byte	0x25f1
 17525 3e0e 01       		.byte	0x1
 17526 3e0f 00       		.byte	0x0
 17527 3e10 30       		.uleb128 0x30
 17528 3e11 01       		.byte	0x1
 17529 3e12 000026C7 		.4byte	.LASF735
 17530 3e16 08       		.byte	0x8
 17531 3e17 54       		.byte	0x54
 17532 3e18 01       		.byte	0x1
 17533 3e19 00003E2E 		.4byte	0x3e2e
 17534 3e1d 2C       		.uleb128 0x2c
 17535 3e1e 000025F1 		.4byte	0x25f1
 17536 3e22 01       		.byte	0x1
 17537 3e23 17       		.uleb128 0x17
 17538 3e24 00002336 		.4byte	0x2336
 17539 3e28 17       		.uleb128 0x17
 17540 3e29 0000379F 		.4byte	0x379f
 17541 3e2d 00       		.byte	0x0
 17542 3e2e 2D       		.uleb128 0x2d
 17543 3e2f 01       		.byte	0x1
 17544 3e30 00004D21 		.4byte	.LASF736
 17545 3e34 01       		.byte	0x1
 17546 3e35 01       		.byte	0x1
 17547 3e36 2C       		.uleb128 0x2c
 17548 3e37 000025F1 		.4byte	0x25f1
 17549 3e3b 01       		.byte	0x1
 17550 3e3c 2C       		.uleb128 0x2c
 17551 3e3d 0000006B 		.4byte	0x6b
 17552 3e41 01       		.byte	0x1
 17553 3e42 00       		.byte	0x0
 17554 3e43 00       		.byte	0x0
 17555 3e44 35       		.uleb128 0x35
 17556 3e45 00001A4E 		.4byte	0x1a4e
 17557 3e49 28       		.byte	0x28
 17558 3e4a 02       		.byte	0x2
 17559 3e4b 86       		.byte	0x86
 17560 3e4c 00003E68 		.4byte	0x3e68
 17561 3e50 2A       		.uleb128 0x2a
 17562 3e51 0000233C 		.4byte	0x233c
 17563 3e55 02       		.byte	0x2
 17564 3e56 23       		.byte	0x23
 17565 3e57 00       		.uleb128 0x0
 17566 3e58 01       		.byte	0x1
 17567 3e59 12       		.uleb128 0x12
 17568 3e5a 0000256A 		.4byte	.LASF737
 17569 3e5e 02       		.byte	0x2
 17570 3e5f 88       		.byte	0x88
 17571 3e60 00003DD4 		.4byte	0x3dd4
 17572 3e64 02       		.byte	0x2
 17573 3e65 23       		.byte	0x23
 17574 3e66 10       		.uleb128 0x10
 17575 3e67 00       		.byte	0x0
 17576 3e68 35       		.uleb128 0x35
 17577 3e69 00001AE5 		.4byte	0x1ae5
 17578 3e6d 04       		.byte	0x4
 17579 3e6e 02       		.byte	0x2
 17580 3e6f DF       		.byte	0xdf
 17581 3e70 00003FC0 		.4byte	0x3fc0
 17582 3e74 1B       		.uleb128 0x1b
 17583 3e75 00002D03 		.4byte	.LASF717
 17584 3e79 02       		.byte	0x2
 17585 3e7a 0125     		.2byte	0x125
 17586 3e7c 000023EF 		.4byte	0x23ef
 17587 3e80 02       		.byte	0x2
 17588 3e81 23       		.byte	0x23
 17589 3e82 00       		.uleb128 0x0
 17590 3e83 30       		.uleb128 0x30
 17591 3e84 01       		.byte	0x1
 17592 3e85 0000047D 		.4byte	.LASF738
 17593 3e89 02       		.byte	0x2
 17594 3e8a ED       		.byte	0xed
 17595 3e8b 01       		.byte	0x1
 17596 3e8c 00003E97 		.4byte	0x3e97
 17597 3e90 2C       		.uleb128 0x2c
 17598 3e91 00003FC0 		.4byte	0x3fc0
 17599 3e95 01       		.byte	0x1
 17600 3e96 00       		.byte	0x0
 17601 3e97 30       		.uleb128 0x30
 17602 3e98 01       		.byte	0x1
 17603 3e99 0000047D 		.4byte	.LASF738
 17604 3e9d 02       		.byte	0x2
 17605 3e9e F1       		.byte	0xf1
 17606 3e9f 01       		.byte	0x1
 17607 3ea0 00003EB0 		.4byte	0x3eb0
 17608 3ea4 2C       		.uleb128 0x2c
 17609 3ea5 00003FC0 		.4byte	0x3fc0
 17610 3ea9 01       		.byte	0x1
 17611 3eaa 17       		.uleb128 0x17
 17612 3eab 000027E3 		.4byte	0x27e3
 17613 3eaf 00       		.byte	0x0
 17614 3eb0 30       		.uleb128 0x30
 17615 3eb1 01       		.byte	0x1
 17616 3eb2 0000047D 		.4byte	.LASF738
 17617 3eb6 02       		.byte	0x2
 17618 3eb7 F4       		.byte	0xf4
 17619 3eb8 01       		.byte	0x1
 17620 3eb9 00003EC9 		.4byte	0x3ec9
 17621 3ebd 2C       		.uleb128 0x2c
 17622 3ebe 00003FC0 		.4byte	0x3fc0
 17623 3ec2 01       		.byte	0x1
 17624 3ec3 17       		.uleb128 0x17
 17625 3ec4 00003DCE 		.4byte	0x3dce
 17626 3ec8 00       		.byte	0x0
 17627 3ec9 36       		.uleb128 0x36
 17628 3eca 01       		.byte	0x1
 17629 3ecb 000010B0 		.4byte	.LASF719
 17630 3ecf 02       		.byte	0x2
 17631 3ed0 F8       		.byte	0xf8
 17632 3ed1 0000117B 		.4byte	.LASF739
 17633 3ed5 00002608 		.4byte	0x2608
 17634 3ed9 01       		.byte	0x1
 17635 3eda 00003EE5 		.4byte	0x3ee5
 17636 3ede 2C       		.uleb128 0x2c
 17637 3edf 00003FC6 		.4byte	0x3fc6
 17638 3ee3 01       		.byte	0x1
 17639 3ee4 00       		.byte	0x0
 17640 3ee5 36       		.uleb128 0x36
 17641 3ee6 01       		.byte	0x1
 17642 3ee7 00003D45 		.4byte	.LASF721
 17643 3eeb 02       		.byte	0x2
 17644 3eec FC       		.byte	0xfc
 17645 3eed 00002905 		.4byte	.LASF740
 17646 3ef1 000025F7 		.4byte	0x25f7
 17647 3ef5 01       		.byte	0x1
 17648 3ef6 00003F01 		.4byte	0x3f01
 17649 3efa 2C       		.uleb128 0x2c
 17650 3efb 00003FC6 		.4byte	0x3fc6
 17651 3eff 01       		.byte	0x1
 17652 3f00 00       		.byte	0x0
 17653 3f01 3E       		.uleb128 0x3e
 17654 3f02 01       		.byte	0x1
 17655 3f03 00003B83 		.4byte	.LASF723
 17656 3f07 02       		.byte	0x2
 17657 3f08 0100     		.2byte	0x100
 17658 3f0a 000054E4 		.4byte	.LASF741
 17659 3f0e 00003FD1 		.4byte	0x3fd1
 17660 3f12 01       		.byte	0x1
 17661 3f13 00003F1E 		.4byte	0x3f1e
 17662 3f17 2C       		.uleb128 0x2c
 17663 3f18 00003FC0 		.4byte	0x3fc0
 17664 3f1c 01       		.byte	0x1
 17665 3f1d 00       		.byte	0x0
 17666 3f1e 3E       		.uleb128 0x3e
 17667 3f1f 01       		.byte	0x1
 17668 3f20 00003B83 		.4byte	.LASF723
 17669 3f24 02       		.byte	0x2
 17670 3f25 0107     		.2byte	0x107
 17671 3f27 00005498 		.4byte	.LASF742
 17672 3f2b 00003E68 		.4byte	0x3e68
 17673 3f2f 01       		.byte	0x1
 17674 3f30 00003F40 		.4byte	0x3f40
 17675 3f34 2C       		.uleb128 0x2c
 17676 3f35 00003FC0 		.4byte	0x3fc0
 17677 3f39 01       		.byte	0x1
 17678 3f3a 17       		.uleb128 0x17
 17679 3f3b 0000006B 		.4byte	0x6b
 17680 3f3f 00       		.byte	0x0
 17681 3f40 3E       		.uleb128 0x3e
 17682 3f41 01       		.byte	0x1
 17683 3f42 00003D2C 		.4byte	.LASF726
 17684 3f46 02       		.byte	0x2
 17685 3f47 010F     		.2byte	0x10f
 17686 3f49 000016DE 		.4byte	.LASF743
 17687 3f4d 00003FD1 		.4byte	0x3fd1
 17688 3f51 01       		.byte	0x1
 17689 3f52 00003F5D 		.4byte	0x3f5d
 17690 3f56 2C       		.uleb128 0x2c
 17691 3f57 00003FC0 		.4byte	0x3fc0
 17692 3f5b 01       		.byte	0x1
 17693 3f5c 00       		.byte	0x0
 17694 3f5d 3E       		.uleb128 0x3e
 17695 3f5e 01       		.byte	0x1
 17696 3f5f 00003D2C 		.4byte	.LASF726
 17697 3f63 02       		.byte	0x2
 17698 3f64 0116     		.2byte	0x116
 17699 3f66 00001651 		.4byte	.LASF744
 17700 3f6a 00003E68 		.4byte	0x3e68
 17701 3f6e 01       		.byte	0x1
 17702 3f6f 00003F7F 		.4byte	0x3f7f
 17703 3f73 2C       		.uleb128 0x2c
 17704 3f74 00003FC0 		.4byte	0x3fc0
 17705 3f78 01       		.byte	0x1
 17706 3f79 17       		.uleb128 0x17
 17707 3f7a 0000006B 		.4byte	0x6b
 17708 3f7e 00       		.byte	0x0
 17709 3f7f 3E       		.uleb128 0x3e
 17710 3f80 01       		.byte	0x1
 17711 3f81 000050B5 		.4byte	.LASF729
 17712 3f85 02       		.byte	0x2
 17713 3f86 011E     		.2byte	0x11e
 17714 3f88 00000767 		.4byte	.LASF745
 17715 3f8c 000000AF 		.4byte	0xaf
 17716 3f90 01       		.byte	0x1
 17717 3f91 00003FA1 		.4byte	0x3fa1
 17718 3f95 2C       		.uleb128 0x2c
 17719 3f96 00003FC6 		.4byte	0x3fc6
 17720 3f9a 01       		.byte	0x1
 17721 3f9b 17       		.uleb128 0x17
 17722 3f9c 00003FD7 		.4byte	0x3fd7
 17723 3fa0 00       		.byte	0x0
 17724 3fa1 43       		.uleb128 0x43
 17725 3fa2 01       		.byte	0x1
 17726 3fa3 0000226D 		.4byte	.LASF731
 17727 3fa7 02       		.byte	0x2
 17728 3fa8 0122     		.2byte	0x122
 17729 3faa 00003B31 		.4byte	.LASF746
 17730 3fae 000000AF 		.4byte	0xaf
 17731 3fb2 01       		.byte	0x1
 17732 3fb3 2C       		.uleb128 0x2c
 17733 3fb4 00003FC6 		.4byte	0x3fc6
 17734 3fb8 01       		.byte	0x1
 17735 3fb9 17       		.uleb128 0x17
 17736 3fba 00003FD7 		.4byte	0x3fd7
 17737 3fbe 00       		.byte	0x0
 17738 3fbf 00       		.byte	0x0
 17739 3fc0 05       		.uleb128 0x5
 17740 3fc1 04       		.byte	0x4
 17741 3fc2 00003E68 		.4byte	0x3e68
 17742 3fc6 05       		.uleb128 0x5
 17743 3fc7 04       		.byte	0x4
 17744 3fc8 00003FCC 		.4byte	0x3fcc
 17745 3fcc 1D       		.uleb128 0x1d
 17746 3fcd 00003E68 		.4byte	0x3e68
 17747 3fd1 34       		.uleb128 0x34
 17748 3fd2 04       		.byte	0x4
 17749 3fd3 00003E68 		.4byte	0x3e68
 17750 3fd7 34       		.uleb128 0x34
 17751 3fd8 04       		.byte	0x4
 17752 3fd9 00003FCC 		.4byte	0x3fcc
 17753 3fdd 3B       		.uleb128 0x3b
 17754 3fde 00001B0F 		.4byte	0x1b0f
 17755 3fe2 01       		.byte	0x1
 17756 3fe3 06       		.byte	0x6
 17757 3fe4 67       		.byte	0x67
 17758 3fe5 3C       		.uleb128 0x3c
 17759 3fe6 00001B15 		.4byte	0x1b15
 17760 3fea 01       		.byte	0x1
 17761 3feb 06       		.byte	0x6
 17762 3fec 0220     		.2byte	0x220
 17763 3fee 0000403C 		.4byte	0x403c
 17764 3ff2 2A       		.uleb128 0x2a
 17765 3ff3 00003FDD 		.4byte	0x3fdd
 17766 3ff7 02       		.byte	0x2
 17767 3ff8 23       		.byte	0x23
 17768 3ff9 00       		.uleb128 0x0
 17769 3ffa 01       		.byte	0x1
 17770 3ffb 3E       		.uleb128 0x3e
 17771 3ffc 01       		.byte	0x1
 17772 3ffd 00002FB9 		.4byte	.LASF501
 17773 4001 06       		.byte	0x6
 17774 4002 0222     		.2byte	0x222
 17775 4004 00000AEF 		.4byte	.LASF747
 17776 4008 00002336 		.4byte	0x2336
 17777 400c 01       		.byte	0x1
 17778 400d 0000401D 		.4byte	0x401d
 17779 4011 2C       		.uleb128 0x2c
 17780 4012 0000403C 		.4byte	0x403c
 17781 4016 01       		.byte	0x1
 17782 4017 17       		.uleb128 0x17
 17783 4018 00002602 		.4byte	0x2602
 17784 401c 00       		.byte	0x0
 17785 401d 43       		.uleb128 0x43
 17786 401e 01       		.byte	0x1
 17787 401f 00002FB9 		.4byte	.LASF501
 17788 4023 06       		.byte	0x6
 17789 4024 0226     		.2byte	0x226
 17790 4026 00001485 		.4byte	.LASF748
 17791 402a 00002336 		.4byte	0x2336
 17792 402e 01       		.byte	0x1
 17793 402f 2C       		.uleb128 0x2c
 17794 4030 0000403C 		.4byte	0x403c
 17795 4034 01       		.byte	0x1
 17796 4035 17       		.uleb128 0x17
 17797 4036 00002608 		.4byte	0x2608
 17798 403a 00       		.byte	0x0
 17799 403b 00       		.byte	0x0
 17800 403c 05       		.uleb128 0x5
 17801 403d 04       		.byte	0x4
 17802 403e 00004042 		.4byte	0x4042
 17803 4042 1D       		.uleb128 0x1d
 17804 4043 00003FE5 		.4byte	0x3fe5
 17805 4047 35       		.uleb128 0x35
 17806 4048 00001AF7 		.4byte	0x1af7
 17807 404c 08       		.byte	0x8
 17808 404d 08       		.byte	0x8
 17809 404e 45       		.byte	0x45
 17810 404f 0000409E 		.4byte	0x409e
 17811 4053 12       		.uleb128 0x12
 17812 4054 000025C2 		.4byte	.LASF733
 17813 4058 08       		.byte	0x8
 17814 4059 49       		.byte	0x49
 17815 405a 00003C7F 		.4byte	0x3c7f
 17816 405e 02       		.byte	0x2
 17817 405f 23       		.byte	0x23
 17818 4060 00       		.uleb128 0x0
 17819 4061 12       		.uleb128 0x12
 17820 4062 0000326D 		.4byte	.LASF734
 17821 4066 08       		.byte	0x8
 17822 4067 4A       		.byte	0x4a
 17823 4068 000000AF 		.4byte	0xaf
 17824 406c 02       		.byte	0x2
 17825 406d 23       		.byte	0x23
 17826 406e 04       		.uleb128 0x4
 17827 406f 30       		.uleb128 0x30
 17828 4070 01       		.byte	0x1
 17829 4071 000026C7 		.4byte	.LASF735
 17830 4075 08       		.byte	0x8
 17831 4076 50       		.byte	0x50
 17832 4077 01       		.byte	0x1
 17833 4078 00004083 		.4byte	0x4083
 17834 407c 2C       		.uleb128 0x2c
 17835 407d 0000409E 		.4byte	0x409e
 17836 4081 01       		.byte	0x1
 17837 4082 00       		.byte	0x0
 17838 4083 3A       		.uleb128 0x3a
 17839 4084 01       		.byte	0x1
 17840 4085 000026C7 		.4byte	.LASF735
 17841 4089 08       		.byte	0x8
 17842 408a 54       		.byte	0x54
 17843 408b 01       		.byte	0x1
 17844 408c 2C       		.uleb128 0x2c
 17845 408d 0000409E 		.4byte	0x409e
 17846 4091 01       		.byte	0x1
 17847 4092 17       		.uleb128 0x17
 17848 4093 00003DCE 		.4byte	0x3dce
 17849 4097 17       		.uleb128 0x17
 17850 4098 000040A4 		.4byte	0x40a4
 17851 409c 00       		.byte	0x0
 17852 409d 00       		.byte	0x0
 17853 409e 05       		.uleb128 0x5
 17854 409f 04       		.byte	0x4
 17855 40a0 00004047 		.4byte	0x4047
 17856 40a4 34       		.uleb128 0x34
 17857 40a5 04       		.byte	0x4
 17858 40a6 000040AA 		.4byte	0x40aa
 17859 40aa 1D       		.uleb128 0x1d
 17860 40ab 000000AF 		.4byte	0xaf
 17861 40af 48       		.uleb128 0x48
 17862 40b0 00002F1E 		.4byte	0x2f1e
 17863 40b4 03       		.byte	0x3
 17864 40b5 000040C4 		.4byte	0x40c4
 17865 40b9 49       		.uleb128 0x49
 17866 40ba 000028CC 		.4byte	.LASF749
 17867 40be 000040C4 		.4byte	0x40c4
 17868 40c2 01       		.byte	0x1
 17869 40c3 00       		.byte	0x0
 17870 40c4 1D       		.uleb128 0x1d
 17871 40c5 000032B0 		.4byte	0x32b0
 17872 40c9 48       		.uleb128 0x48
 17873 40ca 000024C8 		.4byte	0x24c8
 17874 40ce 03       		.byte	0x3
 17875 40cf 000040DE 		.4byte	0x40de
 17876 40d3 49       		.uleb128 0x49
 17877 40d4 000028CC 		.4byte	.LASF749
 17878 40d8 000040DE 		.4byte	0x40de
 17879 40dc 01       		.byte	0x1
 17880 40dd 00       		.byte	0x0
 17881 40de 1D       		.uleb128 0x1d
 17882 40df 0000260E 		.4byte	0x260e
 17883 40e3 48       		.uleb128 0x48
 17884 40e4 000024F5 		.4byte	0x24f5
 17885 40e8 03       		.byte	0x3
 17886 40e9 00004102 		.4byte	0x4102
 17887 40ed 49       		.uleb128 0x49
 17888 40ee 000028CC 		.4byte	.LASF749
 17889 40f2 000040DE 		.4byte	0x40de
 17890 40f6 01       		.byte	0x1
 17891 40f7 49       		.uleb128 0x49
 17892 40f8 00004C1F 		.4byte	.LASF750
 17893 40fc 00004102 		.4byte	0x4102
 17894 4100 01       		.byte	0x1
 17895 4101 00       		.byte	0x0
 17896 4102 1D       		.uleb128 0x1d
 17897 4103 0000006B 		.4byte	0x6b
 17898 4107 48       		.uleb128 0x48
 17899 4108 000026E1 		.4byte	0x26e1
 17900 410c 03       		.byte	0x3
 17901 410d 00004126 		.4byte	0x4126
 17902 4111 49       		.uleb128 0x49
 17903 4112 000028CC 		.4byte	.LASF749
 17904 4116 00004126 		.4byte	0x4126
 17905 411a 01       		.byte	0x1
 17906 411b 49       		.uleb128 0x49
 17907 411c 00004C1F 		.4byte	.LASF750
 17908 4120 00004102 		.4byte	0x4102
 17909 4124 01       		.byte	0x1
 17910 4125 00       		.byte	0x0
 17911 4126 1D       		.uleb128 0x1d
 17912 4127 000027FA 		.4byte	0x27fa
 17913 412b 48       		.uleb128 0x48
 17914 412c 00002853 		.4byte	0x2853
 17915 4130 03       		.byte	0x3
 17916 4131 0000414A 		.4byte	0x414a
 17917 4135 49       		.uleb128 0x49
 17918 4136 000028CC 		.4byte	.LASF749
 17919 413a 0000414A 		.4byte	0x414a
 17920 413e 01       		.byte	0x1
 17921 413f 49       		.uleb128 0x49
 17922 4140 00004C1F 		.4byte	.LASF750
 17923 4144 00004102 		.4byte	0x4102
 17924 4148 01       		.byte	0x1
 17925 4149 00       		.byte	0x0
 17926 414a 1D       		.uleb128 0x1d
 17927 414b 00002883 		.4byte	0x2883
 17928 414f 48       		.uleb128 0x48
 17929 4150 00003CAD 		.4byte	0x3cad
 17930 4154 03       		.byte	0x3
 17931 4155 0000416F 		.4byte	0x416f
 17932 4159 49       		.uleb128 0x49
 17933 415a 000028CC 		.4byte	.LASF749
 17934 415e 0000416F 		.4byte	0x416f
 17935 4162 01       		.byte	0x1
 17936 4163 4A       		.uleb128 0x4a
 17937 4164 5F5F7800 		.string	"__x"
 17938 4168 02       		.byte	0x2
 17939 4169 A9       		.byte	0xa9
 17940 416a 000027DD 		.4byte	0x27dd
 17941 416e 00       		.byte	0x0
 17942 416f 1D       		.uleb128 0x1d
 17943 4170 00003DB7 		.4byte	0x3db7
 17944 4174 48       		.uleb128 0x48
 17945 4175 00002E53 		.4byte	0x2e53
 17946 4179 03       		.byte	0x3
 17947 417a 0000418A 		.4byte	0x418a
 17948 417e 49       		.uleb128 0x49
 17949 417f 000028CC 		.4byte	.LASF749
 17950 4183 0000418A 		.4byte	0x418a
 17951 4187 01       		.byte	0x1
 17952 4188 4B       		.uleb128 0x4b
 17953 4189 00       		.byte	0x0
 17954 418a 1D       		.uleb128 0x1d
 17955 418b 000032AA 		.4byte	0x32aa
 17956 418f 48       		.uleb128 0x48
 17957 4190 00002E19 		.4byte	0x2e19
 17958 4194 03       		.byte	0x3
 17959 4195 000041A5 		.4byte	0x41a5
 17960 4199 49       		.uleb128 0x49
 17961 419a 000028CC 		.4byte	.LASF749
 17962 419e 0000418A 		.4byte	0x418a
 17963 41a2 01       		.byte	0x1
 17964 41a3 4B       		.uleb128 0x4b
 17965 41a4 00       		.byte	0x0
 17966 41a5 48       		.uleb128 0x48
 17967 41a6 00002DFC 		.4byte	0x2dfc
 17968 41aa 03       		.byte	0x3
 17969 41ab 000041BA 		.4byte	0x41ba
 17970 41af 49       		.uleb128 0x49
 17971 41b0 000028CC 		.4byte	.LASF749
 17972 41b4 000040C4 		.4byte	0x40c4
 17973 41b8 01       		.byte	0x1
 17974 41b9 00       		.byte	0x0
 17975 41ba 48       		.uleb128 0x48
 17976 41bb 000026B4 		.4byte	0x26b4
 17977 41bf 03       		.byte	0x3
 17978 41c0 000041CF 		.4byte	0x41cf
 17979 41c4 49       		.uleb128 0x49
 17980 41c5 000028CC 		.4byte	.LASF749
 17981 41c9 00004126 		.4byte	0x4126
 17982 41cd 01       		.byte	0x1
 17983 41ce 00       		.byte	0x0
 17984 41cf 4C       		.uleb128 0x4c
 17985 41d0 00003E2E 		.4byte	0x3e2e
 17986 41d4 08       		.byte	0x8
 17987 41d5 45       		.byte	0x45
 17988 41d6 03       		.byte	0x3
 17989 41d7 000041F0 		.4byte	0x41f0
 17990 41db 49       		.uleb128 0x49
 17991 41dc 000028CC 		.4byte	.LASF749
 17992 41e0 000041F0 		.4byte	0x41f0
 17993 41e4 01       		.byte	0x1
 17994 41e5 49       		.uleb128 0x49
 17995 41e6 00004C1F 		.4byte	.LASF750
 17996 41ea 00004102 		.4byte	0x4102
 17997 41ee 01       		.byte	0x1
 17998 41ef 00       		.byte	0x0
 17999 41f0 1D       		.uleb128 0x1d
 18000 41f1 000025F1 		.4byte	0x25f1
 18001 41f5 48       		.uleb128 0x48
 18002 41f6 00002B2D 		.4byte	0x2b2d
 18003 41fa 03       		.byte	0x3
 18004 41fb 0000420C 		.4byte	0x420c
 18005 41ff 4D       		.uleb128 0x4d
 18006 4200 5F5F7800 		.string	"__x"
 18007 4204 02       		.byte	0x2
 18008 4205 01ED     		.2byte	0x1ed
 18009 4207 000027E3 		.4byte	0x27e3
 18010 420b 00       		.byte	0x0
 18011 420c 48       		.uleb128 0x48
 18012 420d 0000401D 		.4byte	0x401d
 18013 4211 03       		.byte	0x3
 18014 4212 0000422D 		.4byte	0x422d
 18015 4216 49       		.uleb128 0x49
 18016 4217 000028CC 		.4byte	.LASF749
 18017 421b 0000422D 		.4byte	0x422d
 18018 421f 01       		.byte	0x1
 18019 4220 4D       		.uleb128 0x4d
 18020 4221 5F5F7800 		.string	"__x"
 18021 4225 06       		.byte	0x6
 18022 4226 0226     		.2byte	0x226
 18023 4228 00004232 		.4byte	0x4232
 18024 422c 00       		.byte	0x0
 18025 422d 1D       		.uleb128 0x1d
 18026 422e 0000403C 		.4byte	0x403c
 18027 4232 1D       		.uleb128 0x1d
 18028 4233 00002608 		.4byte	0x2608
 18029 4237 48       		.uleb128 0x48
 18030 4238 00002AB5 		.4byte	0x2ab5
 18031 423c 03       		.byte	0x3
 18032 423d 0000424C 		.4byte	0x424c
 18033 4241 49       		.uleb128 0x49
 18034 4242 000028CC 		.4byte	.LASF749
 18035 4246 0000418A 		.4byte	0x418a
 18036 424a 01       		.byte	0x1
 18037 424b 00       		.byte	0x0
 18038 424c 48       		.uleb128 0x48
 18039 424d 00002AF1 		.4byte	0x2af1
 18040 4251 03       		.byte	0x3
 18041 4252 00004261 		.4byte	0x4261
 18042 4256 49       		.uleb128 0x49
 18043 4257 000028CC 		.4byte	.LASF749
 18044 425b 0000418A 		.4byte	0x418a
 18045 425f 01       		.byte	0x1
 18046 4260 00       		.byte	0x0
 18047 4261 48       		.uleb128 0x48
 18048 4262 00002B4A 		.4byte	0x2b4a
 18049 4266 03       		.byte	0x3
 18050 4267 0000427A 		.4byte	0x427a
 18051 426b 4D       		.uleb128 0x4d
 18052 426c 5F5F7800 		.string	"__x"
 18053 4270 02       		.byte	0x2
 18054 4271 01F1     		.2byte	0x1f1
 18055 4273 000027E3 		.4byte	0x27e3
 18056 4277 4B       		.uleb128 0x4b
 18057 4278 4B       		.uleb128 0x4b
 18058 4279 00       		.byte	0x0
 18059 427a 48       		.uleb128 0x48
 18060 427b 000028B1 		.4byte	0x28b1
 18061 427f 03       		.byte	0x3
 18062 4280 000042A5 		.4byte	0x42a5
 18063 4284 49       		.uleb128 0x49
 18064 4285 000028CC 		.4byte	.LASF749
 18065 4289 000042A5 		.4byte	0x42a5
 18066 428d 01       		.byte	0x1
 18067 428e 4A       		.uleb128 0x4a
 18068 428f 5F5F7800 		.string	"__x"
 18069 4293 06       		.byte	0x6
 18070 4294 E2       		.byte	0xe2
 18071 4295 000042AA 		.4byte	0x42aa
 18072 4299 4A       		.uleb128 0x4a
 18073 429a 5F5F7900 		.string	"__y"
 18074 429e 06       		.byte	0x6
 18075 429f E2       		.byte	0xe2
 18076 42a0 000042AF 		.4byte	0x42af
 18077 42a4 00       		.byte	0x0
 18078 42a5 1D       		.uleb128 0x1d
 18079 42a6 000028D4 		.4byte	0x28d4
 18080 42aa 1D       		.uleb128 0x1d
 18081 42ab 00002336 		.4byte	0x2336
 18082 42af 1D       		.uleb128 0x1d
 18083 42b0 00002336 		.4byte	0x2336
 18084 42b4 48       		.uleb128 0x48
 18085 42b5 00002B67 		.4byte	0x2b67
 18086 42b9 03       		.byte	0x3
 18087 42ba 000042CB 		.4byte	0x42cb
 18088 42be 4D       		.uleb128 0x4d
 18089 42bf 5F5F7800 		.string	"__x"
 18090 42c3 02       		.byte	0x2
 18091 42c4 01F5     		.2byte	0x1f5
 18092 42c6 000023E9 		.4byte	0x23e9
 18093 42ca 00       		.byte	0x0
 18094 42cb 48       		.uleb128 0x48
 18095 42cc 00002BA1 		.4byte	0x2ba1
 18096 42d0 03       		.byte	0x3
 18097 42d1 000042E2 		.4byte	0x42e2
 18098 42d5 4D       		.uleb128 0x4d
 18099 42d6 5F5F7800 		.string	"__x"
 18100 42da 02       		.byte	0x2
 18101 42db 01FD     		.2byte	0x1fd
 18102 42dd 000023E9 		.4byte	0x23e9
 18103 42e1 00       		.byte	0x0
 18104 42e2 48       		.uleb128 0x48
 18105 42e3 00002BDB 		.4byte	0x2bdb
 18106 42e7 03       		.byte	0x3
 18107 42e8 000042F9 		.4byte	0x42f9
 18108 42ec 4D       		.uleb128 0x4d
 18109 42ed 5F5F7800 		.string	"__x"
 18110 42f1 02       		.byte	0x2
 18111 42f2 0205     		.2byte	0x205
 18112 42f4 000023EF 		.4byte	0x23ef
 18113 42f8 00       		.byte	0x0
 18114 42f9 48       		.uleb128 0x48
 18115 42fa 00003D78 		.4byte	0x3d78
 18116 42fe 03       		.byte	0x3
 18117 42ff 00004319 		.4byte	0x4319
 18118 4303 49       		.uleb128 0x49
 18119 4304 000028CC 		.4byte	.LASF749
 18120 4308 00004319 		.4byte	0x4319
 18121 430c 01       		.byte	0x1
 18122 430d 4A       		.uleb128 0x4a
 18123 430e 5F5F7800 		.string	"__x"
 18124 4312 02       		.byte	0x2
 18125 4313 D3       		.byte	0xd3
 18126 4314 0000431E 		.4byte	0x431e
 18127 4318 00       		.byte	0x0
 18128 4319 1D       		.uleb128 0x1d
 18129 431a 00003DBD 		.4byte	0x3dbd
 18130 431e 1D       		.uleb128 0x1d
 18131 431f 00003DCE 		.4byte	0x3dce
 18132 4323 48       		.uleb128 0x48
 18133 4324 00002BF8 		.4byte	0x2bf8
 18134 4328 03       		.byte	0x3
 18135 4329 0000433C 		.4byte	0x433c
 18136 432d 4D       		.uleb128 0x4d
 18137 432e 5F5F7800 		.string	"__x"
 18138 4332 02       		.byte	0x2
 18139 4333 0209     		.2byte	0x209
 18140 4335 000023EF 		.4byte	0x23ef
 18141 4339 4B       		.uleb128 0x4b
 18142 433a 4B       		.uleb128 0x4b
 18143 433b 00       		.byte	0x0
 18144 433c 48       		.uleb128 0x48
 18145 433d 000026C8 		.4byte	0x26c8
 18146 4341 03       		.byte	0x3
 18147 4342 00004356 		.4byte	0x4356
 18148 4346 49       		.uleb128 0x49
 18149 4347 000028CC 		.4byte	.LASF749
 18150 434b 00004126 		.4byte	0x4126
 18151 434f 01       		.byte	0x1
 18152 4350 17       		.uleb128 0x17
 18153 4351 00004356 		.4byte	0x4356
 18154 4355 00       		.byte	0x0
 18155 4356 1D       		.uleb128 0x1d
 18156 4357 00002800 		.4byte	0x2800
 18157 435b 48       		.uleb128 0x48
 18158 435c 0000283A 		.4byte	0x283a
 18159 4360 03       		.byte	0x3
 18160 4361 0000437B 		.4byte	0x437b
 18161 4365 49       		.uleb128 0x49
 18162 4366 000028CC 		.4byte	.LASF749
 18163 436a 0000414A 		.4byte	0x414a
 18164 436e 01       		.byte	0x1
 18165 436f 4A       		.uleb128 0x4a
 18166 4370 5F5F6100 		.string	"__a"
 18167 4374 28       		.byte	0x28
 18168 4375 66       		.byte	0x66
 18169 4376 0000437B 		.4byte	0x437b
 18170 437a 00       		.byte	0x0
 18171 437b 1D       		.uleb128 0x1d
 18172 437c 00002889 		.4byte	0x2889
 18173 4380 48       		.uleb128 0x48
 18174 4381 0000286D 		.4byte	0x286d
 18175 4385 03       		.byte	0x3
 18176 4386 0000439A 		.4byte	0x439a
 18177 438a 49       		.uleb128 0x49
 18178 438b 000028CC 		.4byte	.LASF749
 18179 438f 0000414A 		.4byte	0x414a
 18180 4393 01       		.byte	0x1
 18181 4394 17       		.uleb128 0x17
 18182 4395 0000439A 		.4byte	0x439a
 18183 4399 00       		.byte	0x0
 18184 439a 1D       		.uleb128 0x1d
 18185 439b 0000269D 		.4byte	0x269d
 18186 439f 48       		.uleb128 0x48
 18187 43a0 00001AA9 		.4byte	0x1aa9
 18188 43a4 03       		.byte	0x3
 18189 43a5 000043CC 		.4byte	0x43cc
 18190 43a9 49       		.uleb128 0x49
 18191 43aa 000028CC 		.4byte	.LASF749
 18192 43ae 000043CC 		.4byte	0x43cc
 18193 43b2 01       		.byte	0x1
 18194 43b3 4D       		.uleb128 0x4d
 18195 43b4 5F5F6100 		.string	"__a"
 18196 43b8 02       		.byte	0x2
 18197 43b9 019E     		.2byte	0x19e
 18198 43bb 000043D1 		.4byte	0x43d1
 18199 43bf 4E       		.uleb128 0x4e
 18200 43c0 00004B95 		.4byte	.LASF751
 18201 43c4 02       		.byte	0x2
 18202 43c5 019E     		.2byte	0x19e
 18203 43c7 000043D6 		.4byte	0x43d6
 18204 43cb 00       		.byte	0x0
 18205 43cc 1D       		.uleb128 0x1d
 18206 43cd 000028DF 		.4byte	0x28df
 18207 43d1 1D       		.uleb128 0x1d
 18208 43d2 00002889 		.4byte	0x2889
 18209 43d6 1D       		.uleb128 0x1d
 18210 43d7 000028E5 		.4byte	0x28e5
 18211 43db 48       		.uleb128 0x48
 18212 43dc 0000263A 		.4byte	0x263a
 18213 43e0 03       		.byte	0x3
 18214 43e1 000043F0 		.4byte	0x43f0
 18215 43e5 49       		.uleb128 0x49
 18216 43e6 000028CC 		.4byte	.LASF749
 18217 43ea 000043F0 		.4byte	0x43f0
 18218 43ee 01       		.byte	0x1
 18219 43ef 00       		.byte	0x0
 18220 43f0 1D       		.uleb128 0x1d
 18221 43f1 00002697 		.4byte	0x2697
 18222 43f5 48       		.uleb128 0x48
 18223 43f6 00002D86 		.4byte	0x2d86
 18224 43fa 03       		.byte	0x3
 18225 43fb 00004422 		.4byte	0x4422
 18226 43ff 49       		.uleb128 0x49
 18227 4400 000028CC 		.4byte	.LASF749
 18228 4404 0000418A 		.4byte	0x418a
 18229 4408 01       		.byte	0x1
 18230 4409 4E       		.uleb128 0x4e
 18231 440a 00004B95 		.4byte	.LASF751
 18232 440e 02       		.byte	0x2
 18233 440f 023F     		.2byte	0x23f
 18234 4411 00004422 		.4byte	0x4422
 18235 4415 4D       		.uleb128 0x4d
 18236 4416 5F5F6100 		.string	"__a"
 18237 441a 02       		.byte	0x2
 18238 441b 023F     		.2byte	0x23f
 18239 441d 00004427 		.4byte	0x4427
 18240 4421 00       		.byte	0x0
 18241 4422 1D       		.uleb128 0x1d
 18242 4423 000028E5 		.4byte	0x28e5
 18243 4427 1D       		.uleb128 0x1d
 18244 4428 0000269D 		.4byte	0x269d
 18245 442c 48       		.uleb128 0x48
 18246 442d 00002667 		.4byte	0x2667
 18247 4431 03       		.byte	0x3
 18248 4432 0000444B 		.4byte	0x444b
 18249 4436 49       		.uleb128 0x49
 18250 4437 000028CC 		.4byte	.LASF749
 18251 443b 000043F0 		.4byte	0x43f0
 18252 443f 01       		.byte	0x1
 18253 4440 49       		.uleb128 0x49
 18254 4441 00004C1F 		.4byte	.LASF750
 18255 4445 00004102 		.4byte	0x4102
 18256 4449 01       		.byte	0x1
 18257 444a 00       		.byte	0x0
 18258 444b 48       		.uleb128 0x48
 18259 444c 00002925 		.4byte	0x2925
 18260 4450 03       		.byte	0x3
 18261 4451 00004460 		.4byte	0x4460
 18262 4455 49       		.uleb128 0x49
 18263 4456 000028CC 		.4byte	.LASF749
 18264 445a 000040C4 		.4byte	0x40c4
 18265 445e 01       		.byte	0x1
 18266 445f 00       		.byte	0x0
 18267 4460 48       		.uleb128 0x48
 18268 4461 00002681 		.4byte	0x2681
 18269 4465 03       		.byte	0x3
 18270 4466 0000447A 		.4byte	0x447a
 18271 446a 49       		.uleb128 0x49
 18272 446b 000028CC 		.4byte	.LASF749
 18273 446f 000043F0 		.4byte	0x43f0
 18274 4473 01       		.byte	0x1
 18275 4474 17       		.uleb128 0x17
 18276 4475 0000447A 		.4byte	0x447a
 18277 4479 00       		.byte	0x0
 18278 447a 1D       		.uleb128 0x1d
 18279 447b 00002889 		.4byte	0x2889
 18280 447f 4F       		.uleb128 0x4f
 18281 4480 01       		.byte	0x1
 18282 4481 0000032B 		.4byte	.LASF752
 18283 4485 29       		.byte	0x29
 18284 4486 69       		.byte	0x69
 18285 4487 000000C6 		.4byte	0xc6
 18286 448b 03       		.byte	0x3
 18287 448c 000044A1 		.4byte	0x44a1
 18288 4490 17       		.uleb128 0x17
 18289 4491 000009CA 		.4byte	0x9ca
 18290 4495 4A       		.uleb128 0x4a
 18291 4496 5F5F7000 		.string	"__p"
 18292 449a 29       		.byte	0x29
 18293 449b 69       		.byte	0x69
 18294 449c 000000C6 		.4byte	0xc6
 18295 44a0 00       		.byte	0x0
 18296 44a1 50       		.uleb128 0x50
 18297 44a2 0000171D 		.4byte	.LASF753
 18298 44a6 04       		.byte	0x4
 18299 44a7 04A2     		.2byte	0x4a2
 18300 44a9 03       		.byte	0x3
 18301 44aa 000044C3 		.4byte	0x44c3
 18302 44ae 4D       		.uleb128 0x4d
 18303 44af 7800     		.string	"x"
 18304 44b1 04       		.byte	0x4
 18305 44b2 04A2     		.2byte	0x4a2
 18306 44b4 00000059 		.4byte	0x59
 18307 44b8 4D       		.uleb128 0x4d
 18308 44b9 7900     		.string	"y"
 18309 44bb 04       		.byte	0x4
 18310 44bc 04A2     		.2byte	0x4a2
 18311 44be 00000059 		.4byte	0x59
 18312 44c2 00       		.byte	0x0
 18313 44c3 50       		.uleb128 0x50
 18314 44c4 00000471 		.4byte	.LASF754
 18315 44c8 04       		.byte	0x4
 18316 44c9 04DD     		.2byte	0x4dd
 18317 44cb 03       		.byte	0x3
 18318 44cc 000044F9 		.4byte	0x44f9
 18319 44d0 4D       		.uleb128 0x4d
 18320 44d1 7200     		.string	"r"
 18321 44d3 04       		.byte	0x4
 18322 44d4 04DD     		.2byte	0x4dd
 18323 44d6 00000021 		.4byte	0x21
 18324 44da 4D       		.uleb128 0x4d
 18325 44db 6700     		.string	"g"
 18326 44dd 04       		.byte	0x4
 18327 44de 04DD     		.2byte	0x4dd
 18328 44e0 00000021 		.4byte	0x21
 18329 44e4 4D       		.uleb128 0x4d
 18330 44e5 6200     		.string	"b"
 18331 44e7 04       		.byte	0x4
 18332 44e8 04DD     		.2byte	0x4dd
 18333 44ea 00000021 		.4byte	0x21
 18334 44ee 4D       		.uleb128 0x4d
 18335 44ef 6100     		.string	"a"
 18336 44f1 04       		.byte	0x4
 18337 44f2 04DD     		.2byte	0x4dd
 18338 44f4 00000021 		.4byte	0x21
 18339 44f8 00       		.byte	0x0
 18340 44f9 51       		.uleb128 0x51
 18341 44fa 0000521F 		.4byte	.LASF809
 18342 44fe 04       		.byte	0x4
 18343 44ff 046F     		.2byte	0x46f
 18344 4501 03       		.byte	0x3
 18345 4502 50       		.uleb128 0x50
 18346 4503 000041CE 		.4byte	.LASF755
 18347 4507 04       		.byte	0x4
 18348 4508 050A     		.2byte	0x50a
 18349 450a 03       		.byte	0x3
 18350 450b 00004524 		.4byte	0x4524
 18351 450f 4D       		.uleb128 0x4d
 18352 4510 7300     		.string	"s"
 18353 4512 04       		.byte	0x4
 18354 4513 050A     		.2byte	0x50a
 18355 4515 00000079 		.4byte	0x79
 18356 4519 4D       		.uleb128 0x4d
 18357 451a 7400     		.string	"t"
 18358 451c 04       		.byte	0x4
 18359 451d 050A     		.2byte	0x50a
 18360 451f 00000079 		.4byte	0x79
 18361 4523 00       		.byte	0x0
 18362 4524 48       		.uleb128 0x48
 18363 4525 00002785 		.4byte	0x2785
 18364 4529 03       		.byte	0x3
 18365 452a 00004539 		.4byte	0x4539
 18366 452e 49       		.uleb128 0x49
 18367 452f 000028CC 		.4byte	.LASF749
 18368 4533 00004539 		.4byte	0x4539
 18369 4537 01       		.byte	0x1
 18370 4538 00       		.byte	0x0
 18371 4539 1D       		.uleb128 0x1d
 18372 453a 0000280B 		.4byte	0x280b
 18373 453e 48       		.uleb128 0x48
 18374 453f 00002763 		.4byte	0x2763
 18375 4543 03       		.byte	0x3
 18376 4544 00004563 		.4byte	0x4563
 18377 4548 49       		.uleb128 0x49
 18378 4549 000028CC 		.4byte	.LASF749
 18379 454d 00004126 		.4byte	0x4126
 18380 4551 01       		.byte	0x1
 18381 4552 4A       		.uleb128 0x4a
 18382 4553 5F5F7000 		.string	"__p"
 18383 4557 05       		.byte	0x5
 18384 4558 60       		.byte	0x60
 18385 4559 000027DD 		.4byte	0x27dd
 18386 455d 17       		.uleb128 0x17
 18387 455e 000009CA 		.4byte	0x9ca
 18388 4562 00       		.byte	0x0
 18389 4563 48       		.uleb128 0x48
 18390 4564 00002942 		.4byte	0x2942
 18391 4568 03       		.byte	0x3
 18392 4569 0000457C 		.4byte	0x457c
 18393 456d 49       		.uleb128 0x49
 18394 456e 000028CC 		.4byte	.LASF749
 18395 4572 000040C4 		.4byte	0x40c4
 18396 4576 01       		.byte	0x1
 18397 4577 4B       		.uleb128 0x4b
 18398 4578 52       		.uleb128 0x52
 18399 4579 4B       		.uleb128 0x4b
 18400 457a 00       		.byte	0x0
 18401 457b 00       		.byte	0x0
 18402 457c 48       		.uleb128 0x48
 18403 457d 000025B5 		.4byte	0x25b5
 18404 4581 03       		.byte	0x3
 18405 4582 000045A8 		.4byte	0x45a8
 18406 4586 49       		.uleb128 0x49
 18407 4587 000028CC 		.4byte	.LASF749
 18408 458b 000040DE 		.4byte	0x40de
 18409 458f 01       		.byte	0x1
 18410 4590 4A       		.uleb128 0x4a
 18411 4591 5F5F7000 		.string	"__p"
 18412 4595 05       		.byte	0x5
 18413 4596 6A       		.byte	0x6a
 18414 4597 000025F1 		.4byte	0x25f1
 18415 459b 53       		.uleb128 0x53
 18416 459c 00002A19 		.4byte	.LASF756
 18417 45a0 05       		.byte	0x5
 18418 45a1 6A       		.byte	0x6a
 18419 45a2 000045A8 		.4byte	0x45a8
 18420 45a6 4B       		.uleb128 0x4b
 18421 45a7 00       		.byte	0x0
 18422 45a8 1D       		.uleb128 0x1d
 18423 45a9 00002608 		.4byte	0x2608
 18424 45ad 48       		.uleb128 0x48
 18425 45ae 0000297D 		.4byte	0x297d
 18426 45b2 03       		.byte	0x3
 18427 45b3 000045CF 		.4byte	0x45cf
 18428 45b7 49       		.uleb128 0x49
 18429 45b8 000028CC 		.4byte	.LASF749
 18430 45bc 0000418A 		.4byte	0x418a
 18431 45c0 01       		.byte	0x1
 18432 45c1 4D       		.uleb128 0x4d
 18433 45c2 5F5F7000 		.string	"__p"
 18434 45c6 02       		.byte	0x2
 18435 45c7 0172     		.2byte	0x172
 18436 45c9 000027DD 		.4byte	0x27dd
 18437 45cd 4B       		.uleb128 0x4b
 18438 45ce 00       		.byte	0x0
 18439 45cf 48       		.uleb128 0x48
 18440 45d0 00004083 		.4byte	0x4083
 18441 45d4 03       		.byte	0x3
 18442 45d5 000045FA 		.4byte	0x45fa
 18443 45d9 49       		.uleb128 0x49
 18444 45da 000028CC 		.4byte	.LASF749
 18445 45de 000045FA 		.4byte	0x45fa
 18446 45e2 01       		.byte	0x1
 18447 45e3 4A       		.uleb128 0x4a
 18448 45e4 5F5F6100 		.string	"__a"
 18449 45e8 08       		.byte	0x8
 18450 45e9 54       		.byte	0x54
 18451 45ea 000045FF 		.4byte	0x45ff
 18452 45ee 4A       		.uleb128 0x4a
 18453 45ef 5F5F6200 		.string	"__b"
 18454 45f3 08       		.byte	0x8
 18455 45f4 54       		.byte	0x54
 18456 45f5 00004604 		.4byte	0x4604
 18457 45f9 00       		.byte	0x0
 18458 45fa 1D       		.uleb128 0x1d
 18459 45fb 0000409E 		.4byte	0x409e
 18460 45ff 1D       		.uleb128 0x1d
 18461 4600 00003DCE 		.4byte	0x3dce
 18462 4604 1D       		.uleb128 0x1d
 18463 4605 000040A4 		.4byte	0x40a4
 18464 4609 48       		.uleb128 0x48
 18465 460a 00002A79 		.4byte	0x2a79
 18466 460e 03       		.byte	0x3
 18467 460f 0000461E 		.4byte	0x461e
 18468 4613 49       		.uleb128 0x49
 18469 4614 000028CC 		.4byte	.LASF749
 18470 4618 0000418A 		.4byte	0x418a
 18471 461c 01       		.byte	0x1
 18472 461d 00       		.byte	0x0
 18473 461e 48       		.uleb128 0x48
 18474 461f 00002A3D 		.4byte	0x2a3d
 18475 4623 03       		.byte	0x3
 18476 4624 00004633 		.4byte	0x4633
 18477 4628 49       		.uleb128 0x49
 18478 4629 000028CC 		.4byte	.LASF749
 18479 462d 0000418A 		.4byte	0x418a
 18480 4631 01       		.byte	0x1
 18481 4632 00       		.byte	0x0
 18482 4633 48       		.uleb128 0x48
 18483 4634 000033AE 		.4byte	0x33ae
 18484 4638 03       		.byte	0x3
 18485 4639 0000464B 		.4byte	0x464b
 18486 463d 49       		.uleb128 0x49
 18487 463e 000028CC 		.4byte	.LASF749
 18488 4642 0000464B 		.4byte	0x464b
 18489 4646 01       		.byte	0x1
 18490 4647 52       		.uleb128 0x52
 18491 4648 4B       		.uleb128 0x4b
 18492 4649 00       		.byte	0x0
 18493 464a 00       		.byte	0x0
 18494 464b 1D       		.uleb128 0x1d
 18495 464c 0000377C 		.4byte	0x377c
 18496 4650 48       		.uleb128 0x48
 18497 4651 000035FA 		.4byte	0x35fa
 18498 4655 03       		.byte	0x3
 18499 4656 00004666 		.4byte	0x4666
 18500 465a 49       		.uleb128 0x49
 18501 465b 000028CC 		.4byte	.LASF749
 18502 465f 00004666 		.4byte	0x4666
 18503 4663 01       		.byte	0x1
 18504 4664 4B       		.uleb128 0x4b
 18505 4665 00       		.byte	0x0
 18506 4666 1D       		.uleb128 0x1d
 18507 4667 00003793 		.4byte	0x3793
 18508 466b 48       		.uleb128 0x48
 18509 466c 00003CC6 		.4byte	0x3cc6
 18510 4670 03       		.byte	0x3
 18511 4671 00004680 		.4byte	0x4680
 18512 4675 49       		.uleb128 0x49
 18513 4676 000028CC 		.4byte	.LASF749
 18514 467a 00004319 		.4byte	0x4319
 18515 467e 01       		.byte	0x1
 18516 467f 00       		.byte	0x0
 18517 4680 48       		.uleb128 0x48
 18518 4681 00003E10 		.4byte	0x3e10
 18519 4685 03       		.byte	0x3
 18520 4686 000046AB 		.4byte	0x46ab
 18521 468a 49       		.uleb128 0x49
 18522 468b 000028CC 		.4byte	.LASF749
 18523 468f 000041F0 		.4byte	0x41f0
 18524 4693 01       		.byte	0x1
 18525 4694 4A       		.uleb128 0x4a
 18526 4695 5F5F6100 		.string	"__a"
 18527 4699 08       		.byte	0x8
 18528 469a 54       		.byte	0x54
 18529 469b 000046AB 		.4byte	0x46ab
 18530 469f 4A       		.uleb128 0x4a
 18531 46a0 5F5F6200 		.string	"__b"
 18532 46a4 08       		.byte	0x8
 18533 46a5 54       		.byte	0x54
 18534 46a6 000046B0 		.4byte	0x46b0
 18535 46aa 00       		.byte	0x0
 18536 46ab 1D       		.uleb128 0x1d
 18537 46ac 00002336 		.4byte	0x2336
 18538 46b0 1D       		.uleb128 0x1d
 18539 46b1 0000379F 		.4byte	0x379f
 18540 46b5 48       		.uleb128 0x48
 18541 46b6 000025D7 		.4byte	0x25d7
 18542 46ba 03       		.byte	0x3
 18543 46bb 000046D6 		.4byte	0x46d6
 18544 46bf 49       		.uleb128 0x49
 18545 46c0 000028CC 		.4byte	.LASF749
 18546 46c4 000040DE 		.4byte	0x40de
 18547 46c8 01       		.byte	0x1
 18548 46c9 4A       		.uleb128 0x4a
 18549 46ca 5F5F7000 		.string	"__p"
 18550 46ce 05       		.byte	0x5
 18551 46cf 6E       		.byte	0x6e
 18552 46d0 000025F1 		.4byte	0x25f1
 18553 46d4 4B       		.uleb128 0x4b
 18554 46d5 00       		.byte	0x0
 18555 46d6 48       		.uleb128 0x48
 18556 46d7 000029E2 		.4byte	0x29e2
 18557 46db 03       		.byte	0x3
 18558 46dc 00004712 		.4byte	0x4712
 18559 46e0 49       		.uleb128 0x49
 18560 46e1 000028CC 		.4byte	.LASF749
 18561 46e5 0000418A 		.4byte	0x418a
 18562 46e9 01       		.byte	0x1
 18563 46ea 4D       		.uleb128 0x4d
 18564 46eb 5F5F7000 		.string	"__p"
 18565 46ef 02       		.byte	0x2
 18566 46f0 018E     		.2byte	0x18e
 18567 46f2 000027DD 		.4byte	0x27dd
 18568 46f6 54       		.uleb128 0x54
 18569 46f7 00004700 		.4byte	0x4700
 18570 46fb 4B       		.uleb128 0x4b
 18571 46fc 52       		.uleb128 0x52
 18572 46fd 4B       		.uleb128 0x4b
 18573 46fe 00       		.byte	0x0
 18574 46ff 00       		.byte	0x0
 18575 4700 54       		.uleb128 0x54
 18576 4701 00004707 		.4byte	0x4707
 18577 4705 4B       		.uleb128 0x4b
 18578 4706 00       		.byte	0x0
 18579 4707 54       		.uleb128 0x54
 18580 4708 0000470E 		.4byte	0x470e
 18581 470c 4B       		.uleb128 0x4b
 18582 470d 00       		.byte	0x0
 18583 470e 52       		.uleb128 0x52
 18584 470f 4B       		.uleb128 0x4b
 18585 4710 00       		.byte	0x0
 18586 4711 00       		.byte	0x0
 18587 4712 48       		.uleb128 0x48
 18588 4713 00002A01 		.4byte	0x2a01
 18589 4717 03       		.byte	0x3
 18590 4718 00004727 		.4byte	0x4727
 18591 471c 49       		.uleb128 0x49
 18592 471d 000028CC 		.4byte	.LASF749
 18593 4721 0000418A 		.4byte	0x418a
 18594 4725 01       		.byte	0x1
 18595 4726 00       		.byte	0x0
 18596 4727 55       		.uleb128 0x55
 18597 4728 00001AC8 		.4byte	0x1ac8
 18598 472c 02       		.byte	0x2
 18599 472d 0198     		.2byte	0x198
 18600 472f 03       		.byte	0x3
 18601 4730 00004749 		.4byte	0x4749
 18602 4734 49       		.uleb128 0x49
 18603 4735 000028CC 		.4byte	.LASF749
 18604 4739 000043CC 		.4byte	0x43cc
 18605 473d 01       		.byte	0x1
 18606 473e 49       		.uleb128 0x49
 18607 473f 00004C1F 		.4byte	.LASF750
 18608 4743 00004102 		.4byte	0x4102
 18609 4747 01       		.byte	0x1
 18610 4748 00       		.byte	0x0
 18611 4749 48       		.uleb128 0x48
 18612 474a 00003D99 		.4byte	0x3d99
 18613 474e 03       		.byte	0x3
 18614 474f 00004769 		.4byte	0x4769
 18615 4753 49       		.uleb128 0x49
 18616 4754 000028CC 		.4byte	.LASF749
 18617 4758 00004319 		.4byte	0x4319
 18618 475c 01       		.byte	0x1
 18619 475d 4A       		.uleb128 0x4a
 18620 475e 5F5F7800 		.string	"__x"
 18621 4762 02       		.byte	0x2
 18622 4763 D7       		.byte	0xd7
 18623 4764 00004769 		.4byte	0x4769
 18624 4768 00       		.byte	0x0
 18625 4769 1D       		.uleb128 0x1d
 18626 476a 00003DCE 		.4byte	0x3dce
 18627 476e 48       		.uleb128 0x48
 18628 476f 00003479 		.4byte	0x3479
 18629 4773 03       		.byte	0x3
 18630 4774 00004784 		.4byte	0x4784
 18631 4778 49       		.uleb128 0x49
 18632 4779 000028CC 		.4byte	.LASF749
 18633 477d 00004666 		.4byte	0x4666
 18634 4781 01       		.byte	0x1
 18635 4782 4B       		.uleb128 0x4b
 18636 4783 00       		.byte	0x0
 18637 4784 48       		.uleb128 0x48
 18638 4785 00003376 		.4byte	0x3376
 18639 4789 03       		.byte	0x3
 18640 478a 0000479C 		.4byte	0x479c
 18641 478e 49       		.uleb128 0x49
 18642 478f 000028CC 		.4byte	.LASF749
 18643 4793 0000464B 		.4byte	0x464b
 18644 4797 01       		.byte	0x1
 18645 4798 52       		.uleb128 0x52
 18646 4799 4B       		.uleb128 0x4b
 18647 479a 00       		.byte	0x0
 18648 479b 00       		.byte	0x0
 18649 479c 48       		.uleb128 0x48
 18650 479d 00003CE2 		.4byte	0x3ce2
 18651 47a1 03       		.byte	0x3
 18652 47a2 000047B1 		.4byte	0x47b1
 18653 47a6 49       		.uleb128 0x49
 18654 47a7 000028CC 		.4byte	.LASF749
 18655 47ab 00004319 		.4byte	0x4319
 18656 47af 01       		.byte	0x1
 18657 47b0 00       		.byte	0x0
 18658 47b1 48       		.uleb128 0x48
 18659 47b2 000035E1 		.4byte	0x35e1
 18660 47b6 03       		.byte	0x3
 18661 47b7 000047C6 		.4byte	0x47c6
 18662 47bb 49       		.uleb128 0x49
 18663 47bc 000028CC 		.4byte	.LASF749
 18664 47c0 0000464B 		.4byte	0x464b
 18665 47c4 01       		.byte	0x1
 18666 47c5 00       		.byte	0x0
 18667 47c6 56       		.uleb128 0x56
 18668 47c7 00003A89 		.4byte	0x3a89
 18669 47cb 01       		.byte	0x1
 18670 47cc 65       		.byte	0x65
 18671 47cd 00000000 		.4byte	.LFB571
 18672 47d1 00000008 		.4byte	.LFE571
 18673 47d5 01       		.byte	0x1
 18674 47d6 51       		.byte	0x51
 18675 47d7 000047F5 		.4byte	0x47f5
 18676 47db 57       		.uleb128 0x57
 18677 47dc 000028CC 		.4byte	.LASF749
 18678 47e0 000047F5 		.4byte	0x47f5
 18679 47e4 01       		.byte	0x1
 18680 47e5 01       		.byte	0x1
 18681 47e6 53       		.byte	0x53
 18682 47e7 58       		.uleb128 0x58
 18683 47e8 00004D59 		.4byte	.LASF666
 18684 47ec 01       		.byte	0x1
 18685 47ed 65       		.byte	0x65
 18686 47ee 00000A9D 		.4byte	0xa9d
 18687 47f2 01       		.byte	0x1
 18688 47f3 54       		.byte	0x54
 18689 47f4 00       		.byte	0x0
 18690 47f5 1D       		.uleb128 0x1d
 18691 47f6 00003C5C 		.4byte	0x3c5c
 18692 47fa 56       		.uleb128 0x56
 18693 47fb 0000383D 		.4byte	0x383d
 18694 47ff 01       		.byte	0x1
 18695 4800 DF       		.byte	0xdf
 18696 4801 00000008 		.4byte	.LFB577
 18697 4805 00000048 		.4byte	.LFE577
 18698 4809 01       		.byte	0x1
 18699 480a 51       		.byte	0x51
 18700 480b 00004839 		.4byte	0x4839
 18701 480f 59       		.uleb128 0x59
 18702 4810 000037F2 		.4byte	.LASF467
 18703 4814 01       		.byte	0x1
 18704 4815 DF       		.byte	0xdf
 18705 4816 00000A92 		.4byte	0xa92
 18706 481a 00000000 		.4byte	.LLST2
 18707 481e 58       		.uleb128 0x58
 18708 481f 00002BD5 		.4byte	.LASF664
 18709 4823 01       		.byte	0x1
 18710 4824 DF       		.byte	0xdf
 18711 4825 00000A7C 		.4byte	0xa7c
 18712 4829 01       		.byte	0x1
 18713 482a 54       		.byte	0x54
 18714 482b 5A       		.uleb128 0x5a
 18715 482c 00004D0F 		.4byte	.LASF757
 18716 4830 01       		.byte	0x1
 18717 4831 E0       		.byte	0xe0
 18718 4832 00000A92 		.4byte	0xa92
 18719 4836 01       		.byte	0x1
 18720 4837 5A       		.byte	0x5a
 18721 4838 00       		.byte	0x0
 18722 4839 56       		.uleb128 0x56
 18723 483a 0000385E 		.4byte	0x385e
 18724 483e 01       		.byte	0x1
 18725 483f FE       		.byte	0xfe
 18726 4840 00000048 		.4byte	.LFB578
 18727 4844 00000088 		.4byte	.LFE578
 18728 4848 01       		.byte	0x1
 18729 4849 51       		.byte	0x51
 18730 484a 00004878 		.4byte	0x4878
 18731 484e 59       		.uleb128 0x59
 18732 484f 0000086C 		.4byte	.LASF468
 18733 4853 01       		.byte	0x1
 18734 4854 FE       		.byte	0xfe
 18735 4855 00000A92 		.4byte	0xa92
 18736 4859 00000013 		.4byte	.LLST4
 18737 485d 58       		.uleb128 0x58
 18738 485e 00002BD5 		.4byte	.LASF664
 18739 4862 01       		.byte	0x1
 18740 4863 FE       		.byte	0xfe
 18741 4864 00000A7C 		.4byte	0xa7c
 18742 4868 01       		.byte	0x1
 18743 4869 54       		.byte	0x54
 18744 486a 5A       		.uleb128 0x5a
 18745 486b 00004D0F 		.4byte	.LASF757
 18746 486f 01       		.byte	0x1
 18747 4870 FF       		.byte	0xff
 18748 4871 00000A92 		.4byte	0xa92
 18749 4875 01       		.byte	0x1
 18750 4876 5A       		.byte	0x5a
 18751 4877 00       		.byte	0x0
 18752 4878 5B       		.uleb128 0x5b
 18753 4879 0000387F 		.4byte	0x387f
 18754 487d 01       		.byte	0x1
 18755 487e 018D     		.2byte	0x18d
 18756 4880 00000088 		.4byte	.LFB582
 18757 4884 000000B4 		.4byte	.LFE582
 18758 4888 01       		.byte	0x1
 18759 4889 51       		.byte	0x51
 18760 488a 000048AF 		.4byte	0x48af
 18761 488e 5C       		.uleb128 0x5c
 18762 488f 00004627 		.4byte	.LASF183
 18763 4893 01       		.byte	0x1
 18764 4894 018D     		.2byte	0x18d
 18765 4896 00000A92 		.4byte	0xa92
 18766 489a 00000026 		.4byte	.LLST6
 18767 489e 5C       		.uleb128 0x5c
 18768 489f 000035D2 		.4byte	.LASF283
 18769 48a3 01       		.byte	0x1
 18770 48a4 018D     		.2byte	0x18d
 18771 48a6 00000A92 		.4byte	0xa92
 18772 48aa 00000044 		.4byte	.LLST7
 18773 48ae 00       		.byte	0x0
 18774 48af 5B       		.uleb128 0x5b
 18775 48b0 000038A0 		.4byte	0x38a0
 18776 48b4 01       		.byte	0x1
 18777 48b5 01A4     		.2byte	0x1a4
 18778 48b7 000000B4 		.4byte	.LFB583
 18779 48bb 000000F4 		.4byte	.LFE583
 18780 48bf 01       		.byte	0x1
 18781 48c0 51       		.byte	0x51
 18782 48c1 000048E4 		.4byte	0x48e4
 18783 48c5 5C       		.uleb128 0x5c
 18784 48c6 000047F4 		.4byte	.LASF758
 18785 48ca 01       		.byte	0x1
 18786 48cb 01A4     		.2byte	0x1a4
 18787 48cd 000024B1 		.4byte	0x24b1
 18788 48d1 00000057 		.4byte	.LLST9
 18789 48d5 5D       		.uleb128 0x5d
 18790 48d6 000035D2 		.4byte	.LASF283
 18791 48da 01       		.byte	0x1
 18792 48db 01A4     		.2byte	0x1a4
 18793 48dd 00000A92 		.4byte	0xa92
 18794 48e1 01       		.byte	0x1
 18795 48e2 54       		.byte	0x54
 18796 48e3 00       		.byte	0x0
 18797 48e4 5E       		.uleb128 0x5e
 18798 48e5 00003C3D 		.4byte	0x3c3d
 18799 48e9 01       		.byte	0x1
 18800 48ea 0282     		.2byte	0x282
 18801 48ec 000000F4 		.4byte	.LFB592
 18802 48f0 00000114 		.4byte	.LFE592
 18803 48f4 00000081 		.4byte	.LLST10
 18804 48f8 0000491B 		.4byte	0x491b
 18805 48fc 5F       		.uleb128 0x5f
 18806 48fd 000028CC 		.4byte	.LASF749
 18807 4901 000047F5 		.4byte	0x47f5
 18808 4905 01       		.byte	0x1
 18809 4906 000000A0 		.4byte	.LLST11
 18810 490a 5C       		.uleb128 0x5c
 18811 490b 000026C2 		.4byte	.LASF759
 18812 490f 01       		.byte	0x1
 18813 4910 0282     		.2byte	0x282
 18814 4912 0000232B 		.4byte	0x232b
 18815 4916 000000B3 		.4byte	.LLST12
 18816 491a 00       		.byte	0x0
 18817 491b 60       		.uleb128 0x60
 18818 491c 00003158 		.4byte	0x3158
 18819 4920 00000000 		.4byte	.LFB644
 18820 4924 00000068 		.4byte	.LFE644
 18821 4928 01       		.byte	0x1
 18822 4929 51       		.byte	0x51
 18823 492a 000049D5 		.4byte	0x49d5
 18824 492e 5F       		.uleb128 0x5f
 18825 492f 000028CC 		.4byte	.LASF749
 18826 4933 0000418A 		.4byte	0x418a
 18827 4937 01       		.byte	0x1
 18828 4938 000000C6 		.4byte	.LLST14
 18829 493c 61       		.uleb128 0x61
 18830 493d 5F5F6B00 		.string	"__k"
 18831 4941 02       		.byte	0x2
 18832 4942 055A     		.2byte	0x55a
 18833 4944 000049D5 		.4byte	0x49d5
 18834 4948 01       		.byte	0x1
 18835 4949 54       		.byte	0x54
 18836 494a 62       		.uleb128 0x62
 18837 494b 5F5F7800 		.string	"__x"
 18838 494f 02       		.byte	0x2
 18839 4950 055C     		.2byte	0x55c
 18840 4952 000027DD 		.4byte	0x27dd
 18841 4956 000000D9 		.4byte	.LLST15
 18842 495a 63       		.uleb128 0x63
 18843 495b 5F5F7900 		.string	"__y"
 18844 495f 02       		.byte	0x2
 18845 4960 055D     		.2byte	0x55d
 18846 4962 000027DD 		.4byte	0x27dd
 18847 4966 01       		.byte	0x1
 18848 4967 5A       		.byte	0x5a
 18849 4968 64       		.uleb128 0x64
 18850 4969 5F5F6A00 		.string	"__j"
 18851 496d 02       		.byte	0x2
 18852 496e 0565     		.2byte	0x565
 18853 4970 00003C7F 		.4byte	0x3c7f
 18854 4974 65       		.uleb128 0x65
 18855 4975 00004237 		.4byte	0x4237
 18856 4979 00000000 		.4byte	.Ldebug_ranges0+0x0
 18857 497d 02       		.byte	0x2
 18858 497e 055C     		.2byte	0x55c
 18859 4980 0000498A 		.4byte	0x498a
 18860 4984 66       		.uleb128 0x66
 18861 4985 00004241 		.4byte	0x4241
 18862 4989 00       		.byte	0x0
 18863 498a 67       		.uleb128 0x67
 18864 498b 0000424C 		.4byte	0x424c
 18865 498f 00000004 		.4byte	.LBB543
 18866 4993 0000000C 		.4byte	.LBE543
 18867 4997 02       		.byte	0x2
 18868 4998 055D     		.2byte	0x55d
 18869 499a 000049A4 		.4byte	0x49a4
 18870 499e 66       		.uleb128 0x66
 18871 499f 00004256 		.4byte	0x4256
 18872 49a3 00       		.byte	0x0
 18873 49a4 67       		.uleb128 0x67
 18874 49a5 000042B4 		.4byte	0x42b4
 18875 49a9 00000020 		.4byte	.LBB546
 18876 49ad 00000028 		.4byte	.LBE546
 18877 49b1 02       		.byte	0x2
 18878 49b2 0561     		.2byte	0x561
 18879 49b4 000049BE 		.4byte	0x49be
 18880 49b8 66       		.uleb128 0x66
 18881 49b9 000042BE 		.4byte	0x42be
 18882 49bd 00       		.byte	0x0
 18883 49be 68       		.uleb128 0x68
 18884 49bf 000042CB 		.4byte	0x42cb
 18885 49c3 0000003C 		.4byte	.LBB548
 18886 49c7 00000040 		.4byte	.LBE548
 18887 49cb 02       		.byte	0x2
 18888 49cc 0563     		.2byte	0x563
 18889 49ce 66       		.uleb128 0x66
 18890 49cf 000042D5 		.4byte	0x42d5
 18891 49d3 00       		.byte	0x0
 18892 49d4 00       		.byte	0x0
 18893 49d5 1D       		.uleb128 0x1d
 18894 49d6 00002336 		.4byte	0x2336
 18895 49da 60       		.uleb128 0x60
 18896 49db 000031BE 		.4byte	0x31be
 18897 49df 00000000 		.4byte	.LFB673
 18898 49e3 00000048 		.4byte	.LFE673
 18899 49e7 01       		.byte	0x1
 18900 49e8 51       		.byte	0x51
 18901 49e9 00004A8A 		.4byte	0x4a8a
 18902 49ed 5F       		.uleb128 0x5f
 18903 49ee 000028CC 		.4byte	.LASF749
 18904 49f2 0000418A 		.4byte	0x418a
 18905 49f6 01       		.byte	0x1
 18906 49f7 000000EC 		.4byte	.LLST17
 18907 49fb 69       		.uleb128 0x69
 18908 49fc 5F5F6B00 		.string	"__k"
 18909 4a00 02       		.byte	0x2
 18910 4a01 0590     		.2byte	0x590
 18911 4a03 00004A8A 		.4byte	0x4a8a
 18912 4a07 000000FF 		.4byte	.LLST18
 18913 4a0b 63       		.uleb128 0x63
 18914 4a0c 5F5F7800 		.string	"__x"
 18915 4a10 02       		.byte	0x2
 18916 4a11 0592     		.2byte	0x592
 18917 4a13 000027DD 		.4byte	0x27dd
 18918 4a17 01       		.byte	0x1
 18919 4a18 59       		.byte	0x59
 18920 4a19 62       		.uleb128 0x62
 18921 4a1a 5F5F7900 		.string	"__y"
 18922 4a1e 02       		.byte	0x2
 18923 4a1f 0593     		.2byte	0x593
 18924 4a21 000027DD 		.4byte	0x27dd
 18925 4a25 00000112 		.4byte	.LLST19
 18926 4a29 65       		.uleb128 0x65
 18927 4a2a 00004237 		.4byte	0x4237
 18928 4a2e 00000018 		.4byte	.Ldebug_ranges0+0x18
 18929 4a32 02       		.byte	0x2
 18930 4a33 0592     		.2byte	0x592
 18931 4a35 00004A3F 		.4byte	0x4a3f
 18932 4a39 66       		.uleb128 0x66
 18933 4a3a 00004241 		.4byte	0x4241
 18934 4a3e 00       		.byte	0x0
 18935 4a3f 67       		.uleb128 0x67
 18936 4a40 0000424C 		.4byte	0x424c
 18937 4a44 00000004 		.4byte	.LBB554
 18938 4a48 00000008 		.4byte	.LBE554
 18939 4a4c 02       		.byte	0x2
 18940 4a4d 0593     		.2byte	0x593
 18941 4a4f 00004A59 		.4byte	0x4a59
 18942 4a53 66       		.uleb128 0x66
 18943 4a54 00004256 		.4byte	0x4256
 18944 4a58 00       		.byte	0x0
 18945 4a59 67       		.uleb128 0x67
 18946 4a5a 000042B4 		.4byte	0x42b4
 18947 4a5e 0000001C 		.4byte	.LBB557
 18948 4a62 00000024 		.4byte	.LBE557
 18949 4a66 02       		.byte	0x2
 18950 4a67 0597     		.2byte	0x597
 18951 4a69 00004A73 		.4byte	0x4a73
 18952 4a6d 66       		.uleb128 0x66
 18953 4a6e 000042BE 		.4byte	0x42be
 18954 4a72 00       		.byte	0x0
 18955 4a73 68       		.uleb128 0x68
 18956 4a74 000042CB 		.4byte	0x42cb
 18957 4a78 00000038 		.4byte	.LBB559
 18958 4a7c 0000003C 		.4byte	.LBE559
 18959 4a80 02       		.byte	0x2
 18960 4a81 0599     		.2byte	0x599
 18961 4a83 66       		.uleb128 0x66
 18962 4a84 000042D5 		.4byte	0x42d5
 18963 4a88 00       		.byte	0x0
 18964 4a89 00       		.byte	0x0
 18965 4a8a 1D       		.uleb128 0x1d
 18966 4a8b 00002336 		.4byte	0x2336
 18967 4a8f 6A       		.uleb128 0x6a
 18968 4a90 00003B95 		.4byte	.LASF810
 18969 4a94 01       		.byte	0x1
 18970 4a95 00000114 		.4byte	.LFB713
 18971 4a99 0000013C 		.4byte	.LFE713
 18972 4a9d 01       		.byte	0x1
 18973 4a9e 51       		.byte	0x51
 18974 4a9f 00004AC0 		.4byte	0x4ac0
 18975 4aa3 5D       		.uleb128 0x5d
 18976 4aa4 00000E68 		.4byte	.LASF760
 18977 4aa8 01       		.byte	0x1
 18978 4aa9 02CE     		.2byte	0x2ce
 18979 4aab 0000006B 		.4byte	0x6b
 18980 4aaf 01       		.byte	0x1
 18981 4ab0 53       		.byte	0x53
 18982 4ab1 5D       		.uleb128 0x5d
 18983 4ab2 000017D4 		.4byte	.LASF761
 18984 4ab6 01       		.byte	0x1
 18985 4ab7 02CE     		.2byte	0x2ce
 18986 4ab9 0000006B 		.4byte	0x6b
 18987 4abd 01       		.byte	0x1
 18988 4abe 54       		.byte	0x54
 18989 4abf 00       		.byte	0x0
 18990 4ac0 6B       		.uleb128 0x6b
 18991 4ac1 00004AFB 		.4byte	.LASF811
 18992 4ac5 01       		.byte	0x1
 18993 4ac6 02CF     		.2byte	0x2cf
 18994 4ac8 0000013C 		.4byte	.LFB714
 18995 4acc 0000014C 		.4byte	.LFE714
 18996 4ad0 01       		.byte	0x1
 18997 4ad1 51       		.byte	0x51
 18998 4ad2 6C       		.uleb128 0x6c
 18999 4ad3 0000393C 		.4byte	0x393c
 19000 4ad7 01       		.byte	0x1
 19001 4ad8 6F       		.byte	0x6f
 19002 4ad9 0000014C 		.4byte	.LFB572
 19003 4add 000002F4 		.4byte	.LFE572
 19004 4ae1 00000125 		.4byte	.LLST22
 19005 4ae5 00004AF8 		.4byte	0x4af8
 19006 4ae9 5F       		.uleb128 0x5f
 19007 4aea 000028CC 		.4byte	.LASF749
 19008 4aee 000047F5 		.4byte	0x47f5
 19009 4af2 01       		.byte	0x1
 19010 4af3 00000144 		.4byte	.LLST23
 19011 4af7 00       		.byte	0x0
 19012 4af8 5E       		.uleb128 0x5e
 19013 4af9 000039C6 		.4byte	0x39c6
 19014 4afd 01       		.byte	0x1
 19015 4afe 02BA     		.2byte	0x2ba
 19016 4b00 000002F4 		.4byte	.LFB594
 19017 4b04 0000047C 		.4byte	.LFE594
 19018 4b08 00000207 		.4byte	.LLST24
 19019 4b0c 00004C87 		.4byte	0x4c87
 19020 4b10 5F       		.uleb128 0x5f
 19021 4b11 000028CC 		.4byte	.LASF749
 19022 4b15 000047F5 		.4byte	0x47f5
 19023 4b19 01       		.byte	0x1
 19024 4b1a 00000227 		.4byte	.LLST25
 19025 4b1e 5C       		.uleb128 0x5c
 19026 4b1f 00004693 		.4byte	.LASF762
 19027 4b23 01       		.byte	0x1
 19028 4b24 02BA     		.2byte	0x2ba
 19029 4b26 00000079 		.4byte	0x79
 19030 4b2a 00000250 		.4byte	.LLST26
 19031 4b2e 5C       		.uleb128 0x5c
 19032 4b2f 000038F6 		.4byte	.LASF763
 19033 4b33 01       		.byte	0x1
 19034 4b34 02BA     		.2byte	0x2ba
 19035 4b36 00000079 		.4byte	0x79
 19036 4b3a 00000270 		.4byte	.LLST27
 19037 4b3e 5C       		.uleb128 0x5c
 19038 4b3f 000041B4 		.4byte	.LASF764
 19039 4b43 01       		.byte	0x1
 19040 4b44 02BA     		.2byte	0x2ba
 19041 4b46 00000A87 		.4byte	0xa87
 19042 4b4a 00000290 		.4byte	.LLST28
 19043 4b4e 5C       		.uleb128 0x5c
 19044 4b4f 000041BC 		.4byte	.LASF765
 19045 4b53 01       		.byte	0x1
 19046 4b54 02BA     		.2byte	0x2ba
 19047 4b56 00000A87 		.4byte	0xa87
 19048 4b5a 000002AE 		.4byte	.LLST29
 19049 4b5e 5C       		.uleb128 0x5c
 19050 4b5f 00003D3F 		.4byte	.LASF766
 19051 4b63 01       		.byte	0x1
 19052 4b64 02BA     		.2byte	0x2ba
 19053 4b66 0000010A 		.4byte	0x10a
 19054 4b6a 000002CC 		.4byte	.LLST30
 19055 4b6e 65       		.uleb128 0x65
 19056 4b6f 000044A1 		.4byte	0x44a1
 19057 4b73 00000030 		.4byte	.Ldebug_ranges0+0x30
 19058 4b77 01       		.byte	0x1
 19059 4b78 02C0     		.2byte	0x2c0
 19060 4b7a 00004B89 		.4byte	0x4b89
 19061 4b7e 66       		.uleb128 0x66
 19062 4b7f 000044B8 		.4byte	0x44b8
 19063 4b83 66       		.uleb128 0x66
 19064 4b84 000044AE 		.4byte	0x44ae
 19065 4b88 00       		.byte	0x0
 19066 4b89 65       		.uleb128 0x65
 19067 4b8a 000044C3 		.4byte	0x44c3
 19068 4b8e 00000048 		.4byte	.Ldebug_ranges0+0x48
 19069 4b92 01       		.byte	0x1
 19070 4b93 02C1     		.2byte	0x2c1
 19071 4b95 00004BAE 		.4byte	0x4bae
 19072 4b99 66       		.uleb128 0x66
 19073 4b9a 000044EE 		.4byte	0x44ee
 19074 4b9e 66       		.uleb128 0x66
 19075 4b9f 000044E4 		.4byte	0x44e4
 19076 4ba3 66       		.uleb128 0x66
 19077 4ba4 000044DA 		.4byte	0x44da
 19078 4ba8 66       		.uleb128 0x66
 19079 4ba9 000044D0 		.4byte	0x44d0
 19080 4bad 00       		.byte	0x0
 19081 4bae 67       		.uleb128 0x67
 19082 4baf 000044A1 		.4byte	0x44a1
 19083 4bb3 000003D8 		.4byte	.LBB571
 19084 4bb7 000003E0 		.4byte	.LBE571
 19085 4bbb 01       		.byte	0x1
 19086 4bbc 02C3     		.2byte	0x2c3
 19087 4bbe 00004BD1 		.4byte	0x4bd1
 19088 4bc2 66       		.uleb128 0x66
 19089 4bc3 000044B8 		.4byte	0x44b8
 19090 4bc7 6D       		.uleb128 0x6d
 19091 4bc8 000044AE 		.4byte	0x44ae
 19092 4bcc 000002F6 		.4byte	.LLST31
 19093 4bd0 00       		.byte	0x0
 19094 4bd1 67       		.uleb128 0x67
 19095 4bd2 000044C3 		.4byte	0x44c3
 19096 4bd6 000003E0 		.4byte	.LBB573
 19097 4bda 000003F0 		.4byte	.LBE573
 19098 4bde 01       		.byte	0x1
 19099 4bdf 02C4     		.2byte	0x2c4
 19100 4be1 00004BFA 		.4byte	0x4bfa
 19101 4be5 66       		.uleb128 0x66
 19102 4be6 000044EE 		.4byte	0x44ee
 19103 4bea 66       		.uleb128 0x66
 19104 4beb 000044E4 		.4byte	0x44e4
 19105 4bef 66       		.uleb128 0x66
 19106 4bf0 000044DA 		.4byte	0x44da
 19107 4bf4 66       		.uleb128 0x66
 19108 4bf5 000044D0 		.4byte	0x44d0
 19109 4bf9 00       		.byte	0x0
 19110 4bfa 65       		.uleb128 0x65
 19111 4bfb 000044A1 		.4byte	0x44a1
 19112 4bff 00000068 		.4byte	.Ldebug_ranges0+0x68
 19113 4c03 01       		.byte	0x1
 19114 4c04 02C6     		.2byte	0x2c6
 19115 4c06 00004C19 		.4byte	0x4c19
 19116 4c0a 6D       		.uleb128 0x6d
 19117 4c0b 000044B8 		.4byte	0x44b8
 19118 4c0f 00000309 		.4byte	.LLST32
 19119 4c13 66       		.uleb128 0x66
 19120 4c14 000044AE 		.4byte	0x44ae
 19121 4c18 00       		.byte	0x0
 19122 4c19 67       		.uleb128 0x67
 19123 4c1a 000044C3 		.4byte	0x44c3
 19124 4c1e 00000420 		.4byte	.LBB579
 19125 4c22 00000430 		.4byte	.LBE579
 19126 4c26 01       		.byte	0x1
 19127 4c27 02C7     		.2byte	0x2c7
 19128 4c29 00004C42 		.4byte	0x4c42
 19129 4c2d 66       		.uleb128 0x66
 19130 4c2e 000044EE 		.4byte	0x44ee
 19131 4c32 66       		.uleb128 0x66
 19132 4c33 000044E4 		.4byte	0x44e4
 19133 4c37 66       		.uleb128 0x66
 19134 4c38 000044DA 		.4byte	0x44da
 19135 4c3c 66       		.uleb128 0x66
 19136 4c3d 000044D0 		.4byte	0x44d0
 19137 4c41 00       		.byte	0x0
 19138 4c42 67       		.uleb128 0x67
 19139 4c43 000044A1 		.4byte	0x44a1
 19140 4c47 00000430 		.4byte	.LBB581
 19141 4c4b 00000438 		.4byte	.LBE581
 19142 4c4f 01       		.byte	0x1
 19143 4c50 02C9     		.2byte	0x2c9
 19144 4c52 00004C61 		.4byte	0x4c61
 19145 4c56 66       		.uleb128 0x66
 19146 4c57 000044B8 		.4byte	0x44b8
 19147 4c5b 66       		.uleb128 0x66
 19148 4c5c 000044AE 		.4byte	0x44ae
 19149 4c60 00       		.byte	0x0
 19150 4c61 68       		.uleb128 0x68
 19151 4c62 000044C3 		.4byte	0x44c3
 19152 4c66 00000438 		.4byte	.LBB583
 19153 4c6a 00000448 		.4byte	.LBE583
 19154 4c6e 01       		.byte	0x1
 19155 4c6f 02CA     		.2byte	0x2ca
 19156 4c71 66       		.uleb128 0x66
 19157 4c72 000044EE 		.4byte	0x44ee
 19158 4c76 66       		.uleb128 0x66
 19159 4c77 000044E4 		.4byte	0x44e4
 19160 4c7b 66       		.uleb128 0x66
 19161 4c7c 000044DA 		.4byte	0x44da
 19162 4c80 66       		.uleb128 0x66
 19163 4c81 000044D0 		.4byte	0x44d0
 19164 4c85 00       		.byte	0x0
 19165 4c86 00       		.byte	0x0
 19166 4c87 5E       		.uleb128 0x5e
 19167 4c88 00003956 		.4byte	0x3956
 19168 4c8c 01       		.byte	0x1
 19169 4c8d 01F4     		.2byte	0x1f4
 19170 4c8f 0000047C 		.4byte	.LFB586
 19171 4c93 0000078C 		.4byte	.LFE586
 19172 4c97 0000031C 		.4byte	.LLST33
 19173 4c9b 00004D1A 		.4byte	0x4d1a
 19174 4c9f 5F       		.uleb128 0x5f
 19175 4ca0 000028CC 		.4byte	.LASF749
 19176 4ca4 000047F5 		.4byte	0x47f5
 19177 4ca8 01       		.byte	0x1
 19178 4ca9 0000033C 		.4byte	.LLST34
 19179 4cad 69       		.uleb128 0x69
 19180 4cae 7800     		.string	"x"
 19181 4cb0 01       		.byte	0x1
 19182 4cb1 01F4     		.2byte	0x1f4
 19183 4cb3 00000A87 		.4byte	0xa87
 19184 4cb7 0000037B 		.4byte	.LLST35
 19185 4cbb 69       		.uleb128 0x69
 19186 4cbc 7900     		.string	"y"
 19187 4cbe 01       		.byte	0x1
 19188 4cbf 01F4     		.2byte	0x1f4
 19189 4cc1 00000A87 		.4byte	0xa87
 19190 4cc5 000003BA 		.4byte	.LLST36
 19191 4cc9 5C       		.uleb128 0x5c
 19192 4cca 00004627 		.4byte	.LASF183
 19193 4cce 01       		.byte	0x1
 19194 4ccf 01F4     		.2byte	0x1f4
 19195 4cd1 00000A92 		.4byte	0xa92
 19196 4cd5 000003F9 		.4byte	.LLST37
 19197 4cd9 5C       		.uleb128 0x5c
 19198 4cda 00002D3E 		.4byte	.LASF767
 19199 4cde 01       		.byte	0x1
 19200 4cdf 01F4     		.2byte	0x1f4
 19201 4ce1 000024B1 		.4byte	0x24b1
 19202 4ce5 00000438 		.4byte	.LLST38
 19203 4ce9 5C       		.uleb128 0x5c
 19204 4cea 000035D2 		.4byte	.LASF283
 19205 4cee 01       		.byte	0x1
 19206 4cef 01F4     		.2byte	0x1f4
 19207 4cf1 00000A92 		.4byte	0xa92
 19208 4cf5 00000484 		.4byte	.LLST39
 19209 4cf9 5C       		.uleb128 0x5c
 19210 4cfa 00003D3F 		.4byte	.LASF766
 19211 4cfe 01       		.byte	0x1
 19212 4cff 01F4     		.2byte	0x1f4
 19213 4d01 0000010A 		.4byte	0x10a
 19214 4d05 000004C3 		.4byte	.LLST40
 19215 4d09 6E       		.uleb128 0x6e
 19216 4d0a 000038F6 		.4byte	.LASF763
 19217 4d0e 01       		.byte	0x1
 19218 4d0f 01F5     		.2byte	0x1f5
 19219 4d11 00000A92 		.4byte	0xa92
 19220 4d15 0000050F 		.4byte	.LLST41
 19221 4d19 00       		.byte	0x0
 19222 4d1a 5E       		.uleb128 0x5e
 19223 4d1b 0000398E 		.4byte	0x398e
 19224 4d1f 01       		.byte	0x1
 19225 4d20 0292     		.2byte	0x292
 19226 4d22 0000078C 		.4byte	.LFB593
 19227 4d26 00000950 		.4byte	.LFE593
 19228 4d2a 00000538 		.4byte	.LLST42
 19229 4d2e 00004F29 		.4byte	0x4f29
 19230 4d32 5F       		.uleb128 0x5f
 19231 4d33 000028CC 		.4byte	.LASF749
 19232 4d37 000047F5 		.4byte	0x47f5
 19233 4d3b 01       		.byte	0x1
 19234 4d3c 00000558 		.4byte	.LLST43
 19235 4d40 5C       		.uleb128 0x5c
 19236 4d41 00000274 		.4byte	.LASF768
 19237 4d45 01       		.byte	0x1
 19238 4d46 0292     		.2byte	0x292
 19239 4d48 0000013F 		.4byte	0x13f
 19240 4d4c 00000581 		.4byte	.LLST44
 19241 4d50 5C       		.uleb128 0x5c
 19242 4d51 00002AB2 		.4byte	.LASF769
 19243 4d55 01       		.byte	0x1
 19244 4d56 0292     		.2byte	0x292
 19245 4d58 00000079 		.4byte	0x79
 19246 4d5c 0000059F 		.4byte	.LLST45
 19247 4d60 5C       		.uleb128 0x5c
 19248 4d61 000051C5 		.4byte	.LASF770
 19249 4d65 01       		.byte	0x1
 19250 4d66 0292     		.2byte	0x292
 19251 4d68 00000079 		.4byte	0x79
 19252 4d6c 000005BF 		.4byte	.LLST46
 19253 4d70 5C       		.uleb128 0x5c
 19254 4d71 000041B4 		.4byte	.LASF764
 19255 4d75 01       		.byte	0x1
 19256 4d76 0292     		.2byte	0x292
 19257 4d78 00000A87 		.4byte	0xa87
 19258 4d7c 000005DF 		.4byte	.LLST47
 19259 4d80 5C       		.uleb128 0x5c
 19260 4d81 000041BC 		.4byte	.LASF765
 19261 4d85 01       		.byte	0x1
 19262 4d86 0292     		.2byte	0x292
 19263 4d88 00000A87 		.4byte	0xa87
 19264 4d8c 000005FD 		.4byte	.LLST48
 19265 4d90 5C       		.uleb128 0x5c
 19266 4d91 00003D3F 		.4byte	.LASF766
 19267 4d95 01       		.byte	0x1
 19268 4d96 0292     		.2byte	0x292
 19269 4d98 0000010A 		.4byte	0x10a
 19270 4d9c 0000061B 		.4byte	.LLST49
 19271 4da0 65       		.uleb128 0x65
 19272 4da1 000044A1 		.4byte	0x44a1
 19273 4da5 00000080 		.4byte	.Ldebug_ranges0+0x80
 19274 4da9 01       		.byte	0x1
 19275 4daa 029B     		.2byte	0x29b
 19276 4dac 00004DBB 		.4byte	0x4dbb
 19277 4db0 66       		.uleb128 0x66
 19278 4db1 000044B8 		.4byte	0x44b8
 19279 4db5 66       		.uleb128 0x66
 19280 4db6 000044AE 		.4byte	0x44ae
 19281 4dba 00       		.byte	0x0
 19282 4dbb 65       		.uleb128 0x65
 19283 4dbc 000044C3 		.4byte	0x44c3
 19284 4dc0 00000098 		.4byte	.Ldebug_ranges0+0x98
 19285 4dc4 01       		.byte	0x1
 19286 4dc5 029C     		.2byte	0x29c
 19287 4dc7 00004DE0 		.4byte	0x4de0
 19288 4dcb 66       		.uleb128 0x66
 19289 4dcc 000044EE 		.4byte	0x44ee
 19290 4dd0 66       		.uleb128 0x66
 19291 4dd1 000044E4 		.4byte	0x44e4
 19292 4dd5 66       		.uleb128 0x66
 19293 4dd6 000044DA 		.4byte	0x44da
 19294 4dda 66       		.uleb128 0x66
 19295 4ddb 000044D0 		.4byte	0x44d0
 19296 4ddf 00       		.byte	0x0
 19297 4de0 65       		.uleb128 0x65
 19298 4de1 00004502 		.4byte	0x4502
 19299 4de5 000000C0 		.4byte	.Ldebug_ranges0+0xc0
 19300 4de9 01       		.byte	0x1
 19301 4dea 029D     		.2byte	0x29d
 19302 4dec 00004DFB 		.4byte	0x4dfb
 19303 4df0 66       		.uleb128 0x66
 19304 4df1 00004519 		.4byte	0x4519
 19305 4df5 66       		.uleb128 0x66
 19306 4df6 0000450F 		.4byte	0x450f
 19307 4dfa 00       		.byte	0x0
 19308 4dfb 65       		.uleb128 0x65
 19309 4dfc 00004502 		.4byte	0x4502
 19310 4e00 000000D8 		.4byte	.Ldebug_ranges0+0xd8
 19311 4e04 01       		.byte	0x1
 19312 4e05 02A1     		.2byte	0x2a1
 19313 4e07 00004E16 		.4byte	0x4e16
 19314 4e0b 66       		.uleb128 0x66
 19315 4e0c 00004519 		.4byte	0x4519
 19316 4e10 66       		.uleb128 0x66
 19317 4e11 0000450F 		.4byte	0x450f
 19318 4e15 00       		.byte	0x0
 19319 4e16 67       		.uleb128 0x67
 19320 4e17 000044A1 		.4byte	0x44a1
 19321 4e1b 00000894 		.4byte	.LBB612
 19322 4e1f 0000089C 		.4byte	.LBE612
 19323 4e23 01       		.byte	0x1
 19324 4e24 029F     		.2byte	0x29f
 19325 4e26 00004E39 		.4byte	0x4e39
 19326 4e2a 66       		.uleb128 0x66
 19327 4e2b 000044B8 		.4byte	0x44b8
 19328 4e2f 6D       		.uleb128 0x6d
 19329 4e30 000044AE 		.4byte	0x44ae
 19330 4e34 00000645 		.4byte	.LLST50
 19331 4e38 00       		.byte	0x0
 19332 4e39 67       		.uleb128 0x67
 19333 4e3a 000044C3 		.4byte	0x44c3
 19334 4e3e 0000089C 		.4byte	.LBB614
 19335 4e42 000008AC 		.4byte	.LBE614
 19336 4e46 01       		.byte	0x1
 19337 4e47 02A0     		.2byte	0x2a0
 19338 4e49 00004E62 		.4byte	0x4e62
 19339 4e4d 66       		.uleb128 0x66
 19340 4e4e 000044EE 		.4byte	0x44ee
 19341 4e52 66       		.uleb128 0x66
 19342 4e53 000044E4 		.4byte	0x44e4
 19343 4e57 66       		.uleb128 0x66
 19344 4e58 000044DA 		.4byte	0x44da
 19345 4e5c 66       		.uleb128 0x66
 19346 4e5d 000044D0 		.4byte	0x44d0
 19347 4e61 00       		.byte	0x0
 19348 4e62 65       		.uleb128 0x65
 19349 4e63 000044A1 		.4byte	0x44a1
 19350 4e67 00000100 		.4byte	.Ldebug_ranges0+0x100
 19351 4e6b 01       		.byte	0x1
 19352 4e6c 02A3     		.2byte	0x2a3
 19353 4e6e 00004E81 		.4byte	0x4e81
 19354 4e72 6D       		.uleb128 0x6d
 19355 4e73 000044B8 		.4byte	0x44b8
 19356 4e77 00000658 		.4byte	.LLST51
 19357 4e7b 66       		.uleb128 0x66
 19358 4e7c 000044AE 		.4byte	0x44ae
 19359 4e80 00       		.byte	0x0
 19360 4e81 67       		.uleb128 0x67
 19361 4e82 000044C3 		.4byte	0x44c3
 19362 4e86 000008E4 		.4byte	.LBB622
 19363 4e8a 000008F4 		.4byte	.LBE622
 19364 4e8e 01       		.byte	0x1
 19365 4e8f 02A4     		.2byte	0x2a4
 19366 4e91 00004EAA 		.4byte	0x4eaa
 19367 4e95 66       		.uleb128 0x66
 19368 4e96 000044EE 		.4byte	0x44ee
 19369 4e9a 66       		.uleb128 0x66
 19370 4e9b 000044E4 		.4byte	0x44e4
 19371 4e9f 66       		.uleb128 0x66
 19372 4ea0 000044DA 		.4byte	0x44da
 19373 4ea4 66       		.uleb128 0x66
 19374 4ea5 000044D0 		.4byte	0x44d0
 19375 4ea9 00       		.byte	0x0
 19376 4eaa 67       		.uleb128 0x67
 19377 4eab 00004502 		.4byte	0x4502
 19378 4eaf 000008F4 		.4byte	.LBB624
 19379 4eb3 000008FC 		.4byte	.LBE624
 19380 4eb7 01       		.byte	0x1
 19381 4eb8 02A5     		.2byte	0x2a5
 19382 4eba 00004EC9 		.4byte	0x4ec9
 19383 4ebe 66       		.uleb128 0x66
 19384 4ebf 00004519 		.4byte	0x4519
 19385 4ec3 66       		.uleb128 0x66
 19386 4ec4 0000450F 		.4byte	0x450f
 19387 4ec8 00       		.byte	0x0
 19388 4ec9 67       		.uleb128 0x67
 19389 4eca 000044A1 		.4byte	0x44a1
 19390 4ece 000008FC 		.4byte	.LBB626
 19391 4ed2 00000904 		.4byte	.LBE626
 19392 4ed6 01       		.byte	0x1
 19393 4ed7 02A7     		.2byte	0x2a7
 19394 4ed9 00004EE8 		.4byte	0x4ee8
 19395 4edd 66       		.uleb128 0x66
 19396 4ede 000044B8 		.4byte	0x44b8
 19397 4ee2 66       		.uleb128 0x66
 19398 4ee3 000044AE 		.4byte	0x44ae
 19399 4ee7 00       		.byte	0x0
 19400 4ee8 67       		.uleb128 0x67
 19401 4ee9 000044C3 		.4byte	0x44c3
 19402 4eed 00000904 		.4byte	.LBB628
 19403 4ef1 00000914 		.4byte	.LBE628
 19404 4ef5 01       		.byte	0x1
 19405 4ef6 02A8     		.2byte	0x2a8
 19406 4ef8 00004F11 		.4byte	0x4f11
 19407 4efc 66       		.uleb128 0x66
 19408 4efd 000044EE 		.4byte	0x44ee
 19409 4f01 66       		.uleb128 0x66
 19410 4f02 000044E4 		.4byte	0x44e4
 19411 4f06 66       		.uleb128 0x66
 19412 4f07 000044DA 		.4byte	0x44da
 19413 4f0b 66       		.uleb128 0x66
 19414 4f0c 000044D0 		.4byte	0x44d0
 19415 4f10 00       		.byte	0x0
 19416 4f11 6F       		.uleb128 0x6f
 19417 4f12 00004502 		.4byte	0x4502
 19418 4f16 00000118 		.4byte	.Ldebug_ranges0+0x118
 19419 4f1a 01       		.byte	0x1
 19420 4f1b 02A9     		.2byte	0x2a9
 19421 4f1d 66       		.uleb128 0x66
 19422 4f1e 00004519 		.4byte	0x4519
 19423 4f22 66       		.uleb128 0x66
 19424 4f23 0000450F 		.4byte	0x450f
 19425 4f27 00       		.byte	0x0
 19426 4f28 00       		.byte	0x0
 19427 4f29 48       		.uleb128 0x48
 19428 4f2a 0000299C 		.4byte	0x299c
 19429 4f2e 03       		.byte	0x3
 19430 4f2f 00004F71 		.4byte	0x4f71
 19431 4f33 49       		.uleb128 0x49
 19432 4f34 000028CC 		.4byte	.LASF749
 19433 4f38 0000418A 		.4byte	0x418a
 19434 4f3c 01       		.byte	0x1
 19435 4f3d 4D       		.uleb128 0x4d
 19436 4f3e 5F5F7800 		.string	"__x"
 19437 4f42 02       		.byte	0x2
 19438 4f43 0176     		.2byte	0x176
 19439 4f45 00004F71 		.4byte	0x4f71
 19440 4f49 70       		.uleb128 0x70
 19441 4f4a 000051B8 		.4byte	.LASF771
 19442 4f4e 02       		.byte	0x2
 19443 4f4f 0178     		.2byte	0x178
 19444 4f51 000027DD 		.4byte	0x27dd
 19445 4f55 54       		.uleb128 0x54
 19446 4f56 00004F5F 		.4byte	0x4f5f
 19447 4f5a 4B       		.uleb128 0x4b
 19448 4f5b 52       		.uleb128 0x52
 19449 4f5c 4B       		.uleb128 0x4b
 19450 4f5d 00       		.byte	0x0
 19451 4f5e 00       		.byte	0x0
 19452 4f5f 54       		.uleb128 0x54
 19453 4f60 00004F66 		.4byte	0x4f66
 19454 4f64 4B       		.uleb128 0x4b
 19455 4f65 00       		.byte	0x0
 19456 4f66 54       		.uleb128 0x54
 19457 4f67 00004F6D 		.4byte	0x4f6d
 19458 4f6b 4B       		.uleb128 0x4b
 19459 4f6c 00       		.byte	0x0
 19460 4f6d 52       		.uleb128 0x52
 19461 4f6e 4B       		.uleb128 0x4b
 19462 4f6f 00       		.byte	0x0
 19463 4f70 00       		.byte	0x0
 19464 4f71 1D       		.uleb128 0x1d
 19465 4f72 00002608 		.4byte	0x2608
 19466 4f76 48       		.uleb128 0x48
 19467 4f77 0000295F 		.4byte	0x295f
 19468 4f7b 03       		.byte	0x3
 19469 4f7c 00004F8B 		.4byte	0x4f8b
 19470 4f80 49       		.uleb128 0x49
 19471 4f81 000028CC 		.4byte	.LASF749
 19472 4f85 0000418A 		.4byte	0x418a
 19473 4f89 01       		.byte	0x1
 19474 4f8a 00       		.byte	0x0
 19475 4f8b 48       		.uleb128 0x48
 19476 4f8c 0000273D 		.4byte	0x273d
 19477 4f90 03       		.byte	0x3
 19478 4f91 00004FB1 		.4byte	0x4fb1
 19479 4f95 49       		.uleb128 0x49
 19480 4f96 000028CC 		.4byte	.LASF749
 19481 4f9a 00004126 		.4byte	0x4126
 19482 4f9e 01       		.byte	0x1
 19483 4f9f 4A       		.uleb128 0x4a
 19484 4fa0 5F5F6E00 		.string	"__n"
 19485 4fa4 05       		.byte	0x5
 19486 4fa5 56       		.byte	0x56
 19487 4fa6 000009CA 		.4byte	0x9ca
 19488 4faa 17       		.uleb128 0x17
 19489 4fab 00000AA8 		.4byte	0xaa8
 19490 4faf 4B       		.uleb128 0x4b
 19491 4fb0 00       		.byte	0x0
 19492 4fb1 71       		.uleb128 0x71
 19493 4fb2 00002C89 		.4byte	0x2c89
 19494 4fb6 00000000 		.4byte	.LFB691
 19495 4fba 000000F0 		.4byte	.LFE691
 19496 4fbe 0000066B 		.4byte	.LLST52
 19497 4fc2 00005093 		.4byte	0x5093
 19498 4fc6 5F       		.uleb128 0x5f
 19499 4fc7 000028CC 		.4byte	.LASF749
 19500 4fcb 0000418A 		.4byte	0x418a
 19501 4fcf 01       		.byte	0x1
 19502 4fd0 0000068A 		.4byte	.LLST53
 19503 4fd4 69       		.uleb128 0x69
 19504 4fd5 5F5F7800 		.string	"__x"
 19505 4fd9 02       		.byte	0x2
 19506 4fda 0340     		.2byte	0x340
 19507 4fdc 000023E9 		.4byte	0x23e9
 19508 4fe0 000006B3 		.4byte	.LLST54
 19509 4fe4 69       		.uleb128 0x69
 19510 4fe5 5F5F7000 		.string	"__p"
 19511 4fe9 02       		.byte	0x2
 19512 4fea 0340     		.2byte	0x340
 19513 4fec 000023E9 		.4byte	0x23e9
 19514 4ff0 000006D1 		.4byte	.LLST55
 19515 4ff4 69       		.uleb128 0x69
 19516 4ff5 5F5F7600 		.string	"__v"
 19517 4ff9 02       		.byte	0x2
 19518 4ffa 0340     		.2byte	0x340
 19519 4ffc 00005093 		.4byte	0x5093
 19520 5000 00000705 		.4byte	.LLST56
 19521 5004 6E       		.uleb128 0x6e
 19522 5005 00003BBF 		.4byte	.LASF772
 19523 5009 02       		.byte	0x2
 19524 500a 0342     		.2byte	0x342
 19525 500c 000000AF 		.4byte	0xaf
 19526 5010 0000072E 		.4byte	.LLST57
 19527 5014 62       		.uleb128 0x62
 19528 5015 5F5F7A00 		.string	"__z"
 19529 5019 02       		.byte	0x2
 19530 501a 0346     		.2byte	0x346
 19531 501c 000027DD 		.4byte	0x27dd
 19532 5020 0000074C 		.4byte	.LLST58
 19533 5024 68       		.uleb128 0x68
 19534 5025 00004F29 		.4byte	0x4f29
 19535 5029 00000040 		.4byte	.LBB680
 19536 502d 00000084 		.4byte	.LBE680
 19537 5031 02       		.byte	0x2
 19538 5032 0346     		.2byte	0x346
 19539 5034 66       		.uleb128 0x66
 19540 5035 00004F3D 		.4byte	0x4f3d
 19541 5039 66       		.uleb128 0x66
 19542 503a 00004F33 		.4byte	0x4f33
 19543 503e 72       		.uleb128 0x72
 19544 503f 00004F49 		.4byte	0x4f49
 19545 5043 65       		.uleb128 0x65
 19546 5044 00004F76 		.4byte	0x4f76
 19547 5048 00000130 		.4byte	.Ldebug_ranges0+0x130
 19548 504c 02       		.byte	0x2
 19549 504d 0178     		.2byte	0x178
 19550 504f 00005075 		.4byte	0x5075
 19551 5053 66       		.uleb128 0x66
 19552 5054 00004F80 		.4byte	0x4f80
 19553 5058 6F       		.uleb128 0x6f
 19554 5059 00004F8B 		.4byte	0x4f8b
 19555 505d 00000148 		.4byte	.Ldebug_ranges0+0x148
 19556 5061 02       		.byte	0x2
 19557 5062 016F     		.2byte	0x16f
 19558 5064 66       		.uleb128 0x66
 19559 5065 00004FAA 		.4byte	0x4faa
 19560 5069 66       		.uleb128 0x66
 19561 506a 00004F9F 		.4byte	0x4f9f
 19562 506e 66       		.uleb128 0x66
 19563 506f 00004F95 		.4byte	0x4f95
 19564 5073 00       		.byte	0x0
 19565 5074 00       		.byte	0x0
 19566 5075 6F       		.uleb128 0x6f
 19567 5076 0000457C 		.4byte	0x457c
 19568 507a 00000160 		.4byte	.Ldebug_ranges0+0x160
 19569 507e 02       		.byte	0x2
 19570 507f 017A     		.2byte	0x17a
 19571 5081 66       		.uleb128 0x66
 19572 5082 0000459B 		.4byte	0x459b
 19573 5086 66       		.uleb128 0x66
 19574 5087 00004590 		.4byte	0x4590
 19575 508b 66       		.uleb128 0x66
 19576 508c 00004586 		.4byte	0x4586
 19577 5090 00       		.byte	0x0
 19578 5091 00       		.byte	0x0
 19579 5092 00       		.byte	0x0
 19580 5093 1D       		.uleb128 0x1d
 19581 5094 00002608 		.4byte	0x2608
 19582 5098 71       		.uleb128 0x71
 19583 5099 00002D38 		.4byte	0x2d38
 19584 509d 00000000 		.4byte	.LFB629
 19585 50a1 0000005C 		.4byte	.LFE629
 19586 50a5 0000076A 		.4byte	.LLST59
 19587 50a9 00005152 		.4byte	0x5152
 19588 50ad 5F       		.uleb128 0x5f
 19589 50ae 000028CC 		.4byte	.LASF749
 19590 50b2 0000418A 		.4byte	0x418a
 19591 50b6 01       		.byte	0x1
 19592 50b7 00000789 		.4byte	.LLST60
 19593 50bb 69       		.uleb128 0x69
 19594 50bc 5F5F7800 		.string	"__x"
 19595 50c0 02       		.byte	0x2
 19596 50c1 0526     		.2byte	0x526
 19597 50c3 000027DD 		.4byte	0x27dd
 19598 50c7 000007B2 		.4byte	.LLST61
 19599 50cb 73       		.uleb128 0x73
 19600 50cc 00000020 		.4byte	.LBB698
 19601 50d0 0000003C 		.4byte	.LBE698
 19602 50d4 64       		.uleb128 0x64
 19603 50d5 5F5F7900 		.string	"__y"
 19604 50d9 02       		.byte	0x2
 19605 50da 052C     		.2byte	0x52c
 19606 50dc 000027DD 		.4byte	0x27dd
 19607 50e0 67       		.uleb128 0x67
 19608 50e1 000042B4 		.4byte	0x42b4
 19609 50e5 0000002C 		.4byte	.LBB699
 19610 50e9 00000030 		.4byte	.LBE699
 19611 50ed 02       		.byte	0x2
 19612 50ee 052C     		.2byte	0x52c
 19613 50f0 000050FA 		.4byte	0x50fa
 19614 50f4 66       		.uleb128 0x66
 19615 50f5 000042BE 		.4byte	0x42be
 19616 50f9 00       		.byte	0x0
 19617 50fa 68       		.uleb128 0x68
 19618 50fb 000046D6 		.4byte	0x46d6
 19619 50ff 00000030 		.4byte	.LBB701
 19620 5103 0000003C 		.4byte	.LBE701
 19621 5107 02       		.byte	0x2
 19622 5108 052D     		.2byte	0x52d
 19623 510a 66       		.uleb128 0x66
 19624 510b 000046EA 		.4byte	0x46ea
 19625 510f 66       		.uleb128 0x66
 19626 5110 000046E0 		.4byte	0x46e0
 19627 5114 68       		.uleb128 0x68
 19628 5115 000045AD 		.4byte	0x45ad
 19629 5119 00000030 		.4byte	.LBB703
 19630 511d 0000003C 		.4byte	.LBE703
 19631 5121 02       		.byte	0x2
 19632 5122 0191     		.2byte	0x191
 19633 5124 66       		.uleb128 0x66
 19634 5125 000045C1 		.4byte	0x45c1
 19635 5129 66       		.uleb128 0x66
 19636 512a 000045B7 		.4byte	0x45b7
 19637 512e 68       		.uleb128 0x68
 19638 512f 0000453E 		.4byte	0x453e
 19639 5133 00000030 		.4byte	.LBB705
 19640 5137 0000003C 		.4byte	.LBE705
 19641 513b 02       		.byte	0x2
 19642 513c 0173     		.2byte	0x173
 19643 513e 66       		.uleb128 0x66
 19644 513f 0000455D 		.4byte	0x455d
 19645 5143 66       		.uleb128 0x66
 19646 5144 00004552 		.4byte	0x4552
 19647 5148 66       		.uleb128 0x66
 19648 5149 00004548 		.4byte	0x4548
 19649 514d 00       		.byte	0x0
 19650 514e 00       		.byte	0x0
 19651 514f 00       		.byte	0x0
 19652 5150 00       		.byte	0x0
 19653 5151 00       		.byte	0x0
 19654 5152 5E       		.uleb128 0x5e
 19655 5153 00003919 		.4byte	0x3919
 19656 5157 01       		.byte	0x1
 19657 5158 015D     		.2byte	0x15d
 19658 515a 00000950 		.4byte	.LFB581
 19659 515e 00000C58 		.4byte	.LFE581
 19660 5162 000007DB 		.4byte	.LLST62
 19661 5166 000051EF 		.4byte	0x51ef
 19662 516a 5F       		.uleb128 0x5f
 19663 516b 000028CC 		.4byte	.LASF749
 19664 516f 000047F5 		.4byte	0x47f5
 19665 5173 01       		.byte	0x1
 19666 5174 000007FA 		.4byte	.LLST63
 19667 5178 69       		.uleb128 0x69
 19668 5179 626D7000 		.string	"bmp"
 19669 517d 01       		.byte	0x1
 19670 517e 015D     		.2byte	0x15d
 19671 5180 00003C68 		.4byte	0x3c68
 19672 5184 00000865 		.4byte	.LLST64
 19673 5188 5C       		.uleb128 0x5c
 19674 5189 00003584 		.4byte	.LASF773
 19675 518d 01       		.byte	0x1
 19676 518e 015D     		.2byte	0x15d
 19677 5190 00003C62 		.4byte	0x3c62
 19678 5194 000008D0 		.4byte	.LLST65
 19679 5198 6E       		.uleb128 0x6e
 19680 5199 0000191C 		.4byte	.LASF774
 19681 519d 01       		.byte	0x1
 19682 519e 015F     		.2byte	0x15f
 19683 51a0 00002477 		.4byte	0x2477
 19684 51a4 0000093B 		.4byte	.LLST66
 19685 51a8 73       		.uleb128 0x73
 19686 51a9 000009B4 		.4byte	.LBB709
 19687 51ad 00000A4C 		.4byte	.LBE709
 19688 51b1 6E       		.uleb128 0x6e
 19689 51b2 00000695 		.4byte	.LASF775
 19690 51b6 01       		.byte	0x1
 19691 51b7 0162     		.2byte	0x162
 19692 51b9 00000A92 		.4byte	0xa92
 19693 51bd 0000099B 		.4byte	.LLST67
 19694 51c1 74       		.uleb128 0x74
 19695 51c2 00000178 		.4byte	.Ldebug_ranges0+0x178
 19696 51c6 6E       		.uleb128 0x6e
 19697 51c7 0000068B 		.4byte	.LASF776
 19698 51cb 01       		.byte	0x1
 19699 51cc 0163     		.2byte	0x163
 19700 51ce 00000A92 		.4byte	0xa92
 19701 51d2 000009F0 		.4byte	.LLST68
 19702 51d6 74       		.uleb128 0x74
 19703 51d7 00000190 		.4byte	.Ldebug_ranges0+0x190
 19704 51db 6E       		.uleb128 0x6e
 19705 51dc 0000037F 		.4byte	.LASF777
 19706 51e0 01       		.byte	0x1
 19707 51e1 0164     		.2byte	0x164
 19708 51e3 00000A9D 		.4byte	0xa9d
 19709 51e7 00000A45 		.4byte	.LLST69
 19710 51eb 00       		.byte	0x0
 19711 51ec 00       		.byte	0x0
 19712 51ed 00       		.byte	0x0
 19713 51ee 00       		.byte	0x0
 19714 51ef 48       		.uleb128 0x48
 19715 51f0 00003D1A 		.4byte	0x3d1a
 19716 51f4 03       		.byte	0x3
 19717 51f5 00005214 		.4byte	0x5214
 19718 51f9 49       		.uleb128 0x49
 19719 51fa 000028CC 		.4byte	.LASF749
 19720 51fe 0000416F 		.4byte	0x416f
 19721 5202 01       		.byte	0x1
 19722 5203 17       		.uleb128 0x17
 19723 5204 0000006B 		.4byte	0x6b
 19724 5208 75       		.uleb128 0x75
 19725 5209 000051B8 		.4byte	.LASF771
 19726 520d 02       		.byte	0x2
 19727 520e BE       		.byte	0xbe
 19728 520f 00003C7F 		.4byte	0x3c7f
 19729 5213 00       		.byte	0x0
 19730 5214 48       		.uleb128 0x48
 19731 5215 0000313F 		.4byte	0x313f
 19732 5219 03       		.byte	0x3
 19733 521a 0000522F 		.4byte	0x522f
 19734 521e 49       		.uleb128 0x49
 19735 521f 000028CC 		.4byte	.LASF749
 19736 5223 0000418A 		.4byte	0x418a
 19737 5227 01       		.byte	0x1
 19738 5228 4B       		.uleb128 0x4b
 19739 5229 4B       		.uleb128 0x4b
 19740 522a 4B       		.uleb128 0x4b
 19741 522b 4B       		.uleb128 0x4b
 19742 522c 4B       		.uleb128 0x4b
 19743 522d 4B       		.uleb128 0x4b
 19744 522e 00       		.byte	0x0
 19745 522f 6C       		.uleb128 0x6c
 19746 5230 000038C1 		.4byte	0x38c1
 19747 5234 01       		.byte	0x1
 19748 5235 C2       		.byte	0xc2
 19749 5236 00000C58 		.4byte	.LFB575
 19750 523a 00000D14 		.4byte	.LFE575
 19751 523e 00000A58 		.4byte	.LLST70
 19752 5242 0000530F 		.4byte	0x530f
 19753 5246 5F       		.uleb128 0x5f
 19754 5247 000028CC 		.4byte	.LASF749
 19755 524b 000047F5 		.4byte	0x47f5
 19756 524f 01       		.byte	0x1
 19757 5250 00000A77 		.4byte	.LLST71
 19758 5254 76       		.uleb128 0x76
 19759 5255 000047B1 		.4byte	0x47b1
 19760 5259 000001C0 		.4byte	.Ldebug_ranges0+0x1c0
 19761 525d 01       		.byte	0x1
 19762 525e CD       		.byte	0xcd
 19763 525f 0000527B 		.4byte	0x527b
 19764 5263 66       		.uleb128 0x66
 19765 5264 000047BB 		.4byte	0x47bb
 19766 5268 6F       		.uleb128 0x6f
 19767 5269 00005214 		.4byte	0x5214
 19768 526d 000001D8 		.4byte	.Ldebug_ranges0+0x1d8
 19769 5271 07       		.byte	0x7
 19770 5272 01FD     		.2byte	0x1fd
 19771 5274 66       		.uleb128 0x66
 19772 5275 0000521E 		.4byte	0x521e
 19773 5279 00       		.byte	0x0
 19774 527a 00       		.byte	0x0
 19775 527b 74       		.uleb128 0x74
 19776 527c 000001F0 		.4byte	.Ldebug_ranges0+0x1f0
 19777 5280 77       		.uleb128 0x77
 19778 5281 6900     		.string	"i"
 19779 5283 01       		.byte	0x1
 19780 5284 C9       		.byte	0xc9
 19781 5285 00003C7F 		.4byte	0x3c7f
 19782 5289 78       		.uleb128 0x78
 19783 528a 00004633 		.4byte	0x4633
 19784 528e 00000CA0 		.4byte	.LBB779
 19785 5292 00000CA4 		.4byte	.LBE779
 19786 5296 01       		.byte	0x1
 19787 5297 C9       		.byte	0xc9
 19788 5298 000052CE 		.4byte	0x52ce
 19789 529c 66       		.uleb128 0x66
 19790 529d 0000463D 		.4byte	0x463d
 19791 52a1 68       		.uleb128 0x68
 19792 52a2 00004174 		.4byte	0x4174
 19793 52a6 00000CA0 		.4byte	.LBB781
 19794 52aa 00000CA4 		.4byte	.LBE781
 19795 52ae 07       		.byte	0x7
 19796 52af 0107     		.2byte	0x107
 19797 52b1 66       		.uleb128 0x66
 19798 52b2 0000417E 		.4byte	0x417e
 19799 52b6 68       		.uleb128 0x68
 19800 52b7 0000414F 		.4byte	0x414f
 19801 52bb 00000CA0 		.4byte	.LBB783
 19802 52bf 00000CA4 		.4byte	.LBE783
 19803 52c3 02       		.byte	0x2
 19804 52c4 026A     		.2byte	0x26a
 19805 52c6 66       		.uleb128 0x66
 19806 52c7 00004163 		.4byte	0x4163
 19807 52cb 00       		.byte	0x0
 19808 52cc 00       		.byte	0x0
 19809 52cd 00       		.byte	0x0
 19810 52ce 78       		.uleb128 0x78
 19811 52cf 00004784 		.4byte	0x4784
 19812 52d3 00000CA8 		.4byte	.LBB786
 19813 52d7 00000CAC 		.4byte	.LBE786
 19814 52db 01       		.byte	0x1
 19815 52dc C9       		.byte	0xc9
 19816 52dd 000052FC 		.4byte	0x52fc
 19817 52e1 66       		.uleb128 0x66
 19818 52e2 0000478E 		.4byte	0x478e
 19819 52e6 79       		.uleb128 0x79
 19820 52e7 0000418F 		.4byte	0x418f
 19821 52eb 00000CA8 		.4byte	.LBB788
 19822 52ef 00000CAC 		.4byte	.LBE788
 19823 52f3 07       		.byte	0x7
 19824 52f4 F5       		.byte	0xf5
 19825 52f5 66       		.uleb128 0x66
 19826 52f6 00004199 		.4byte	0x4199
 19827 52fa 00       		.byte	0x0
 19828 52fb 00       		.byte	0x0
 19829 52fc 7A       		.uleb128 0x7a
 19830 52fd 000051EF 		.4byte	0x51ef
 19831 5301 00000208 		.4byte	.Ldebug_ranges0+0x208
 19832 5305 01       		.byte	0x1
 19833 5306 C9       		.byte	0xc9
 19834 5307 66       		.uleb128 0x66
 19835 5308 00005203 		.4byte	0x5203
 19836 530c 00       		.byte	0x0
 19837 530d 00       		.byte	0x0
 19838 530e 00       		.byte	0x0
 19839 530f 6C       		.uleb128 0x6c
 19840 5310 00003B09 		.4byte	0x3b09
 19841 5314 01       		.byte	0x1
 19842 5315 D0       		.byte	0xd0
 19843 5316 00000D14 		.4byte	.LFB576
 19844 531a 00000D60 		.4byte	.LFE576
 19845 531e 00000A95 		.4byte	.LLST72
 19846 5322 00005344 		.4byte	0x5344
 19847 5326 5F       		.uleb128 0x5f
 19848 5327 000028CC 		.4byte	.LASF749
 19849 532b 000047F5 		.4byte	0x47f5
 19850 532f 01       		.byte	0x1
 19851 5330 00000AB4 		.4byte	.LLST73
 19852 5334 59       		.uleb128 0x59
 19853 5335 00001690 		.4byte	.LASF778
 19854 5339 01       		.byte	0x1
 19855 533a D0       		.byte	0xd0
 19856 533b 00000F9B 		.4byte	0xf9b
 19857 533f 00000AD2 		.4byte	.LLST74
 19858 5343 00       		.byte	0x0
 19859 5344 6C       		.uleb128 0x6c
 19860 5345 00003A6B 		.4byte	0x3a6b
 19861 5349 01       		.byte	0x1
 19862 534a 53       		.byte	0x53
 19863 534b 00000D60 		.4byte	.LFB570
 19864 534f 00000DD4 		.4byte	.LFE570
 19865 5353 00000AF0 		.4byte	.LLST75
 19866 5357 00005379 		.4byte	0x5379
 19867 535b 5F       		.uleb128 0x5f
 19868 535c 000028CC 		.4byte	.LASF749
 19869 5360 000047F5 		.4byte	0x47f5
 19870 5364 01       		.byte	0x1
 19871 5365 00000B0F 		.4byte	.LLST76
 19872 5369 59       		.uleb128 0x59
 19873 536a 000043FF 		.4byte	.LASF665
 19874 536e 01       		.byte	0x1
 19875 536f 53       		.byte	0x53
 19876 5370 00000A7C 		.4byte	0xa7c
 19877 5374 00000B2D 		.4byte	.LLST77
 19878 5378 00       		.byte	0x0
 19879 5379 6C       		.uleb128 0x6c
 19880 537a 00003A33 		.4byte	0x3a33
 19881 537e 01       		.byte	0x1
 19882 537f 37       		.byte	0x37
 19883 5380 00000DD4 		.4byte	.LFB568
 19884 5384 00000E28 		.4byte	.LFE568
 19885 5388 00000B4B 		.4byte	.LLST78
 19886 538c 000053C9 		.4byte	0x53c9
 19887 5390 59       		.uleb128 0x59
 19888 5391 00004684 		.4byte	.LASF779
 19889 5395 01       		.byte	0x1
 19890 5396 37       		.byte	0x37
 19891 5397 00000092 		.4byte	0x92
 19892 539b 00000B6A 		.4byte	.LLST79
 19893 539f 5A       		.uleb128 0x5a
 19894 53a0 00001144 		.4byte	.LASF780
 19895 53a4 01       		.byte	0x1
 19896 53a5 38       		.byte	0x38
 19897 53a6 00001CF3 		.4byte	0x1cf3
 19898 53aa 01       		.byte	0x1
 19899 53ab 53       		.byte	0x53
 19900 53ac 7B       		.uleb128 0x7b
 19901 53ad 00003B75 		.4byte	.LASF781
 19902 53b1 01       		.byte	0x1
 19903 53b2 3B       		.byte	0x3b
 19904 53b3 00000092 		.4byte	0x92
 19905 53b7 00000B88 		.4byte	.LLST80
 19906 53bb 5A       		.uleb128 0x5a
 19907 53bc 000030A2 		.4byte	.LASF782
 19908 53c0 01       		.byte	0x1
 19909 53c1 3C       		.byte	0x3c
 19910 53c2 00001CF3 		.4byte	0x1cf3
 19911 53c6 01       		.byte	0x1
 19912 53c7 59       		.byte	0x59
 19913 53c8 00       		.byte	0x0
 19914 53c9 56       		.uleb128 0x56
 19915 53ca 00003A4F 		.4byte	0x3a4f
 19916 53ce 01       		.byte	0x1
 19917 53cf 46       		.byte	0x46
 19918 53d0 00000E28 		.4byte	.LFB569
 19919 53d4 00000E2C 		.4byte	.LFE569
 19920 53d8 01       		.byte	0x1
 19921 53d9 51       		.byte	0x51
 19922 53da 000053EE 		.4byte	0x53ee
 19923 53de 59       		.uleb128 0x59
 19924 53df 00004684 		.4byte	.LASF779
 19925 53e3 01       		.byte	0x1
 19926 53e4 46       		.byte	0x46
 19927 53e5 0000081F 		.4byte	0x81f
 19928 53e9 00000B9B 		.4byte	.LLST82
 19929 53ed 00       		.byte	0x0
 19930 53ee 48       		.uleb128 0x48
 19931 53ef 000032EE 		.4byte	0x32ee
 19932 53f3 02       		.byte	0x2
 19933 53f4 00005403 		.4byte	0x5403
 19934 53f8 49       		.uleb128 0x49
 19935 53f9 000028CC 		.4byte	.LASF749
 19936 53fd 0000464B 		.4byte	0x464b
 19937 5401 01       		.byte	0x1
 19938 5402 00       		.byte	0x0
 19939 5403 4C       		.uleb128 0x4c
 19940 5404 00003766 		.4byte	0x3766
 19941 5408 07       		.byte	0x7
 19942 5409 5E       		.byte	0x5e
 19943 540a 02       		.byte	0x2
 19944 540b 00005424 		.4byte	0x5424
 19945 540f 49       		.uleb128 0x49
 19946 5410 000028CC 		.4byte	.LASF749
 19947 5414 0000464B 		.4byte	0x464b
 19948 5418 01       		.byte	0x1
 19949 5419 49       		.uleb128 0x49
 19950 541a 00004C1F 		.4byte	.LASF750
 19951 541e 00004102 		.4byte	0x4102
 19952 5422 01       		.byte	0x1
 19953 5423 00       		.byte	0x0
 19954 5424 48       		.uleb128 0x48
 19955 5425 00002DBF 		.4byte	0x2dbf
 19956 5429 02       		.byte	0x2
 19957 542a 00005443 		.4byte	0x5443
 19958 542e 49       		.uleb128 0x49
 19959 542f 000028CC 		.4byte	.LASF749
 19960 5433 0000418A 		.4byte	0x418a
 19961 5437 01       		.byte	0x1
 19962 5438 49       		.uleb128 0x49
 19963 5439 00004C1F 		.4byte	.LASF750
 19964 543d 00004102 		.4byte	0x4102
 19965 5441 01       		.byte	0x1
 19966 5442 00       		.byte	0x0
 19967 5443 4C       		.uleb128 0x4c
 19968 5444 000039F9 		.4byte	0x39f9
 19969 5448 01       		.byte	0x1
 19970 5449 1F       		.byte	0x1f
 19971 544a 00       		.byte	0x0
 19972 544b 00005470 		.4byte	0x5470
 19973 544f 49       		.uleb128 0x49
 19974 5450 000028CC 		.4byte	.LASF749
 19975 5454 000047F5 		.4byte	0x47f5
 19976 5458 01       		.byte	0x1
 19977 5459 53       		.uleb128 0x53
 19978 545a 00002BD5 		.4byte	.LASF664
 19979 545e 01       		.byte	0x1
 19980 545f 1F       		.byte	0x1f
 19981 5460 00000A7C 		.4byte	0xa7c
 19982 5464 53       		.uleb128 0x53
 19983 5465 000043FF 		.4byte	.LASF665
 19984 5469 01       		.byte	0x1
 19985 546a 1F       		.byte	0x1f
 19986 546b 00000A7C 		.4byte	0xa7c
 19987 546f 00       		.byte	0x0
 19988 5470 7C       		.uleb128 0x7c
 19989 5471 00005443 		.4byte	0x5443
 19990 5475 00000E2C 		.4byte	.LFB563
 19991 5479 00000EC0 		.4byte	.LFE563
 19992 547d 00000BAE 		.4byte	.LLST83
 19993 5481 00005512 		.4byte	0x5512
 19994 5485 6D       		.uleb128 0x6d
 19995 5486 0000544F 		.4byte	0x544f
 19996 548a 00000BCD 		.4byte	.LLST84
 19997 548e 6D       		.uleb128 0x6d
 19998 548f 00005459 		.4byte	0x5459
 19999 5493 00000C01 		.4byte	.LLST85
 20000 5497 6D       		.uleb128 0x6d
 20001 5498 00005464 		.4byte	0x5464
 20002 549c 00000C2A 		.4byte	.LLST86
 20003 54a0 76       		.uleb128 0x76
 20004 54a1 000053EE 		.4byte	0x53ee
 20005 54a5 00000220 		.4byte	.Ldebug_ranges0+0x220
 20006 54a9 01       		.byte	0x1
 20007 54aa 1F       		.byte	0x1f
 20008 54ab 000054E7 		.4byte	0x54e7
 20009 54af 66       		.uleb128 0x66
 20010 54b0 000053F8 		.4byte	0x53f8
 20011 54b4 7A       		.uleb128 0x7a
 20012 54b5 000043F5 		.4byte	0x43f5
 20013 54b9 00000238 		.4byte	.Ldebug_ranges0+0x238
 20014 54bd 07       		.byte	0x7
 20015 54be 9E       		.byte	0x9e
 20016 54bf 66       		.uleb128 0x66
 20017 54c0 00004415 		.4byte	0x4415
 20018 54c4 66       		.uleb128 0x66
 20019 54c5 00004409 		.4byte	0x4409
 20020 54c9 66       		.uleb128 0x66
 20021 54ca 000043FF 		.4byte	0x43ff
 20022 54ce 6F       		.uleb128 0x6f
 20023 54cf 0000439F 		.4byte	0x439f
 20024 54d3 00000250 		.4byte	.Ldebug_ranges0+0x250
 20025 54d7 02       		.byte	0x2
 20026 54d8 0240     		.2byte	0x240
 20027 54da 66       		.uleb128 0x66
 20028 54db 000043BF 		.4byte	0x43bf
 20029 54df 66       		.uleb128 0x66
 20030 54e0 000043A9 		.4byte	0x43a9
 20031 54e4 00       		.byte	0x0
 20032 54e5 00       		.byte	0x0
 20033 54e6 00       		.byte	0x0
 20034 54e7 79       		.uleb128 0x79
 20035 54e8 00005403 		.4byte	0x5403
 20036 54ec 00000EA8 		.4byte	.LBB868
 20037 54f0 00000EC0 		.4byte	.LBE868
 20038 54f4 01       		.byte	0x1
 20039 54f5 25       		.byte	0x25
 20040 54f6 66       		.uleb128 0x66
 20041 54f7 0000540F 		.4byte	0x540f
 20042 54fb 79       		.uleb128 0x79
 20043 54fc 00005424 		.4byte	0x5424
 20044 5500 00000EA8 		.4byte	.LBB870
 20045 5504 00000EC0 		.4byte	.LBE870
 20046 5508 07       		.byte	0x7
 20047 5509 5E       		.byte	0x5e
 20048 550a 66       		.uleb128 0x66
 20049 550b 0000542E 		.4byte	0x542e
 20050 550f 00       		.byte	0x0
 20051 5510 00       		.byte	0x0
 20052 5511 00       		.byte	0x0
 20053 5512 48       		.uleb128 0x48
 20054 5513 00003D3B 		.4byte	0x3d3b
 20055 5517 03       		.byte	0x3
 20056 5518 00005527 		.4byte	0x5527
 20057 551c 49       		.uleb128 0x49
 20058 551d 000028CC 		.4byte	.LASF749
 20059 5521 0000416F 		.4byte	0x416f
 20060 5525 01       		.byte	0x1
 20061 5526 00       		.byte	0x0
 20062 5527 71       		.uleb128 0x71
 20063 5528 00002F76 		.4byte	0x2f76
 20064 552c 00000000 		.4byte	.LFB692
 20065 5530 00000144 		.4byte	.LFE692
 20066 5534 00000C53 		.4byte	.LLST87
 20067 5538 0000561D 		.4byte	0x561d
 20068 553c 5F       		.uleb128 0x5f
 20069 553d 000028CC 		.4byte	.LASF749
 20070 5541 0000418A 		.4byte	0x418a
 20071 5545 01       		.byte	0x1
 20072 5546 00000C72 		.4byte	.LLST88
 20073 554a 69       		.uleb128 0x69
 20074 554b 5F5F7600 		.string	"__v"
 20075 554f 02       		.byte	0x2
 20076 5550 03CC     		.2byte	0x3cc
 20077 5552 0000561D 		.4byte	0x561d
 20078 5556 00000CC7 		.4byte	.LLST89
 20079 555a 62       		.uleb128 0x62
 20080 555b 5F5F7800 		.string	"__x"
 20081 555f 02       		.byte	0x2
 20082 5560 03CE     		.2byte	0x3ce
 20083 5562 000027DD 		.4byte	0x27dd
 20084 5566 00000D11 		.4byte	.LLST90
 20085 556a 64       		.uleb128 0x64
 20086 556b 5F5F7900 		.string	"__y"
 20087 556f 02       		.byte	0x2
 20088 5570 03CF     		.2byte	0x3cf
 20089 5572 000027DD 		.4byte	0x27dd
 20090 5576 6E       		.uleb128 0x6e
 20091 5577 00004B95 		.4byte	.LASF751
 20092 557b 02       		.byte	0x2
 20093 557c 03D0     		.2byte	0x3d0
 20094 557e 000000AF 		.4byte	0xaf
 20095 5582 00000D5B 		.4byte	.LLST91
 20096 5586 64       		.uleb128 0x64
 20097 5587 5F5F6A00 		.string	"__j"
 20098 558b 02       		.byte	0x2
 20099 558c 03D7     		.2byte	0x3d7
 20100 558e 00003C7F 		.4byte	0x3c7f
 20101 5592 7D       		.uleb128 0x7d
 20102 5593 00005512 		.4byte	0x5512
 20103 5597 000000D8 		.4byte	.LBB928
 20104 559b 000000EC 		.4byte	.LBE928
 20105 559f 02       		.byte	0x2
 20106 55a0 03DC     		.2byte	0x3dc
 20107 55a2 67       		.uleb128 0x67
 20108 55a3 0000414F 		.4byte	0x414f
 20109 55a7 00000078 		.4byte	.LBB929
 20110 55ab 0000007C 		.4byte	.LBE929
 20111 55af 02       		.byte	0x2
 20112 55b0 03D7     		.2byte	0x3d7
 20113 55b2 000055BC 		.4byte	0x55bc
 20114 55b6 66       		.uleb128 0x66
 20115 55b7 00004163 		.4byte	0x4163
 20116 55bb 00       		.byte	0x0
 20117 55bc 67       		.uleb128 0x67
 20118 55bd 000042CB 		.4byte	0x42cb
 20119 55c1 0000006C 		.4byte	.LBB932
 20120 55c5 00000070 		.4byte	.LBE932
 20121 55c9 02       		.byte	0x2
 20122 55ca 03D5     		.2byte	0x3d5
 20123 55cc 000055D6 		.4byte	0x55d6
 20124 55d0 66       		.uleb128 0x66
 20125 55d1 000042D5 		.4byte	0x42d5
 20126 55d5 00       		.byte	0x0
 20127 55d6 67       		.uleb128 0x67
 20128 55d7 000042B4 		.4byte	0x42b4
 20129 55db 00000044 		.4byte	.LBB935
 20130 55df 00000048 		.4byte	.LBE935
 20131 55e3 02       		.byte	0x2
 20132 55e4 03D5     		.2byte	0x3d5
 20133 55e6 000055F0 		.4byte	0x55f0
 20134 55ea 66       		.uleb128 0x66
 20135 55eb 000042BE 		.4byte	0x42be
 20136 55ef 00       		.byte	0x0
 20137 55f0 67       		.uleb128 0x67
 20138 55f1 0000424C 		.4byte	0x424c
 20139 55f5 00000034 		.4byte	.LBB938
 20140 55f9 00000038 		.4byte	.LBE938
 20141 55fd 02       		.byte	0x2
 20142 55fe 03CF     		.2byte	0x3cf
 20143 5600 0000560A 		.4byte	0x560a
 20144 5604 66       		.uleb128 0x66
 20145 5605 00004256 		.4byte	0x4256
 20146 5609 00       		.byte	0x0
 20147 560a 6F       		.uleb128 0x6f
 20148 560b 00004237 		.4byte	0x4237
 20149 560f 00000268 		.4byte	.Ldebug_ranges0+0x268
 20150 5613 02       		.byte	0x2
 20151 5614 03CE     		.2byte	0x3ce
 20152 5616 66       		.uleb128 0x66
 20153 5617 00004241 		.4byte	0x4241
 20154 561b 00       		.byte	0x0
 20155 561c 00       		.byte	0x0
 20156 561d 1D       		.uleb128 0x1d
 20157 561e 00002608 		.4byte	0x2608
 20158 5622 48       		.uleb128 0x48
 20159 5623 00003CFE 		.4byte	0x3cfe
 20160 5627 03       		.byte	0x3
 20161 5628 00005637 		.4byte	0x5637
 20162 562c 49       		.uleb128 0x49
 20163 562d 000028CC 		.4byte	.LASF749
 20164 5631 0000416F 		.4byte	0x416f
 20165 5635 01       		.byte	0x1
 20166 5636 00       		.byte	0x0
 20167 5637 71       		.uleb128 0x71
 20168 5638 00002FDC 		.4byte	0x2fdc
 20169 563c 00000000 		.4byte	.LFB675
 20170 5640 00000188 		.4byte	.LFE675
 20171 5644 00000D84 		.4byte	.LLST92
 20172 5648 000056E3 		.4byte	0x56e3
 20173 564c 5F       		.uleb128 0x5f
 20174 564d 000028CC 		.4byte	.LASF749
 20175 5651 0000418A 		.4byte	0x418a
 20176 5655 01       		.byte	0x1
 20177 5656 00000DA3 		.4byte	.LLST93
 20178 565a 5C       		.uleb128 0x5c
 20179 565b 000045FA 		.4byte	.LASF783
 20180 565f 02       		.byte	0x2
 20181 5660 03E6     		.2byte	0x3e6
 20182 5662 00003C7F 		.4byte	0x3c7f
 20183 5666 00000E45 		.4byte	.LLST94
 20184 566a 69       		.uleb128 0x69
 20185 566b 5F5F7600 		.string	"__v"
 20186 566f 02       		.byte	0x2
 20187 5670 03E6     		.2byte	0x3e6
 20188 5672 000056E3 		.4byte	0x56e3
 20189 5676 00000EA9 		.4byte	.LLST95
 20190 567a 7E       		.uleb128 0x7e
 20191 567b 00000288 		.4byte	.Ldebug_ranges0+0x288
 20192 567f 000056A0 		.4byte	0x56a0
 20193 5683 70       		.uleb128 0x70
 20194 5684 00004EA1 		.4byte	.LASF784
 20195 5688 02       		.byte	0x2
 20196 5689 0409     		.2byte	0x409
 20197 568b 00003C7F 		.4byte	0x3c7f
 20198 568f 7D       		.uleb128 0x7d
 20199 5690 00005622 		.4byte	0x5622
 20200 5694 000000C0 		.4byte	.LBB1031
 20201 5698 000000C8 		.4byte	.LBE1031
 20202 569c 02       		.byte	0x2
 20203 569d 040C     		.2byte	0x40c
 20204 569f 00       		.byte	0x0
 20205 56a0 7E       		.uleb128 0x7e
 20206 56a1 000002A8 		.4byte	.Ldebug_ranges0+0x2a8
 20207 56a5 000056C2 		.4byte	0x56c2
 20208 56a9 70       		.uleb128 0x70
 20209 56aa 000045E2 		.4byte	.LASF785
 20210 56ae 02       		.byte	0x2
 20211 56af 03F6     		.2byte	0x3f6
 20212 56b1 00003C7F 		.4byte	0x3c7f
 20213 56b5 7F       		.uleb128 0x7f
 20214 56b6 00005512 		.4byte	0x5512
 20215 56ba 000002C0 		.4byte	.Ldebug_ranges0+0x2c0
 20216 56be 02       		.byte	0x2
 20217 56bf 03F9     		.2byte	0x3f9
 20218 56c1 00       		.byte	0x0
 20219 56c2 68       		.uleb128 0x68
 20220 56c3 0000427A 		.4byte	0x427a
 20221 56c7 00000030 		.4byte	.LBB1035
 20222 56cb 00000038 		.4byte	.LBE1035
 20223 56cf 02       		.byte	0x2
 20224 56d0 03F2     		.2byte	0x3f2
 20225 56d2 66       		.uleb128 0x66
 20226 56d3 00004299 		.4byte	0x4299
 20227 56d7 66       		.uleb128 0x66
 20228 56d8 0000428E 		.4byte	0x428e
 20229 56dc 66       		.uleb128 0x66
 20230 56dd 00004284 		.4byte	0x4284
 20231 56e1 00       		.byte	0x0
 20232 56e2 00       		.byte	0x0
 20233 56e3 1D       		.uleb128 0x1d
 20234 56e4 00002608 		.4byte	0x2608
 20235 56e8 4C       		.uleb128 0x4c
 20236 56e9 00003A18 		.4byte	0x3a18
 20237 56ed 01       		.byte	0x1
 20238 56ee 2A       		.byte	0x2a
 20239 56ef 00       		.byte	0x0
 20240 56f0 00005709 		.4byte	0x5709
 20241 56f4 49       		.uleb128 0x49
 20242 56f5 000028CC 		.4byte	.LASF749
 20243 56f9 000047F5 		.4byte	0x47f5
 20244 56fd 01       		.byte	0x1
 20245 56fe 49       		.uleb128 0x49
 20246 56ff 00004C1F 		.4byte	.LASF750
 20247 5703 00004102 		.4byte	0x4102
 20248 5707 01       		.byte	0x1
 20249 5708 00       		.byte	0x0
 20250 5709 7C       		.uleb128 0x7c
 20251 570a 000056E8 		.4byte	0x56e8
 20252 570e 00000EC0 		.4byte	.LFB567
 20253 5712 00000F20 		.4byte	.LFE567
 20254 5716 00000F1F 		.4byte	.LLST96
 20255 571a 00005780 		.4byte	0x5780
 20256 571e 6D       		.uleb128 0x6d
 20257 571f 000056F4 		.4byte	0x56f4
 20258 5723 00000F3E 		.4byte	.LLST97
 20259 5727 78       		.uleb128 0x78
 20260 5728 00005403 		.4byte	0x5403
 20261 572c 00000EDC 		.4byte	.LBB1081
 20262 5730 00000EE8 		.4byte	.LBE1081
 20263 5734 01       		.byte	0x1
 20264 5735 2C       		.byte	0x2c
 20265 5736 00005755 		.4byte	0x5755
 20266 573a 66       		.uleb128 0x66
 20267 573b 0000540F 		.4byte	0x540f
 20268 573f 79       		.uleb128 0x79
 20269 5740 00005424 		.4byte	0x5424
 20270 5744 00000EDC 		.4byte	.LBB1083
 20271 5748 00000EE8 		.4byte	.LBE1083
 20272 574c 07       		.byte	0x7
 20273 574d 5E       		.byte	0x5e
 20274 574e 66       		.uleb128 0x66
 20275 574f 0000542E 		.4byte	0x542e
 20276 5753 00       		.byte	0x0
 20277 5754 00       		.byte	0x0
 20278 5755 79       		.uleb128 0x79
 20279 5756 00005403 		.4byte	0x5403
 20280 575a 00000F04 		.4byte	.LBB1085
 20281 575e 00000F20 		.4byte	.LBE1085
 20282 5762 01       		.byte	0x1
 20283 5763 2C       		.byte	0x2c
 20284 5764 66       		.uleb128 0x66
 20285 5765 0000540F 		.4byte	0x540f
 20286 5769 79       		.uleb128 0x79
 20287 576a 00005424 		.4byte	0x5424
 20288 576e 00000F04 		.4byte	.LBB1087
 20289 5772 00000F20 		.4byte	.LBE1087
 20290 5776 07       		.byte	0x7
 20291 5777 5E       		.byte	0x5e
 20292 5778 66       		.uleb128 0x66
 20293 5779 0000542E 		.4byte	0x542e
 20294 577d 00       		.byte	0x0
 20295 577e 00       		.byte	0x0
 20296 577f 00       		.byte	0x0
 20297 5780 7C       		.uleb128 0x7c
 20298 5781 000056E8 		.4byte	0x56e8
 20299 5785 00000F20 		.4byte	.LFB566
 20300 5789 00000F80 		.4byte	.LFE566
 20301 578d 00000F67 		.4byte	.LLST98
 20302 5791 000057F7 		.4byte	0x57f7
 20303 5795 6D       		.uleb128 0x6d
 20304 5796 000056F4 		.4byte	0x56f4
 20305 579a 00000F86 		.4byte	.LLST99
 20306 579e 78       		.uleb128 0x78
 20307 579f 00005403 		.4byte	0x5403
 20308 57a3 00000F3C 		.4byte	.LBB1125
 20309 57a7 00000F48 		.4byte	.LBE1125
 20310 57ab 01       		.byte	0x1
 20311 57ac 2C       		.byte	0x2c
 20312 57ad 000057CC 		.4byte	0x57cc
 20313 57b1 66       		.uleb128 0x66
 20314 57b2 0000540F 		.4byte	0x540f
 20315 57b6 79       		.uleb128 0x79
 20316 57b7 00005424 		.4byte	0x5424
 20317 57bb 00000F3C 		.4byte	.LBB1127
 20318 57bf 00000F48 		.4byte	.LBE1127
 20319 57c3 07       		.byte	0x7
 20320 57c4 5E       		.byte	0x5e
 20321 57c5 66       		.uleb128 0x66
 20322 57c6 0000542E 		.4byte	0x542e
 20323 57ca 00       		.byte	0x0
 20324 57cb 00       		.byte	0x0
 20325 57cc 79       		.uleb128 0x79
 20326 57cd 00005403 		.4byte	0x5403
 20327 57d1 00000F64 		.4byte	.LBB1129
 20328 57d5 00000F80 		.4byte	.LBE1129
 20329 57d9 01       		.byte	0x1
 20330 57da 2C       		.byte	0x2c
 20331 57db 66       		.uleb128 0x66
 20332 57dc 0000540F 		.4byte	0x540f
 20333 57e0 79       		.uleb128 0x79
 20334 57e1 00005424 		.4byte	0x5424
 20335 57e5 00000F64 		.4byte	.LBB1131
 20336 57e9 00000F80 		.4byte	.LBE1131
 20337 57ed 07       		.byte	0x7
 20338 57ee 5E       		.byte	0x5e
 20339 57ef 66       		.uleb128 0x66
 20340 57f0 0000542E 		.4byte	0x542e
 20341 57f4 00       		.byte	0x0
 20342 57f5 00       		.byte	0x0
 20343 57f6 00       		.byte	0x0
 20344 57f7 7C       		.uleb128 0x7c
 20345 57f8 00005443 		.4byte	0x5443
 20346 57fc 00000F80 		.4byte	.LFB564
 20347 5800 00001014 		.4byte	.LFE564
 20348 5804 00000FAF 		.4byte	.LLST100
 20349 5808 00005899 		.4byte	0x5899
 20350 580c 6D       		.uleb128 0x6d
 20351 580d 0000544F 		.4byte	0x544f
 20352 5811 00000FCE 		.4byte	.LLST101
 20353 5815 6D       		.uleb128 0x6d
 20354 5816 00005459 		.4byte	0x5459
 20355 581a 00001002 		.4byte	.LLST102
 20356 581e 6D       		.uleb128 0x6d
 20357 581f 00005464 		.4byte	0x5464
 20358 5823 0000102B 		.4byte	.LLST103
 20359 5827 76       		.uleb128 0x76
 20360 5828 000053EE 		.4byte	0x53ee
 20361 582c 000002D8 		.4byte	.Ldebug_ranges0+0x2d8
 20362 5830 01       		.byte	0x1
 20363 5831 1F       		.byte	0x1f
 20364 5832 0000586E 		.4byte	0x586e
 20365 5836 66       		.uleb128 0x66
 20366 5837 000053F8 		.4byte	0x53f8
 20367 583b 7A       		.uleb128 0x7a
 20368 583c 000043F5 		.4byte	0x43f5
 20369 5840 000002F0 		.4byte	.Ldebug_ranges0+0x2f0
 20370 5844 07       		.byte	0x7
 20371 5845 9E       		.byte	0x9e
 20372 5846 66       		.uleb128 0x66
 20373 5847 00004415 		.4byte	0x4415
 20374 584b 66       		.uleb128 0x66
 20375 584c 00004409 		.4byte	0x4409
 20376 5850 66       		.uleb128 0x66
 20377 5851 000043FF 		.4byte	0x43ff
 20378 5855 6F       		.uleb128 0x6f
 20379 5856 0000439F 		.4byte	0x439f
 20380 585a 00000308 		.4byte	.Ldebug_ranges0+0x308
 20381 585e 02       		.byte	0x2
 20382 585f 0240     		.2byte	0x240
 20383 5861 66       		.uleb128 0x66
 20384 5862 000043BF 		.4byte	0x43bf
 20385 5866 66       		.uleb128 0x66
 20386 5867 000043A9 		.4byte	0x43a9
 20387 586b 00       		.byte	0x0
 20388 586c 00       		.byte	0x0
 20389 586d 00       		.byte	0x0
 20390 586e 79       		.uleb128 0x79
 20391 586f 00005403 		.4byte	0x5403
 20392 5873 00000FFC 		.4byte	.LBB1204
 20393 5877 00001014 		.4byte	.LBE1204
 20394 587b 01       		.byte	0x1
 20395 587c 25       		.byte	0x25
 20396 587d 66       		.uleb128 0x66
 20397 587e 0000540F 		.4byte	0x540f
 20398 5882 79       		.uleb128 0x79
 20399 5883 00005424 		.4byte	0x5424
 20400 5887 00000FFC 		.4byte	.LBB1206
 20401 588b 00001014 		.4byte	.LBE1206
 20402 588f 07       		.byte	0x7
 20403 5890 5E       		.byte	0x5e
 20404 5891 66       		.uleb128 0x66
 20405 5892 0000542E 		.4byte	0x542e
 20406 5896 00       		.byte	0x0
 20407 5897 00       		.byte	0x0
 20408 5898 00       		.byte	0x0
 20409 5899 48       		.uleb128 0x48
 20410 589a 000034B3 		.4byte	0x34b3
 20411 589e 03       		.byte	0x3
 20412 589f 000058DB 		.4byte	0x58db
 20413 58a3 49       		.uleb128 0x49
 20414 58a4 000028CC 		.4byte	.LASF749
 20415 58a8 0000464B 		.4byte	0x464b
 20416 58ac 01       		.byte	0x1
 20417 58ad 4D       		.uleb128 0x4d
 20418 58ae 5F5F6B00 		.string	"__k"
 20419 58b2 07       		.byte	0x7
 20420 58b3 0156     		.2byte	0x156
 20421 58b5 000058DB 		.4byte	0x58db
 20422 58b9 64       		.uleb128 0x64
 20423 58ba 5F5F6900 		.string	"__i"
 20424 58be 07       		.byte	0x7
 20425 58bf 015B     		.2byte	0x15b
 20426 58c1 00003C7F 		.4byte	0x3c7f
 20427 58c5 54       		.uleb128 0x54
 20428 58c6 000058CE 		.4byte	0x58ce
 20429 58ca 52       		.uleb128 0x52
 20430 58cb 4B       		.uleb128 0x4b
 20431 58cc 00       		.byte	0x0
 20432 58cd 00       		.byte	0x0
 20433 58ce 4B       		.uleb128 0x4b
 20434 58cf 54       		.uleb128 0x54
 20435 58d0 000058D6 		.4byte	0x58d6
 20436 58d4 4B       		.uleb128 0x4b
 20437 58d5 00       		.byte	0x0
 20438 58d6 4B       		.uleb128 0x4b
 20439 58d7 4B       		.uleb128 0x4b
 20440 58d8 4B       		.uleb128 0x4b
 20441 58d9 4B       		.uleb128 0x4b
 20442 58da 00       		.byte	0x0
 20443 58db 1D       		.uleb128 0x1d
 20444 58dc 00002336 		.4byte	0x2336
 20445 58e0 48       		.uleb128 0x48
 20446 58e1 0000369A 		.4byte	0x369a
 20447 58e5 03       		.byte	0x3
 20448 58e6 00005901 		.4byte	0x5901
 20449 58ea 49       		.uleb128 0x49
 20450 58eb 000028CC 		.4byte	.LASF749
 20451 58ef 0000464B 		.4byte	0x464b
 20452 58f3 01       		.byte	0x1
 20453 58f4 4D       		.uleb128 0x4d
 20454 58f5 5F5F7800 		.string	"__x"
 20455 58f9 07       		.byte	0x7
 20456 58fa 0247     		.2byte	0x247
 20457 58fc 00005901 		.4byte	0x5901
 20458 5900 00       		.byte	0x0
 20459 5901 1D       		.uleb128 0x1d
 20460 5902 00002336 		.4byte	0x2336
 20461 5906 48       		.uleb128 0x48
 20462 5907 00003539 		.4byte	0x3539
 20463 590b 03       		.byte	0x3
 20464 590c 00005933 		.4byte	0x5933
 20465 5910 49       		.uleb128 0x49
 20466 5911 000028CC 		.4byte	.LASF749
 20467 5915 0000464B 		.4byte	0x464b
 20468 5919 01       		.byte	0x1
 20469 591a 4E       		.uleb128 0x4e
 20470 591b 000045FA 		.4byte	.LASF783
 20471 591f 07       		.byte	0x7
 20472 5920 01AA     		.2byte	0x1aa
 20473 5922 00003C7F 		.4byte	0x3c7f
 20474 5926 4D       		.uleb128 0x4d
 20475 5927 5F5F7800 		.string	"__x"
 20476 592b 07       		.byte	0x7
 20477 592c 01AA     		.2byte	0x1aa
 20478 592e 00005933 		.4byte	0x5933
 20479 5932 00       		.byte	0x0
 20480 5933 1D       		.uleb128 0x1d
 20481 5934 00002608 		.4byte	0x2608
 20482 5938 5E       		.uleb128 0x5e
 20483 5939 000038DA 		.4byte	0x38da
 20484 593d 01       		.byte	0x1
 20485 593e 011D     		.2byte	0x11d
 20486 5940 00001014 		.4byte	.LFB579
 20487 5944 000012FC 		.4byte	.LFE579
 20488 5948 00001054 		.4byte	.LLST104
 20489 594c 00005B63 		.4byte	0x5b63
 20490 5950 5F       		.uleb128 0x5f
 20491 5951 000028CC 		.4byte	.LASF749
 20492 5955 000047F5 		.4byte	0x47f5
 20493 5959 01       		.byte	0x1
 20494 595a 00001074 		.4byte	.LLST105
 20495 595e 5C       		.uleb128 0x5c
 20496 595f 00003F2E 		.4byte	.LASF786
 20497 5963 01       		.byte	0x1
 20498 5964 011D     		.2byte	0x11d
 20499 5966 00001CF9 		.4byte	0x1cf9
 20500 596a 0000109D 		.4byte	.LLST106
 20501 596e 6E       		.uleb128 0x6e
 20502 596f 0000518B 		.4byte	.LASF787
 20503 5973 01       		.byte	0x1
 20504 5974 011E     		.2byte	0x11e
 20505 5976 00000F9B 		.4byte	0xf9b
 20506 597a 00001101 		.4byte	.LLST107
 20507 597e 70       		.uleb128 0x70
 20508 597f 000037F2 		.4byte	.LASF467
 20509 5983 01       		.byte	0x1
 20510 5984 011F     		.2byte	0x11f
 20511 5986 00000A92 		.4byte	0xa92
 20512 598a 6E       		.uleb128 0x6e
 20513 598b 0000086C 		.4byte	.LASF468
 20514 598f 01       		.byte	0x1
 20515 5990 011F     		.2byte	0x11f
 20516 5992 00000A92 		.4byte	0xa92
 20517 5996 0000111F 		.4byte	.LLST108
 20518 599a 74       		.uleb128 0x74
 20519 599b 00000320 		.4byte	.Ldebug_ranges0+0x320
 20520 599f 70       		.uleb128 0x70
 20521 59a0 000027C9 		.4byte	.LASF788
 20522 59a4 01       		.byte	0x1
 20523 59a5 0126     		.2byte	0x126
 20524 59a7 00003C68 		.4byte	0x3c68
 20525 59ab 65       		.uleb128 0x65
 20526 59ac 00005899 		.4byte	0x5899
 20527 59b0 00000338 		.4byte	.Ldebug_ranges0+0x338
 20528 59b4 01       		.byte	0x1
 20529 59b5 0134     		.2byte	0x134
 20530 59b7 00005A7D 		.4byte	0x5a7d
 20531 59bb 66       		.uleb128 0x66
 20532 59bc 000058AD 		.4byte	0x58ad
 20533 59c0 66       		.uleb128 0x66
 20534 59c1 000058A3 		.4byte	0x58a3
 20535 59c5 72       		.uleb128 0x72
 20536 59c6 000058B9 		.4byte	0x58b9
 20537 59ca 67       		.uleb128 0x67
 20538 59cb 00004633 		.4byte	0x4633
 20539 59cf 00001100 		.4byte	.LBB1312
 20540 59d3 00001104 		.4byte	.LBE1312
 20541 59d7 07       		.byte	0x7
 20542 59d8 015D     		.2byte	0x15d
 20543 59da 00005A10 		.4byte	0x5a10
 20544 59de 66       		.uleb128 0x66
 20545 59df 0000463D 		.4byte	0x463d
 20546 59e3 68       		.uleb128 0x68
 20547 59e4 00004174 		.4byte	0x4174
 20548 59e8 00001100 		.4byte	.LBB1314
 20549 59ec 00001104 		.4byte	.LBE1314
 20550 59f0 07       		.byte	0x7
 20551 59f1 0107     		.2byte	0x107
 20552 59f3 66       		.uleb128 0x66
 20553 59f4 0000417E 		.4byte	0x417e
 20554 59f8 68       		.uleb128 0x68
 20555 59f9 0000414F 		.4byte	0x414f
 20556 59fd 00001100 		.4byte	.LBB1316
 20557 5a01 00001104 		.4byte	.LBE1316
 20558 5a05 02       		.byte	0x2
 20559 5a06 026A     		.2byte	0x26a
 20560 5a08 66       		.uleb128 0x66
 20561 5a09 00004163 		.4byte	0x4163
 20562 5a0d 00       		.byte	0x0
 20563 5a0e 00       		.byte	0x0
 20564 5a0f 00       		.byte	0x0
 20565 5a10 65       		.uleb128 0x65
 20566 5a11 000058E0 		.4byte	0x58e0
 20567 5a15 00000370 		.4byte	.Ldebug_ranges0+0x370
 20568 5a19 07       		.byte	0x7
 20569 5a1a 015B     		.2byte	0x15b
 20570 5a1c 00005A2B 		.4byte	0x5a2b
 20571 5a20 66       		.uleb128 0x66
 20572 5a21 000058F4 		.4byte	0x58f4
 20573 5a25 66       		.uleb128 0x66
 20574 5a26 000058EA 		.4byte	0x58ea
 20575 5a2a 00       		.byte	0x0
 20576 5a2b 67       		.uleb128 0x67
 20577 5a2c 0000466B 		.4byte	0x466b
 20578 5a30 00001134 		.4byte	.LBB1325
 20579 5a34 00001138 		.4byte	.LBE1325
 20580 5a38 07       		.byte	0x7
 20581 5a39 015D     		.2byte	0x15d
 20582 5a3b 00005A45 		.4byte	0x5a45
 20583 5a3f 66       		.uleb128 0x66
 20584 5a40 00004675 		.4byte	0x4675
 20585 5a44 00       		.byte	0x0
 20586 5a45 65       		.uleb128 0x65
 20587 5a46 00005906 		.4byte	0x5906
 20588 5a4a 000003A8 		.4byte	.Ldebug_ranges0+0x3a8
 20589 5a4e 07       		.byte	0x7
 20590 5a4f 015E     		.2byte	0x15e
 20591 5a51 00005A65 		.4byte	0x5a65
 20592 5a55 66       		.uleb128 0x66
 20593 5a56 00005926 		.4byte	0x5926
 20594 5a5a 66       		.uleb128 0x66
 20595 5a5b 0000591A 		.4byte	0x591a
 20596 5a5f 66       		.uleb128 0x66
 20597 5a60 00005910 		.4byte	0x5910
 20598 5a64 00       		.byte	0x0
 20599 5a65 6F       		.uleb128 0x6f
 20600 5a66 00004680 		.4byte	0x4680
 20601 5a6a 000003C8 		.4byte	.Ldebug_ranges0+0x3c8
 20602 5a6e 07       		.byte	0x7
 20603 5a6f 015E     		.2byte	0x15e
 20604 5a71 66       		.uleb128 0x66
 20605 5a72 0000469F 		.4byte	0x469f
 20606 5a76 66       		.uleb128 0x66
 20607 5a77 00004694 		.4byte	0x4694
 20608 5a7b 00       		.byte	0x0
 20609 5a7c 00       		.byte	0x0
 20610 5a7d 65       		.uleb128 0x65
 20611 5a7e 00005899 		.4byte	0x5899
 20612 5a82 000003E0 		.4byte	.Ldebug_ranges0+0x3e0
 20613 5a86 01       		.byte	0x1
 20614 5a87 0135     		.2byte	0x135
 20615 5a89 00005AEF 		.4byte	0x5aef
 20616 5a8d 66       		.uleb128 0x66
 20617 5a8e 000058AD 		.4byte	0x58ad
 20618 5a92 66       		.uleb128 0x66
 20619 5a93 000058A3 		.4byte	0x58a3
 20620 5a97 72       		.uleb128 0x72
 20621 5a98 000058B9 		.4byte	0x58b9
 20622 5a9c 65       		.uleb128 0x65
 20623 5a9d 000058E0 		.4byte	0x58e0
 20624 5aa1 00000400 		.4byte	.Ldebug_ranges0+0x400
 20625 5aa5 07       		.byte	0x7
 20626 5aa6 015B     		.2byte	0x15b
 20627 5aa8 00005AB7 		.4byte	0x5ab7
 20628 5aac 66       		.uleb128 0x66
 20629 5aad 000058F4 		.4byte	0x58f4
 20630 5ab1 66       		.uleb128 0x66
 20631 5ab2 000058EA 		.4byte	0x58ea
 20632 5ab6 00       		.byte	0x0
 20633 5ab7 65       		.uleb128 0x65
 20634 5ab8 00005906 		.4byte	0x5906
 20635 5abc 00000428 		.4byte	.Ldebug_ranges0+0x428
 20636 5ac0 07       		.byte	0x7
 20637 5ac1 015E     		.2byte	0x15e
 20638 5ac3 00005AD7 		.4byte	0x5ad7
 20639 5ac7 66       		.uleb128 0x66
 20640 5ac8 00005926 		.4byte	0x5926
 20641 5acc 66       		.uleb128 0x66
 20642 5acd 0000591A 		.4byte	0x591a
 20643 5ad1 66       		.uleb128 0x66
 20644 5ad2 00005910 		.4byte	0x5910
 20645 5ad6 00       		.byte	0x0
 20646 5ad7 6F       		.uleb128 0x6f
 20647 5ad8 00004680 		.4byte	0x4680
 20648 5adc 00000448 		.4byte	.Ldebug_ranges0+0x448
 20649 5ae0 07       		.byte	0x7
 20650 5ae1 015E     		.2byte	0x15e
 20651 5ae3 66       		.uleb128 0x66
 20652 5ae4 0000469F 		.4byte	0x469f
 20653 5ae8 66       		.uleb128 0x66
 20654 5ae9 00004694 		.4byte	0x4694
 20655 5aed 00       		.byte	0x0
 20656 5aee 00       		.byte	0x0
 20657 5aef 68       		.uleb128 0x68
 20658 5af0 00005899 		.4byte	0x5899
 20659 5af4 00001270 		.4byte	.LBB1369
 20660 5af8 000012DC 		.4byte	.LBE1369
 20661 5afc 01       		.byte	0x1
 20662 5afd 0137     		.2byte	0x137
 20663 5aff 66       		.uleb128 0x66
 20664 5b00 000058AD 		.4byte	0x58ad
 20665 5b04 66       		.uleb128 0x66
 20666 5b05 000058A3 		.4byte	0x58a3
 20667 5b09 72       		.uleb128 0x72
 20668 5b0a 000058B9 		.4byte	0x58b9
 20669 5b0e 65       		.uleb128 0x65
 20670 5b0f 000058E0 		.4byte	0x58e0
 20671 5b13 00000460 		.4byte	.Ldebug_ranges0+0x460
 20672 5b17 07       		.byte	0x7
 20673 5b18 015B     		.2byte	0x15b
 20674 5b1a 00005B29 		.4byte	0x5b29
 20675 5b1e 66       		.uleb128 0x66
 20676 5b1f 000058F4 		.4byte	0x58f4
 20677 5b23 66       		.uleb128 0x66
 20678 5b24 000058EA 		.4byte	0x58ea
 20679 5b28 00       		.byte	0x0
 20680 5b29 65       		.uleb128 0x65
 20681 5b2a 00005906 		.4byte	0x5906
 20682 5b2e 00000478 		.4byte	.Ldebug_ranges0+0x478
 20683 5b32 07       		.byte	0x7
 20684 5b33 015E     		.2byte	0x15e
 20685 5b35 00005B49 		.4byte	0x5b49
 20686 5b39 66       		.uleb128 0x66
 20687 5b3a 00005926 		.4byte	0x5926
 20688 5b3e 66       		.uleb128 0x66
 20689 5b3f 0000591A 		.4byte	0x591a
 20690 5b43 66       		.uleb128 0x66
 20691 5b44 00005910 		.4byte	0x5910
 20692 5b48 00       		.byte	0x0
 20693 5b49 6F       		.uleb128 0x6f
 20694 5b4a 00004680 		.4byte	0x4680
 20695 5b4e 00000498 		.4byte	.Ldebug_ranges0+0x498
 20696 5b52 07       		.byte	0x7
 20697 5b53 015E     		.2byte	0x15e
 20698 5b55 66       		.uleb128 0x66
 20699 5b56 0000469F 		.4byte	0x469f
 20700 5b5a 66       		.uleb128 0x66
 20701 5b5b 00004694 		.4byte	0x4694
 20702 5b5f 00       		.byte	0x0
 20703 5b60 00       		.byte	0x0
 20704 5b61 00       		.byte	0x0
 20705 5b62 00       		.byte	0x0
 20706 5b63 48       		.uleb128 0x48
 20707 5b64 00003634 		.4byte	0x3634
 20708 5b68 03       		.byte	0x3
 20709 5b69 00005B84 		.4byte	0x5b84
 20710 5b6d 49       		.uleb128 0x49
 20711 5b6e 000028CC 		.4byte	.LASF749
 20712 5b72 0000464B 		.4byte	0x464b
 20713 5b76 01       		.byte	0x1
 20714 5b77 4D       		.uleb128 0x4d
 20715 5b78 5F5F7800 		.string	"__x"
 20716 5b7c 07       		.byte	0x7
 20717 5b7d 021D     		.2byte	0x21d
 20718 5b7f 00005B84 		.4byte	0x5b84
 20719 5b83 00       		.byte	0x0
 20720 5b84 1D       		.uleb128 0x1d
 20721 5b85 00002336 		.4byte	0x2336
 20722 5b89 5E       		.uleb128 0x5e
 20723 5b8a 00003C1B 		.4byte	0x3c1b
 20724 5b8e 01       		.byte	0x1
 20725 5b8f 0267     		.2byte	0x267
 20726 5b91 000012FC 		.4byte	.LFB591
 20727 5b95 000014C8 		.4byte	.LFE591
 20728 5b99 0000113D 		.4byte	.LLST109
 20729 5b9d 00005CA3 		.4byte	0x5ca3
 20730 5ba1 5F       		.uleb128 0x5f
 20731 5ba2 000028CC 		.4byte	.LASF749
 20732 5ba6 000047F5 		.4byte	0x47f5
 20733 5baa 01       		.byte	0x1
 20734 5bab 0000115D 		.4byte	.LLST110
 20735 5baf 5C       		.uleb128 0x5c
 20736 5bb0 000026C2 		.4byte	.LASF759
 20737 5bb4 01       		.byte	0x1
 20738 5bb5 0267     		.2byte	0x267
 20739 5bb7 00001CF3 		.4byte	0x1cf3
 20740 5bbb 00001186 		.4byte	.LLST111
 20741 5bbf 6E       		.uleb128 0x6e
 20742 5bc0 000028D1 		.4byte	.LASF789
 20743 5bc4 01       		.byte	0x1
 20744 5bc5 0268     		.2byte	0x268
 20745 5bc7 00000A92 		.4byte	0xa92
 20746 5bcb 000011AF 		.4byte	.LLST112
 20747 5bcf 6E       		.uleb128 0x6e
 20748 5bd0 00003874 		.4byte	.LASF790
 20749 5bd4 01       		.byte	0x1
 20750 5bd5 0269     		.2byte	0x269
 20751 5bd7 00000A92 		.4byte	0xa92
 20752 5bdb 000011CD 		.4byte	.LLST113
 20753 5bdf 6E       		.uleb128 0x6e
 20754 5be0 000043F8 		.4byte	.LASF791
 20755 5be4 01       		.byte	0x1
 20756 5be5 0269     		.2byte	0x269
 20757 5be7 00000A92 		.4byte	0xa92
 20758 5beb 00001201 		.4byte	.LLST114
 20759 5bef 74       		.uleb128 0x74
 20760 5bf0 000004B0 		.4byte	.Ldebug_ranges0+0x4b0
 20761 5bf4 64       		.uleb128 0x64
 20762 5bf5 6900     		.string	"i"
 20763 5bf7 01       		.byte	0x1
 20764 5bf8 026B     		.2byte	0x26b
 20765 5bfa 00000A92 		.4byte	0xa92
 20766 5bfe 74       		.uleb128 0x74
 20767 5bff 000004D0 		.4byte	.Ldebug_ranges0+0x4d0
 20768 5c03 6E       		.uleb128 0x6e
 20769 5c04 0000191C 		.4byte	.LASF774
 20770 5c08 01       		.byte	0x1
 20771 5c09 026D     		.2byte	0x26d
 20772 5c0b 00003C62 		.4byte	0x3c62
 20773 5c0f 00001235 		.4byte	.LLST115
 20774 5c13 65       		.uleb128 0x65
 20775 5c14 00005B63 		.4byte	0x5b63
 20776 5c18 000004E8 		.4byte	.Ldebug_ranges0+0x4e8
 20777 5c1c 01       		.byte	0x1
 20778 5c1d 026E     		.2byte	0x26e
 20779 5c1f 00005C2E 		.4byte	0x5c2e
 20780 5c23 66       		.uleb128 0x66
 20781 5c24 00005B77 		.4byte	0x5b77
 20782 5c28 66       		.uleb128 0x66
 20783 5c29 00005B6D 		.4byte	0x5b6d
 20784 5c2d 00       		.byte	0x0
 20785 5c2e 6F       		.uleb128 0x6f
 20786 5c2f 00005899 		.4byte	0x5899
 20787 5c33 00000500 		.4byte	.Ldebug_ranges0+0x500
 20788 5c37 01       		.byte	0x1
 20789 5c38 026F     		.2byte	0x26f
 20790 5c3a 66       		.uleb128 0x66
 20791 5c3b 000058AD 		.4byte	0x58ad
 20792 5c3f 66       		.uleb128 0x66
 20793 5c40 000058A3 		.4byte	0x58a3
 20794 5c44 72       		.uleb128 0x72
 20795 5c45 000058B9 		.4byte	0x58b9
 20796 5c49 65       		.uleb128 0x65
 20797 5c4a 00005906 		.4byte	0x5906
 20798 5c4e 00000518 		.4byte	.Ldebug_ranges0+0x518
 20799 5c52 07       		.byte	0x7
 20800 5c53 015E     		.2byte	0x15e
 20801 5c55 00005C69 		.4byte	0x5c69
 20802 5c59 66       		.uleb128 0x66
 20803 5c5a 00005926 		.4byte	0x5926
 20804 5c5e 66       		.uleb128 0x66
 20805 5c5f 0000591A 		.4byte	0x591a
 20806 5c63 66       		.uleb128 0x66
 20807 5c64 00005910 		.4byte	0x5910
 20808 5c68 00       		.byte	0x0
 20809 5c69 65       		.uleb128 0x65
 20810 5c6a 000058E0 		.4byte	0x58e0
 20811 5c6e 00000540 		.4byte	.Ldebug_ranges0+0x540
 20812 5c72 07       		.byte	0x7
 20813 5c73 015B     		.2byte	0x15b
 20814 5c75 00005C84 		.4byte	0x5c84
 20815 5c79 66       		.uleb128 0x66
 20816 5c7a 000058F4 		.4byte	0x58f4
 20817 5c7e 66       		.uleb128 0x66
 20818 5c7f 000058EA 		.4byte	0x58ea
 20819 5c83 00       		.byte	0x0
 20820 5c84 6F       		.uleb128 0x6f
 20821 5c85 00004680 		.4byte	0x4680
 20822 5c89 00000558 		.4byte	.Ldebug_ranges0+0x558
 20823 5c8d 07       		.byte	0x7
 20824 5c8e 015E     		.2byte	0x15e
 20825 5c90 66       		.uleb128 0x66
 20826 5c91 0000469F 		.4byte	0x469f
 20827 5c95 6D       		.uleb128 0x6d
 20828 5c96 00004694 		.4byte	0x4694
 20829 5c9a 0000125E 		.4byte	.LLST116
 20830 5c9e 00       		.byte	0x0
 20831 5c9f 00       		.byte	0x0
 20832 5ca0 00       		.byte	0x0
 20833 5ca1 00       		.byte	0x0
 20834 5ca2 00       		.byte	0x0
 20835 5ca3 5E       		.uleb128 0x5e
 20836 5ca4 00003BD7 		.4byte	0x3bd7
 20837 5ca8 01       		.byte	0x1
 20838 5ca9 0250     		.2byte	0x250
 20839 5cab 000014C8 		.4byte	.LFB589
 20840 5caf 000014F4 		.4byte	.LFE589
 20841 5cb3 00001271 		.4byte	.LLST117
 20842 5cb7 00005CE6 		.4byte	0x5ce6
 20843 5cbb 5F       		.uleb128 0x5f
 20844 5cbc 000028CC 		.4byte	.LASF749
 20845 5cc0 000047F5 		.4byte	0x47f5
 20846 5cc4 01       		.byte	0x1
 20847 5cc5 00001290 		.4byte	.LLST118
 20848 5cc9 5C       		.uleb128 0x5c
 20849 5cca 000026C2 		.4byte	.LASF759
 20850 5cce 01       		.byte	0x1
 20851 5ccf 0250     		.2byte	0x250
 20852 5cd1 00001CF3 		.4byte	0x1cf3
 20853 5cd5 000012A3 		.4byte	.LLST119
 20854 5cd9 70       		.uleb128 0x70
 20855 5cda 000047F4 		.4byte	.LASF758
 20856 5cde 01       		.byte	0x1
 20857 5cdf 0251     		.2byte	0x251
 20858 5ce1 000024B1 		.4byte	0x24b1
 20859 5ce5 00       		.byte	0x0
 20860 5ce6 5E       		.uleb128 0x5e
 20861 5ce7 00003BF9 		.4byte	0x3bf9
 20862 5ceb 01       		.byte	0x1
 20863 5cec 025A     		.2byte	0x25a
 20864 5cee 000014F4 		.4byte	.LFB590
 20865 5cf2 00001514 		.4byte	.LFE590
 20866 5cf6 000012B6 		.4byte	.LLST120
 20867 5cfa 00005D1D 		.4byte	0x5d1d
 20868 5cfe 5F       		.uleb128 0x5f
 20869 5cff 000028CC 		.4byte	.LASF749
 20870 5d03 000047F5 		.4byte	0x47f5
 20871 5d07 01       		.byte	0x1
 20872 5d08 000012D5 		.4byte	.LLST121
 20873 5d0c 5C       		.uleb128 0x5c
 20874 5d0d 000026C2 		.4byte	.LASF759
 20875 5d11 01       		.byte	0x1
 20876 5d12 025A     		.2byte	0x25a
 20877 5d14 0000232B 		.4byte	0x232b
 20878 5d18 000012E8 		.4byte	.LLST122
 20879 5d1c 00       		.byte	0x0
 20880 5d1d 5E       		.uleb128 0x5e
 20881 5d1e 00003B93 		.4byte	0x3b93
 20882 5d22 01       		.byte	0x1
 20883 5d23 0223     		.2byte	0x223
 20884 5d25 00001514 		.4byte	.LFB587
 20885 5d29 00001780 		.4byte	.LFE587
 20886 5d2d 000012FB 		.4byte	.LLST123
 20887 5d31 00005EB2 		.4byte	0x5eb2
 20888 5d35 5F       		.uleb128 0x5f
 20889 5d36 000028CC 		.4byte	.LASF749
 20890 5d3a 000047F5 		.4byte	0x47f5
 20891 5d3e 01       		.byte	0x1
 20892 5d3f 0000131B 		.4byte	.LLST124
 20893 5d43 5C       		.uleb128 0x5c
 20894 5d44 000026C2 		.4byte	.LASF759
 20895 5d48 01       		.byte	0x1
 20896 5d49 0223     		.2byte	0x223
 20897 5d4b 00001CF3 		.4byte	0x1cf3
 20898 5d4f 00001344 		.4byte	.LLST125
 20899 5d53 6E       		.uleb128 0x6e
 20900 5d54 000028D1 		.4byte	.LASF789
 20901 5d58 01       		.byte	0x1
 20902 5d59 0224     		.2byte	0x224
 20903 5d5b 00000A92 		.4byte	0xa92
 20904 5d5f 0000136D 		.4byte	.LLST126
 20905 5d63 6E       		.uleb128 0x6e
 20906 5d64 000029D7 		.4byte	.LASF792
 20907 5d68 01       		.byte	0x1
 20908 5d69 0225     		.2byte	0x225
 20909 5d6b 00000A92 		.4byte	0xa92
 20910 5d6f 0000138B 		.4byte	.LLST127
 20911 5d73 8001     		.uleb128 0x80
 20912 5d75 00001871 		.4byte	.LASF793
 20913 5d79 01       		.byte	0x1
 20914 5d7a 0226     		.2byte	0x226
 20915 5d7c 00000DBA 		.4byte	0xdba
 20916 5d80 03       		.byte	0x3
 20917 5d81 91       		.byte	0x91
 20918 5d82 D87E     		.sleb128 -168
 20919 5d84 74       		.uleb128 0x74
 20920 5d85 00000570 		.4byte	.Ldebug_ranges0+0x570
 20921 5d89 62       		.uleb128 0x62
 20922 5d8a 6900     		.string	"i"
 20923 5d8c 01       		.byte	0x1
 20924 5d8d 0228     		.2byte	0x228
 20925 5d8f 00000A92 		.4byte	0xa92
 20926 5d93 000013A9 		.4byte	.LLST128
 20927 5d97 74       		.uleb128 0x74
 20928 5d98 00000588 		.4byte	.Ldebug_ranges0+0x588
 20929 5d9c 6E       		.uleb128 0x6e
 20930 5d9d 0000191C 		.4byte	.LASF774
 20931 5da1 01       		.byte	0x1
 20932 5da2 022A     		.2byte	0x22a
 20933 5da4 00003C62 		.4byte	0x3c62
 20934 5da8 000013C7 		.4byte	.LLST129
 20935 5dac 65       		.uleb128 0x65
 20936 5dad 00005B63 		.4byte	0x5b63
 20937 5db1 000005A8 		.4byte	.Ldebug_ranges0+0x5a8
 20938 5db5 01       		.byte	0x1
 20939 5db6 022B     		.2byte	0x22b
 20940 5db8 00005DC7 		.4byte	0x5dc7
 20941 5dbc 66       		.uleb128 0x66
 20942 5dbd 00005B77 		.4byte	0x5b77
 20943 5dc1 66       		.uleb128 0x66
 20944 5dc2 00005B6D 		.4byte	0x5b6d
 20945 5dc6 00       		.byte	0x0
 20946 5dc7 65       		.uleb128 0x65
 20947 5dc8 00005899 		.4byte	0x5899
 20948 5dcc 000005C0 		.4byte	.Ldebug_ranges0+0x5c0
 20949 5dd0 01       		.byte	0x1
 20950 5dd1 022C     		.2byte	0x22c
 20951 5dd3 00005E3D 		.4byte	0x5e3d
 20952 5dd7 66       		.uleb128 0x66
 20953 5dd8 000058AD 		.4byte	0x58ad
 20954 5ddc 66       		.uleb128 0x66
 20955 5ddd 000058A3 		.4byte	0x58a3
 20956 5de1 72       		.uleb128 0x72
 20957 5de2 000058B9 		.4byte	0x58b9
 20958 5de6 65       		.uleb128 0x65
 20959 5de7 00005906 		.4byte	0x5906
 20960 5deb 000005D8 		.4byte	.Ldebug_ranges0+0x5d8
 20961 5def 07       		.byte	0x7
 20962 5df0 015E     		.2byte	0x15e
 20963 5df2 00005E06 		.4byte	0x5e06
 20964 5df6 66       		.uleb128 0x66
 20965 5df7 00005926 		.4byte	0x5926
 20966 5dfb 66       		.uleb128 0x66
 20967 5dfc 0000591A 		.4byte	0x591a
 20968 5e00 66       		.uleb128 0x66
 20969 5e01 00005910 		.4byte	0x5910
 20970 5e05 00       		.byte	0x0
 20971 5e06 65       		.uleb128 0x65
 20972 5e07 000058E0 		.4byte	0x58e0
 20973 5e0b 00000600 		.4byte	.Ldebug_ranges0+0x600
 20974 5e0f 07       		.byte	0x7
 20975 5e10 015B     		.2byte	0x15b
 20976 5e12 00005E21 		.4byte	0x5e21
 20977 5e16 66       		.uleb128 0x66
 20978 5e17 000058F4 		.4byte	0x58f4
 20979 5e1b 66       		.uleb128 0x66
 20980 5e1c 000058EA 		.4byte	0x58ea
 20981 5e20 00       		.byte	0x0
 20982 5e21 6F       		.uleb128 0x6f
 20983 5e22 00004680 		.4byte	0x4680
 20984 5e26 00000618 		.4byte	.Ldebug_ranges0+0x618
 20985 5e2a 07       		.byte	0x7
 20986 5e2b 015E     		.2byte	0x15e
 20987 5e2d 66       		.uleb128 0x66
 20988 5e2e 0000469F 		.4byte	0x469f
 20989 5e32 6D       		.uleb128 0x6d
 20990 5e33 00004694 		.4byte	0x4694
 20991 5e37 000013FB 		.4byte	.LLST130
 20992 5e3b 00       		.byte	0x0
 20993 5e3c 00       		.byte	0x0
 20994 5e3d 6F       		.uleb128 0x6f
 20995 5e3e 00005899 		.4byte	0x5899
 20996 5e42 00000630 		.4byte	.Ldebug_ranges0+0x630
 20997 5e46 01       		.byte	0x1
 20998 5e47 0234     		.2byte	0x234
 20999 5e49 66       		.uleb128 0x66
 21000 5e4a 000058AD 		.4byte	0x58ad
 21001 5e4e 66       		.uleb128 0x66
 21002 5e4f 000058A3 		.4byte	0x58a3
 21003 5e53 72       		.uleb128 0x72
 21004 5e54 000058B9 		.4byte	0x58b9
 21005 5e58 65       		.uleb128 0x65
 21006 5e59 000058E0 		.4byte	0x58e0
 21007 5e5d 00000650 		.4byte	.Ldebug_ranges0+0x650
 21008 5e61 07       		.byte	0x7
 21009 5e62 015B     		.2byte	0x15b
 21010 5e64 00005E73 		.4byte	0x5e73
 21011 5e68 66       		.uleb128 0x66
 21012 5e69 000058F4 		.4byte	0x58f4
 21013 5e6d 66       		.uleb128 0x66
 21014 5e6e 000058EA 		.4byte	0x58ea
 21015 5e72 00       		.byte	0x0
 21016 5e73 65       		.uleb128 0x65
 21017 5e74 00005906 		.4byte	0x5906
 21018 5e78 00000670 		.4byte	.Ldebug_ranges0+0x670
 21019 5e7c 07       		.byte	0x7
 21020 5e7d 015E     		.2byte	0x15e
 21021 5e7f 00005E93 		.4byte	0x5e93
 21022 5e83 66       		.uleb128 0x66
 21023 5e84 00005926 		.4byte	0x5926
 21024 5e88 66       		.uleb128 0x66
 21025 5e89 0000591A 		.4byte	0x591a
 21026 5e8d 66       		.uleb128 0x66
 21027 5e8e 00005910 		.4byte	0x5910
 21028 5e92 00       		.byte	0x0
 21029 5e93 6F       		.uleb128 0x6f
 21030 5e94 00004680 		.4byte	0x4680
 21031 5e98 00000698 		.4byte	.Ldebug_ranges0+0x698
 21032 5e9c 07       		.byte	0x7
 21033 5e9d 015E     		.2byte	0x15e
 21034 5e9f 66       		.uleb128 0x66
 21035 5ea0 0000469F 		.4byte	0x469f
 21036 5ea4 6D       		.uleb128 0x6d
 21037 5ea5 00004694 		.4byte	0x4694
 21038 5ea9 0000140E 		.4byte	.LLST131
 21039 5ead 00       		.byte	0x0
 21040 5eae 00       		.byte	0x0
 21041 5eaf 00       		.byte	0x0
 21042 5eb0 00       		.byte	0x0
 21043 5eb1 00       		.byte	0x0
 21044 5eb2 5E       		.uleb128 0x5e
 21045 5eb3 00003BB5 		.4byte	0x3bb5
 21046 5eb7 01       		.byte	0x1
 21047 5eb8 0243     		.2byte	0x243
 21048 5eba 00001780 		.4byte	.LFB588
 21049 5ebe 000017A0 		.4byte	.LFE588
 21050 5ec2 00001421 		.4byte	.LLST132
 21051 5ec6 00005EE9 		.4byte	0x5ee9
 21052 5eca 5F       		.uleb128 0x5f
 21053 5ecb 000028CC 		.4byte	.LASF749
 21054 5ecf 000047F5 		.4byte	0x47f5
 21055 5ed3 01       		.byte	0x1
 21056 5ed4 00001440 		.4byte	.LLST133
 21057 5ed8 5C       		.uleb128 0x5c
 21058 5ed9 000026C2 		.4byte	.LASF759
 21059 5edd 01       		.byte	0x1
 21060 5ede 0243     		.2byte	0x243
 21061 5ee0 0000232B 		.4byte	0x232b
 21062 5ee4 00001453 		.4byte	.LLST134
 21063 5ee8 00       		.byte	0x0
 21064 5ee9 5E       		.uleb128 0x5e
 21065 5eea 00003B27 		.4byte	0x3b27
 21066 5eee 01       		.byte	0x1
 21067 5eef 01BF     		.2byte	0x1bf
 21068 5ef1 000017A0 		.4byte	.LFB584
 21069 5ef5 00001B8C 		.4byte	.LFE584
 21070 5ef9 00001466 		.4byte	.LLST135
 21071 5efd 000060FF 		.4byte	0x60ff
 21072 5f01 5F       		.uleb128 0x5f
 21073 5f02 000028CC 		.4byte	.LASF749
 21074 5f06 000047F5 		.4byte	0x47f5
 21075 5f0a 01       		.byte	0x1
 21076 5f0b 00001486 		.4byte	.LLST136
 21077 5f0f 69       		.uleb128 0x69
 21078 5f10 7800     		.string	"x"
 21079 5f12 01       		.byte	0x1
 21080 5f13 01BF     		.2byte	0x1bf
 21081 5f15 00000A87 		.4byte	0xa87
 21082 5f19 000014AF 		.4byte	.LLST137
 21083 5f1d 69       		.uleb128 0x69
 21084 5f1e 7900     		.string	"y"
 21085 5f20 01       		.byte	0x1
 21086 5f21 01BF     		.2byte	0x1bf
 21087 5f23 00000A87 		.4byte	0xa87
 21088 5f27 000014C2 		.4byte	.LLST138
 21089 5f2b 5C       		.uleb128 0x5c
 21090 5f2c 000026C2 		.4byte	.LASF759
 21091 5f30 01       		.byte	0x1
 21092 5f31 01BF     		.2byte	0x1bf
 21093 5f33 00001CF3 		.4byte	0x1cf3
 21094 5f37 000014EB 		.4byte	.LLST139
 21095 5f3b 5C       		.uleb128 0x5c
 21096 5f3c 00003D3F 		.4byte	.LASF766
 21097 5f40 01       		.byte	0x1
 21098 5f41 01BF     		.2byte	0x1bf
 21099 5f43 0000010A 		.4byte	0x10a
 21100 5f47 00001514 		.4byte	.LLST140
 21101 5f4b 5C       		.uleb128 0x5c
 21102 5f4c 00002B20 		.4byte	.LASF794
 21103 5f50 01       		.byte	0x1
 21104 5f51 01BF     		.2byte	0x1bf
 21105 5f53 00000A92 		.4byte	0xa92
 21106 5f57 00001549 		.4byte	.LLST141
 21107 5f5b 6E       		.uleb128 0x6e
 21108 5f5c 000028D1 		.4byte	.LASF789
 21109 5f60 01       		.byte	0x1
 21110 5f61 01C0     		.2byte	0x1c0
 21111 5f63 00000A92 		.4byte	0xa92
 21112 5f67 00001572 		.4byte	.LLST142
 21113 5f6b 6E       		.uleb128 0x6e
 21114 5f6c 0000258B 		.4byte	.LASF795
 21115 5f70 01       		.byte	0x1
 21116 5f71 01C1     		.2byte	0x1c1
 21117 5f73 00000A92 		.4byte	0xa92
 21118 5f77 0000159B 		.4byte	.LLST143
 21119 5f7b 6E       		.uleb128 0x6e
 21120 5f7c 00004D19 		.4byte	.LASF796
 21121 5f80 01       		.byte	0x1
 21122 5f81 01C1     		.2byte	0x1c1
 21123 5f83 00000A92 		.4byte	0xa92
 21124 5f87 000015E0 		.4byte	.LLST144
 21125 5f8b 6E       		.uleb128 0x6e
 21126 5f8c 00000CCD 		.4byte	.LASF797
 21127 5f90 01       		.byte	0x1
 21128 5f91 01C2     		.2byte	0x1c2
 21129 5f93 00000A92 		.4byte	0xa92
 21130 5f97 000015FE 		.4byte	.LLST145
 21131 5f9b 6E       		.uleb128 0x6e
 21132 5f9c 00000F97 		.4byte	.LASF798
 21133 5fa0 01       		.byte	0x1
 21134 5fa1 01C2     		.2byte	0x1c2
 21135 5fa3 00000A92 		.4byte	0xa92
 21136 5fa7 0000161C 		.4byte	.LLST146
 21137 5fab 8001     		.uleb128 0x80
 21138 5fad 000015F9 		.4byte	.LASF799
 21139 5fb1 01       		.byte	0x1
 21140 5fb2 01C3     		.2byte	0x1c3
 21141 5fb4 00000133 		.4byte	0x133
 21142 5fb8 03       		.byte	0x3
 21143 5fb9 91       		.byte	0x91
 21144 5fba F07E     		.sleb128 -144
 21145 5fbc 8001     		.uleb128 0x80
 21146 5fbe 00001871 		.4byte	.LASF793
 21147 5fc2 01       		.byte	0x1
 21148 5fc3 01C4     		.2byte	0x1c4
 21149 5fc5 00000DBA 		.4byte	0xdba
 21150 5fc9 03       		.byte	0x3
 21151 5fca 91       		.byte	0x91
 21152 5fcb 907E     		.sleb128 -240
 21153 5fcd 74       		.uleb128 0x74
 21154 5fce 000006B0 		.4byte	.Ldebug_ranges0+0x6b0
 21155 5fd2 62       		.uleb128 0x62
 21156 5fd3 6900     		.string	"i"
 21157 5fd5 01       		.byte	0x1
 21158 5fd6 01CD     		.2byte	0x1cd
 21159 5fd8 00000A92 		.4byte	0xa92
 21160 5fdc 00001631 		.4byte	.LLST147
 21161 5fe0 74       		.uleb128 0x74
 21162 5fe1 000006C8 		.4byte	.Ldebug_ranges0+0x6c8
 21163 5fe5 6E       		.uleb128 0x6e
 21164 5fe6 0000191C 		.4byte	.LASF774
 21165 5fea 01       		.byte	0x1
 21166 5feb 01CF     		.2byte	0x1cf
 21167 5fed 00003C62 		.4byte	0x3c62
 21168 5ff1 0000164F 		.4byte	.LLST148
 21169 5ff5 67       		.uleb128 0x67
 21170 5ff6 00005899 		.4byte	0x5899
 21171 5ffa 000018A0 		.4byte	.LBB1659
 21172 5ffe 0000190C 		.4byte	.LBE1659
 21173 6002 01       		.byte	0x1
 21174 6003 01D1     		.2byte	0x1d1
 21175 6005 0000606F 		.4byte	0x606f
 21176 6009 66       		.uleb128 0x66
 21177 600a 000058AD 		.4byte	0x58ad
 21178 600e 66       		.uleb128 0x66
 21179 600f 000058A3 		.4byte	0x58a3
 21180 6013 72       		.uleb128 0x72
 21181 6014 000058B9 		.4byte	0x58b9
 21182 6018 65       		.uleb128 0x65
 21183 6019 000058E0 		.4byte	0x58e0
 21184 601d 000006F8 		.4byte	.Ldebug_ranges0+0x6f8
 21185 6021 07       		.byte	0x7
 21186 6022 015B     		.2byte	0x15b
 21187 6024 00006033 		.4byte	0x6033
 21188 6028 66       		.uleb128 0x66
 21189 6029 000058F4 		.4byte	0x58f4
 21190 602d 66       		.uleb128 0x66
 21191 602e 000058EA 		.4byte	0x58ea
 21192 6032 00       		.byte	0x0
 21193 6033 65       		.uleb128 0x65
 21194 6034 00005906 		.4byte	0x5906
 21195 6038 00000710 		.4byte	.Ldebug_ranges0+0x710
 21196 603c 07       		.byte	0x7
 21197 603d 015E     		.2byte	0x15e
 21198 603f 00006053 		.4byte	0x6053
 21199 6043 66       		.uleb128 0x66
 21200 6044 00005926 		.4byte	0x5926
 21201 6048 66       		.uleb128 0x66
 21202 6049 0000591A 		.4byte	0x591a
 21203 604d 66       		.uleb128 0x66
 21204 604e 00005910 		.4byte	0x5910
 21205 6052 00       		.byte	0x0
 21206 6053 6F       		.uleb128 0x6f
 21207 6054 00004680 		.4byte	0x4680
 21208 6058 00000730 		.4byte	.Ldebug_ranges0+0x730
 21209 605c 07       		.byte	0x7
 21210 605d 015E     		.2byte	0x15e
 21211 605f 66       		.uleb128 0x66
 21212 6060 0000469F 		.4byte	0x469f
 21213 6064 6D       		.uleb128 0x6d
 21214 6065 00004694 		.4byte	0x4694
 21215 6069 0000168E 		.4byte	.LLST149
 21216 606d 00       		.byte	0x0
 21217 606e 00       		.byte	0x0
 21218 606f 65       		.uleb128 0x65
 21219 6070 00005B63 		.4byte	0x5b63
 21220 6074 00000748 		.4byte	.Ldebug_ranges0+0x748
 21221 6078 01       		.byte	0x1
 21222 6079 01D0     		.2byte	0x1d0
 21223 607b 0000608A 		.4byte	0x608a
 21224 607f 66       		.uleb128 0x66
 21225 6080 00005B77 		.4byte	0x5b77
 21226 6084 66       		.uleb128 0x66
 21227 6085 00005B6D 		.4byte	0x5b6d
 21228 6089 00       		.byte	0x0
 21229 608a 6F       		.uleb128 0x6f
 21230 608b 00005899 		.4byte	0x5899
 21231 608f 00000760 		.4byte	.Ldebug_ranges0+0x760
 21232 6093 01       		.byte	0x1
 21233 6094 01DA     		.2byte	0x1da
 21234 6096 66       		.uleb128 0x66
 21235 6097 000058AD 		.4byte	0x58ad
 21236 609b 66       		.uleb128 0x66
 21237 609c 000058A3 		.4byte	0x58a3
 21238 60a0 72       		.uleb128 0x72
 21239 60a1 000058B9 		.4byte	0x58b9
 21240 60a5 65       		.uleb128 0x65
 21241 60a6 000058E0 		.4byte	0x58e0
 21242 60aa 00000778 		.4byte	.Ldebug_ranges0+0x778
 21243 60ae 07       		.byte	0x7
 21244 60af 015B     		.2byte	0x15b
 21245 60b1 000060C0 		.4byte	0x60c0
 21246 60b5 66       		.uleb128 0x66
 21247 60b6 000058F4 		.4byte	0x58f4
 21248 60ba 66       		.uleb128 0x66
 21249 60bb 000058EA 		.4byte	0x58ea
 21250 60bf 00       		.byte	0x0
 21251 60c0 65       		.uleb128 0x65
 21252 60c1 00005906 		.4byte	0x5906
 21253 60c5 00000798 		.4byte	.Ldebug_ranges0+0x798
 21254 60c9 07       		.byte	0x7
 21255 60ca 015E     		.2byte	0x15e
 21256 60cc 000060E0 		.4byte	0x60e0
 21257 60d0 66       		.uleb128 0x66
 21258 60d1 00005926 		.4byte	0x5926
 21259 60d5 66       		.uleb128 0x66
 21260 60d6 0000591A 		.4byte	0x591a
 21261 60da 66       		.uleb128 0x66
 21262 60db 00005910 		.4byte	0x5910
 21263 60df 00       		.byte	0x0
 21264 60e0 6F       		.uleb128 0x6f
 21265 60e1 00004680 		.4byte	0x4680
 21266 60e5 000007B8 		.4byte	.Ldebug_ranges0+0x7b8
 21267 60e9 07       		.byte	0x7
 21268 60ea 015E     		.2byte	0x15e
 21269 60ec 66       		.uleb128 0x66
 21270 60ed 0000469F 		.4byte	0x469f
 21271 60f1 6D       		.uleb128 0x6d
 21272 60f2 00004694 		.4byte	0x4694
 21273 60f6 000016A1 		.4byte	.LLST150
 21274 60fa 00       		.byte	0x0
 21275 60fb 00       		.byte	0x0
 21276 60fc 00       		.byte	0x0
 21277 60fd 00       		.byte	0x0
 21278 60fe 00       		.byte	0x0
 21279 60ff 5E       		.uleb128 0x5e
 21280 6100 00003B5D 		.4byte	0x3b5d
 21281 6104 01       		.byte	0x1
 21282 6105 01F0     		.2byte	0x1f0
 21283 6107 00001B8C 		.4byte	.LFB585
 21284 610b 00001BB8 		.4byte	.LFE585
 21285 610f 000016B4 		.4byte	.LLST151
 21286 6113 00006172 		.4byte	0x6172
 21287 6117 5F       		.uleb128 0x5f
 21288 6118 000028CC 		.4byte	.LASF749
 21289 611c 000047F5 		.4byte	0x47f5
 21290 6120 01       		.byte	0x1
 21291 6121 000016D3 		.4byte	.LLST152
 21292 6125 69       		.uleb128 0x69
 21293 6126 7800     		.string	"x"
 21294 6128 01       		.byte	0x1
 21295 6129 01F0     		.2byte	0x1f0
 21296 612b 00000A87 		.4byte	0xa87
 21297 612f 000016E6 		.4byte	.LLST153
 21298 6133 69       		.uleb128 0x69
 21299 6134 7900     		.string	"y"
 21300 6136 01       		.byte	0x1
 21301 6137 01F0     		.2byte	0x1f0
 21302 6139 00000A87 		.4byte	0xa87
 21303 613d 000016F9 		.4byte	.LLST154
 21304 6141 5C       		.uleb128 0x5c
 21305 6142 000026C2 		.4byte	.LASF759
 21306 6146 01       		.byte	0x1
 21307 6147 01F0     		.2byte	0x1f0
 21308 6149 0000232B 		.4byte	0x232b
 21309 614d 0000170C 		.4byte	.LLST155
 21310 6151 5C       		.uleb128 0x5c
 21311 6152 00003D3F 		.4byte	.LASF766
 21312 6156 01       		.byte	0x1
 21313 6157 01F0     		.2byte	0x1f0
 21314 6159 0000010A 		.4byte	0x10a
 21315 615d 0000171F 		.4byte	.LLST156
 21316 6161 5C       		.uleb128 0x5c
 21317 6162 00002B20 		.4byte	.LASF794
 21318 6166 01       		.byte	0x1
 21319 6167 01F0     		.2byte	0x1f0
 21320 6169 00000A92 		.4byte	0xa92
 21321 616d 00001749 		.4byte	.LLST157
 21322 6171 00       		.byte	0x0
 21323 6172 5E       		.uleb128 0x5e
 21324 6173 000038FC 		.4byte	0x38fc
 21325 6177 01       		.byte	0x1
 21326 6178 0144     		.2byte	0x144
 21327 617a 00001BB8 		.4byte	.LFB580
 21328 617e 00001C60 		.4byte	.LFE580
 21329 6182 0000175C 		.4byte	.LLST158
 21330 6186 000061C7 		.4byte	0x61c7
 21331 618a 5F       		.uleb128 0x5f
 21332 618b 000028CC 		.4byte	.LASF749
 21333 618f 000047F5 		.4byte	0x47f5
 21334 6193 01       		.byte	0x1
 21335 6194 0000177B 		.4byte	.LLST159
 21336 6198 62       		.uleb128 0x62
 21337 6199 6900     		.string	"i"
 21338 619b 01       		.byte	0x1
 21339 619c 0145     		.2byte	0x145
 21340 619e 00000A92 		.4byte	0xa92
 21341 61a2 00001799 		.4byte	.LLST160
 21342 61a6 6E       		.uleb128 0x6e
 21343 61a7 0000518B 		.4byte	.LASF787
 21344 61ab 01       		.byte	0x1
 21345 61ac 0146     		.2byte	0x146
 21346 61ae 00000F9B 		.4byte	0xf9b
 21347 61b2 000017AC 		.4byte	.LLST161
 21348 61b6 6E       		.uleb128 0x6e
 21349 61b7 00003F2E 		.4byte	.LASF786
 21350 61bb 01       		.byte	0x1
 21351 61bc 0147     		.2byte	0x147
 21352 61be 00000FB1 		.4byte	0xfb1
 21353 61c2 000017EE 		.4byte	.LLST162
 21354 61c6 00       		.byte	0x0
 21355 61c7 6C       		.uleb128 0x6c
 21356 61c8 00003AA7 		.4byte	0x3aa7
 21357 61cc 01       		.byte	0x1
 21358 61cd A2       		.byte	0xa2
 21359 61ce 00001C60 		.4byte	.LFB573
 21360 61d2 00001D20 		.4byte	.LFE573
 21361 61d6 00001817 		.4byte	.LLST163
 21362 61da 00006229 		.4byte	0x6229
 21363 61de 5F       		.uleb128 0x5f
 21364 61df 000028CC 		.4byte	.LASF749
 21365 61e3 000047F5 		.4byte	0x47f5
 21366 61e7 01       		.byte	0x1
 21367 61e8 00001836 		.4byte	.LLST164
 21368 61ec 59       		.uleb128 0x59
 21369 61ed 0000472B 		.4byte	.LASF800
 21370 61f1 01       		.byte	0x1
 21371 61f2 A2       		.byte	0xa2
 21372 61f3 00003C6E 		.4byte	0x3c6e
 21373 61f7 0000185F 		.4byte	.LLST165
 21374 61fb 59       		.uleb128 0x59
 21375 61fc 00004E3F 		.4byte	.LASF801
 21376 6200 01       		.byte	0x1
 21377 6201 A2       		.byte	0xa2
 21378 6202 00000FA6 		.4byte	0xfa6
 21379 6206 00001888 		.4byte	.LLST166
 21380 620a 59       		.uleb128 0x59
 21381 620b 00001690 		.4byte	.LASF778
 21382 620f 01       		.byte	0x1
 21383 6210 A2       		.byte	0xa2
 21384 6211 00000F9B 		.4byte	0xf9b
 21385 6215 000018B1 		.4byte	.LLST167
 21386 6219 59       		.uleb128 0x59
 21387 621a 0000385D 		.4byte	.LASF802
 21388 621e 01       		.byte	0x1
 21389 621f A2       		.byte	0xa2
 21390 6220 000000AF 		.4byte	0xaf
 21391 6224 000018DA 		.4byte	.LLST168
 21392 6228 00       		.byte	0x0
 21393 6229 6C       		.uleb128 0x6c
 21394 622a 00003AD8 		.4byte	0x3ad8
 21395 622e 01       		.byte	0x1
 21396 622f B9       		.byte	0xb9
 21397 6230 00001D20 		.4byte	.LFB574
 21398 6234 00001D40 		.4byte	.LFE574
 21399 6238 00001903 		.4byte	.LLST169
 21400 623c 0000628B 		.4byte	0x628b
 21401 6240 5F       		.uleb128 0x5f
 21402 6241 000028CC 		.4byte	.LASF749
 21403 6245 000047F5 		.4byte	0x47f5
 21404 6249 01       		.byte	0x1
 21405 624a 00001922 		.4byte	.LLST170
 21406 624e 59       		.uleb128 0x59
 21407 624f 0000472B 		.4byte	.LASF800
 21408 6253 01       		.byte	0x1
 21409 6254 B9       		.byte	0xb9
 21410 6255 00003C74 		.4byte	0x3c74
 21411 6259 00001935 		.4byte	.LLST171
 21412 625d 59       		.uleb128 0x59
 21413 625e 00004E3F 		.4byte	.LASF801
 21414 6262 01       		.byte	0x1
 21415 6263 B9       		.byte	0xb9
 21416 6264 00000FA6 		.4byte	0xfa6
 21417 6268 00001948 		.4byte	.LLST172
 21418 626c 59       		.uleb128 0x59
 21419 626d 00001690 		.4byte	.LASF778
 21420 6271 01       		.byte	0x1
 21421 6272 B9       		.byte	0xb9
 21422 6273 00000F9B 		.4byte	0xf9b
 21423 6277 0000195B 		.4byte	.LLST173
 21424 627b 59       		.uleb128 0x59
 21425 627c 0000385D 		.4byte	.LASF802
 21426 6280 01       		.byte	0x1
 21427 6281 B9       		.byte	0xb9
 21428 6282 000000AF 		.4byte	0xaf
 21429 6286 0000196E 		.4byte	.LLST174
 21430 628a 00       		.byte	0x0
 21431 628b 5A       		.uleb128 0x5a
 21432 628c 0000024D 		.4byte	.LASF803
 21433 6290 03       		.byte	0x3
 21434 6291 DC       		.byte	0xdc
 21435 6292 0000629C 		.4byte	0x629c
 21436 6296 05       		.byte	0x5
 21437 6297 03       		.byte	0x3
 21438 6298 00000000 		.4byte	ftgxWhite
 21439 629c 1D       		.uleb128 0x1d
 21440 629d 0000010A 		.4byte	0x10a
 21441 62a1 00       		.byte	0x0
 21442              		.section	.debug_abbrev
 21443 0000 01       		.uleb128 0x1
 21444 0001 11       		.uleb128 0x11
 21445 0002 01       		.byte	0x1
 21446 0003 25       		.uleb128 0x25
 21447 0004 0E       		.uleb128 0xe
 21448 0005 13       		.uleb128 0x13
 21449 0006 0B       		.uleb128 0xb
 21450 0007 03       		.uleb128 0x3
 21451 0008 0E       		.uleb128 0xe
 21452 0009 1B       		.uleb128 0x1b
 21453 000a 0E       		.uleb128 0xe
 21454 000b 52       		.uleb128 0x52
 21455 000c 01       		.uleb128 0x1
 21456 000d 10       		.uleb128 0x10
 21457 000e 06       		.uleb128 0x6
 21458 000f 00       		.byte	0x0
 21459 0010 00       		.byte	0x0
 21460 0011 02       		.uleb128 0x2
 21461 0012 16       		.uleb128 0x16
 21462 0013 00       		.byte	0x0
 21463 0014 03       		.uleb128 0x3
 21464 0015 08       		.uleb128 0x8
 21465 0016 3A       		.uleb128 0x3a
 21466 0017 0B       		.uleb128 0xb
 21467 0018 3B       		.uleb128 0x3b
 21468 0019 0B       		.uleb128 0xb
 21469 001a 49       		.uleb128 0x49
 21470 001b 13       		.uleb128 0x13
 21471 001c 00       		.byte	0x0
 21472 001d 00       		.byte	0x0
 21473 001e 03       		.uleb128 0x3
 21474 001f 24       		.uleb128 0x24
 21475 0020 00       		.byte	0x0
 21476 0021 0B       		.uleb128 0xb
 21477 0022 0B       		.uleb128 0xb
 21478 0023 3E       		.uleb128 0x3e
 21479 0024 0B       		.uleb128 0xb
 21480 0025 03       		.uleb128 0x3
 21481 0026 0E       		.uleb128 0xe
 21482 0027 00       		.byte	0x0
 21483 0028 00       		.byte	0x0
 21484 0029 04       		.uleb128 0x4
 21485 002a 24       		.uleb128 0x24
 21486 002b 00       		.byte	0x0
 21487 002c 0B       		.uleb128 0xb
 21488 002d 0B       		.uleb128 0xb
 21489 002e 3E       		.uleb128 0x3e
 21490 002f 0B       		.uleb128 0xb
 21491 0030 03       		.uleb128 0x3
 21492 0031 08       		.uleb128 0x8
 21493 0032 00       		.byte	0x0
 21494 0033 00       		.byte	0x0
 21495 0034 05       		.uleb128 0x5
 21496 0035 0F       		.uleb128 0xf
 21497 0036 00       		.byte	0x0
 21498 0037 0B       		.uleb128 0xb
 21499 0038 0B       		.uleb128 0xb
 21500 0039 49       		.uleb128 0x49
 21501 003a 13       		.uleb128 0x13
 21502 003b 00       		.byte	0x0
 21503 003c 00       		.byte	0x0
 21504 003d 06       		.uleb128 0x6
 21505 003e 15       		.uleb128 0x15
 21506 003f 00       		.byte	0x0
 21507 0040 00       		.byte	0x0
 21508 0041 00       		.byte	0x0
 21509 0042 07       		.uleb128 0x7
 21510 0043 24       		.uleb128 0x24
 21511 0044 00       		.byte	0x0
 21512 0045 0B       		.uleb128 0xb
 21513 0046 0B       		.uleb128 0xb
 21514 0047 3E       		.uleb128 0x3e
 21515 0048 0B       		.uleb128 0xb
 21516 0049 00       		.byte	0x0
 21517 004a 00       		.byte	0x0
 21518 004b 08       		.uleb128 0x8
 21519 004c 01       		.uleb128 0x1
 21520 004d 01       		.byte	0x1
 21521 004e 49       		.uleb128 0x49
 21522 004f 13       		.uleb128 0x13
 21523 0050 01       		.uleb128 0x1
 21524 0051 13       		.uleb128 0x13
 21525 0052 00       		.byte	0x0
 21526 0053 00       		.byte	0x0
 21527 0054 09       		.uleb128 0x9
 21528 0055 21       		.uleb128 0x21
 21529 0056 00       		.byte	0x0
 21530 0057 49       		.uleb128 0x49
 21531 0058 13       		.uleb128 0x13
 21532 0059 2F       		.uleb128 0x2f
 21533 005a 0B       		.uleb128 0xb
 21534 005b 00       		.byte	0x0
 21535 005c 00       		.byte	0x0
 21536 005d 0A       		.uleb128 0xa
 21537 005e 0F       		.uleb128 0xf
 21538 005f 00       		.byte	0x0
 21539 0060 0B       		.uleb128 0xb
 21540 0061 0B       		.uleb128 0xb
 21541 0062 00       		.byte	0x0
 21542 0063 00       		.byte	0x0
 21543 0064 0B       		.uleb128 0xb
 21544 0065 13       		.uleb128 0x13
 21545 0066 01       		.byte	0x1
 21546 0067 03       		.uleb128 0x3
 21547 0068 0E       		.uleb128 0xe
 21548 0069 0B       		.uleb128 0xb
 21549 006a 0B       		.uleb128 0xb
 21550 006b 3A       		.uleb128 0x3a
 21551 006c 0B       		.uleb128 0xb
 21552 006d 3B       		.uleb128 0x3b
 21553 006e 05       		.uleb128 0x5
 21554 006f 01       		.uleb128 0x1
 21555 0070 13       		.uleb128 0x13
 21556 0071 00       		.byte	0x0
 21557 0072 00       		.byte	0x0
 21558 0073 0C       		.uleb128 0xc
 21559 0074 0D       		.uleb128 0xd
 21560 0075 00       		.byte	0x0
 21561 0076 03       		.uleb128 0x3
 21562 0077 08       		.uleb128 0x8
 21563 0078 3A       		.uleb128 0x3a
 21564 0079 0B       		.uleb128 0xb
 21565 007a 3B       		.uleb128 0x3b
 21566 007b 05       		.uleb128 0x5
 21567 007c 49       		.uleb128 0x49
 21568 007d 13       		.uleb128 0x13
 21569 007e 38       		.uleb128 0x38
 21570 007f 0A       		.uleb128 0xa
 21571 0080 00       		.byte	0x0
 21572 0081 00       		.byte	0x0
 21573 0082 0D       		.uleb128 0xd
 21574 0083 16       		.uleb128 0x16
 21575 0084 00       		.byte	0x0
 21576 0085 03       		.uleb128 0x3
 21577 0086 0E       		.uleb128 0xe
 21578 0087 3A       		.uleb128 0x3a
 21579 0088 0B       		.uleb128 0xb
 21580 0089 3B       		.uleb128 0x3b
 21581 008a 05       		.uleb128 0x5
 21582 008b 49       		.uleb128 0x49
 21583 008c 13       		.uleb128 0x13
 21584 008d 00       		.byte	0x0
 21585 008e 00       		.byte	0x0
 21586 008f 0E       		.uleb128 0xe
 21587 0090 16       		.uleb128 0x16
 21588 0091 00       		.byte	0x0
 21589 0092 03       		.uleb128 0x3
 21590 0093 0E       		.uleb128 0xe
 21591 0094 3A       		.uleb128 0x3a
 21592 0095 0B       		.uleb128 0xb
 21593 0096 3B       		.uleb128 0x3b
 21594 0097 0B       		.uleb128 0xb
 21595 0098 49       		.uleb128 0x49
 21596 0099 13       		.uleb128 0x13
 21597 009a 00       		.byte	0x0
 21598 009b 00       		.byte	0x0
 21599 009c 0F       		.uleb128 0xf
 21600 009d 13       		.uleb128 0x13
 21601 009e 01       		.byte	0x1
 21602 009f 03       		.uleb128 0x3
 21603 00a0 08       		.uleb128 0x8
 21604 00a1 0B       		.uleb128 0xb
 21605 00a2 0B       		.uleb128 0xb
 21606 00a3 3A       		.uleb128 0x3a
 21607 00a4 0B       		.uleb128 0xb
 21608 00a5 3B       		.uleb128 0x3b
 21609 00a6 0B       		.uleb128 0xb
 21610 00a7 01       		.uleb128 0x1
 21611 00a8 13       		.uleb128 0x13
 21612 00a9 00       		.byte	0x0
 21613 00aa 00       		.byte	0x0
 21614 00ab 10       		.uleb128 0x10
 21615 00ac 17       		.uleb128 0x17
 21616 00ad 01       		.byte	0x1
 21617 00ae 03       		.uleb128 0x3
 21618 00af 08       		.uleb128 0x8
 21619 00b0 0B       		.uleb128 0xb
 21620 00b1 0B       		.uleb128 0xb
 21621 00b2 3A       		.uleb128 0x3a
 21622 00b3 0B       		.uleb128 0xb
 21623 00b4 3B       		.uleb128 0x3b
 21624 00b5 0B       		.uleb128 0xb
 21625 00b6 01       		.uleb128 0x1
 21626 00b7 13       		.uleb128 0x13
 21627 00b8 00       		.byte	0x0
 21628 00b9 00       		.byte	0x0
 21629 00ba 11       		.uleb128 0x11
 21630 00bb 0D       		.uleb128 0xd
 21631 00bc 00       		.byte	0x0
 21632 00bd 03       		.uleb128 0x3
 21633 00be 0E       		.uleb128 0xe
 21634 00bf 3A       		.uleb128 0x3a
 21635 00c0 0B       		.uleb128 0xb
 21636 00c1 3B       		.uleb128 0x3b
 21637 00c2 0B       		.uleb128 0xb
 21638 00c3 49       		.uleb128 0x49
 21639 00c4 13       		.uleb128 0x13
 21640 00c5 00       		.byte	0x0
 21641 00c6 00       		.byte	0x0
 21642 00c7 12       		.uleb128 0x12
 21643 00c8 0D       		.uleb128 0xd
 21644 00c9 00       		.byte	0x0
 21645 00ca 03       		.uleb128 0x3
 21646 00cb 0E       		.uleb128 0xe
 21647 00cc 3A       		.uleb128 0x3a
 21648 00cd 0B       		.uleb128 0xb
 21649 00ce 3B       		.uleb128 0x3b
 21650 00cf 0B       		.uleb128 0xb
 21651 00d0 49       		.uleb128 0x49
 21652 00d1 13       		.uleb128 0x13
 21653 00d2 38       		.uleb128 0x38
 21654 00d3 0A       		.uleb128 0xa
 21655 00d4 00       		.byte	0x0
 21656 00d5 00       		.byte	0x0
 21657 00d6 13       		.uleb128 0x13
 21658 00d7 13       		.uleb128 0x13
 21659 00d8 01       		.byte	0x1
 21660 00d9 03       		.uleb128 0x3
 21661 00da 0E       		.uleb128 0xe
 21662 00db 0B       		.uleb128 0xb
 21663 00dc 0B       		.uleb128 0xb
 21664 00dd 3A       		.uleb128 0x3a
 21665 00de 0B       		.uleb128 0xb
 21666 00df 3B       		.uleb128 0x3b
 21667 00e0 0B       		.uleb128 0xb
 21668 00e1 01       		.uleb128 0x1
 21669 00e2 13       		.uleb128 0x13
 21670 00e3 00       		.byte	0x0
 21671 00e4 00       		.byte	0x0
 21672 00e5 14       		.uleb128 0x14
 21673 00e6 0D       		.uleb128 0xd
 21674 00e7 00       		.byte	0x0
 21675 00e8 03       		.uleb128 0x3
 21676 00e9 08       		.uleb128 0x8
 21677 00ea 3A       		.uleb128 0x3a
 21678 00eb 0B       		.uleb128 0xb
 21679 00ec 3B       		.uleb128 0x3b
 21680 00ed 0B       		.uleb128 0xb
 21681 00ee 49       		.uleb128 0x49
 21682 00ef 13       		.uleb128 0x13
 21683 00f0 38       		.uleb128 0x38
 21684 00f1 0A       		.uleb128 0xa
 21685 00f2 00       		.byte	0x0
 21686 00f3 00       		.byte	0x0
 21687 00f4 15       		.uleb128 0x15
 21688 00f5 13       		.uleb128 0x13
 21689 00f6 01       		.byte	0x1
 21690 00f7 03       		.uleb128 0x3
 21691 00f8 0E       		.uleb128 0xe
 21692 00f9 0B       		.uleb128 0xb
 21693 00fa 05       		.uleb128 0x5
 21694 00fb 3A       		.uleb128 0x3a
 21695 00fc 0B       		.uleb128 0xb
 21696 00fd 3B       		.uleb128 0x3b
 21697 00fe 0B       		.uleb128 0xb
 21698 00ff 01       		.uleb128 0x1
 21699 0100 13       		.uleb128 0x13
 21700 0101 00       		.byte	0x0
 21701 0102 00       		.byte	0x0
 21702 0103 16       		.uleb128 0x16
 21703 0104 15       		.uleb128 0x15
 21704 0105 01       		.byte	0x1
 21705 0106 49       		.uleb128 0x49
 21706 0107 13       		.uleb128 0x13
 21707 0108 01       		.uleb128 0x1
 21708 0109 13       		.uleb128 0x13
 21709 010a 00       		.byte	0x0
 21710 010b 00       		.byte	0x0
 21711 010c 17       		.uleb128 0x17
 21712 010d 05       		.uleb128 0x5
 21713 010e 00       		.byte	0x0
 21714 010f 49       		.uleb128 0x49
 21715 0110 13       		.uleb128 0x13
 21716 0111 00       		.byte	0x0
 21717 0112 00       		.byte	0x0
 21718 0113 18       		.uleb128 0x18
 21719 0114 13       		.uleb128 0x13
 21720 0115 01       		.byte	0x1
 21721 0116 03       		.uleb128 0x3
 21722 0117 0E       		.uleb128 0xe
 21723 0118 0B       		.uleb128 0xb
 21724 0119 05       		.uleb128 0x5
 21725 011a 3A       		.uleb128 0x3a
 21726 011b 0B       		.uleb128 0xb
 21727 011c 3B       		.uleb128 0x3b
 21728 011d 05       		.uleb128 0x5
 21729 011e 01       		.uleb128 0x1
 21730 011f 13       		.uleb128 0x13
 21731 0120 00       		.byte	0x0
 21732 0121 00       		.byte	0x0
 21733 0122 19       		.uleb128 0x19
 21734 0123 17       		.uleb128 0x17
 21735 0124 01       		.byte	0x1
 21736 0125 03       		.uleb128 0x3
 21737 0126 08       		.uleb128 0x8
 21738 0127 0B       		.uleb128 0xb
 21739 0128 0B       		.uleb128 0xb
 21740 0129 3A       		.uleb128 0x3a
 21741 012a 0B       		.uleb128 0xb
 21742 012b 3B       		.uleb128 0x3b
 21743 012c 05       		.uleb128 0x5
 21744 012d 01       		.uleb128 0x1
 21745 012e 13       		.uleb128 0x13
 21746 012f 00       		.byte	0x0
 21747 0130 00       		.byte	0x0
 21748 0131 1A       		.uleb128 0x1a
 21749 0132 13       		.uleb128 0x13
 21750 0133 01       		.byte	0x1
 21751 0134 03       		.uleb128 0x3
 21752 0135 08       		.uleb128 0x8
 21753 0136 0B       		.uleb128 0xb
 21754 0137 0B       		.uleb128 0xb
 21755 0138 3A       		.uleb128 0x3a
 21756 0139 0B       		.uleb128 0xb
 21757 013a 3B       		.uleb128 0x3b
 21758 013b 05       		.uleb128 0x5
 21759 013c 01       		.uleb128 0x1
 21760 013d 13       		.uleb128 0x13
 21761 013e 00       		.byte	0x0
 21762 013f 00       		.byte	0x0
 21763 0140 1B       		.uleb128 0x1b
 21764 0141 0D       		.uleb128 0xd
 21765 0142 00       		.byte	0x0
 21766 0143 03       		.uleb128 0x3
 21767 0144 0E       		.uleb128 0xe
 21768 0145 3A       		.uleb128 0x3a
 21769 0146 0B       		.uleb128 0xb
 21770 0147 3B       		.uleb128 0x3b
 21771 0148 05       		.uleb128 0x5
 21772 0149 49       		.uleb128 0x49
 21773 014a 13       		.uleb128 0x13
 21774 014b 38       		.uleb128 0x38
 21775 014c 0A       		.uleb128 0xa
 21776 014d 00       		.byte	0x0
 21777 014e 00       		.byte	0x0
 21778 014f 1C       		.uleb128 0x1c
 21779 0150 0D       		.uleb128 0xd
 21780 0151 00       		.byte	0x0
 21781 0152 03       		.uleb128 0x3
 21782 0153 0E       		.uleb128 0xe
 21783 0154 3A       		.uleb128 0x3a
 21784 0155 0B       		.uleb128 0xb
 21785 0156 3B       		.uleb128 0x3b
 21786 0157 05       		.uleb128 0x5
 21787 0158 49       		.uleb128 0x49
 21788 0159 13       		.uleb128 0x13
 21789 015a 00       		.byte	0x0
 21790 015b 00       		.byte	0x0
 21791 015c 1D       		.uleb128 0x1d
 21792 015d 26       		.uleb128 0x26
 21793 015e 00       		.byte	0x0
 21794 015f 49       		.uleb128 0x49
 21795 0160 13       		.uleb128 0x13
 21796 0161 00       		.byte	0x0
 21797 0162 00       		.byte	0x0
 21798 0163 1E       		.uleb128 0x1e
 21799 0164 15       		.uleb128 0x15
 21800 0165 01       		.byte	0x1
 21801 0166 01       		.uleb128 0x1
 21802 0167 13       		.uleb128 0x13
 21803 0168 00       		.byte	0x0
 21804 0169 00       		.byte	0x0
 21805 016a 1F       		.uleb128 0x1f
 21806 016b 26       		.uleb128 0x26
 21807 016c 00       		.byte	0x0
 21808 016d 00       		.byte	0x0
 21809 016e 00       		.byte	0x0
 21810 016f 20       		.uleb128 0x20
 21811 0170 17       		.uleb128 0x17
 21812 0171 01       		.byte	0x1
 21813 0172 03       		.uleb128 0x3
 21814 0173 0E       		.uleb128 0xe
 21815 0174 0B       		.uleb128 0xb
 21816 0175 0B       		.uleb128 0xb
 21817 0176 3A       		.uleb128 0x3a
 21818 0177 0B       		.uleb128 0xb
 21819 0178 3B       		.uleb128 0x3b
 21820 0179 0B       		.uleb128 0xb
 21821 017a 01       		.uleb128 0x1
 21822 017b 13       		.uleb128 0x13
 21823 017c 00       		.byte	0x0
 21824 017d 00       		.byte	0x0
 21825 017e 21       		.uleb128 0x21
 21826 017f 04       		.uleb128 0x4
 21827 0180 01       		.byte	0x1
 21828 0181 03       		.uleb128 0x3
 21829 0182 0E       		.uleb128 0xe
 21830 0183 0B       		.uleb128 0xb
 21831 0184 0B       		.uleb128 0xb
 21832 0185 3A       		.uleb128 0x3a
 21833 0186 0B       		.uleb128 0xb
 21834 0187 3B       		.uleb128 0x3b
 21835 0188 05       		.uleb128 0x5
 21836 0189 01       		.uleb128 0x1
 21837 018a 13       		.uleb128 0x13
 21838 018b 00       		.byte	0x0
 21839 018c 00       		.byte	0x0
 21840 018d 22       		.uleb128 0x22
 21841 018e 28       		.uleb128 0x28
 21842 018f 00       		.byte	0x0
 21843 0190 03       		.uleb128 0x3
 21844 0191 0E       		.uleb128 0xe
 21845 0192 1C       		.uleb128 0x1c
 21846 0193 0D       		.uleb128 0xd
 21847 0194 00       		.byte	0x0
 21848 0195 00       		.byte	0x0
 21849 0196 23       		.uleb128 0x23
 21850 0197 13       		.uleb128 0x13
 21851 0198 00       		.byte	0x0
 21852 0199 03       		.uleb128 0x3
 21853 019a 0E       		.uleb128 0xe
 21854 019b 3C       		.uleb128 0x3c
 21855 019c 0C       		.uleb128 0xc
 21856 019d 00       		.byte	0x0
 21857 019e 00       		.byte	0x0
 21858 019f 24       		.uleb128 0x24
 21859 01a0 39       		.uleb128 0x39
 21860 01a1 01       		.byte	0x1
 21861 01a2 03       		.uleb128 0x3
 21862 01a3 08       		.uleb128 0x8
 21863 01a4 3A       		.uleb128 0x3a
 21864 01a5 0B       		.uleb128 0xb
 21865 01a6 3B       		.uleb128 0x3b
 21866 01a7 0B       		.uleb128 0xb
 21867 01a8 01       		.uleb128 0x1
 21868 01a9 13       		.uleb128 0x13
 21869 01aa 00       		.byte	0x0
 21870 01ab 00       		.byte	0x0
 21871 01ac 25       		.uleb128 0x25
 21872 01ad 08       		.uleb128 0x8
 21873 01ae 00       		.byte	0x0
 21874 01af 3A       		.uleb128 0x3a
 21875 01b0 0B       		.uleb128 0xb
 21876 01b1 3B       		.uleb128 0x3b
 21877 01b2 0B       		.uleb128 0xb
 21878 01b3 18       		.uleb128 0x18
 21879 01b4 13       		.uleb128 0x13
 21880 01b5 00       		.byte	0x0
 21881 01b6 00       		.byte	0x0
 21882 01b7 26       		.uleb128 0x26
 21883 01b8 39       		.uleb128 0x39
 21884 01b9 00       		.byte	0x0
 21885 01ba 03       		.uleb128 0x3
 21886 01bb 0E       		.uleb128 0xe
 21887 01bc 3A       		.uleb128 0x3a
 21888 01bd 0B       		.uleb128 0xb
 21889 01be 3B       		.uleb128 0x3b
 21890 01bf 0B       		.uleb128 0xb
 21891 01c0 00       		.byte	0x0
 21892 01c1 00       		.byte	0x0
 21893 01c2 27       		.uleb128 0x27
 21894 01c3 04       		.uleb128 0x4
 21895 01c4 01       		.byte	0x1
 21896 01c5 03       		.uleb128 0x3
 21897 01c6 0E       		.uleb128 0xe
 21898 01c7 0B       		.uleb128 0xb
 21899 01c8 0B       		.uleb128 0xb
 21900 01c9 3A       		.uleb128 0x3a
 21901 01ca 0B       		.uleb128 0xb
 21902 01cb 3B       		.uleb128 0x3b
 21903 01cc 0B       		.uleb128 0xb
 21904 01cd 01       		.uleb128 0x1
 21905 01ce 13       		.uleb128 0x13
 21906 01cf 00       		.byte	0x0
 21907 01d0 00       		.byte	0x0
 21908 01d1 28       		.uleb128 0x28
 21909 01d2 13       		.uleb128 0x13
 21910 01d3 01       		.byte	0x1
 21911 01d4 03       		.uleb128 0x3
 21912 01d5 0E       		.uleb128 0xe
 21913 01d6 3C       		.uleb128 0x3c
 21914 01d7 0C       		.uleb128 0xc
 21915 01d8 01       		.uleb128 0x1
 21916 01d9 13       		.uleb128 0x13
 21917 01da 00       		.byte	0x0
 21918 01db 00       		.byte	0x0
 21919 01dc 29       		.uleb128 0x29
 21920 01dd 13       		.uleb128 0x13
 21921 01de 01       		.byte	0x1
 21922 01df 03       		.uleb128 0x3
 21923 01e0 0E       		.uleb128 0xe
 21924 01e1 0B       		.uleb128 0xb
 21925 01e2 0B       		.uleb128 0xb
 21926 01e3 3A       		.uleb128 0x3a
 21927 01e4 0B       		.uleb128 0xb
 21928 01e5 3B       		.uleb128 0x3b
 21929 01e6 05       		.uleb128 0x5
 21930 01e7 00       		.byte	0x0
 21931 01e8 00       		.byte	0x0
 21932 01e9 2A       		.uleb128 0x2a
 21933 01ea 1C       		.uleb128 0x1c
 21934 01eb 00       		.byte	0x0
 21935 01ec 49       		.uleb128 0x49
 21936 01ed 13       		.uleb128 0x13
 21937 01ee 38       		.uleb128 0x38
 21938 01ef 0A       		.uleb128 0xa
 21939 01f0 32       		.uleb128 0x32
 21940 01f1 0B       		.uleb128 0xb
 21941 01f2 00       		.byte	0x0
 21942 01f3 00       		.byte	0x0
 21943 01f4 2B       		.uleb128 0x2b
 21944 01f5 2E       		.uleb128 0x2e
 21945 01f6 01       		.byte	0x1
 21946 01f7 3F       		.uleb128 0x3f
 21947 01f8 0C       		.uleb128 0xc
 21948 01f9 03       		.uleb128 0x3
 21949 01fa 0E       		.uleb128 0xe
 21950 01fb 3A       		.uleb128 0x3a
 21951 01fc 0B       		.uleb128 0xb
 21952 01fd 3B       		.uleb128 0x3b
 21953 01fe 05       		.uleb128 0x5
 21954 01ff 3C       		.uleb128 0x3c
 21955 0200 0C       		.uleb128 0xc
 21956 0201 01       		.uleb128 0x1
 21957 0202 13       		.uleb128 0x13
 21958 0203 00       		.byte	0x0
 21959 0204 00       		.byte	0x0
 21960 0205 2C       		.uleb128 0x2c
 21961 0206 05       		.uleb128 0x5
 21962 0207 00       		.byte	0x0
 21963 0208 49       		.uleb128 0x49
 21964 0209 13       		.uleb128 0x13
 21965 020a 34       		.uleb128 0x34
 21966 020b 0C       		.uleb128 0xc
 21967 020c 00       		.byte	0x0
 21968 020d 00       		.byte	0x0
 21969 020e 2D       		.uleb128 0x2d
 21970 020f 2E       		.uleb128 0x2e
 21971 0210 01       		.byte	0x1
 21972 0211 3F       		.uleb128 0x3f
 21973 0212 0C       		.uleb128 0xc
 21974 0213 03       		.uleb128 0x3
 21975 0214 0E       		.uleb128 0xe
 21976 0215 34       		.uleb128 0x34
 21977 0216 0C       		.uleb128 0xc
 21978 0217 3C       		.uleb128 0x3c
 21979 0218 0C       		.uleb128 0xc
 21980 0219 00       		.byte	0x0
 21981 021a 00       		.byte	0x0
 21982 021b 2E       		.uleb128 0x2e
 21983 021c 2E       		.uleb128 0x2e
 21984 021d 01       		.byte	0x1
 21985 021e 3F       		.uleb128 0x3f
 21986 021f 0C       		.uleb128 0xc
 21987 0220 03       		.uleb128 0x3
 21988 0221 0E       		.uleb128 0xe
 21989 0222 3A       		.uleb128 0x3a
 21990 0223 0B       		.uleb128 0xb
 21991 0224 3B       		.uleb128 0x3b
 21992 0225 0B       		.uleb128 0xb
 21993 0226 49       		.uleb128 0x49
 21994 0227 13       		.uleb128 0x13
 21995 0228 3C       		.uleb128 0x3c
 21996 0229 0C       		.uleb128 0xc
 21997 022a 01       		.uleb128 0x1
 21998 022b 13       		.uleb128 0x13
 21999 022c 00       		.byte	0x0
 22000 022d 00       		.byte	0x0
 22001 022e 2F       		.uleb128 0x2f
 22002 022f 2E       		.uleb128 0x2e
 22003 0230 01       		.byte	0x1
 22004 0231 3F       		.uleb128 0x3f
 22005 0232 0C       		.uleb128 0xc
 22006 0233 03       		.uleb128 0x3
 22007 0234 08       		.uleb128 0x8
 22008 0235 3A       		.uleb128 0x3a
 22009 0236 0B       		.uleb128 0xb
 22010 0237 3B       		.uleb128 0x3b
 22011 0238 0B       		.uleb128 0xb
 22012 0239 49       		.uleb128 0x49
 22013 023a 13       		.uleb128 0x13
 22014 023b 3C       		.uleb128 0x3c
 22015 023c 0C       		.uleb128 0xc
 22016 023d 01       		.uleb128 0x1
 22017 023e 13       		.uleb128 0x13
 22018 023f 00       		.byte	0x0
 22019 0240 00       		.byte	0x0
 22020 0241 30       		.uleb128 0x30
 22021 0242 2E       		.uleb128 0x2e
 22022 0243 01       		.byte	0x1
 22023 0244 3F       		.uleb128 0x3f
 22024 0245 0C       		.uleb128 0xc
 22025 0246 03       		.uleb128 0x3
 22026 0247 0E       		.uleb128 0xe
 22027 0248 3A       		.uleb128 0x3a
 22028 0249 0B       		.uleb128 0xb
 22029 024a 3B       		.uleb128 0x3b
 22030 024b 0B       		.uleb128 0xb
 22031 024c 3C       		.uleb128 0x3c
 22032 024d 0C       		.uleb128 0xc
 22033 024e 01       		.uleb128 0x1
 22034 024f 13       		.uleb128 0x13
 22035 0250 00       		.byte	0x0
 22036 0251 00       		.byte	0x0
 22037 0252 31       		.uleb128 0x31
 22038 0253 2E       		.uleb128 0x2e
 22039 0254 00       		.byte	0x0
 22040 0255 3F       		.uleb128 0x3f
 22041 0256 0C       		.uleb128 0xc
 22042 0257 03       		.uleb128 0x3
 22043 0258 0E       		.uleb128 0xe
 22044 0259 3A       		.uleb128 0x3a
 22045 025a 0B       		.uleb128 0xb
 22046 025b 3B       		.uleb128 0x3b
 22047 025c 0B       		.uleb128 0xb
 22048 025d 49       		.uleb128 0x49
 22049 025e 13       		.uleb128 0x13
 22050 025f 3C       		.uleb128 0x3c
 22051 0260 0C       		.uleb128 0xc
 22052 0261 00       		.byte	0x0
 22053 0262 00       		.byte	0x0
 22054 0263 32       		.uleb128 0x32
 22055 0264 39       		.uleb128 0x39
 22056 0265 01       		.byte	0x1
 22057 0266 03       		.uleb128 0x3
 22058 0267 0E       		.uleb128 0xe
 22059 0268 3A       		.uleb128 0x3a
 22060 0269 0B       		.uleb128 0xb
 22061 026a 3B       		.uleb128 0x3b
 22062 026b 0B       		.uleb128 0xb
 22063 026c 01       		.uleb128 0x1
 22064 026d 13       		.uleb128 0x13
 22065 026e 00       		.byte	0x0
 22066 026f 00       		.byte	0x0
 22067 0270 33       		.uleb128 0x33
 22068 0271 3A       		.uleb128 0x3a
 22069 0272 00       		.byte	0x0
 22070 0273 3A       		.uleb128 0x3a
 22071 0274 0B       		.uleb128 0xb
 22072 0275 3B       		.uleb128 0x3b
 22073 0276 0B       		.uleb128 0xb
 22074 0277 18       		.uleb128 0x18
 22075 0278 13       		.uleb128 0x13
 22076 0279 00       		.byte	0x0
 22077 027a 00       		.byte	0x0
 22078 027b 34       		.uleb128 0x34
 22079 027c 10       		.uleb128 0x10
 22080 027d 00       		.byte	0x0
 22081 027e 0B       		.uleb128 0xb
 22082 027f 0B       		.uleb128 0xb
 22083 0280 49       		.uleb128 0x49
 22084 0281 13       		.uleb128 0x13
 22085 0282 00       		.byte	0x0
 22086 0283 00       		.byte	0x0
 22087 0284 35       		.uleb128 0x35
 22088 0285 13       		.uleb128 0x13
 22089 0286 01       		.byte	0x1
 22090 0287 47       		.uleb128 0x47
 22091 0288 13       		.uleb128 0x13
 22092 0289 0B       		.uleb128 0xb
 22093 028a 0B       		.uleb128 0xb
 22094 028b 3A       		.uleb128 0x3a
 22095 028c 0B       		.uleb128 0xb
 22096 028d 3B       		.uleb128 0x3b
 22097 028e 0B       		.uleb128 0xb
 22098 028f 01       		.uleb128 0x1
 22099 0290 13       		.uleb128 0x13
 22100 0291 00       		.byte	0x0
 22101 0292 00       		.byte	0x0
 22102 0293 36       		.uleb128 0x36
 22103 0294 2E       		.uleb128 0x2e
 22104 0295 01       		.byte	0x1
 22105 0296 3F       		.uleb128 0x3f
 22106 0297 0C       		.uleb128 0xc
 22107 0298 03       		.uleb128 0x3
 22108 0299 0E       		.uleb128 0xe
 22109 029a 3A       		.uleb128 0x3a
 22110 029b 0B       		.uleb128 0xb
 22111 029c 3B       		.uleb128 0x3b
 22112 029d 0B       		.uleb128 0xb
 22113 029e 8740     		.uleb128 0x2007
 22114 02a0 0E       		.uleb128 0xe
 22115 02a1 49       		.uleb128 0x49
 22116 02a2 13       		.uleb128 0x13
 22117 02a3 3C       		.uleb128 0x3c
 22118 02a4 0C       		.uleb128 0xc
 22119 02a5 01       		.uleb128 0x1
 22120 02a6 13       		.uleb128 0x13
 22121 02a7 00       		.byte	0x0
 22122 02a8 00       		.byte	0x0
 22123 02a9 37       		.uleb128 0x37
 22124 02aa 2E       		.uleb128 0x2e
 22125 02ab 01       		.byte	0x1
 22126 02ac 3F       		.uleb128 0x3f
 22127 02ad 0C       		.uleb128 0xc
 22128 02ae 03       		.uleb128 0x3
 22129 02af 0E       		.uleb128 0xe
 22130 02b0 3A       		.uleb128 0x3a
 22131 02b1 0B       		.uleb128 0xb
 22132 02b2 3B       		.uleb128 0x3b
 22133 02b3 0B       		.uleb128 0xb
 22134 02b4 8740     		.uleb128 0x2007
 22135 02b6 0E       		.uleb128 0xe
 22136 02b7 49       		.uleb128 0x49
 22137 02b8 13       		.uleb128 0x13
 22138 02b9 3C       		.uleb128 0x3c
 22139 02ba 0C       		.uleb128 0xc
 22140 02bb 00       		.byte	0x0
 22141 02bc 00       		.byte	0x0
 22142 02bd 38       		.uleb128 0x38
 22143 02be 2E       		.uleb128 0x2e
 22144 02bf 01       		.byte	0x1
 22145 02c0 3F       		.uleb128 0x3f
 22146 02c1 0C       		.uleb128 0xc
 22147 02c2 03       		.uleb128 0x3
 22148 02c3 0E       		.uleb128 0xe
 22149 02c4 3A       		.uleb128 0x3a
 22150 02c5 0B       		.uleb128 0xb
 22151 02c6 3B       		.uleb128 0x3b
 22152 02c7 0B       		.uleb128 0xb
 22153 02c8 8740     		.uleb128 0x2007
 22154 02ca 0E       		.uleb128 0xe
 22155 02cb 3C       		.uleb128 0x3c
 22156 02cc 0C       		.uleb128 0xc
 22157 02cd 01       		.uleb128 0x1
 22158 02ce 13       		.uleb128 0x13
 22159 02cf 00       		.byte	0x0
 22160 02d0 00       		.byte	0x0
 22161 02d1 39       		.uleb128 0x39
 22162 02d2 2E       		.uleb128 0x2e
 22163 02d3 01       		.byte	0x1
 22164 02d4 3F       		.uleb128 0x3f
 22165 02d5 0C       		.uleb128 0xc
 22166 02d6 03       		.uleb128 0x3
 22167 02d7 0E       		.uleb128 0xe
 22168 02d8 3A       		.uleb128 0x3a
 22169 02d9 0B       		.uleb128 0xb
 22170 02da 3B       		.uleb128 0x3b
 22171 02db 0B       		.uleb128 0xb
 22172 02dc 8740     		.uleb128 0x2007
 22173 02de 0E       		.uleb128 0xe
 22174 02df 3C       		.uleb128 0x3c
 22175 02e0 0C       		.uleb128 0xc
 22176 02e1 00       		.byte	0x0
 22177 02e2 00       		.byte	0x0
 22178 02e3 3A       		.uleb128 0x3a
 22179 02e4 2E       		.uleb128 0x2e
 22180 02e5 01       		.byte	0x1
 22181 02e6 3F       		.uleb128 0x3f
 22182 02e7 0C       		.uleb128 0xc
 22183 02e8 03       		.uleb128 0x3
 22184 02e9 0E       		.uleb128 0xe
 22185 02ea 3A       		.uleb128 0x3a
 22186 02eb 0B       		.uleb128 0xb
 22187 02ec 3B       		.uleb128 0x3b
 22188 02ed 0B       		.uleb128 0xb
 22189 02ee 3C       		.uleb128 0x3c
 22190 02ef 0C       		.uleb128 0xc
 22191 02f0 00       		.byte	0x0
 22192 02f1 00       		.byte	0x0
 22193 02f2 3B       		.uleb128 0x3b
 22194 02f3 13       		.uleb128 0x13
 22195 02f4 00       		.byte	0x0
 22196 02f5 47       		.uleb128 0x47
 22197 02f6 13       		.uleb128 0x13
 22198 02f7 0B       		.uleb128 0xb
 22199 02f8 0B       		.uleb128 0xb
 22200 02f9 3A       		.uleb128 0x3a
 22201 02fa 0B       		.uleb128 0xb
 22202 02fb 3B       		.uleb128 0x3b
 22203 02fc 0B       		.uleb128 0xb
 22204 02fd 00       		.byte	0x0
 22205 02fe 00       		.byte	0x0
 22206 02ff 3C       		.uleb128 0x3c
 22207 0300 13       		.uleb128 0x13
 22208 0301 01       		.byte	0x1
 22209 0302 47       		.uleb128 0x47
 22210 0303 13       		.uleb128 0x13
 22211 0304 0B       		.uleb128 0xb
 22212 0305 0B       		.uleb128 0xb
 22213 0306 3A       		.uleb128 0x3a
 22214 0307 0B       		.uleb128 0xb
 22215 0308 3B       		.uleb128 0x3b
 22216 0309 05       		.uleb128 0x5
 22217 030a 01       		.uleb128 0x1
 22218 030b 13       		.uleb128 0x13
 22219 030c 00       		.byte	0x0
 22220 030d 00       		.byte	0x0
 22221 030e 3D       		.uleb128 0x3d
 22222 030f 0D       		.uleb128 0xd
 22223 0310 00       		.byte	0x0
 22224 0311 03       		.uleb128 0x3
 22225 0312 0E       		.uleb128 0xe
 22226 0313 3A       		.uleb128 0x3a
 22227 0314 0B       		.uleb128 0xb
 22228 0315 3B       		.uleb128 0x3b
 22229 0316 05       		.uleb128 0x5
 22230 0317 49       		.uleb128 0x49
 22231 0318 13       		.uleb128 0x13
 22232 0319 38       		.uleb128 0x38
 22233 031a 0A       		.uleb128 0xa
 22234 031b 32       		.uleb128 0x32
 22235 031c 0B       		.uleb128 0xb
 22236 031d 00       		.byte	0x0
 22237 031e 00       		.byte	0x0
 22238 031f 3E       		.uleb128 0x3e
 22239 0320 2E       		.uleb128 0x2e
 22240 0321 01       		.byte	0x1
 22241 0322 3F       		.uleb128 0x3f
 22242 0323 0C       		.uleb128 0xc
 22243 0324 03       		.uleb128 0x3
 22244 0325 0E       		.uleb128 0xe
 22245 0326 3A       		.uleb128 0x3a
 22246 0327 0B       		.uleb128 0xb
 22247 0328 3B       		.uleb128 0x3b
 22248 0329 05       		.uleb128 0x5
 22249 032a 8740     		.uleb128 0x2007
 22250 032c 0E       		.uleb128 0xe
 22251 032d 49       		.uleb128 0x49
 22252 032e 13       		.uleb128 0x13
 22253 032f 3C       		.uleb128 0x3c
 22254 0330 0C       		.uleb128 0xc
 22255 0331 01       		.uleb128 0x1
 22256 0332 13       		.uleb128 0x13
 22257 0333 00       		.byte	0x0
 22258 0334 00       		.byte	0x0
 22259 0335 3F       		.uleb128 0x3f
 22260 0336 2E       		.uleb128 0x2e
 22261 0337 01       		.byte	0x1
 22262 0338 3F       		.uleb128 0x3f
 22263 0339 0C       		.uleb128 0xc
 22264 033a 03       		.uleb128 0x3
 22265 033b 0E       		.uleb128 0xe
 22266 033c 3A       		.uleb128 0x3a
 22267 033d 0B       		.uleb128 0xb
 22268 033e 3B       		.uleb128 0x3b
 22269 033f 05       		.uleb128 0x5
 22270 0340 8740     		.uleb128 0x2007
 22271 0342 0E       		.uleb128 0xe
 22272 0343 49       		.uleb128 0x49
 22273 0344 13       		.uleb128 0x13
 22274 0345 32       		.uleb128 0x32
 22275 0346 0B       		.uleb128 0xb
 22276 0347 3C       		.uleb128 0x3c
 22277 0348 0C       		.uleb128 0xc
 22278 0349 01       		.uleb128 0x1
 22279 034a 13       		.uleb128 0x13
 22280 034b 00       		.byte	0x0
 22281 034c 00       		.byte	0x0
 22282 034d 40       		.uleb128 0x40
 22283 034e 2E       		.uleb128 0x2e
 22284 034f 01       		.byte	0x1
 22285 0350 3F       		.uleb128 0x3f
 22286 0351 0C       		.uleb128 0xc
 22287 0352 03       		.uleb128 0x3
 22288 0353 0E       		.uleb128 0xe
 22289 0354 3A       		.uleb128 0x3a
 22290 0355 0B       		.uleb128 0xb
 22291 0356 3B       		.uleb128 0x3b
 22292 0357 05       		.uleb128 0x5
 22293 0358 8740     		.uleb128 0x2007
 22294 035a 0E       		.uleb128 0xe
 22295 035b 32       		.uleb128 0x32
 22296 035c 0B       		.uleb128 0xb
 22297 035d 3C       		.uleb128 0x3c
 22298 035e 0C       		.uleb128 0xc
 22299 035f 01       		.uleb128 0x1
 22300 0360 13       		.uleb128 0x13
 22301 0361 00       		.byte	0x0
 22302 0362 00       		.byte	0x0
 22303 0363 41       		.uleb128 0x41
 22304 0364 2E       		.uleb128 0x2e
 22305 0365 01       		.byte	0x1
 22306 0366 3F       		.uleb128 0x3f
 22307 0367 0C       		.uleb128 0xc
 22308 0368 03       		.uleb128 0x3
 22309 0369 08       		.uleb128 0x8
 22310 036a 3A       		.uleb128 0x3a
 22311 036b 0B       		.uleb128 0xb
 22312 036c 3B       		.uleb128 0x3b
 22313 036d 05       		.uleb128 0x5
 22314 036e 8740     		.uleb128 0x2007
 22315 0370 0E       		.uleb128 0xe
 22316 0371 49       		.uleb128 0x49
 22317 0372 13       		.uleb128 0x13
 22318 0373 3C       		.uleb128 0x3c
 22319 0374 0C       		.uleb128 0xc
 22320 0375 01       		.uleb128 0x1
 22321 0376 13       		.uleb128 0x13
 22322 0377 00       		.byte	0x0
 22323 0378 00       		.byte	0x0
 22324 0379 42       		.uleb128 0x42
 22325 037a 2E       		.uleb128 0x2e
 22326 037b 01       		.byte	0x1
 22327 037c 3F       		.uleb128 0x3f
 22328 037d 0C       		.uleb128 0xc
 22329 037e 03       		.uleb128 0x3
 22330 037f 0E       		.uleb128 0xe
 22331 0380 3A       		.uleb128 0x3a
 22332 0381 0B       		.uleb128 0xb
 22333 0382 3B       		.uleb128 0x3b
 22334 0383 05       		.uleb128 0x5
 22335 0384 8740     		.uleb128 0x2007
 22336 0386 0E       		.uleb128 0xe
 22337 0387 3C       		.uleb128 0x3c
 22338 0388 0C       		.uleb128 0xc
 22339 0389 01       		.uleb128 0x1
 22340 038a 13       		.uleb128 0x13
 22341 038b 00       		.byte	0x0
 22342 038c 00       		.byte	0x0
 22343 038d 43       		.uleb128 0x43
 22344 038e 2E       		.uleb128 0x2e
 22345 038f 01       		.byte	0x1
 22346 0390 3F       		.uleb128 0x3f
 22347 0391 0C       		.uleb128 0xc
 22348 0392 03       		.uleb128 0x3
 22349 0393 0E       		.uleb128 0xe
 22350 0394 3A       		.uleb128 0x3a
 22351 0395 0B       		.uleb128 0xb
 22352 0396 3B       		.uleb128 0x3b
 22353 0397 05       		.uleb128 0x5
 22354 0398 8740     		.uleb128 0x2007
 22355 039a 0E       		.uleb128 0xe
 22356 039b 49       		.uleb128 0x49
 22357 039c 13       		.uleb128 0x13
 22358 039d 3C       		.uleb128 0x3c
 22359 039e 0C       		.uleb128 0xc
 22360 039f 00       		.byte	0x0
 22361 03a0 00       		.byte	0x0
 22362 03a1 44       		.uleb128 0x44
 22363 03a2 0D       		.uleb128 0xd
 22364 03a3 00       		.byte	0x0
 22365 03a4 03       		.uleb128 0x3
 22366 03a5 0E       		.uleb128 0xe
 22367 03a6 3A       		.uleb128 0x3a
 22368 03a7 0B       		.uleb128 0xb
 22369 03a8 3B       		.uleb128 0x3b
 22370 03a9 0B       		.uleb128 0xb
 22371 03aa 49       		.uleb128 0x49
 22372 03ab 13       		.uleb128 0x13
 22373 03ac 38       		.uleb128 0x38
 22374 03ad 0A       		.uleb128 0xa
 22375 03ae 32       		.uleb128 0x32
 22376 03af 0B       		.uleb128 0xb
 22377 03b0 00       		.byte	0x0
 22378 03b1 00       		.byte	0x0
 22379 03b2 45       		.uleb128 0x45
 22380 03b3 2E       		.uleb128 0x2e
 22381 03b4 01       		.byte	0x1
 22382 03b5 3F       		.uleb128 0x3f
 22383 03b6 0C       		.uleb128 0xc
 22384 03b7 03       		.uleb128 0x3
 22385 03b8 08       		.uleb128 0x8
 22386 03b9 3A       		.uleb128 0x3a
 22387 03ba 0B       		.uleb128 0xb
 22388 03bb 3B       		.uleb128 0x3b
 22389 03bc 0B       		.uleb128 0xb
 22390 03bd 3C       		.uleb128 0x3c
 22391 03be 0C       		.uleb128 0xc
 22392 03bf 01       		.uleb128 0x1
 22393 03c0 13       		.uleb128 0x13
 22394 03c1 00       		.byte	0x0
 22395 03c2 00       		.byte	0x0
 22396 03c3 46       		.uleb128 0x46
 22397 03c4 2E       		.uleb128 0x2e
 22398 03c5 01       		.byte	0x1
 22399 03c6 3F       		.uleb128 0x3f
 22400 03c7 0C       		.uleb128 0xc
 22401 03c8 03       		.uleb128 0x3
 22402 03c9 0E       		.uleb128 0xe
 22403 03ca 3A       		.uleb128 0x3a
 22404 03cb 0B       		.uleb128 0xb
 22405 03cc 3B       		.uleb128 0x3b
 22406 03cd 0B       		.uleb128 0xb
 22407 03ce 8740     		.uleb128 0x2007
 22408 03d0 0E       		.uleb128 0xe
 22409 03d1 49       		.uleb128 0x49
 22410 03d2 13       		.uleb128 0x13
 22411 03d3 32       		.uleb128 0x32
 22412 03d4 0B       		.uleb128 0xb
 22413 03d5 3C       		.uleb128 0x3c
 22414 03d6 0C       		.uleb128 0xc
 22415 03d7 01       		.uleb128 0x1
 22416 03d8 13       		.uleb128 0x13
 22417 03d9 00       		.byte	0x0
 22418 03da 00       		.byte	0x0
 22419 03db 47       		.uleb128 0x47
 22420 03dc 2E       		.uleb128 0x2e
 22421 03dd 01       		.byte	0x1
 22422 03de 3F       		.uleb128 0x3f
 22423 03df 0C       		.uleb128 0xc
 22424 03e0 03       		.uleb128 0x3
 22425 03e1 0E       		.uleb128 0xe
 22426 03e2 3A       		.uleb128 0x3a
 22427 03e3 0B       		.uleb128 0xb
 22428 03e4 3B       		.uleb128 0x3b
 22429 03e5 0B       		.uleb128 0xb
 22430 03e6 8740     		.uleb128 0x2007
 22431 03e8 0E       		.uleb128 0xe
 22432 03e9 32       		.uleb128 0x32
 22433 03ea 0B       		.uleb128 0xb
 22434 03eb 3C       		.uleb128 0x3c
 22435 03ec 0C       		.uleb128 0xc
 22436 03ed 01       		.uleb128 0x1
 22437 03ee 13       		.uleb128 0x13
 22438 03ef 00       		.byte	0x0
 22439 03f0 00       		.byte	0x0
 22440 03f1 48       		.uleb128 0x48
 22441 03f2 2E       		.uleb128 0x2e
 22442 03f3 01       		.byte	0x1
 22443 03f4 47       		.uleb128 0x47
 22444 03f5 13       		.uleb128 0x13
 22445 03f6 20       		.uleb128 0x20
 22446 03f7 0B       		.uleb128 0xb
 22447 03f8 01       		.uleb128 0x1
 22448 03f9 13       		.uleb128 0x13
 22449 03fa 00       		.byte	0x0
 22450 03fb 00       		.byte	0x0
 22451 03fc 49       		.uleb128 0x49
 22452 03fd 05       		.uleb128 0x5
 22453 03fe 00       		.byte	0x0
 22454 03ff 03       		.uleb128 0x3
 22455 0400 0E       		.uleb128 0xe
 22456 0401 49       		.uleb128 0x49
 22457 0402 13       		.uleb128 0x13
 22458 0403 34       		.uleb128 0x34
 22459 0404 0C       		.uleb128 0xc
 22460 0405 00       		.byte	0x0
 22461 0406 00       		.byte	0x0
 22462 0407 4A       		.uleb128 0x4a
 22463 0408 05       		.uleb128 0x5
 22464 0409 00       		.byte	0x0
 22465 040a 03       		.uleb128 0x3
 22466 040b 08       		.uleb128 0x8
 22467 040c 3A       		.uleb128 0x3a
 22468 040d 0B       		.uleb128 0xb
 22469 040e 3B       		.uleb128 0x3b
 22470 040f 0B       		.uleb128 0xb
 22471 0410 49       		.uleb128 0x49
 22472 0411 13       		.uleb128 0x13
 22473 0412 00       		.byte	0x0
 22474 0413 00       		.byte	0x0
 22475 0414 4B       		.uleb128 0x4b
 22476 0415 0B       		.uleb128 0xb
 22477 0416 00       		.byte	0x0
 22478 0417 00       		.byte	0x0
 22479 0418 00       		.byte	0x0
 22480 0419 4C       		.uleb128 0x4c
 22481 041a 2E       		.uleb128 0x2e
 22482 041b 01       		.byte	0x1
 22483 041c 47       		.uleb128 0x47
 22484 041d 13       		.uleb128 0x13
 22485 041e 3A       		.uleb128 0x3a
 22486 041f 0B       		.uleb128 0xb
 22487 0420 3B       		.uleb128 0x3b
 22488 0421 0B       		.uleb128 0xb
 22489 0422 20       		.uleb128 0x20
 22490 0423 0B       		.uleb128 0xb
 22491 0424 01       		.uleb128 0x1
 22492 0425 13       		.uleb128 0x13
 22493 0426 00       		.byte	0x0
 22494 0427 00       		.byte	0x0
 22495 0428 4D       		.uleb128 0x4d
 22496 0429 05       		.uleb128 0x5
 22497 042a 00       		.byte	0x0
 22498 042b 03       		.uleb128 0x3
 22499 042c 08       		.uleb128 0x8
 22500 042d 3A       		.uleb128 0x3a
 22501 042e 0B       		.uleb128 0xb
 22502 042f 3B       		.uleb128 0x3b
 22503 0430 05       		.uleb128 0x5
 22504 0431 49       		.uleb128 0x49
 22505 0432 13       		.uleb128 0x13
 22506 0433 00       		.byte	0x0
 22507 0434 00       		.byte	0x0
 22508 0435 4E       		.uleb128 0x4e
 22509 0436 05       		.uleb128 0x5
 22510 0437 00       		.byte	0x0
 22511 0438 03       		.uleb128 0x3
 22512 0439 0E       		.uleb128 0xe
 22513 043a 3A       		.uleb128 0x3a
 22514 043b 0B       		.uleb128 0xb
 22515 043c 3B       		.uleb128 0x3b
 22516 043d 05       		.uleb128 0x5
 22517 043e 49       		.uleb128 0x49
 22518 043f 13       		.uleb128 0x13
 22519 0440 00       		.byte	0x0
 22520 0441 00       		.byte	0x0
 22521 0442 4F       		.uleb128 0x4f
 22522 0443 2E       		.uleb128 0x2e
 22523 0444 01       		.byte	0x1
 22524 0445 3F       		.uleb128 0x3f
 22525 0446 0C       		.uleb128 0xc
 22526 0447 03       		.uleb128 0x3
 22527 0448 0E       		.uleb128 0xe
 22528 0449 3A       		.uleb128 0x3a
 22529 044a 0B       		.uleb128 0xb
 22530 044b 3B       		.uleb128 0x3b
 22531 044c 0B       		.uleb128 0xb
 22532 044d 49       		.uleb128 0x49
 22533 044e 13       		.uleb128 0x13
 22534 044f 20       		.uleb128 0x20
 22535 0450 0B       		.uleb128 0xb
 22536 0451 01       		.uleb128 0x1
 22537 0452 13       		.uleb128 0x13
 22538 0453 00       		.byte	0x0
 22539 0454 00       		.byte	0x0
 22540 0455 50       		.uleb128 0x50
 22541 0456 2E       		.uleb128 0x2e
 22542 0457 01       		.byte	0x1
 22543 0458 03       		.uleb128 0x3
 22544 0459 0E       		.uleb128 0xe
 22545 045a 3A       		.uleb128 0x3a
 22546 045b 0B       		.uleb128 0xb
 22547 045c 3B       		.uleb128 0x3b
 22548 045d 05       		.uleb128 0x5
 22549 045e 20       		.uleb128 0x20
 22550 045f 0B       		.uleb128 0xb
 22551 0460 01       		.uleb128 0x1
 22552 0461 13       		.uleb128 0x13
 22553 0462 00       		.byte	0x0
 22554 0463 00       		.byte	0x0
 22555 0464 51       		.uleb128 0x51
 22556 0465 2E       		.uleb128 0x2e
 22557 0466 00       		.byte	0x0
 22558 0467 03       		.uleb128 0x3
 22559 0468 0E       		.uleb128 0xe
 22560 0469 3A       		.uleb128 0x3a
 22561 046a 0B       		.uleb128 0xb
 22562 046b 3B       		.uleb128 0x3b
 22563 046c 05       		.uleb128 0x5
 22564 046d 20       		.uleb128 0x20
 22565 046e 0B       		.uleb128 0xb
 22566 046f 00       		.byte	0x0
 22567 0470 00       		.byte	0x0
 22568 0471 52       		.uleb128 0x52
 22569 0472 0B       		.uleb128 0xb
 22570 0473 01       		.byte	0x1
 22571 0474 00       		.byte	0x0
 22572 0475 00       		.byte	0x0
 22573 0476 53       		.uleb128 0x53
 22574 0477 05       		.uleb128 0x5
 22575 0478 00       		.byte	0x0
 22576 0479 03       		.uleb128 0x3
 22577 047a 0E       		.uleb128 0xe
 22578 047b 3A       		.uleb128 0x3a
 22579 047c 0B       		.uleb128 0xb
 22580 047d 3B       		.uleb128 0x3b
 22581 047e 0B       		.uleb128 0xb
 22582 047f 49       		.uleb128 0x49
 22583 0480 13       		.uleb128 0x13
 22584 0481 00       		.byte	0x0
 22585 0482 00       		.byte	0x0
 22586 0483 54       		.uleb128 0x54
 22587 0484 0B       		.uleb128 0xb
 22588 0485 01       		.byte	0x1
 22589 0486 01       		.uleb128 0x1
 22590 0487 13       		.uleb128 0x13
 22591 0488 00       		.byte	0x0
 22592 0489 00       		.byte	0x0
 22593 048a 55       		.uleb128 0x55
 22594 048b 2E       		.uleb128 0x2e
 22595 048c 01       		.byte	0x1
 22596 048d 47       		.uleb128 0x47
 22597 048e 13       		.uleb128 0x13
 22598 048f 3A       		.uleb128 0x3a
 22599 0490 0B       		.uleb128 0xb
 22600 0491 3B       		.uleb128 0x3b
 22601 0492 05       		.uleb128 0x5
 22602 0493 20       		.uleb128 0x20
 22603 0494 0B       		.uleb128 0xb
 22604 0495 01       		.uleb128 0x1
 22605 0496 13       		.uleb128 0x13
 22606 0497 00       		.byte	0x0
 22607 0498 00       		.byte	0x0
 22608 0499 56       		.uleb128 0x56
 22609 049a 2E       		.uleb128 0x2e
 22610 049b 01       		.byte	0x1
 22611 049c 47       		.uleb128 0x47
 22612 049d 13       		.uleb128 0x13
 22613 049e 3A       		.uleb128 0x3a
 22614 049f 0B       		.uleb128 0xb
 22615 04a0 3B       		.uleb128 0x3b
 22616 04a1 0B       		.uleb128 0xb
 22617 04a2 11       		.uleb128 0x11
 22618 04a3 01       		.uleb128 0x1
 22619 04a4 12       		.uleb128 0x12
 22620 04a5 01       		.uleb128 0x1
 22621 04a6 40       		.uleb128 0x40
 22622 04a7 0A       		.uleb128 0xa
 22623 04a8 01       		.uleb128 0x1
 22624 04a9 13       		.uleb128 0x13
 22625 04aa 00       		.byte	0x0
 22626 04ab 00       		.byte	0x0
 22627 04ac 57       		.uleb128 0x57
 22628 04ad 05       		.uleb128 0x5
 22629 04ae 00       		.byte	0x0
 22630 04af 03       		.uleb128 0x3
 22631 04b0 0E       		.uleb128 0xe
 22632 04b1 49       		.uleb128 0x49
 22633 04b2 13       		.uleb128 0x13
 22634 04b3 34       		.uleb128 0x34
 22635 04b4 0C       		.uleb128 0xc
 22636 04b5 02       		.uleb128 0x2
 22637 04b6 0A       		.uleb128 0xa
 22638 04b7 00       		.byte	0x0
 22639 04b8 00       		.byte	0x0
 22640 04b9 58       		.uleb128 0x58
 22641 04ba 05       		.uleb128 0x5
 22642 04bb 00       		.byte	0x0
 22643 04bc 03       		.uleb128 0x3
 22644 04bd 0E       		.uleb128 0xe
 22645 04be 3A       		.uleb128 0x3a
 22646 04bf 0B       		.uleb128 0xb
 22647 04c0 3B       		.uleb128 0x3b
 22648 04c1 0B       		.uleb128 0xb
 22649 04c2 49       		.uleb128 0x49
 22650 04c3 13       		.uleb128 0x13
 22651 04c4 02       		.uleb128 0x2
 22652 04c5 0A       		.uleb128 0xa
 22653 04c6 00       		.byte	0x0
 22654 04c7 00       		.byte	0x0
 22655 04c8 59       		.uleb128 0x59
 22656 04c9 05       		.uleb128 0x5
 22657 04ca 00       		.byte	0x0
 22658 04cb 03       		.uleb128 0x3
 22659 04cc 0E       		.uleb128 0xe
 22660 04cd 3A       		.uleb128 0x3a
 22661 04ce 0B       		.uleb128 0xb
 22662 04cf 3B       		.uleb128 0x3b
 22663 04d0 0B       		.uleb128 0xb
 22664 04d1 49       		.uleb128 0x49
 22665 04d2 13       		.uleb128 0x13
 22666 04d3 02       		.uleb128 0x2
 22667 04d4 06       		.uleb128 0x6
 22668 04d5 00       		.byte	0x0
 22669 04d6 00       		.byte	0x0
 22670 04d7 5A       		.uleb128 0x5a
 22671 04d8 34       		.uleb128 0x34
 22672 04d9 00       		.byte	0x0
 22673 04da 03       		.uleb128 0x3
 22674 04db 0E       		.uleb128 0xe
 22675 04dc 3A       		.uleb128 0x3a
 22676 04dd 0B       		.uleb128 0xb
 22677 04de 3B       		.uleb128 0x3b
 22678 04df 0B       		.uleb128 0xb
 22679 04e0 49       		.uleb128 0x49
 22680 04e1 13       		.uleb128 0x13
 22681 04e2 02       		.uleb128 0x2
 22682 04e3 0A       		.uleb128 0xa
 22683 04e4 00       		.byte	0x0
 22684 04e5 00       		.byte	0x0
 22685 04e6 5B       		.uleb128 0x5b
 22686 04e7 2E       		.uleb128 0x2e
 22687 04e8 01       		.byte	0x1
 22688 04e9 47       		.uleb128 0x47
 22689 04ea 13       		.uleb128 0x13
 22690 04eb 3A       		.uleb128 0x3a
 22691 04ec 0B       		.uleb128 0xb
 22692 04ed 3B       		.uleb128 0x3b
 22693 04ee 05       		.uleb128 0x5
 22694 04ef 11       		.uleb128 0x11
 22695 04f0 01       		.uleb128 0x1
 22696 04f1 12       		.uleb128 0x12
 22697 04f2 01       		.uleb128 0x1
 22698 04f3 40       		.uleb128 0x40
 22699 04f4 0A       		.uleb128 0xa
 22700 04f5 01       		.uleb128 0x1
 22701 04f6 13       		.uleb128 0x13
 22702 04f7 00       		.byte	0x0
 22703 04f8 00       		.byte	0x0
 22704 04f9 5C       		.uleb128 0x5c
 22705 04fa 05       		.uleb128 0x5
 22706 04fb 00       		.byte	0x0
 22707 04fc 03       		.uleb128 0x3
 22708 04fd 0E       		.uleb128 0xe
 22709 04fe 3A       		.uleb128 0x3a
 22710 04ff 0B       		.uleb128 0xb
 22711 0500 3B       		.uleb128 0x3b
 22712 0501 05       		.uleb128 0x5
 22713 0502 49       		.uleb128 0x49
 22714 0503 13       		.uleb128 0x13
 22715 0504 02       		.uleb128 0x2
 22716 0505 06       		.uleb128 0x6
 22717 0506 00       		.byte	0x0
 22718 0507 00       		.byte	0x0
 22719 0508 5D       		.uleb128 0x5d
 22720 0509 05       		.uleb128 0x5
 22721 050a 00       		.byte	0x0
 22722 050b 03       		.uleb128 0x3
 22723 050c 0E       		.uleb128 0xe
 22724 050d 3A       		.uleb128 0x3a
 22725 050e 0B       		.uleb128 0xb
 22726 050f 3B       		.uleb128 0x3b
 22727 0510 05       		.uleb128 0x5
 22728 0511 49       		.uleb128 0x49
 22729 0512 13       		.uleb128 0x13
 22730 0513 02       		.uleb128 0x2
 22731 0514 0A       		.uleb128 0xa
 22732 0515 00       		.byte	0x0
 22733 0516 00       		.byte	0x0
 22734 0517 5E       		.uleb128 0x5e
 22735 0518 2E       		.uleb128 0x2e
 22736 0519 01       		.byte	0x1
 22737 051a 47       		.uleb128 0x47
 22738 051b 13       		.uleb128 0x13
 22739 051c 3A       		.uleb128 0x3a
 22740 051d 0B       		.uleb128 0xb
 22741 051e 3B       		.uleb128 0x3b
 22742 051f 05       		.uleb128 0x5
 22743 0520 11       		.uleb128 0x11
 22744 0521 01       		.uleb128 0x1
 22745 0522 12       		.uleb128 0x12
 22746 0523 01       		.uleb128 0x1
 22747 0524 40       		.uleb128 0x40
 22748 0525 06       		.uleb128 0x6
 22749 0526 01       		.uleb128 0x1
 22750 0527 13       		.uleb128 0x13
 22751 0528 00       		.byte	0x0
 22752 0529 00       		.byte	0x0
 22753 052a 5F       		.uleb128 0x5f
 22754 052b 05       		.uleb128 0x5
 22755 052c 00       		.byte	0x0
 22756 052d 03       		.uleb128 0x3
 22757 052e 0E       		.uleb128 0xe
 22758 052f 49       		.uleb128 0x49
 22759 0530 13       		.uleb128 0x13
 22760 0531 34       		.uleb128 0x34
 22761 0532 0C       		.uleb128 0xc
 22762 0533 02       		.uleb128 0x2
 22763 0534 06       		.uleb128 0x6
 22764 0535 00       		.byte	0x0
 22765 0536 00       		.byte	0x0
 22766 0537 60       		.uleb128 0x60
 22767 0538 2E       		.uleb128 0x2e
 22768 0539 01       		.byte	0x1
 22769 053a 47       		.uleb128 0x47
 22770 053b 13       		.uleb128 0x13
 22771 053c 11       		.uleb128 0x11
 22772 053d 01       		.uleb128 0x1
 22773 053e 12       		.uleb128 0x12
 22774 053f 01       		.uleb128 0x1
 22775 0540 40       		.uleb128 0x40
 22776 0541 0A       		.uleb128 0xa
 22777 0542 01       		.uleb128 0x1
 22778 0543 13       		.uleb128 0x13
 22779 0544 00       		.byte	0x0
 22780 0545 00       		.byte	0x0
 22781 0546 61       		.uleb128 0x61
 22782 0547 05       		.uleb128 0x5
 22783 0548 00       		.byte	0x0
 22784 0549 03       		.uleb128 0x3
 22785 054a 08       		.uleb128 0x8
 22786 054b 3A       		.uleb128 0x3a
 22787 054c 0B       		.uleb128 0xb
 22788 054d 3B       		.uleb128 0x3b
 22789 054e 05       		.uleb128 0x5
 22790 054f 49       		.uleb128 0x49
 22791 0550 13       		.uleb128 0x13
 22792 0551 02       		.uleb128 0x2
 22793 0552 0A       		.uleb128 0xa
 22794 0553 00       		.byte	0x0
 22795 0554 00       		.byte	0x0
 22796 0555 62       		.uleb128 0x62
 22797 0556 34       		.uleb128 0x34
 22798 0557 00       		.byte	0x0
 22799 0558 03       		.uleb128 0x3
 22800 0559 08       		.uleb128 0x8
 22801 055a 3A       		.uleb128 0x3a
 22802 055b 0B       		.uleb128 0xb
 22803 055c 3B       		.uleb128 0x3b
 22804 055d 05       		.uleb128 0x5
 22805 055e 49       		.uleb128 0x49
 22806 055f 13       		.uleb128 0x13
 22807 0560 02       		.uleb128 0x2
 22808 0561 06       		.uleb128 0x6
 22809 0562 00       		.byte	0x0
 22810 0563 00       		.byte	0x0
 22811 0564 63       		.uleb128 0x63
 22812 0565 34       		.uleb128 0x34
 22813 0566 00       		.byte	0x0
 22814 0567 03       		.uleb128 0x3
 22815 0568 08       		.uleb128 0x8
 22816 0569 3A       		.uleb128 0x3a
 22817 056a 0B       		.uleb128 0xb
 22818 056b 3B       		.uleb128 0x3b
 22819 056c 05       		.uleb128 0x5
 22820 056d 49       		.uleb128 0x49
 22821 056e 13       		.uleb128 0x13
 22822 056f 02       		.uleb128 0x2
 22823 0570 0A       		.uleb128 0xa
 22824 0571 00       		.byte	0x0
 22825 0572 00       		.byte	0x0
 22826 0573 64       		.uleb128 0x64
 22827 0574 34       		.uleb128 0x34
 22828 0575 00       		.byte	0x0
 22829 0576 03       		.uleb128 0x3
 22830 0577 08       		.uleb128 0x8
 22831 0578 3A       		.uleb128 0x3a
 22832 0579 0B       		.uleb128 0xb
 22833 057a 3B       		.uleb128 0x3b
 22834 057b 05       		.uleb128 0x5
 22835 057c 49       		.uleb128 0x49
 22836 057d 13       		.uleb128 0x13
 22837 057e 00       		.byte	0x0
 22838 057f 00       		.byte	0x0
 22839 0580 65       		.uleb128 0x65
 22840 0581 1D       		.uleb128 0x1d
 22841 0582 01       		.byte	0x1
 22842 0583 31       		.uleb128 0x31
 22843 0584 13       		.uleb128 0x13
 22844 0585 55       		.uleb128 0x55
 22845 0586 06       		.uleb128 0x6
 22846 0587 58       		.uleb128 0x58
 22847 0588 0B       		.uleb128 0xb
 22848 0589 59       		.uleb128 0x59
 22849 058a 05       		.uleb128 0x5
 22850 058b 01       		.uleb128 0x1
 22851 058c 13       		.uleb128 0x13
 22852 058d 00       		.byte	0x0
 22853 058e 00       		.byte	0x0
 22854 058f 66       		.uleb128 0x66
 22855 0590 05       		.uleb128 0x5
 22856 0591 00       		.byte	0x0
 22857 0592 31       		.uleb128 0x31
 22858 0593 13       		.uleb128 0x13
 22859 0594 00       		.byte	0x0
 22860 0595 00       		.byte	0x0
 22861 0596 67       		.uleb128 0x67
 22862 0597 1D       		.uleb128 0x1d
 22863 0598 01       		.byte	0x1
 22864 0599 31       		.uleb128 0x31
 22865 059a 13       		.uleb128 0x13
 22866 059b 11       		.uleb128 0x11
 22867 059c 01       		.uleb128 0x1
 22868 059d 12       		.uleb128 0x12
 22869 059e 01       		.uleb128 0x1
 22870 059f 58       		.uleb128 0x58
 22871 05a0 0B       		.uleb128 0xb
 22872 05a1 59       		.uleb128 0x59
 22873 05a2 05       		.uleb128 0x5
 22874 05a3 01       		.uleb128 0x1
 22875 05a4 13       		.uleb128 0x13
 22876 05a5 00       		.byte	0x0
 22877 05a6 00       		.byte	0x0
 22878 05a7 68       		.uleb128 0x68
 22879 05a8 1D       		.uleb128 0x1d
 22880 05a9 01       		.byte	0x1
 22881 05aa 31       		.uleb128 0x31
 22882 05ab 13       		.uleb128 0x13
 22883 05ac 11       		.uleb128 0x11
 22884 05ad 01       		.uleb128 0x1
 22885 05ae 12       		.uleb128 0x12
 22886 05af 01       		.uleb128 0x1
 22887 05b0 58       		.uleb128 0x58
 22888 05b1 0B       		.uleb128 0xb
 22889 05b2 59       		.uleb128 0x59
 22890 05b3 05       		.uleb128 0x5
 22891 05b4 00       		.byte	0x0
 22892 05b5 00       		.byte	0x0
 22893 05b6 69       		.uleb128 0x69
 22894 05b7 05       		.uleb128 0x5
 22895 05b8 00       		.byte	0x0
 22896 05b9 03       		.uleb128 0x3
 22897 05ba 08       		.uleb128 0x8
 22898 05bb 3A       		.uleb128 0x3a
 22899 05bc 0B       		.uleb128 0xb
 22900 05bd 3B       		.uleb128 0x3b
 22901 05be 05       		.uleb128 0x5
 22902 05bf 49       		.uleb128 0x49
 22903 05c0 13       		.uleb128 0x13
 22904 05c1 02       		.uleb128 0x2
 22905 05c2 06       		.uleb128 0x6
 22906 05c3 00       		.byte	0x0
 22907 05c4 00       		.byte	0x0
 22908 05c5 6A       		.uleb128 0x6a
 22909 05c6 2E       		.uleb128 0x2e
 22910 05c7 01       		.byte	0x1
 22911 05c8 03       		.uleb128 0x3
 22912 05c9 0E       		.uleb128 0xe
 22913 05ca 34       		.uleb128 0x34
 22914 05cb 0C       		.uleb128 0xc
 22915 05cc 11       		.uleb128 0x11
 22916 05cd 01       		.uleb128 0x1
 22917 05ce 12       		.uleb128 0x12
 22918 05cf 01       		.uleb128 0x1
 22919 05d0 40       		.uleb128 0x40
 22920 05d1 0A       		.uleb128 0xa
 22921 05d2 01       		.uleb128 0x1
 22922 05d3 13       		.uleb128 0x13
 22923 05d4 00       		.byte	0x0
 22924 05d5 00       		.byte	0x0
 22925 05d6 6B       		.uleb128 0x6b
 22926 05d7 2E       		.uleb128 0x2e
 22927 05d8 00       		.byte	0x0
 22928 05d9 03       		.uleb128 0x3
 22929 05da 0E       		.uleb128 0xe
 22930 05db 3A       		.uleb128 0x3a
 22931 05dc 0B       		.uleb128 0xb
 22932 05dd 3B       		.uleb128 0x3b
 22933 05de 05       		.uleb128 0x5
 22934 05df 11       		.uleb128 0x11
 22935 05e0 01       		.uleb128 0x1
 22936 05e1 12       		.uleb128 0x12
 22937 05e2 01       		.uleb128 0x1
 22938 05e3 40       		.uleb128 0x40
 22939 05e4 0A       		.uleb128 0xa
 22940 05e5 00       		.byte	0x0
 22941 05e6 00       		.byte	0x0
 22942 05e7 6C       		.uleb128 0x6c
 22943 05e8 2E       		.uleb128 0x2e
 22944 05e9 01       		.byte	0x1
 22945 05ea 47       		.uleb128 0x47
 22946 05eb 13       		.uleb128 0x13
 22947 05ec 3A       		.uleb128 0x3a
 22948 05ed 0B       		.uleb128 0xb
 22949 05ee 3B       		.uleb128 0x3b
 22950 05ef 0B       		.uleb128 0xb
 22951 05f0 11       		.uleb128 0x11
 22952 05f1 01       		.uleb128 0x1
 22953 05f2 12       		.uleb128 0x12
 22954 05f3 01       		.uleb128 0x1
 22955 05f4 40       		.uleb128 0x40
 22956 05f5 06       		.uleb128 0x6
 22957 05f6 01       		.uleb128 0x1
 22958 05f7 13       		.uleb128 0x13
 22959 05f8 00       		.byte	0x0
 22960 05f9 00       		.byte	0x0
 22961 05fa 6D       		.uleb128 0x6d
 22962 05fb 05       		.uleb128 0x5
 22963 05fc 00       		.byte	0x0
 22964 05fd 31       		.uleb128 0x31
 22965 05fe 13       		.uleb128 0x13
 22966 05ff 02       		.uleb128 0x2
 22967 0600 06       		.uleb128 0x6
 22968 0601 00       		.byte	0x0
 22969 0602 00       		.byte	0x0
 22970 0603 6E       		.uleb128 0x6e
 22971 0604 34       		.uleb128 0x34
 22972 0605 00       		.byte	0x0
 22973 0606 03       		.uleb128 0x3
 22974 0607 0E       		.uleb128 0xe
 22975 0608 3A       		.uleb128 0x3a
 22976 0609 0B       		.uleb128 0xb
 22977 060a 3B       		.uleb128 0x3b
 22978 060b 05       		.uleb128 0x5
 22979 060c 49       		.uleb128 0x49
 22980 060d 13       		.uleb128 0x13
 22981 060e 02       		.uleb128 0x2
 22982 060f 06       		.uleb128 0x6
 22983 0610 00       		.byte	0x0
 22984 0611 00       		.byte	0x0
 22985 0612 6F       		.uleb128 0x6f
 22986 0613 1D       		.uleb128 0x1d
 22987 0614 01       		.byte	0x1
 22988 0615 31       		.uleb128 0x31
 22989 0616 13       		.uleb128 0x13
 22990 0617 55       		.uleb128 0x55
 22991 0618 06       		.uleb128 0x6
 22992 0619 58       		.uleb128 0x58
 22993 061a 0B       		.uleb128 0xb
 22994 061b 59       		.uleb128 0x59
 22995 061c 05       		.uleb128 0x5
 22996 061d 00       		.byte	0x0
 22997 061e 00       		.byte	0x0
 22998 061f 70       		.uleb128 0x70
 22999 0620 34       		.uleb128 0x34
 23000 0621 00       		.byte	0x0
 23001 0622 03       		.uleb128 0x3
 23002 0623 0E       		.uleb128 0xe
 23003 0624 3A       		.uleb128 0x3a
 23004 0625 0B       		.uleb128 0xb
 23005 0626 3B       		.uleb128 0x3b
 23006 0627 05       		.uleb128 0x5
 23007 0628 49       		.uleb128 0x49
 23008 0629 13       		.uleb128 0x13
 23009 062a 00       		.byte	0x0
 23010 062b 00       		.byte	0x0
 23011 062c 71       		.uleb128 0x71
 23012 062d 2E       		.uleb128 0x2e
 23013 062e 01       		.byte	0x1
 23014 062f 47       		.uleb128 0x47
 23015 0630 13       		.uleb128 0x13
 23016 0631 11       		.uleb128 0x11
 23017 0632 01       		.uleb128 0x1
 23018 0633 12       		.uleb128 0x12
 23019 0634 01       		.uleb128 0x1
 23020 0635 40       		.uleb128 0x40
 23021 0636 06       		.uleb128 0x6
 23022 0637 01       		.uleb128 0x1
 23023 0638 13       		.uleb128 0x13
 23024 0639 00       		.byte	0x0
 23025 063a 00       		.byte	0x0
 23026 063b 72       		.uleb128 0x72
 23027 063c 34       		.uleb128 0x34
 23028 063d 00       		.byte	0x0
 23029 063e 31       		.uleb128 0x31
 23030 063f 13       		.uleb128 0x13
 23031 0640 00       		.byte	0x0
 23032 0641 00       		.byte	0x0
 23033 0642 73       		.uleb128 0x73
 23034 0643 0B       		.uleb128 0xb
 23035 0644 01       		.byte	0x1
 23036 0645 11       		.uleb128 0x11
 23037 0646 01       		.uleb128 0x1
 23038 0647 12       		.uleb128 0x12
 23039 0648 01       		.uleb128 0x1
 23040 0649 00       		.byte	0x0
 23041 064a 00       		.byte	0x0
 23042 064b 74       		.uleb128 0x74
 23043 064c 0B       		.uleb128 0xb
 23044 064d 01       		.byte	0x1
 23045 064e 55       		.uleb128 0x55
 23046 064f 06       		.uleb128 0x6
 23047 0650 00       		.byte	0x0
 23048 0651 00       		.byte	0x0
 23049 0652 75       		.uleb128 0x75
 23050 0653 34       		.uleb128 0x34
 23051 0654 00       		.byte	0x0
 23052 0655 03       		.uleb128 0x3
 23053 0656 0E       		.uleb128 0xe
 23054 0657 3A       		.uleb128 0x3a
 23055 0658 0B       		.uleb128 0xb
 23056 0659 3B       		.uleb128 0x3b
 23057 065a 0B       		.uleb128 0xb
 23058 065b 49       		.uleb128 0x49
 23059 065c 13       		.uleb128 0x13
 23060 065d 00       		.byte	0x0
 23061 065e 00       		.byte	0x0
 23062 065f 76       		.uleb128 0x76
 23063 0660 1D       		.uleb128 0x1d
 23064 0661 01       		.byte	0x1
 23065 0662 31       		.uleb128 0x31
 23066 0663 13       		.uleb128 0x13
 23067 0664 55       		.uleb128 0x55
 23068 0665 06       		.uleb128 0x6
 23069 0666 58       		.uleb128 0x58
 23070 0667 0B       		.uleb128 0xb
 23071 0668 59       		.uleb128 0x59
 23072 0669 0B       		.uleb128 0xb
 23073 066a 01       		.uleb128 0x1
 23074 066b 13       		.uleb128 0x13
 23075 066c 00       		.byte	0x0
 23076 066d 00       		.byte	0x0
 23077 066e 77       		.uleb128 0x77
 23078 066f 34       		.uleb128 0x34
 23079 0670 00       		.byte	0x0
 23080 0671 03       		.uleb128 0x3
 23081 0672 08       		.uleb128 0x8
 23082 0673 3A       		.uleb128 0x3a
 23083 0674 0B       		.uleb128 0xb
 23084 0675 3B       		.uleb128 0x3b
 23085 0676 0B       		.uleb128 0xb
 23086 0677 49       		.uleb128 0x49
 23087 0678 13       		.uleb128 0x13
 23088 0679 00       		.byte	0x0
 23089 067a 00       		.byte	0x0
 23090 067b 78       		.uleb128 0x78
 23091 067c 1D       		.uleb128 0x1d
 23092 067d 01       		.byte	0x1
 23093 067e 31       		.uleb128 0x31
 23094 067f 13       		.uleb128 0x13
 23095 0680 11       		.uleb128 0x11
 23096 0681 01       		.uleb128 0x1
 23097 0682 12       		.uleb128 0x12
 23098 0683 01       		.uleb128 0x1
 23099 0684 58       		.uleb128 0x58
 23100 0685 0B       		.uleb128 0xb
 23101 0686 59       		.uleb128 0x59
 23102 0687 0B       		.uleb128 0xb
 23103 0688 01       		.uleb128 0x1
 23104 0689 13       		.uleb128 0x13
 23105 068a 00       		.byte	0x0
 23106 068b 00       		.byte	0x0
 23107 068c 79       		.uleb128 0x79
 23108 068d 1D       		.uleb128 0x1d
 23109 068e 01       		.byte	0x1
 23110 068f 31       		.uleb128 0x31
 23111 0690 13       		.uleb128 0x13
 23112 0691 11       		.uleb128 0x11
 23113 0692 01       		.uleb128 0x1
 23114 0693 12       		.uleb128 0x12
 23115 0694 01       		.uleb128 0x1
 23116 0695 58       		.uleb128 0x58
 23117 0696 0B       		.uleb128 0xb
 23118 0697 59       		.uleb128 0x59
 23119 0698 0B       		.uleb128 0xb
 23120 0699 00       		.byte	0x0
 23121 069a 00       		.byte	0x0
 23122 069b 7A       		.uleb128 0x7a
 23123 069c 1D       		.uleb128 0x1d
 23124 069d 01       		.byte	0x1
 23125 069e 31       		.uleb128 0x31
 23126 069f 13       		.uleb128 0x13
 23127 06a0 55       		.uleb128 0x55
 23128 06a1 06       		.uleb128 0x6
 23129 06a2 58       		.uleb128 0x58
 23130 06a3 0B       		.uleb128 0xb
 23131 06a4 59       		.uleb128 0x59
 23132 06a5 0B       		.uleb128 0xb
 23133 06a6 00       		.byte	0x0
 23134 06a7 00       		.byte	0x0
 23135 06a8 7B       		.uleb128 0x7b
 23136 06a9 34       		.uleb128 0x34
 23137 06aa 00       		.byte	0x0
 23138 06ab 03       		.uleb128 0x3
 23139 06ac 0E       		.uleb128 0xe
 23140 06ad 3A       		.uleb128 0x3a
 23141 06ae 0B       		.uleb128 0xb
 23142 06af 3B       		.uleb128 0x3b
 23143 06b0 0B       		.uleb128 0xb
 23144 06b1 49       		.uleb128 0x49
 23145 06b2 13       		.uleb128 0x13
 23146 06b3 02       		.uleb128 0x2
 23147 06b4 06       		.uleb128 0x6
 23148 06b5 00       		.byte	0x0
 23149 06b6 00       		.byte	0x0
 23150 06b7 7C       		.uleb128 0x7c
 23151 06b8 2E       		.uleb128 0x2e
 23152 06b9 01       		.byte	0x1
 23153 06ba 31       		.uleb128 0x31
 23154 06bb 13       		.uleb128 0x13
 23155 06bc 11       		.uleb128 0x11
 23156 06bd 01       		.uleb128 0x1
 23157 06be 12       		.uleb128 0x12
 23158 06bf 01       		.uleb128 0x1
 23159 06c0 40       		.uleb128 0x40
 23160 06c1 06       		.uleb128 0x6
 23161 06c2 01       		.uleb128 0x1
 23162 06c3 13       		.uleb128 0x13
 23163 06c4 00       		.byte	0x0
 23164 06c5 00       		.byte	0x0
 23165 06c6 7D       		.uleb128 0x7d
 23166 06c7 1D       		.uleb128 0x1d
 23167 06c8 00       		.byte	0x0
 23168 06c9 31       		.uleb128 0x31
 23169 06ca 13       		.uleb128 0x13
 23170 06cb 11       		.uleb128 0x11
 23171 06cc 01       		.uleb128 0x1
 23172 06cd 12       		.uleb128 0x12
 23173 06ce 01       		.uleb128 0x1
 23174 06cf 58       		.uleb128 0x58
 23175 06d0 0B       		.uleb128 0xb
 23176 06d1 59       		.uleb128 0x59
 23177 06d2 05       		.uleb128 0x5
 23178 06d3 00       		.byte	0x0
 23179 06d4 00       		.byte	0x0
 23180 06d5 7E       		.uleb128 0x7e
 23181 06d6 0B       		.uleb128 0xb
 23182 06d7 01       		.byte	0x1
 23183 06d8 55       		.uleb128 0x55
 23184 06d9 06       		.uleb128 0x6
 23185 06da 01       		.uleb128 0x1
 23186 06db 13       		.uleb128 0x13
 23187 06dc 00       		.byte	0x0
 23188 06dd 00       		.byte	0x0
 23189 06de 7F       		.uleb128 0x7f
 23190 06df 1D       		.uleb128 0x1d
 23191 06e0 00       		.byte	0x0
 23192 06e1 31       		.uleb128 0x31
 23193 06e2 13       		.uleb128 0x13
 23194 06e3 55       		.uleb128 0x55
 23195 06e4 06       		.uleb128 0x6
 23196 06e5 58       		.uleb128 0x58
 23197 06e6 0B       		.uleb128 0xb
 23198 06e7 59       		.uleb128 0x59
 23199 06e8 05       		.uleb128 0x5
 23200 06e9 00       		.byte	0x0
 23201 06ea 00       		.byte	0x0
 23202 06eb 8001     		.uleb128 0x80
 23203 06ed 34       		.uleb128 0x34
 23204 06ee 00       		.byte	0x0
 23205 06ef 03       		.uleb128 0x3
 23206 06f0 0E       		.uleb128 0xe
 23207 06f1 3A       		.uleb128 0x3a
 23208 06f2 0B       		.uleb128 0xb
 23209 06f3 3B       		.uleb128 0x3b
 23210 06f4 05       		.uleb128 0x5
 23211 06f5 49       		.uleb128 0x49
 23212 06f6 13       		.uleb128 0x13
 23213 06f7 02       		.uleb128 0x2
 23214 06f8 0A       		.uleb128 0xa
 23215 06f9 00       		.byte	0x0
 23216 06fa 00       		.byte	0x0
 23217 06fb 00       		.byte	0x0
 23218              		.section	.debug_pubnames,"",@progbits
 23219 0000 000008D8 		.4byte	0x8d8
 23220 0004 0002     		.2byte	0x2
 23221 0006 00000000 		.4byte	.Ldebug_info0
 23222 000a 000062A2 		.4byte	0x62a2
 23223 000e 000047C6 		.4byte	0x47c6
 23224 0012 46726565 		.string	"FreeTypeGX::setCompatibilityMode"
 23224      54797065 
 23224      47583A3A 
 23224      73657443 
 23224      6F6D7061 
 23225 0033 000047FA 		.4byte	0x47fa
 23226 0037 46726565 		.string	"FreeTypeGX::adjustTextureWidth"
 23226      54797065 
 23226      47583A3A 
 23226      61646A75 
 23226      73745465 
 23227 0056 00004839 		.4byte	0x4839
 23228 005a 46726565 		.string	"FreeTypeGX::adjustTextureHeight"
 23228      54797065 
 23228      47583A3A 
 23228      61646A75 
 23228      73745465 
 23229 007a 00004878 		.4byte	0x4878
 23230 007e 46726565 		.string	"FreeTypeGX::getStyleOffsetWidth"
 23230      54797065 
 23230      47583A3A 
 23230      67657453 
 23230      74796C65 
 23231 009e 000048AF 		.4byte	0x48af
 23232 00a2 46726565 		.string	"FreeTypeGX::getStyleOffsetHeight"
 23232      54797065 
 23232      47583A3A 
 23232      67657453 
 23232      74796C65 
 23233 00c3 000048E4 		.4byte	0x48e4
 23234 00c7 46726565 		.string	"FreeTypeGX::getOffset"
 23234      54797065 
 23234      47583A3A 
 23234      6765744F 
 23234      66667365 
 23235 00dd 0000491B 		.4byte	0x491b
 23236 00e1 7374643A 		.string	"std::_Rb_tree<wchar_t, std::pair<const wchar_t, ftgxCharData_>, std::_Select1st<std::pair
 23236      3A5F5262 
 23236      5F747265 
 23236      653C7763 
 23236      6861725F 
 23237 01b1 000049DA 		.4byte	0x49da
 23238 01b5 7374643A 		.string	"std::_Rb_tree<wchar_t, std::pair<const wchar_t, ftgxCharData_>, std::_Select1st<std::pair
 23238      3A5F5262 
 23238      5F747265 
 23238      653C7763 
 23238      6861725F 
 23239 028c 00004AD2 		.4byte	0x4ad2
 23240 0290 46726565 		.string	"FreeTypeGX::setDefaultMode"
 23240      54797065 
 23240      47583A3A 
 23240      73657444 
 23240      65666175 
 23241 02ab 00004AF8 		.4byte	0x4af8
 23242 02af 46726565 		.string	"FreeTypeGX::copyFeatureToFramebuffer"
 23242      54797065 
 23242      47583A3A 
 23242      636F7079 
 23242      46656174 
 23243 02d4 00004C87 		.4byte	0x4c87
 23244 02d8 46726565 		.string	"FreeTypeGX::drawTextFeature"
 23244      54797065 
 23244      47583A3A 
 23244      64726177 
 23244      54657874 
 23245 02f4 00004D1A 		.4byte	0x4d1a
 23246 02f8 46726565 		.string	"FreeTypeGX::copyTextureToFramebuffer"
 23246      54797065 
 23246      47583A3A 
 23246      636F7079 
 23246      54657874 
 23247 031d 00004FB1 		.4byte	0x4fb1
 23248 0321 7374643A 		.string	"std::_Rb_tree<wchar_t, std::pair<const wchar_t, ftgxCharData_>, std::_Select1st<std::pair
 23248      3A5F5262 
 23248      5F747265 
 23248      653C7763 
 23248      6861725F 
 23249 03f6 00005098 		.4byte	0x5098
 23250 03fa 7374643A 		.string	"std::_Rb_tree<wchar_t, std::pair<const wchar_t, ftgxCharData_>, std::_Select1st<std::pair
 23250      3A5F5262 
 23250      5F747265 
 23250      653C7763 
 23250      6861725F 
 23251 04ce 00005152 		.4byte	0x5152
 23252 04d2 46726565 		.string	"FreeTypeGX::loadGlyphData"
 23252      54797065 
 23252      47583A3A 
 23252      6C6F6164 
 23252      476C7970 
 23253 04ec 0000522F 		.4byte	0x522f
 23254 04f0 46726565 		.string	"FreeTypeGX::unloadFont"
 23254      54797065 
 23254      47583A3A 
 23254      756E6C6F 
 23254      6164466F 
 23255 0507 0000530F 		.4byte	0x530f
 23256 050b 46726565 		.string	"FreeTypeGX::changeSize"
 23256      54797065 
 23256      47583A3A 
 23256      6368616E 
 23256      67655369 
 23257 0522 00005344 		.4byte	0x5344
 23258 0526 46726565 		.string	"FreeTypeGX::setVertexFormat"
 23258      54797065 
 23258      47583A3A 
 23258      73657456 
 23258      65727465 
 23259 0542 00005379 		.4byte	0x5379
 23260 0546 46726565 		.string	"FreeTypeGX::charToWideChar"
 23260      54797065 
 23260      47583A3A 
 23260      63686172 
 23260      546F5769 
 23261 0561 000053C9 		.4byte	0x53c9
 23262 0565 46726565 		.string	"FreeTypeGX::charToWideChar"
 23262      54797065 
 23262      47583A3A 
 23262      63686172 
 23262      546F5769 
 23263 0580 00005470 		.4byte	0x5470
 23264 0584 46726565 		.string	"FreeTypeGX::FreeTypeGX"
 23264      54797065 
 23264      47583A3A 
 23264      46726565 
 23264      54797065 
 23265 059b 00005527 		.4byte	0x5527
 23266 059f 7374643A 		.string	"std::_Rb_tree<wchar_t, std::pair<const wchar_t, ftgxCharData_>, std::_Select1st<std::pair
 23266      3A5F5262 
 23266      5F747265 
 23266      653C7763 
 23266      6861725F 
 23267 067b 00005637 		.4byte	0x5637
 23268 067f 7374643A 		.string	"std::_Rb_tree<wchar_t, std::pair<const wchar_t, ftgxCharData_>, std::_Select1st<std::pair
 23268      3A5F5262 
 23268      5F747265 
 23268      653C7763 
 23268      6861725F 
 23269 075b 00005709 		.4byte	0x5709
 23270 075f 46726565 		.string	"FreeTypeGX::~FreeTypeGX"
 23270      54797065 
 23270      47583A3A 
 23270      7E467265 
 23270      65547970 
 23271 0777 00005780 		.4byte	0x5780
 23272 077b 46726565 		.string	"FreeTypeGX::~FreeTypeGX"
 23272      54797065 
 23272      47583A3A 
 23272      7E467265 
 23272      65547970 
 23273 0793 000057F7 		.4byte	0x57f7
 23274 0797 46726565 		.string	"FreeTypeGX::FreeTypeGX"
 23274      54797065 
 23274      47583A3A 
 23274      46726565 
 23274      54797065 
 23275 07ae 00005938 		.4byte	0x5938
 23276 07b2 46726565 		.string	"FreeTypeGX::cacheGlyphData"
 23276      54797065 
 23276      47583A3A 
 23276      63616368 
 23276      65476C79 
 23277 07cd 00005B89 		.4byte	0x5b89
 23278 07d1 46726565 		.string	"FreeTypeGX::getOffset"
 23278      54797065 
 23278      47583A3A 
 23278      6765744F 
 23278      66667365 
 23279 07e7 00005CA3 		.4byte	0x5ca3
 23280 07eb 46726565 		.string	"FreeTypeGX::getHeight"
 23280      54797065 
 23280      47583A3A 
 23280      67657448 
 23280      65696768 
 23281 0801 00005CE6 		.4byte	0x5ce6
 23282 0805 46726565 		.string	"FreeTypeGX::getHeight"
 23282      54797065 
 23282      47583A3A 
 23282      67657448 
 23282      65696768 
 23283 081b 00005D1D 		.4byte	0x5d1d
 23284 081f 46726565 		.string	"FreeTypeGX::getWidth"
 23284      54797065 
 23284      47583A3A 
 23284      67657457 
 23284      69647468 
 23285 0834 00005EB2 		.4byte	0x5eb2
 23286 0838 46726565 		.string	"FreeTypeGX::getWidth"
 23286      54797065 
 23286      47583A3A 
 23286      67657457 
 23286      69647468 
 23287 084d 00005EE9 		.4byte	0x5ee9
 23288 0851 46726565 		.string	"FreeTypeGX::drawText"
 23288      54797065 
 23288      47583A3A 
 23288      64726177 
 23288      54657874 
 23289 0866 000060FF 		.4byte	0x60ff
 23290 086a 46726565 		.string	"FreeTypeGX::drawText"
 23290      54797065 
 23290      47583A3A 
 23290      64726177 
 23290      54657874 
 23291 087f 00006172 		.4byte	0x6172
 23292 0883 46726565 		.string	"FreeTypeGX::cacheGlyphDataComplete"
 23292      54797065 
 23292      47583A3A 
 23292      63616368 
 23292      65476C79 
 23293 08a6 000061C7 		.4byte	0x61c7
 23294 08aa 46726565 		.string	"FreeTypeGX::loadFont"
 23294      54797065 
 23294      47583A3A 
 23294      6C6F6164 
 23294      466F6E74 
 23295 08bf 00006229 		.4byte	0x6229
 23296 08c3 46726565 		.string	"FreeTypeGX::loadFont"
 23296      54797065 
 23296      47583A3A 
 23296      6C6F6164 
 23296      466F6E74 
 23297 08d8 00000000 		.4byte	0x0
 23298              		.section	.debug_aranges,"",@progbits
 23299 0000 0000004C 		.4byte	0x4c
 23300 0004 0002     		.2byte	0x2
 23301 0006 00000000 		.4byte	.Ldebug_info0
 23302 000a 04       		.byte	0x4
 23303 000b 00       		.byte	0x0
 23304 000c 0000     		.2byte	0x0
 23305 000e 0000     		.2byte	0x0
 23306 0010 00000000 		.4byte	.Ltext0
 23307 0014 00001D40 		.4byte	.Letext0-.Ltext0
 23308 0018 00000000 		.4byte	.LFB644
 23309 001c 00000068 		.4byte	.LFE644-.LFB644
 23310 0020 00000000 		.4byte	.LFB673
 23311 0024 00000048 		.4byte	.LFE673-.LFB673
 23312 0028 00000000 		.4byte	.LFB691
 23313 002c 000000F0 		.4byte	.LFE691-.LFB691
 23314 0030 00000000 		.4byte	.LFB629
 23315 0034 0000005C 		.4byte	.LFE629-.LFB629
 23316 0038 00000000 		.4byte	.LFB692
 23317 003c 00000144 		.4byte	.LFE692-.LFB692
 23318 0040 00000000 		.4byte	.LFB675
 23319 0044 00000188 		.4byte	.LFE675-.LFB675
 23320 0048 00000000 		.4byte	0x0
 23321 004c 00000000 		.4byte	0x0
 23322              		.section	.debug_ranges,"",@progbits
 23323              	.Ldebug_ranges0:
 23324 0000 00000000 		.4byte	.LBB540
 23325 0004 00000004 		.4byte	.LBE540
 23326 0008 00000014 		.4byte	.LBB545
 23327 000c 00000020 		.4byte	.LBE545
 23328 0010 00000000 		.4byte	0x0
 23329 0014 00000000 		.4byte	0x0
 23330 0018 00000000 		.4byte	.LBB551
 23331 001c 00000004 		.4byte	.LBE551
 23332 0020 00000010 		.4byte	.LBB556
 23333 0024 0000001C 		.4byte	.LBE556
 23334 0028 00000000 		.4byte	0x0
 23335 002c 00000000 		.4byte	0x0
 23336 0030 00000364 		.4byte	.LBB561
 23337 0034 0000036C 		.4byte	.LBE561
 23338 0038 00000384 		.4byte	.LBB564
 23339 003c 0000038C 		.4byte	.LBE564
 23340 0040 00000000 		.4byte	0x0
 23341 0044 00000000 		.4byte	0x0
 23342 0048 00000390 		.4byte	.LBB565
 23343 004c 00000394 		.4byte	.LBE565
 23344 0050 000003A0 		.4byte	.LBB570
 23345 0054 000003A8 		.4byte	.LBE570
 23346 0058 00000398 		.4byte	.LBB569
 23347 005c 0000039C 		.4byte	.LBE569
 23348 0060 00000000 		.4byte	0x0
 23349 0064 00000000 		.4byte	0x0
 23350 0068 000003F8 		.4byte	.LBB575
 23351 006c 000003FC 		.4byte	.LBE575
 23352 0070 0000041C 		.4byte	.LBB578
 23353 0074 00000420 		.4byte	.LBE578
 23354 0078 00000000 		.4byte	0x0
 23355 007c 00000000 		.4byte	0x0
 23356 0080 00000814 		.4byte	.LBB590
 23357 0084 0000081C 		.4byte	.LBE590
 23358 0088 0000082C 		.4byte	.LBB593
 23359 008c 00000834 		.4byte	.LBE593
 23360 0090 00000000 		.4byte	0x0
 23361 0094 00000000 		.4byte	0x0
 23362 0098 00000838 		.4byte	.LBB594
 23363 009c 0000083C 		.4byte	.LBE594
 23364 00a0 00000850 		.4byte	.LBB604
 23365 00a4 00000854 		.4byte	.LBE604
 23366 00a8 00000848 		.4byte	.LBB603
 23367 00ac 0000084C 		.4byte	.LBE603
 23368 00b0 00000840 		.4byte	.LBB602
 23369 00b4 00000844 		.4byte	.LBE602
 23370 00b8 00000000 		.4byte	0x0
 23371 00bc 00000000 		.4byte	0x0
 23372 00c0 0000083C 		.4byte	.LBB599
 23373 00c4 00000840 		.4byte	.LBE599
 23374 00c8 00000874 		.4byte	.LBB611
 23375 00cc 0000087C 		.4byte	.LBE611
 23376 00d0 00000000 		.4byte	0x0
 23377 00d4 00000000 		.4byte	0x0
 23378 00d8 00000860 		.4byte	.LBB605
 23379 00dc 00000864 		.4byte	.LBE605
 23380 00e0 000008BC 		.4byte	.LBB617
 23381 00e4 000008C0 		.4byte	.LBE617
 23382 00e8 000008B4 		.4byte	.LBB616
 23383 00ec 000008B8 		.4byte	.LBE616
 23384 00f0 00000868 		.4byte	.LBB610
 23385 00f4 0000086C 		.4byte	.LBE610
 23386 00f8 00000000 		.4byte	0x0
 23387 00fc 00000000 		.4byte	0x0
 23388 0100 000008C4 		.4byte	.LBB618
 23389 0104 000008C8 		.4byte	.LBE618
 23390 0108 000008E0 		.4byte	.LBB621
 23391 010c 000008E4 		.4byte	.LBE621
 23392 0110 00000000 		.4byte	0x0
 23393 0114 00000000 		.4byte	0x0
 23394 0118 00000914 		.4byte	.LBB630
 23395 011c 00000918 		.4byte	.LBE630
 23396 0120 0000091C 		.4byte	.LBB633
 23397 0124 00000920 		.4byte	.LBE633
 23398 0128 00000000 		.4byte	0x0
 23399 012c 00000000 		.4byte	0x0
 23400 0130 00000040 		.4byte	.LBB683
 23401 0134 00000048 		.4byte	.LBE683
 23402 0138 0000004C 		.4byte	.LBB691
 23403 013c 00000050 		.4byte	.LBE691
 23404 0140 00000000 		.4byte	0x0
 23405 0144 00000000 		.4byte	0x0
 23406 0148 00000040 		.4byte	.LBB685
 23407 014c 00000048 		.4byte	.LBE685
 23408 0150 0000004C 		.4byte	.LBB686
 23409 0154 00000050 		.4byte	.LBE686
 23410 0158 00000000 		.4byte	0x0
 23411 015c 00000000 		.4byte	0x0
 23412 0160 00000048 		.4byte	.LBB688
 23413 0164 0000004C 		.4byte	.LBE688
 23414 0168 00000050 		.4byte	.LBB692
 23415 016c 00000084 		.4byte	.LBE692
 23416 0170 00000000 		.4byte	0x0
 23417 0174 00000000 		.4byte	0x0
 23418 0178 000009D0 		.4byte	.LBB710
 23419 017c 000009E4 		.4byte	.LBE710
 23420 0180 000009EC 		.4byte	.LBB716
 23421 0184 00000A38 		.4byte	.LBE716
 23422 0188 00000000 		.4byte	0x0
 23423 018c 00000000 		.4byte	0x0
 23424 0190 000009D0 		.4byte	.LBB712
 23425 0194 000009D4 		.4byte	.LBE712
 23426 0198 00000A0C 		.4byte	.LBB715
 23427 019c 00000A28 		.4byte	.LBE715
 23428 01a0 00000A00 		.4byte	.LBB714
 23429 01a4 00000A04 		.4byte	.LBE714
 23430 01a8 000009EC 		.4byte	.LBB713
 23431 01ac 000009FC 		.4byte	.LBE713
 23432 01b0 000009DC 		.4byte	.LBB711
 23433 01b4 000009E4 		.4byte	.LBE711
 23434 01b8 00000000 		.4byte	0x0
 23435 01bc 00000000 		.4byte	0x0
 23436 01c0 00000CD8 		.4byte	.LBB770
 23437 01c4 00000CF0 		.4byte	.LBE770
 23438 01c8 00000CF4 		.4byte	.LBB792
 23439 01cc 00000CFC 		.4byte	.LBE792
 23440 01d0 00000000 		.4byte	0x0
 23441 01d4 00000000 		.4byte	0x0
 23442 01d8 00000CD8 		.4byte	.LBB772
 23443 01dc 00000CF0 		.4byte	.LBE772
 23444 01e0 00000CF4 		.4byte	.LBB775
 23445 01e4 00000CFC 		.4byte	.LBE775
 23446 01e8 00000000 		.4byte	0x0
 23447 01ec 00000000 		.4byte	0x0
 23448 01f0 00000CA0 		.4byte	.LBB778
 23449 01f4 00000CA4 		.4byte	.LBE778
 23450 01f8 00000CA8 		.4byte	.LBB777
 23451 01fc 00000CD8 		.4byte	.LBE777
 23452 0200 00000000 		.4byte	0x0
 23453 0204 00000000 		.4byte	0x0
 23454 0208 00000CC0 		.4byte	.LBB790
 23455 020c 00000CC8 		.4byte	.LBE790
 23456 0210 00000CCC 		.4byte	.LBB791
 23457 0214 00000CD0 		.4byte	.LBE791
 23458 0218 00000000 		.4byte	0x0
 23459 021c 00000000 		.4byte	0x0
 23460 0220 00000E34 		.4byte	.LBB850
 23461 0224 00000E38 		.4byte	.LBE850
 23462 0228 00000E44 		.4byte	.LBB867
 23463 022c 00000E5C 		.4byte	.LBE867
 23464 0230 00000000 		.4byte	0x0
 23465 0234 00000000 		.4byte	0x0
 23466 0238 00000E34 		.4byte	.LBB853
 23467 023c 00000E38 		.4byte	.LBE853
 23468 0240 00000E44 		.4byte	.LBB864
 23469 0244 00000E5C 		.4byte	.LBE864
 23470 0248 00000000 		.4byte	0x0
 23471 024c 00000000 		.4byte	0x0
 23472 0250 00000E34 		.4byte	.LBB856
 23473 0254 00000E38 		.4byte	.LBE856
 23474 0258 00000E44 		.4byte	.LBB861
 23475 025c 00000E5C 		.4byte	.LBE861
 23476 0260 00000000 		.4byte	0x0
 23477 0264 00000000 		.4byte	0x0
 23478 0268 0000001C 		.4byte	.LBB940
 23479 026c 00000020 		.4byte	.LBE940
 23480 0270 00000050 		.4byte	.LBB934
 23481 0274 00000054 		.4byte	.LBE934
 23482 0278 0000003C 		.4byte	.LBB937
 23483 027c 00000044 		.4byte	.LBE937
 23484 0280 00000000 		.4byte	0x0
 23485 0284 00000000 		.4byte	0x0
 23486 0288 0000007C 		.4byte	.LBB1030
 23487 028c 00000090 		.4byte	.LBE1030
 23488 0290 00000100 		.4byte	.LBB1029
 23489 0294 00000104 		.4byte	.LBE1029
 23490 0298 000000B4 		.4byte	.LBB1037
 23491 029c 000000FC 		.4byte	.LBE1037
 23492 02a0 00000000 		.4byte	0x0
 23493 02a4 00000000 		.4byte	0x0
 23494 02a8 00000040 		.4byte	.LBB1032
 23495 02ac 0000007C 		.4byte	.LBE1032
 23496 02b0 00000170 		.4byte	.LBB1038
 23497 02b4 00000188 		.4byte	.LBE1038
 23498 02b8 00000000 		.4byte	0x0
 23499 02bc 00000000 		.4byte	0x0
 23500 02c0 0000004C 		.4byte	.LBB1034
 23501 02c4 00000054 		.4byte	.LBE1034
 23502 02c8 0000005C 		.4byte	.LBB1033
 23503 02cc 00000060 		.4byte	.LBE1033
 23504 02d0 00000000 		.4byte	0x0
 23505 02d4 00000000 		.4byte	0x0
 23506 02d8 00000F88 		.4byte	.LBB1186
 23507 02dc 00000F8C 		.4byte	.LBE1186
 23508 02e0 00000F98 		.4byte	.LBB1203
 23509 02e4 00000FB0 		.4byte	.LBE1203
 23510 02e8 00000000 		.4byte	0x0
 23511 02ec 00000000 		.4byte	0x0
 23512 02f0 00000F88 		.4byte	.LBB1189
 23513 02f4 00000F8C 		.4byte	.LBE1189
 23514 02f8 00000F98 		.4byte	.LBB1200
 23515 02fc 00000FB0 		.4byte	.LBE1200
 23516 0300 00000000 		.4byte	0x0
 23517 0304 00000000 		.4byte	0x0
 23518 0308 00000F88 		.4byte	.LBB1192
 23519 030c 00000F8C 		.4byte	.LBE1192
 23520 0310 00000F98 		.4byte	.LBB1197
 23521 0314 00000FB0 		.4byte	.LBE1197
 23522 0318 00000000 		.4byte	0x0
 23523 031c 00000000 		.4byte	0x0
 23524 0320 00001080 		.4byte	.LBB1303
 23525 0324 00001084 		.4byte	.LBE1303
 23526 0328 000010EC 		.4byte	.LBB1383
 23527 032c 000012FC 		.4byte	.LBE1383
 23528 0330 00000000 		.4byte	0x0
 23529 0334 00000000 		.4byte	0x0
 23530 0338 000010F0 		.4byte	.LBB1304
 23531 033c 000010F4 		.4byte	.LBE1304
 23532 0340 00001120 		.4byte	.LBB1346
 23533 0344 00001188 		.4byte	.LBE1346
 23534 0348 00001110 		.4byte	.LBB1345
 23535 034c 00001114 		.4byte	.LBE1345
 23536 0350 00001108 		.4byte	.LBB1344
 23537 0354 0000110C 		.4byte	.LBE1344
 23538 0358 00001100 		.4byte	.LBB1343
 23539 035c 00001104 		.4byte	.LBE1343
 23540 0360 000010F8 		.4byte	.LBB1342
 23541 0364 000010FC 		.4byte	.LBE1342
 23542 0368 00000000 		.4byte	0x0
 23543 036c 00000000 		.4byte	0x0
 23544 0370 000010F0 		.4byte	.LBB1319
 23545 0374 000010F4 		.4byte	.LBE1319
 23546 0378 00001128 		.4byte	.LBB1324
 23547 037c 0000112C 		.4byte	.LBE1324
 23548 0380 00001120 		.4byte	.LBB1323
 23549 0384 00001124 		.4byte	.LBE1323
 23550 0388 00001110 		.4byte	.LBB1311
 23551 038c 00001114 		.4byte	.LBE1311
 23552 0390 00001108 		.4byte	.LBB1322
 23553 0394 0000110C 		.4byte	.LBE1322
 23554 0398 000010F8 		.4byte	.LBB1321
 23555 039c 000010FC 		.4byte	.LBE1321
 23556 03a0 00000000 		.4byte	0x0
 23557 03a4 00000000 		.4byte	0x0
 23558 03a8 00001144 		.4byte	.LBB1327
 23559 03ac 00001150 		.4byte	.LBE1327
 23560 03b0 00001180 		.4byte	.LBB1335
 23561 03b4 00001188 		.4byte	.LBE1335
 23562 03b8 00001158 		.4byte	.LBB1333
 23563 03bc 0000115C 		.4byte	.LBE1333
 23564 03c0 00000000 		.4byte	0x0
 23565 03c4 00000000 		.4byte	0x0
 23566 03c8 00001150 		.4byte	.LBB1328
 23567 03cc 00001158 		.4byte	.LBE1328
 23568 03d0 00001170 		.4byte	.LBB1334
 23569 03d4 00001180 		.4byte	.LBE1334
 23570 03d8 00000000 		.4byte	0x0
 23571 03dc 00000000 		.4byte	0x0
 23572 03e0 000011CC 		.4byte	.LBB1347
 23573 03e4 000011D0 		.4byte	.LBE1347
 23574 03e8 00001200 		.4byte	.LBB1368
 23575 03ec 00001260 		.4byte	.LBE1368
 23576 03f0 000011D4 		.4byte	.LBB1367
 23577 03f4 000011D8 		.4byte	.LBE1367
 23578 03f8 00000000 		.4byte	0x0
 23579 03fc 00000000 		.4byte	0x0
 23580 0400 000011CC 		.4byte	.LBB1353
 23581 0404 000011D0 		.4byte	.LBE1353
 23582 0408 00001208 		.4byte	.LBB1355
 23583 040c 0000120C 		.4byte	.LBE1355
 23584 0410 00001200 		.4byte	.LBB1354
 23585 0414 00001204 		.4byte	.LBE1354
 23586 0418 000011D4 		.4byte	.LBB1352
 23587 041c 000011D8 		.4byte	.LBE1352
 23588 0420 00000000 		.4byte	0x0
 23589 0424 00000000 		.4byte	0x0
 23590 0428 00001220 		.4byte	.LBB1356
 23591 042c 0000122C 		.4byte	.LBE1356
 23592 0430 0000125C 		.4byte	.LBB1364
 23593 0434 00001260 		.4byte	.LBE1364
 23594 0438 00001234 		.4byte	.LBB1362
 23595 043c 00001238 		.4byte	.LBE1362
 23596 0440 00000000 		.4byte	0x0
 23597 0444 00000000 		.4byte	0x0
 23598 0448 0000122C 		.4byte	.LBB1357
 23599 044c 00001234 		.4byte	.LBE1357
 23600 0450 0000124C 		.4byte	.LBB1363
 23601 0454 0000125C 		.4byte	.LBE1363
 23602 0458 00000000 		.4byte	0x0
 23603 045c 00000000 		.4byte	0x0
 23604 0460 00001270 		.4byte	.LBB1372
 23605 0464 0000127C 		.4byte	.LBE1372
 23606 0468 00001280 		.4byte	.LBB1373
 23607 046c 00001284 		.4byte	.LBE1373
 23608 0470 00000000 		.4byte	0x0
 23609 0474 00000000 		.4byte	0x0
 23610 0478 0000129C 		.4byte	.LBB1374
 23611 047c 000012A8 		.4byte	.LBE1374
 23612 0480 000012D8 		.4byte	.LBB1382
 23613 0484 000012DC 		.4byte	.LBE1382
 23614 0488 000012B0 		.4byte	.LBB1380
 23615 048c 000012B4 		.4byte	.LBE1380
 23616 0490 00000000 		.4byte	0x0
 23617 0494 00000000 		.4byte	0x0
 23618 0498 000012A8 		.4byte	.LBB1375
 23619 049c 000012B0 		.4byte	.LBE1375
 23620 04a0 000012C8 		.4byte	.LBB1381
 23621 04a4 000012D8 		.4byte	.LBE1381
 23622 04a8 00000000 		.4byte	0x0
 23623 04ac 00000000 		.4byte	0x0
 23624 04b0 00001350 		.4byte	.LBB1431
 23625 04b4 00001464 		.4byte	.LBE1431
 23626 04b8 000014B0 		.4byte	.LBB1454
 23627 04bc 000014C8 		.4byte	.LBE1454
 23628 04c0 00001468 		.4byte	.LBB1430
 23629 04c4 0000146C 		.4byte	.LBE1430
 23630 04c8 00000000 		.4byte	0x0
 23631 04cc 00000000 		.4byte	0x0
 23632 04d0 00001380 		.4byte	.LBB1432
 23633 04d4 00001450 		.4byte	.LBE1432
 23634 04d8 000014B0 		.4byte	.LBB1453
 23635 04dc 000014C8 		.4byte	.LBE1453
 23636 04e0 00000000 		.4byte	0x0
 23637 04e4 00000000 		.4byte	0x0
 23638 04e8 0000138C 		.4byte	.LBB1435
 23639 04ec 00001390 		.4byte	.LBE1435
 23640 04f0 00001394 		.4byte	.LBB1434
 23641 04f4 0000139C 		.4byte	.LBE1434
 23642 04f8 00000000 		.4byte	0x0
 23643 04fc 00000000 		.4byte	0x0
 23644 0500 00001380 		.4byte	.LBB1436
 23645 0504 00001388 		.4byte	.LBE1436
 23646 0508 000013A4 		.4byte	.LBB1433
 23647 050c 00001410 		.4byte	.LBE1433
 23648 0510 00000000 		.4byte	0x0
 23649 0514 00000000 		.4byte	0x0
 23650 0518 00001380 		.4byte	.LBB1439
 23651 051c 00001388 		.4byte	.LBE1439
 23652 0520 0000140C 		.4byte	.LBB1450
 23653 0524 00001410 		.4byte	.LBE1450
 23654 0528 000013E4 		.4byte	.LBB1448
 23655 052c 000013E8 		.4byte	.LBE1448
 23656 0530 000013D0 		.4byte	.LBB1442
 23657 0534 000013DC 		.4byte	.LBE1442
 23658 0538 00000000 		.4byte	0x0
 23659 053c 00000000 		.4byte	0x0
 23660 0540 000013A4 		.4byte	.LBB1440
 23661 0544 000013B0 		.4byte	.LBE1440
 23662 0548 000013B4 		.4byte	.LBB1441
 23663 054c 000013B8 		.4byte	.LBE1441
 23664 0550 00000000 		.4byte	0x0
 23665 0554 00000000 		.4byte	0x0
 23666 0558 000013DC 		.4byte	.LBB1443
 23667 055c 000013E4 		.4byte	.LBE1443
 23668 0560 000013FC 		.4byte	.LBB1449
 23669 0564 0000140C 		.4byte	.LBE1449
 23670 0568 00000000 		.4byte	0x0
 23671 056c 00000000 		.4byte	0x0
 23672 0570 0000156C 		.4byte	.LBB1532
 23673 0574 00001670 		.4byte	.LBE1532
 23674 0578 000016C0 		.4byte	.LBB1578
 23675 057c 00001780 		.4byte	.LBE1578
 23676 0580 00000000 		.4byte	0x0
 23677 0584 00000000 		.4byte	0x0
 23678 0588 00001594 		.4byte	.LBB1534
 23679 058c 000015A8 		.4byte	.LBE1534
 23680 0590 000016C0 		.4byte	.LBB1577
 23681 0594 00001780 		.4byte	.LBE1577
 23682 0598 000015AC 		.4byte	.LBB1533
 23683 059c 00001664 		.4byte	.LBE1533
 23684 05a0 00000000 		.4byte	0x0
 23685 05a4 00000000 		.4byte	0x0
 23686 05a8 000015AC 		.4byte	.LBB1537
 23687 05ac 000015B0 		.4byte	.LBE1537
 23688 05b0 000015B8 		.4byte	.LBB1536
 23689 05b4 000015C0 		.4byte	.LBE1536
 23690 05b8 00000000 		.4byte	0x0
 23691 05bc 00000000 		.4byte	0x0
 23692 05c0 00001594 		.4byte	.LBB1538
 23693 05c4 0000159C 		.4byte	.LBE1538
 23694 05c8 000015C8 		.4byte	.LBB1535
 23695 05cc 00001634 		.4byte	.LBE1535
 23696 05d0 00000000 		.4byte	0x0
 23697 05d4 00000000 		.4byte	0x0
 23698 05d8 00001594 		.4byte	.LBB1541
 23699 05dc 0000159C 		.4byte	.LBE1541
 23700 05e0 00001630 		.4byte	.LBB1552
 23701 05e4 00001634 		.4byte	.LBE1552
 23702 05e8 00001608 		.4byte	.LBB1550
 23703 05ec 0000160C 		.4byte	.LBE1550
 23704 05f0 000015F4 		.4byte	.LBB1544
 23705 05f4 00001600 		.4byte	.LBE1544
 23706 05f8 00000000 		.4byte	0x0
 23707 05fc 00000000 		.4byte	0x0
 23708 0600 000015C8 		.4byte	.LBB1542
 23709 0604 000015D4 		.4byte	.LBE1542
 23710 0608 000015D8 		.4byte	.LBB1543
 23711 060c 000015DC 		.4byte	.LBE1543
 23712 0610 00000000 		.4byte	0x0
 23713 0614 00000000 		.4byte	0x0
 23714 0618 00001600 		.4byte	.LBB1545
 23715 061c 00001608 		.4byte	.LBE1545
 23716 0620 00001620 		.4byte	.LBB1551
 23717 0624 00001630 		.4byte	.LBE1551
 23718 0628 00000000 		.4byte	0x0
 23719 062c 00000000 		.4byte	0x0
 23720 0630 000015A4 		.4byte	.LBB1555
 23721 0634 000015A8 		.4byte	.LBE1555
 23722 0638 000016E8 		.4byte	.LBB1576
 23723 063c 0000174C 		.4byte	.LBE1576
 23724 0640 000016DC 		.4byte	.LBB1575
 23725 0644 000016E4 		.4byte	.LBE1575
 23726 0648 00000000 		.4byte	0x0
 23727 064c 00000000 		.4byte	0x0
 23728 0650 000016DC 		.4byte	.LBB1560
 23729 0654 000016E4 		.4byte	.LBE1560
 23730 0658 000016F0 		.4byte	.LBB1563
 23731 065c 000016F4 		.4byte	.LBE1563
 23732 0660 000016E8 		.4byte	.LBB1562
 23733 0664 000016EC 		.4byte	.LBE1562
 23734 0668 00000000 		.4byte	0x0
 23735 066c 00000000 		.4byte	0x0
 23736 0670 000015A4 		.4byte	.LBB1561
 23737 0674 000015A8 		.4byte	.LBE1561
 23738 0678 00001748 		.4byte	.LBB1572
 23739 067c 0000174C 		.4byte	.LBE1572
 23740 0680 00001720 		.4byte	.LBB1570
 23741 0684 00001724 		.4byte	.LBE1570
 23742 0688 0000170C 		.4byte	.LBB1564
 23743 068c 00001718 		.4byte	.LBE1564
 23744 0690 00000000 		.4byte	0x0
 23745 0694 00000000 		.4byte	0x0
 23746 0698 00001718 		.4byte	.LBB1565
 23747 069c 00001720 		.4byte	.LBE1565
 23748 06a0 00001738 		.4byte	.LBB1571
 23749 06a4 00001748 		.4byte	.LBE1571
 23750 06a8 00000000 		.4byte	0x0
 23751 06ac 00000000 		.4byte	0x0
 23752 06b0 00001840 		.4byte	.LBB1654
 23753 06b4 000019D8 		.4byte	.LBE1654
 23754 06b8 00001A8C 		.4byte	.LBB1694
 23755 06bc 00001B4C 		.4byte	.LBE1694
 23756 06c0 00000000 		.4byte	0x0
 23757 06c4 00000000 		.4byte	0x0
 23758 06c8 00001850 		.4byte	.LBB1658
 23759 06cc 00001854 		.4byte	.LBE1658
 23760 06d0 00001A8C 		.4byte	.LBB1693
 23761 06d4 00001B4C 		.4byte	.LBE1693
 23762 06d8 00001884 		.4byte	.LBB1655
 23763 06dc 000019CC 		.4byte	.LBE1655
 23764 06e0 00001874 		.4byte	.LBB1656
 23765 06e4 00001880 		.4byte	.LBE1656
 23766 06e8 00001858 		.4byte	.LBB1657
 23767 06ec 0000185C 		.4byte	.LBE1657
 23768 06f0 00000000 		.4byte	0x0
 23769 06f4 00000000 		.4byte	0x0
 23770 06f8 000018A0 		.4byte	.LBB1662
 23771 06fc 000018AC 		.4byte	.LBE1662
 23772 0700 000018B0 		.4byte	.LBB1663
 23773 0704 000018B4 		.4byte	.LBE1663
 23774 0708 00000000 		.4byte	0x0
 23775 070c 00000000 		.4byte	0x0
 23776 0710 000018CC 		.4byte	.LBB1664
 23777 0714 000018D8 		.4byte	.LBE1664
 23778 0718 00001908 		.4byte	.LBB1672
 23779 071c 0000190C 		.4byte	.LBE1672
 23780 0720 000018E0 		.4byte	.LBB1670
 23781 0724 000018E4 		.4byte	.LBE1670
 23782 0728 00000000 		.4byte	0x0
 23783 072c 00000000 		.4byte	0x0
 23784 0730 000018D8 		.4byte	.LBB1665
 23785 0734 000018E0 		.4byte	.LBE1665
 23786 0738 000018F8 		.4byte	.LBB1671
 23787 073c 00001908 		.4byte	.LBE1671
 23788 0740 00000000 		.4byte	0x0
 23789 0744 00000000 		.4byte	0x0
 23790 0748 00001884 		.4byte	.LBB1674
 23791 074c 00001888 		.4byte	.LBE1674
 23792 0750 00001890 		.4byte	.LBB1673
 23793 0754 00001898 		.4byte	.LBE1673
 23794 0758 00000000 		.4byte	0x0
 23795 075c 00000000 		.4byte	0x0
 23796 0760 00001AA8 		.4byte	.LBB1675
 23797 0764 00001AB0 		.4byte	.LBE1675
 23798 0768 00001AB4 		.4byte	.LBB1692
 23799 076c 00001B18 		.4byte	.LBE1692
 23800 0770 00000000 		.4byte	0x0
 23801 0774 00000000 		.4byte	0x0
 23802 0778 00001AA8 		.4byte	.LBB1678
 23803 077c 00001AB0 		.4byte	.LBE1678
 23804 0780 00001ABC 		.4byte	.LBB1680
 23805 0784 00001AC0 		.4byte	.LBE1680
 23806 0788 00001AB4 		.4byte	.LBB1679
 23807 078c 00001AB8 		.4byte	.LBE1679
 23808 0790 00000000 		.4byte	0x0
 23809 0794 00000000 		.4byte	0x0
 23810 0798 00001AD8 		.4byte	.LBB1681
 23811 079c 00001AE4 		.4byte	.LBE1681
 23812 07a0 00001B14 		.4byte	.LBB1689
 23813 07a4 00001B18 		.4byte	.LBE1689
 23814 07a8 00001AEC 		.4byte	.LBB1687
 23815 07ac 00001AF0 		.4byte	.LBE1687
 23816 07b0 00000000 		.4byte	0x0
 23817 07b4 00000000 		.4byte	0x0
 23818 07b8 00001AE4 		.4byte	.LBB1682
 23819 07bc 00001AEC 		.4byte	.LBE1682
 23820 07c0 00001B04 		.4byte	.LBB1688
 23821 07c4 00001B14 		.4byte	.LBE1688
 23822 07c8 00000000 		.4byte	0x0
 23823 07cc 00000000 		.4byte	0x0
 23824              		.section	.debug_str,"MS",@progbits,1
 23825              	.LASF251:
 23826 0000 7374796C 		.string	"style_name"
 23826      655F6E61 
 23826      6D6500
 23827              	.LASF609:
 23828 000b 5F5A4E53 		.string	"_ZNSt8_Rb_treeIwSt4pairIKw13ftgxCharData_ESt10_Select1stIS3_ESt4lessIwESaIS3_EE11upper_bo
 23828      74385F52 
 23828      625F7472 
 23828      65654977 
 23828      53743470 
 23829              	.LASF392:
 23830 006d 6C636F6E 		.string	"lconv"
 23830      7600
 23831              	.LASF452:
 23832 0073 6E65775F 		.string	"new_allocator<std::pair<const wchar_t, ftgxCharData_> >"
 23832      616C6C6F 
 23832      6361746F 
 23832      723C7374 
 23832      643A3A70 
 23833              	.LASF137:
 23834 00ab 72657365 		.string	"reserved"
 23834      72766564 
 23834      00
 23835              	.LASF643:
 23836 00b4 5F5A4E53 		.string	"_ZNSt3mapIw13ftgxCharData_St4lessIwESaISt4pairIKwS0_EEE5clearEv"
 23836      74336D61 
 23836      70497731 
 23836      33667467 
 23836      78436861 
 23837              	.LASF710:
 23838 00f4 5F5A4E31 		.string	"_ZN10FreeTypeGX8getWidthEPKw"
 23838      30467265 
 23838      65547970 
 23838      65475838 
 23838      67657457 
 23839              	.LASF561:
 23840 0111 5F5A4E53 		.string	"_ZNSt8_Rb_treeIwSt4pairIKw13ftgxCharData_ESt10_Select1stIS3_ESt4lessIwESaIS3_EEaSERKS9_"
 23840      74385F52 
 23840      625F7472 
 23840      65654977 
 23840      53743470 
 23841              	.LASF226:
 23842 0169 46545F47 		.string	"FT_Glyph_Metrics_"
 23842      6C797068 
 23842      5F4D6574 
 23842      72696373 
 23842      5F00
 23843              	.LASF322:
 23844 017b 46545F46 		.string	"FT_Face_Internal"
 23844      6163655F 
 23844      496E7465 
 23844      726E616C 
 23844      00
 23845              	.LASF338:
 23846 018c 46545F52 		.string	"FT_RENDER_MODE_MONO"
 23846      454E4445 
 23846      525F4D4F 
 23846      44455F4D 
 23846      4F4E4F00 
 23847              	.LASF559:
 23848 01a0 7E5F5262 		.string	"~_Rb_tree"
 23848      5F747265 
 23848      6500
 23849              	.LASF497:
 23850 01aa 5F5A4E4B 		.string	"_ZNK9__gnu_cxx13new_allocatorISt13_Rb_tree_nodeISt4pairIKw13ftgxCharData_EEE8max_sizeEv"
 23850      395F5F67 
 23850      6E755F63 
 23850      78783133 
 23850      6E65775F 
 23851              	.LASF122:
 23852 0202 746D5F73 		.string	"tm_sec"
 23852      656300
 23853              	.LASF700:
 23854 0209 6C6F6164 		.string	"loadFont"
 23854      466F6E74 
 23854      00
 23855              	.LASF481:
 23856 0212 616C6C6F 		.string	"allocate"
 23856      63617465 
 23856      00
 23857              	.LASF213:
 23858 021b 46545F47 		.string	"FT_Generic_Finalizer"
 23858      656E6572 
 23858      69635F46 
 23858      696E616C 
 23858      697A6572 
 23859              	.LASF476:
 23860 0230 6E65775F 		.string	"new_allocator"
 23860      616C6C6F 
 23860      6361746F 
 23860      7200
 23861              	.LASF296:
 23862 023e 46545F43 		.string	"FT_CharMapRec_"
 23862      6861724D 
 23862      61705265 
 23862      635F00
 23863              	.LASF803:
 23864 024d 66746778 		.string	"ftgxWhite"
 23864      57686974 
 23864      6500
 23865              	.LASF141:
 23866 0257 66706F73 		.string	"fpos_t"
 23866      5F7400
 23867              	.LASF45:
 23868 025e 5F617465 		.string	"_atexit"
 23868      78697400 
 23869              	.LASF355:
 23870 0266 6C657373 		.string	"less<wchar_t>"
 23870      3C776368 
 23870      61725F74 
 23870      3E00
 23871              	.LASF768:
 23872 0274 7465784F 		.string	"texObj"
 23872      626A00
 23873              	.LASF314:
 23874 027b 46545F45 		.string	"FT_ENCODING_MS_JOHAB"
 23874      4E434F44 
 23874      494E475F 
 23874      4D535F4A 
 23874      4F484142 
 23875              	.LASF260:
 23876 0290 64657363 		.string	"descender"
 23876      656E6465 
 23876      7200
 23877              	.LASF702:
 23878 029a 5F5A4E31 		.string	"_ZN10FreeTypeGX8loadFontEPKhljb"
 23878      30467265 
 23878      65547970 
 23878      65475838 
 23878      6C6F6164 
 23879              	.LASF264:
 23880 02ba 756E6465 		.string	"underline_thickness"
 23880      726C696E 
 23880      655F7468 
 23880      69636B6E 
 23880      65737300 
 23881              	.LASF262:
 23882 02ce 6D61785F 		.string	"max_advance_height"
 23882      61647661 
 23882      6E63655F 
 23882      68656967 
 23882      687400
 23883              	.LASF450:
 23884 02e1 5F5F676E 		.string	"__gnu_cxx"
 23884      755F6378 
 23884      7800
 23885              	.LASF619:
 23886 02eb 5F5A4E53 		.string	"_ZNSt3mapIw13ftgxCharData_St4lessIwESaISt4pairIKwS0_EEEaSERKS7_"
 23886      74336D61 
 23886      70497731 
 23886      33667467 
 23886      78436861 
 23887              	.LASF752:
 23888 032b 6F706572 		.string	"operator new"
 23888      61746F72 
 23888      206E6577 
 23888      00
 23889              	.LASF472:
 23890 0338 676C7970 		.string	"glyphDataTexture"
 23890      68446174 
 23890      61546578 
 23890      74757265 
 23890      00
 23891              	.LASF332:
 23892 0349 46545F53 		.string	"FT_SubGlyphRec_"
 23892      7562476C 
 23892      79706852 
 23892      65635F00 
 23893              	.LASF217:
 23894 0359 46545F47 		.string	"FT_Generic"
 23894      656E6572 
 23894      696300
 23895              	.LASF43:
 23896 0364 5F666E74 		.string	"_fntypes"
 23896      79706573 
 23896      00
 23897              	.LASF261:
 23898 036d 6D61785F 		.string	"max_advance_width"
 23898      61647661 
 23898      6E63655F 
 23898      77696474 
 23898      6800
 23899              	.LASF777:
 23900 037f 70697865 		.string	"pixel"
 23900      6C00
 23901              	.LASF93:
 23902 0385 5F696E63 		.string	"_inc"
 23902      00
 23903              	.LASF46:
 23904 038a 5F696E64 		.string	"_ind"
 23904      00
 23905              	.LASF493:
 23906 038f 5F5A4E4B 		.string	"_ZNK9__gnu_cxx13new_allocatorISt13_Rb_tree_nodeISt4pairIKw13ftgxCharData_EEE7addressERS6_
 23906      395F5F67 
 23906      6E755F63 
 23906      78783133 
 23906      6E65775F 
 23907              	.LASF161:
 23908 03e9 72656164 		.string	"read"
 23908      00
 23909              	.LASF601:
 23910 03ee 5F5A4E53 		.string	"_ZNSt8_Rb_treeIwSt4pairIKw13ftgxCharData_ESt10_Select1stIS3_ESt4lessIwESaIS3_EE4findERS1_
 23910      74385F52 
 23910      625F7472 
 23910      65654977 
 23910      53743470 
 23911              	.LASF462:
 23912 0448 5F535F6D 		.string	"_S_maximum"
 23912      6178696D 
 23912      756D00
 23913              	.LASF704:
 23914 0453 5F5A4E31 		.string	"_ZN10FreeTypeGX10changeSizeEj"
 23914      30467265 
 23914      65547970 
 23914      65475831 
 23914      30636861 
 23915              	.LASF754:
 23916 0471 47585F43 		.string	"GX_Color4u8"
 23916      6F6C6F72 
 23916      34753800 
 23917              	.LASF738:
 23918 047d 5F52625F 		.string	"_Rb_tree_const_iterator"
 23918      74726565 
 23918      5F636F6E 
 23918      73745F69 
 23918      74657261 
 23919              	.LASF146:
 23920 0495 46545F4D 		.string	"FT_Memory"
 23920      656D6F72 
 23920      7900
 23921              	.LASF416:
 23922 049f 66656F66 		.string	"feof"
 23922      00
 23923              	.LASF13:
 23924 04a4 5F67785F 		.string	"_gx_texobj"
 23924      7465786F 
 23924      626A00
 23925              	.LASF133:
 23926 04af 75696E74 		.string	"uint16_t"
 23926      31365F74 
 23926      00
 23927              	.LASF531:
 23928 04b8 5F5A4E53 		.string	"_ZNSt8_Rb_treeIwSt4pairIKw13ftgxCharData_ESt10_Select1stIS3_ESt4lessIwESaIS3_EE6_M_endEv"
 23928      74385F52 
 23928      625F7472 
 23928      65654977 
 23928      53743470 
 23929              	.LASF694:
 23930 0511 5F5A4E31 		.string	"_ZN10FreeTypeGX14charToWideCharEPc"
 23930      30467265 
 23930      65547970 
 23930      65475831 
 23930      34636861 
 23931              	.LASF138:
 23932 0534 6F766572 		.string	"overflow_arg_area"
 23932      666C6F77 
 23932      5F617267 
 23932      5F617265 
 23932      6100
 23933              	.LASF121:
 23934 0546 74696D65 		.string	"time_t"
 23934      5F7400
 23935              	.LASF52:
 23936 054d 5F666C61 		.string	"_flags"
 23936      677300
 23937              	.LASF221:
 23938 0554 6E657874 		.string	"next"
 23938      00
 23939              	.LASF626:
 23940 0559 5F5A4E4B 		.string	"_ZNKSt3mapIw13ftgxCharData_St4lessIwESaISt4pairIKwS0_EEE6rbeginEv"
 23940      5374336D 
 23940      61704977 
 23940      31336674 
 23940      67784368 
 23941              	.LASF139:
 23942 059b 7265675F 		.string	"reg_save_area"
 23942      73617665 
 23942      5F617265 
 23942      6100
 23943              	.LASF103:
 23944 05a9 5F637674 		.string	"_cvtlen"
 23944      6C656E00 
 23945              	.LASF553:
 23946 05b1 5F5A4E53 		.string	"_ZNSt8_Rb_treeIwSt4pairIKw13ftgxCharData_ESt10_Select1stIS3_ESt4lessIwESaIS3_EE9_M_insert
 23946      74385F52 
 23946      625F7472 
 23946      65654977 
 23946      53743470 
 23947              	.LASF638:
 23948 062c 5F5A4E53 		.string	"_ZNSt3mapIw13ftgxCharData_St4lessIwESaISt4pairIKwS0_EEE6insertESt17_Rb_tree_iteratorIS5_E
 23948      74336D61 
 23948      70497731 
 23948      33667467 
 23948      78436861 
 23949              	.LASF776:
 23950 068b 696D6167 		.string	"imagePosX"
 23950      65506F73 
 23950      5800
 23951              	.LASF775:
 23952 0695 696D6167 		.string	"imagePosY"
 23952      65506F73 
 23952      5900
 23953              	.LASF107:
 23954 069f 5F736967 		.string	"_sig_func"
 23954      5F66756E 
 23954      6300
 23955              	.LASF352:
 23956 06a9 616C6C6F 		.string	"allocator<std::_Rb_tree_node<std::pair<const wchar_t, ftgxCharData_> > >"
 23956      6361746F 
 23956      723C7374 
 23956      643A3A5F 
 23956      52625F74 
 23957              	.LASF483:
 23958 06f2 6465616C 		.string	"deallocate"
 23958      6C6F6361 
 23958      746500
 23959              	.LASF484:
 23960 06fd 5F5A4E53 		.string	"_ZNSt18_Rb_tree_node_base10_S_maximumEPKS_"
 23960      7431385F 
 23960      52625F74 
 23960      7265655F 
 23960      6E6F6465 
 23961              	.LASF130:
 23962 0728 746D5F69 		.string	"tm_isdst"
 23962      73647374 
 23962      00
 23963              	.LASF227:
 23964 0731 68656967 		.string	"height"
 23964      687400
 23965              	.LASF395:
 23966 0738 67726F75 		.string	"grouping"
 23966      70696E67 
 23966      00
 23967              	.LASF708:
 23968 0741 67657457 		.string	"getWidth"
 23968      69647468 
 23968      00
 23969              	.LASF278:
 23970 074a 46545F47 		.string	"FT_GlyphSlotRec_"
 23970      6C797068 
 23970      536C6F74 
 23970      5265635F 
 23970      00
 23971              	.LASF65:
 23972 075b 5F6C6F63 		.string	"_lock"
 23972      6B00
 23973              	.LASF61:
 23974 0761 5F6E6275 		.string	"_nbuf"
 23974      6600
 23975              	.LASF745:
 23976 0767 5F5A4E4B 		.string	"_ZNKSt23_Rb_tree_const_iteratorISt4pairIKw13ftgxCharData_EEeqERKS4_"
 23976      53743233 
 23976      5F52625F 
 23976      74726565 
 23976      5F636F6E 
 23977              	.LASF491:
 23978 07ab 616C6C6F 		.string	"allocator"
 23978      6361746F 
 23978      7200
 23979              	.LASF88:
 23980 07b5 5F756E75 		.string	"_unused"
 23980      73656400 
 23981              	.LASF256:
 23982 07bd 67656E65 		.string	"generic"
 23982      72696300 
 23983              	.LASF688:
 23984 07c5 636F7079 		.string	"copyTextureToFramebuffer"
 23984      54657874 
 23984      75726554 
 23984      6F467261 
 23984      6D656275 
 23985              	.LASF310:
 23986 07de 46545F45 		.string	"FT_ENCODING_MS_SJIS"
 23986      4E434F44 
 23986      494E475F 
 23986      4D535F53 
 23986      4A495300 
 23987              	.LASF486:
 23988 07f2 6D61785F 		.string	"max_size"
 23988      73697A65 
 23988      00
 23989              	.LASF10:
 23990 07fb 626F6F6C 		.string	"bool"
 23990      00
 23991              	.LASF507:
 23992 0800 5F5A4E4B 		.string	"_ZNKSt8_Rb_treeIwSt4pairIKw13ftgxCharData_ESt10_Select1stIS3_ESt4lessIwESaIS3_EE13get_all
 23992      5374385F 
 23992      52625F74 
 23992      72656549 
 23992      77537434 
 23993              	.LASF376:
 23994 0862 61746F69 		.string	"atoi"
 23994      00
 23995              	.LASF377:
 23996 0867 61746F6C 		.string	"atol"
 23996      00
 23997              	.LASF468:
 23998 086c 74657874 		.string	"textureHeight"
 23998      75726548 
 23998      65696768 
 23998      7400
 23999              	.LASF369:
 24000 087a 73747263 		.string	"strcoll"
 24000      6F6C6C00 
 24001              	.LASF617:
 24002 0882 5F4D5F74 		.string	"_M_t"
 24002      00
 24003              	.LASF662:
 24004 0887 6674506F 		.string	"ftPointSize"
 24004      696E7453 
 24004      697A6500 
 24005              	.LASF228:
 24006 0893 686F7269 		.string	"horiBearingX"
 24006      42656172 
 24006      696E6758 
 24006      00
 24007              	.LASF96:
 24008 08a0 5F637572 		.string	"_current_locale"
 24008      72656E74 
 24008      5F6C6F63 
 24008      616C6500 
 24009              	.LASF330:
 24010 08b0 46545F53 		.string	"FT_Size_Metrics"
 24010      697A655F 
 24010      4D657472 
 24010      69637300 
 24011              	.LASF300:
 24012 08c0 46545F47 		.string	"FT_Glyph_Format_"
 24012      6C797068 
 24012      5F466F72 
 24012      6D61745F 
 24012      00
 24013              	.LASF585:
 24014 08d1 5F5A4E53 		.string	"_ZNSt8_Rb_treeIwSt4pairIKw13ftgxCharData_ESt10_Select1stIS3_ESt4lessIwESaIS3_EE21_M_inser
 24014      74385F52 
 24014      625F7472 
 24014      65654977 
 24014      53743470 
 24015              	.LASF179:
 24016 093e 794D6178 		.string	"yMax"
 24016      00
 24017              	.LASF494:
 24018 0943 5F5A4E4B 		.string	"_ZNK9__gnu_cxx13new_allocatorISt13_Rb_tree_nodeISt4pairIKw13ftgxCharData_EEE7addressERKS6
 24018      395F5F67 
 24018      6E755F63 
 24018      78783133 
 24018      6E65775F 
 24019              	.LASF690:
 24020 099e 636F7079 		.string	"copyFeatureToFramebuffer"
 24020      46656174 
 24020      75726554 
 24020      6F467261 
 24020      6D656275 
 24021              	.LASF451:
 24022 09b7 5F5F6465 		.string	"__debug"
 24022      62756700 
 24023              	.LASF117:
 24024 09bf 5F616464 		.string	"_add"
 24024      00
 24025              	.LASF308:
 24026 09c4 46545F45 		.string	"FT_ENCODING_WANSUNG"
 24026      4E434F44 
 24026      494E475F 
 24026      57414E53 
 24026      554E4700 
 24027              	.LASF326:
 24028 09d8 46545F53 		.string	"FT_Size_Metrics_"
 24028      697A655F 
 24028      4D657472 
 24028      6963735F 
 24028      00
 24029              	.LASF396:
 24030 09e9 696E745F 		.string	"int_curr_symbol"
 24030      63757272 
 24030      5F73796D 
 24030      626F6C00 
 24031              	.LASF687:
 24032 09f9 5F5A4E31 		.string	"_ZN10FreeTypeGX15drawTextFeatureEsst15ftgxDataOffset_t9_gx_color"
 24032      30467265 
 24032      65547970 
 24032      65475831 
 24032      35647261 
 24033              	.LASF147:
 24034 0a3a 46545F4D 		.string	"FT_MemoryRec_"
 24034      656D6F72 
 24034      79526563 
 24034      5F00
 24035              	.LASF411:
 24036 0a48 7365746C 		.string	"setlocale"
 24036      6F63616C 
 24036      6500
 24037              	.LASF806:
 24038 0a52 643A5C5C 		.string	"d:\\\\code\\\\dasdd\\\\build"
 24038      636F6465 
 24038      5C5C6461 
 24038      7364645C 
 24038      5C627569 
 24039              	.LASF214:
 24040 0a69 46545F47 		.string	"FT_Generic_"
 24040      656E6572 
 24040      69635F00 
 24041              	.LASF180:
 24042 0a75 46545F42 		.string	"FT_BBox"
 24042      426F7800 
 24043              	.LASF320:
 24044 0a7d 46545F45 		.string	"FT_ENCODING_APPLE_ROMAN"
 24044      4E434F44 
 24044      494E475F 
 24044      4150504C 
 24044      455F524F 
 24045              	.LASF362:
 24046 0a95 72657665 		.string	"reverse_iterator<std::_Rb_tree_const_iterator<std::pair<const wchar_t, ftgxCharData_> > >
 24046      7273655F 
 24046      69746572 
 24046      61746F72 
 24046      3C737464 
 24047              	.LASF747:
 24048 0aef 5F5A4E4B 		.string	"_ZNKSt10_Select1stISt4pairIKw13ftgxCharData_EEclERS3_"
 24048      53743130 
 24048      5F53656C 
 24048      65637431 
 24048      73744953 
 24049              	.LASF339:
 24050 0b25 46545F52 		.string	"FT_RENDER_MODE_LCD"
 24050      454E4445 
 24050      525F4D4F 
 24050      44455F4C 
 24050      434400
 24051              	.LASF225:
 24052 0b38 46545F4C 		.string	"FT_ListRec"
 24052      69737452 
 24052      656300
 24053              	.LASF374:
 24054 0b43 61746578 		.string	"atexit"
 24054      697400
 24055              	.LASF525:
 24056 0b4a 5F5A4E53 		.string	"_ZNSt8_Rb_treeIwSt4pairIKw13ftgxCharData_ESt10_Select1stIS3_ESt4lessIwESaIS3_EE12_M_right
 24056      74385F52 
 24056      625F7472 
 24056      65654977 
 24056      53743470 
 24057              	.LASF622:
 24058 0baa 5F5A4E4B 		.string	"_ZNKSt3mapIw13ftgxCharData_St4lessIwESaISt4pairIKwS0_EEE5beginEv"
 24058      5374336D 
 24058      61704977 
 24058      31336674 
 24058      67784368 
 24059              	.LASF54:
 24060 0beb 5F6C6266 		.string	"_lbfsize"
 24060      73697A65 
 24060      00
 24061              	.LASF346:
 24062 0bf4 5F52625F 		.string	"_Rb_tree_color"
 24062      74726565 
 24062      5F636F6C 
 24062      6F7200
 24063              	.LASF199:
 24064 0c03 46545F47 		.string	"FT_GLYPH_FORMAT_NONE"
 24064      4C595048 
 24064      5F464F52 
 24064      4D41545F 
 24064      4E4F4E45 
 24065              	.LASF709:
 24066 0c18 5F5A4E31 		.string	"_ZN10FreeTypeGX8getWidthEPw"
 24066      30467265 
 24066      65547970 
 24066      65475838 
 24066      67657457 
 24067              	.LASF499:
 24068 0c34 5F5A4E39 		.string	"_ZN9__gnu_cxx13new_allocatorISt4pairIKw13ftgxCharData_EE7destroyEPS4_"
 24068      5F5F676E 
 24068      755F6378 
 24068      7831336E 
 24068      65775F61 
 24069              	.LASF136:
 24070 0c7a 5F5F7661 		.string	"__va_list_tag"
 24070      5F6C6973 
 24070      745F7461 
 24070      6700
 24071              	.LASF64:
 24072 0c88 5F646174 		.string	"_data"
 24072      6100
 24073              	.LASF464:
 24074 0c8e 66746778 		.string	"ftgxCharData_"
 24074      43686172 
 24074      44617461 
 24074      5F00
 24075              	.LASF245:
 24076 0c9c 6E756D5F 		.string	"num_faces"
 24076      66616365 
 24076      7300
 24077              	.LASF150:
 24078 0ca6 66726565 		.string	"free"
 24078      00
 24079              	.LASF350:
 24080 0cab 70616972 		.string	"pair<const wchar_t,ftgxCharData_>"
 24080      3C636F6E 
 24080      73742077 
 24080      63686172 
 24080      5F742C66 
 24081              	.LASF797:
 24082 0ccd 785F6F66 		.string	"x_offset"
 24082      66736574 
 24082      00
 24083              	.LASF629:
 24084 0cd6 5F5A4E4B 		.string	"_ZNKSt3mapIw13ftgxCharData_St4lessIwESaISt4pairIKwS0_EEE5emptyEv"
 24084      5374336D 
 24084      61704977 
 24084      31336674 
 24084      67784368 
 24085              	.LASF252:
 24086 0d17 6E756D5F 		.string	"num_fixed_sizes"
 24086      66697865 
 24086      645F7369 
 24086      7A657300 
 24087              	.LASF498:
 24088 0d27 5F5A4E39 		.string	"_ZN9__gnu_cxx13new_allocatorISt13_Rb_tree_nodeISt4pairIKw13ftgxCharData_EEE9constructEPS6
 24088      5F5F676E 
 24088      755F6378 
 24088      7831336E 
 24088      65775F61 
 24089              	.LASF433:
 24090 0d87 72656E61 		.string	"rename"
 24090      6D6500
 24091              	.LASF66:
 24092 0d8e 5F726565 		.string	"_reent"
 24092      6E7400
 24093              	.LASF269:
 24094 0d95 73697A65 		.string	"sizes_list"
 24094      735F6C69 
 24094      737400
 24095              	.LASF447:
 24096 0da0 6C6F6361 		.string	"localtime"
 24096      6C74696D 
 24096      6500
 24097              	.LASF698:
 24098 0daa 73657443 		.string	"setCompatibilityMode"
 24098      6F6D7061 
 24098      74696269 
 24098      6C697479 
 24098      4D6F6465 
 24099              	.LASF109:
 24100 0dbf 5F5F7366 		.string	"__sf"
 24100      00
 24101              	.LASF552:
 24102 0dc4 5F5A4E53 		.string	"_ZNSt8_Rb_treeIwSt4pairIKw13ftgxCharData_ESt10_Select1stIS3_ESt4lessIwESaIS3_EE15_M_inser
 24102      74385F52 
 24102      625F7472 
 24102      65654977 
 24102      53743470 
 24103              	.LASF712:
 24104 0e45 5F5A4E31 		.string	"_ZN10FreeTypeGX9getHeightEPw"
 24104      30467265 
 24104      65547970 
 24104      65475839 
 24104      67657448 
 24105              	.LASF49:
 24106 0e62 5F626173 		.string	"_base"
 24106      6500
 24107              	.LASF760:
 24108 0e68 5F5F696E 		.string	"__initialize_p"
 24108      69746961 
 24108      6C697A65 
 24108      5F7000
 24109              	.LASF423:
 24110 0e77 66726561 		.string	"fread"
 24110      6400
 24111              	.LASF403:
 24112 0e7d 696E745F 		.string	"int_frac_digits"
 24112      66726163 
 24112      5F646967 
 24112      69747300 
 24113              	.LASF75:
 24114 0e8d 5F6D6274 		.string	"_mbtowc_state"
 24114      6F77635F 
 24114      73746174 
 24114      6500
 24115              	.LASF198:
 24116 0e9b 46545F4F 		.string	"FT_Outline"
 24116      75746C69 
 24116      6E6500
 24117              	.LASF171:
 24118 0ea6 46545F53 		.string	"FT_Stream_CloseFunc"
 24118      74726561 
 24118      6D5F436C 
 24118      6F736546 
 24118      756E6300 
 24119              	.LASF379:
 24120 0eba 5F52625F 		.string	"_Rb_tree_impl"
 24120      74726565 
 24120      5F696D70 
 24120      6C00
 24121              	.LASF394:
 24122 0ec8 74686F75 		.string	"thousands_sep"
 24122      73616E64 
 24122      735F7365 
 24122      7000
 24123              	.LASF604:
 24124 0ed6 5F5A4E4B 		.string	"_ZNKSt8_Rb_treeIwSt4pairIKw13ftgxCharData_ESt10_Select1stIS3_ESt4lessIwESaIS3_EE5countERS
 24124      5374385F 
 24124      52625F74 
 24124      72656549 
 24124      77537434 
 24125              	.LASF421:
 24126 0f32 66676574 		.string	"fgets"
 24126      7300
 24127              	.LASF522:
 24128 0f38 5F5A4E53 		.string	"_ZNSt8_Rb_treeIwSt4pairIKw13ftgxCharData_ESt10_Select1stIS3_ESt4lessIwESaIS3_EE11_M_leftm
 24128      74385F52 
 24128      625F7472 
 24128      65654977 
 24128      53743470 
 24129              	.LASF798:
 24130 0f97 795F6F66 		.string	"y_offset"
 24130      66736574 
 24130      00
 24131              	.LASF424:
 24132 0fa0 6672656F 		.string	"freopen"
 24132      70656E00 
 24133              	.LASF30:
 24134 0fa8 5F5F746D 		.string	"__tm"
 24134      00
 24135              	.LASF563:
 24136 0fad 5F5A4E4B 		.string	"_ZNKSt8_Rb_treeIwSt4pairIKw13ftgxCharData_ESt10_Select1stIS3_ESt4lessIwESaIS3_EE8key_comp
 24136      5374385F 
 24136      52625F74 
 24136      72656549 
 24136      77537434 
 24137              	.LASF288:
 24138 1009 6E756D5F 		.string	"num_subglyphs"
 24138      73756267 
 24138      6C797068 
 24138      7300
 24139              	.LASF38:
 24140 1017 5F5F746D 		.string	"__tm_yday"
 24140      5F796461 
 24140      7900
 24141              	.LASF534:
 24142 1021 5F5A4E53 		.string	"_ZNSt8_Rb_treeIwSt4pairIKw13ftgxCharData_ESt10_Select1stIS3_ESt4lessIwESaIS3_EE8_S_valueE
 24142      74385F52 
 24142      625F7472 
 24142      65654977 
 24142      53743470 
 24143              	.LASF348:
 24144 1093 5F535F62 		.string	"_S_black"
 24144      6C61636B 
 24144      00
 24145              	.LASF304:
 24146 109c 46545F45 		.string	"FT_ENCODING_UNICODE"
 24146      4E434F44 
 24146      494E475F 
 24146      554E4943 
 24146      4F444500 
 24147              	.LASF719:
 24148 10b0 6F706572 		.string	"operator*"
 24148      61746F72 
 24148      2A00
 24149              	.LASF546:
 24150 10ba 5F5A4E53 		.string	"_ZNSt8_Rb_treeIwSt4pairIKw13ftgxCharData_ESt10_Select1stIS3_ESt4lessIwESaIS3_EE10_S_minim
 24150      74385F52 
 24150      625F7472 
 24150      65654977 
 24150      53743470 
 24151              	.LASF160:
 24152 112f 70617468 		.string	"pathname"
 24152      6E616D65 
 24152      00
 24153              	.LASF454:
 24154 1138 5F5F676E 		.string	"__gnu_debug"
 24154      755F6465 
 24154      62756700 
 24155              	.LASF780:
 24156 1144 73747257 		.string	"strWChar"
 24156      43686172 
 24156      00
 24157              	.LASF267:
 24158 114d 64726976 		.string	"driver"
 24158      657200
 24159              	.LASF560:
 24160 1154 6F706572 		.string	"operator="
 24160      61746F72 
 24160      3D00
 24161              	.LASF235:
 24162 115e 46545F42 		.string	"FT_Bitmap_Size_"
 24162      69746D61 
 24162      705F5369 
 24162      7A655F00 
 24163              	.LASF67:
 24164 116e 5F756E75 		.string	"_unused_rand"
 24164      7365645F 
 24164      72616E64 
 24164      00
 24165              	.LASF739:
 24166 117b 5F5A4E4B 		.string	"_ZNKSt23_Rb_tree_const_iteratorISt4pairIKw13ftgxCharData_EEdeEv"
 24166      53743233 
 24166      5F52625F 
 24166      74726565 
 24166      5F636F6E 
 24167              	.LASF580:
 24168 11bb 5F4D5F69 		.string	"_M_insert_unique"
 24168      6E736572 
 24168      745F756E 
 24168      69717565 
 24168      00
 24169              	.LASF672:
 24170 11cc 67657453 		.string	"getStyleOffsetWidth"
 24170      74796C65 
 24170      4F666673 
 24170      65745769 
 24170      64746800 
 24171              	.LASF652:
 24172 11e0 5F5A4E53 		.string	"_ZNSt3mapIw13ftgxCharData_St4lessIwESaISt4pairIKwS0_EEE11upper_boundERS4_"
 24172      74336D61 
 24172      70497731 
 24172      33667467 
 24172      78436861 
 24173              	.LASF630:
 24174 122a 5F5A4E4B 		.string	"_ZNKSt3mapIw13ftgxCharData_St4lessIwESaISt4pairIKwS0_EEE4sizeEv"
 24174      5374336D 
 24174      61704977 
 24174      31336674 
 24174      67784368 
 24175              	.LASF216:
 24176 126a 66696E61 		.string	"finalizer"
 24176      6C697A65 
 24176      7200
 24177              	.LASF519:
 24178 1274 5F5A4E53 		.string	"_ZNSt8_Rb_treeIwSt4pairIKw13ftgxCharData_ESt10_Select1stIS3_ESt4lessIwESaIS3_EE7_M_rootEv
 24178      74385F52 
 24178      625F7472 
 24178      65654977 
 24178      53743470 
 24179              	.LASF266:
 24180 12ce 63686172 		.string	"charmap"
 24180      6D617000 
 24181              	.LASF233:
 24182 12d6 76657274 		.string	"vertAdvance"
 24182      41647661 
 24182      6E636500 
 24183              	.LASF397:
 24184 12e2 63757272 		.string	"currency_symbol"
 24184      656E6379 
 24184      5F73796D 
 24184      626F6C00 
 24185              	.LASF583:
 24186 12f2 5F5A4E53 		.string	"_ZNSt8_Rb_treeIwSt4pairIKw13ftgxCharData_ESt10_Select1stIS3_ESt4lessIwESaIS3_EE15_M_inser
 24186      74385F52 
 24186      625F7472 
 24186      65654977 
 24186      53743470 
 24187              	.LASF270:
 24188 1359 6175746F 		.string	"autohint"
 24188      68696E74 
 24188      00
 24189              	.LASF100:
 24190 1362 5F726573 		.string	"_result_k"
 24190      756C745F 
 24190      6B00
 24191              	.LASF152:
 24192 136c 46545F41 		.string	"FT_Alloc_Func"
 24192      6C6C6F63 
 24192      5F46756E 
 24192      6300
 24193              	.LASF92:
 24194 137a 5F737464 		.string	"_stderr"
 24194      65727200 
 24195              	.LASF99:
 24196 1382 5F726573 		.string	"_result"
 24196      756C7400 
 24197              	.LASF366:
 24198 138a 6D61703C 		.string	"map<wchar_t,ftgxCharData_,std::less<wchar_t>,std::allocator<std::pair<const wchar_t, ftgx
 24198      77636861 
 24198      725F742C 
 24198      66746778 
 24198      43686172 
 24199              	.LASF42:
 24200 13f2 5F64736F 		.string	"_dso_handle"
 24200      5F68616E 
 24200      646C6500 
 24201              	.LASF135:
 24202 13fe 5F5F676E 		.string	"__gnuc_va_list"
 24202      75635F76 
 24202      615F6C69 
 24202      737400
 24203              	.LASF495:
 24204 140d 5F5A4E39 		.string	"_ZN9__gnu_cxx13new_allocatorISt13_Rb_tree_nodeISt4pairIKw13ftgxCharData_EEE8allocateEjPKv
 24204      5F5F676E 
 24204      755F6378 
 24204      7831336E 
 24204      65775F61 
 24205              	.LASF37:
 24206 1467 5F5F746D 		.string	"__tm_wday"
 24206      5F776461 
 24206      7900
 24207              	.LASF39:
 24208 1471 5F5F746D 		.string	"__tm_isdst"
 24208      5F697364 
 24208      737400
 24209              	.LASF14:
 24210 147c 47585465 		.string	"GXTexObj"
 24210      784F626A 
 24210      00
 24211              	.LASF748:
 24212 1485 5F5A4E4B 		.string	"_ZNKSt10_Select1stISt4pairIKw13ftgxCharData_EEclERKS3_"
 24212      53743130 
 24212      5F53656C 
 24212      65637431 
 24212      73744953 
 24213              	.LASF286:
 24214 14bc 6269746D 		.string	"bitmap_top"
 24214      61705F74 
 24214      6F7000
 24215              	.LASF0:
 24216 14c7 756E7369 		.string	"unsigned char"
 24216      676E6564 
 24216      20636861 
 24216      7200
 24217              	.LASF91:
 24218 14d5 5F737464 		.string	"_stdout"
 24218      6F757400 
 24219              	.LASF303:
 24220 14dd 46545F45 		.string	"FT_ENCODING_MS_SYMBOL"
 24220      4E434F44 
 24220      494E475F 
 24220      4D535F53 
 24220      594D424F 
 24221              	.LASF263:
 24222 14f3 756E6465 		.string	"underline_position"
 24222      726C696E 
 24222      655F706F 
 24222      73697469 
 24222      6F6E00
 24223              	.LASF177:
 24224 1506 794D696E 		.string	"yMin"
 24224      00
 24225              	.LASF475:
 24226 150b 66746778 		.string	"ftgxDataOffset"
 24226      44617461 
 24226      4F666673 
 24226      657400
 24227              	.LASF570:
 24228 151a 5F5A4E53 		.string	"_ZNSt8_Rb_treeIwSt4pairIKw13ftgxCharData_ESt10_Select1stIS3_ESt4lessIwESaIS3_EE6rbeginEv"
 24228      74385F52 
 24228      625F7472 
 24228      65654977 
 24228      53743470 
 24229              	.LASF511:
 24230 1573 5F4D5F63 		.string	"_M_create_node"
 24230      72656174 
 24230      655F6E6F 
 24230      646500
 24231              	.LASF82:
 24232 1582 5F6D6273 		.string	"_mbsrtowcs_state"
 24232      72746F77 
 24232      63735F73 
 24232      74617465 
 24232      00
 24233              	.LASF29:
 24234 1593 5F776473 		.string	"_wds"
 24234      00
 24235              	.LASF594:
 24236 1598 5F5A4E53 		.string	"_ZNSt8_Rb_treeIwSt4pairIKw13ftgxCharData_ESt10_Select1stIS3_ESt4lessIwESaIS3_EE5eraseERS1
 24236      74385F52 
 24236      625F7472 
 24236      65654977 
 24236      53743470 
 24237              	.LASF7:
 24238 15f3 666C6F61 		.string	"float"
 24238      7400
 24239              	.LASF799:
 24240 15f9 676C7970 		.string	"glyphTexture"
 24240      68546578 
 24240      74757265 
 24240      00
 24241              	.LASF485:
 24242 1606 5F5A4E39 		.string	"_ZN9__gnu_cxx13new_allocatorISt4pairIKw13ftgxCharData_EE10deallocateEPS4_j"
 24242      5F5F676E 
 24242      755F6378 
 24242      7831336E 
 24242      65775F61 
 24243              	.LASF744:
 24244 1651 5F5A4E53 		.string	"_ZNSt23_Rb_tree_const_iteratorISt4pairIKw13ftgxCharData_EEmmEi"
 24244      7432335F 
 24244      52625F74 
 24244      7265655F 
 24244      636F6E73 
 24245              	.LASF778:
 24246 1690 706F696E 		.string	"pointSize"
 24246      7453697A 
 24246      6500
 24247              	.LASF50:
 24248 169a 5F73697A 		.string	"_size"
 24248      6500
 24249              	.LASF623:
 24250 16a0 5F5A4E53 		.string	"_ZNSt3mapIw13ftgxCharData_St4lessIwESaISt4pairIKwS0_EEE3endEv"
 24250      74336D61 
 24250      70497731 
 24250      33667467 
 24250      78436861 
 24251              	.LASF743:
 24252 16de 5F5A4E53 		.string	"_ZNSt23_Rb_tree_const_iteratorISt4pairIKw13ftgxCharData_EEmmEv"
 24252      7432335F 
 24252      52625F74 
 24252      7265655F 
 24252      636F6E73 
 24253              	.LASF753:
 24254 171d 47585F50 		.string	"GX_Position2s16"
 24254      6F736974 
 24254      696F6E32 
 24254      73313600 
 24255              	.LASF479:
 24256 172d 5F5A4E4B 		.string	"_ZNK9__gnu_cxx13new_allocatorISt4pairIKw13ftgxCharData_EE7addressERS4_"
 24256      395F5F67 
 24256      6E755F63 
 24256      78783133 
 24256      6E65775F 
 24257              	.LASF572:
 24258 1774 72656E64 		.string	"rend"
 24258      00
 24259              	.LASF57:
 24260 1779 5F777269 		.string	"_write"
 24260      746500
 24261              	.LASF435:
 24262 1780 73657462 		.string	"setbuf"
 24262      756600
 24263              	.LASF341:
 24264 1787 46545F52 		.string	"FT_RENDER_MODE_MAX"
 24264      454E4445 
 24264      525F4D4F 
 24264      44455F4D 
 24264      415800
 24265              	.LASF720:
 24266 179a 5F5A4E4B 		.string	"_ZNKSt17_Rb_tree_iteratorISt4pairIKw13ftgxCharData_EEdeEv"
 24266      53743137 
 24266      5F52625F 
 24266      74726565 
 24266      5F697465 
 24267              	.LASF761:
 24268 17d4 5F5F7072 		.string	"__priority"
 24268      696F7269 
 24268      747900
 24269              	.LASF273:
 24270 17df 46545F53 		.string	"FT_Size"
 24270      697A6500 
 24271              	.LASF669:
 24272 17e7 61646A75 		.string	"adjustTextureHeight"
 24272      73745465 
 24272      78747572 
 24272      65486569 
 24272      67687400 
 24273              	.LASF482:
 24274 17fb 5F5A4E39 		.string	"_ZN9__gnu_cxx13new_allocatorISt4pairIKw13ftgxCharData_EE8allocateEjPKv"
 24274      5F5F676E 
 24274      755F6378 
 24274      7831336E 
 24274      65775F61 
 24275              	.LASF579:
 24276 1842 73776170 		.string	"swap"
 24276      00
 24277              	.LASF210:
 24278 1847 46545F4C 		.string	"FT_Long"
 24278      6F6E6700 
 24279              	.LASF685:
 24280 184f 5F5A4E31 		.string	"_ZN10FreeTypeGX14setDefaultModeEv"
 24280      30467265 
 24280      65547970 
 24280      65475831 
 24280      34736574 
 24281              	.LASF793:
 24282 1871 70616972 		.string	"pairDelta"
 24282      44656C74 
 24282      6100
 24283              	.LASF299:
 24284 187b 656E636F 		.string	"encoding_id"
 24284      64696E67 
 24284      5F696400 
 24285              	.LASF517:
 24286 1887 5F5A4E53 		.string	"_ZNSt8_Rb_treeIwSt4pairIKw13ftgxCharData_ESt10_Select1stIS3_ESt4lessIwESaIS3_EE15_M_destr
 24286      74385F52 
 24286      625F7472 
 24286      65654977 
 24286      53743470 
 24287              	.LASF676:
 24288 1900 756E6C6F 		.string	"unloadFont"
 24288      6164466F 
 24288      6E7400
 24289              	.LASF36:
 24290 190b 5F5F746D 		.string	"__tm_year"
 24290      5F796561 
 24290      7200
 24291              	.LASF434:
 24292 1915 72657769 		.string	"rewind"
 24292      6E6400
 24293              	.LASF774:
 24294 191c 676C7970 		.string	"glyphData"
 24294      68446174 
 24294      6100
 24295              	.LASF566:
 24296 1926 5F5A4E4B 		.string	"_ZNKSt8_Rb_treeIwSt4pairIKw13ftgxCharData_ESt10_Select1stIS3_ESt4lessIwESaIS3_EE5beginEv"
 24296      5374385F 
 24296      52625F74 
 24296      72656549 
 24296      77537434 
 24297              	.LASF606:
 24298 197f 5F5A4E53 		.string	"_ZNSt8_Rb_treeIwSt4pairIKw13ftgxCharData_ESt10_Select1stIS3_ESt4lessIwESaIS3_EE11lower_bo
 24298      74385F52 
 24298      625F7472 
 24298      65654977 
 24298      53743470 
 24299              	.LASF247:
 24300 19e1 66616365 		.string	"face_flags"
 24300      5F666C61 
 24300      677300
 24301              	.LASF364:
 24302 19ec 70616972 		.string	"pair<std::_Rb_tree_iterator<std::pair<const wchar_t, ftgxCharData_> >,std::_Rb_tree_itera
 24302      3C737464 
 24302      3A3A5F52 
 24302      625F7472 
 24302      65655F69 
 24303              	.LASF358:
 24304 1a75 5F4D5F6E 		.string	"_M_node_count"
 24304      6F64655F 
 24304      636F756E 
 24304      7400
 24305              	.LASF116:
 24306 1a83 5F6D756C 		.string	"_mult"
 24306      7400
 24307              	.LASF637:
 24308 1a89 5F5A4E53 		.string	"_ZNSt3mapIw13ftgxCharData_St4lessIwESaISt4pairIKwS0_EEE6insertERKS5_"
 24308      74336D61 
 24308      70497731 
 24308      33667467 
 24308      78436861 
 24309              	.LASF612:
 24310 1ace 5F5A4E53 		.string	"_ZNSt8_Rb_treeIwSt4pairIKw13ftgxCharData_ESt10_Select1stIS3_ESt4lessIwESaIS3_EE11equal_ra
 24310      74385F52 
 24310      625F7472 
 24310      65654977 
 24310      53743470 
 24311              	.LASF354:
 24312 1b30 62696E61 		.string	"binary_function<wchar_t,wchar_t,bool>"
 24312      72795F66 
 24312      756E6374 
 24312      696F6E3C 
 24312      77636861 
 24313              	.LASF673:
 24314 1b56 5F5A4E31 		.string	"_ZN10FreeTypeGX19getStyleOffsetWidthEtt"
 24314      30467265 
 24314      65547970 
 24314      65475831 
 24314      39676574 
 24315              	.LASF670:
 24316 1b7e 5F5A4E31 		.string	"_ZN10FreeTypeGX18adjustTextureWidthEth"
 24316      30467265 
 24316      65547970 
 24316      65475831 
 24316      3861646A 
 24317              	.LASF205:
 24318 1ba5 46545F53 		.string	"FT_String"
 24318      7472696E 
 24318      6700
 24319              	.LASF621:
 24320 1baf 5F5A4E53 		.string	"_ZNSt3mapIw13ftgxCharData_St4lessIwESaISt4pairIKwS0_EEE5beginEv"
 24320      74336D61 
 24320      70497731 
 24320      33667467 
 24320      78436861 
 24321              	.LASF80:
 24322 1bef 5F6D6272 		.string	"_mbrlen_state"
 24322      6C656E5F 
 24322      73746174 
 24322      6500
 24323              	.LASF402:
 24324 1bfd 6E656761 		.string	"negative_sign"
 24324      74697665 
 24324      5F736967 
 24324      6E00
 24325              	.LASF349:
 24326 1c0b 5F52625F 		.string	"_Rb_tree_node_base"
 24326      74726565 
 24326      5F6E6F64 
 24326      655F6261 
 24326      736500
 24327              	.LASF654:
 24328 1c1e 5F5A4E53 		.string	"_ZNSt3mapIw13ftgxCharData_St4lessIwESaISt4pairIKwS0_EEE11equal_rangeERS4_"
 24328      74336D61 
 24328      70497731 
 24328      33667467 
 24328      78436861 
 24329              	.LASF613:
 24330 1c68 5F5A4E4B 		.string	"_ZNKSt8_Rb_treeIwSt4pairIKw13ftgxCharData_ESt10_Select1stIS3_ESt4lessIwESaIS3_EE11equal_r
 24330      5374385F 
 24330      52625F74 
 24330      72656549 
 24330      77537434 
 24331              	.LASF294:
 24332 1ccb 6F746865 		.string	"other"
 24332      7200
 24333              	.LASF200:
 24334 1cd1 46545F47 		.string	"FT_GLYPH_FORMAT_COMPOSITE"
 24334      4C595048 
 24334      5F464F52 
 24334      4D41545F 
 24334      434F4D50 
 24335              	.LASF427:
 24336 1ceb 6674656C 		.string	"ftell"
 24336      6C00
 24337              	.LASF145:
 24338 1cf1 76615F6C 		.string	"va_list"
 24338      69737400 
 24339              	.LASF90:
 24340 1cf9 5F737464 		.string	"_stdin"
 24340      696E00
 24341              	.LASF576:
 24342 1d00 5F5A4E4B 		.string	"_ZNKSt8_Rb_treeIwSt4pairIKw13ftgxCharData_ESt10_Select1stIS3_ESt4lessIwESaIS3_EE5emptyEv"
 24342      5374385F 
 24342      52625F74 
 24342      72656549 
 24342      77537434 
 24343              	.LASF255:
 24344 1d59 63686172 		.string	"charmaps"
 24344      6D617073 
 24344      00
 24345              	.LASF547:
 24346 1d62 5F5A4E53 		.string	"_ZNSt8_Rb_treeIwSt4pairIKw13ftgxCharData_ESt10_Select1stIS3_ESt4lessIwESaIS3_EE10_S_maxim
 24346      74385F52 
 24346      625F7472 
 24346      65654977 
 24346      53743470 
 24347              	.LASF87:
 24348 1dd6 5F6E6D61 		.string	"_nmalloc"
 24348      6C6C6F63 
 24348      00
 24349              	.LASF277:
 24350 1ddf 46545F47 		.string	"FT_GlyphSlot"
 24350      6C797068 
 24350      536C6F74 
 24350      00
 24351              	.LASF173:
 24352 1dec 46545F56 		.string	"FT_Vector_"
 24352      6563746F 
 24352      725F00
 24353              	.LASF571:
 24354 1df7 5F5A4E4B 		.string	"_ZNKSt8_Rb_treeIwSt4pairIKw13ftgxCharData_ESt10_Select1stIS3_ESt4lessIwESaIS3_EE6rbeginEv
 24354      5374385F 
 24354      52625F74 
 24354      72656549 
 24354      77537434 
 24355              	.LASF538:
 24356 1e51 5F5A4E53 		.string	"_ZNSt8_Rb_treeIwSt4pairIKw13ftgxCharData_ESt10_Select1stIS3_ESt4lessIwESaIS3_EE7_S_leftEP
 24356      74385F52 
 24356      625F7472 
 24356      65654977 
 24356      53743470 
 24357              	.LASF663:
 24358 1ec1 66744B65 		.string	"ftKerningEnabled"
 24358      726E696E 
 24358      67456E61 
 24358      626C6564 
 24358      00
 24359              	.LASF539:
 24360 1ed2 5F5A4E53 		.string	"_ZNSt8_Rb_treeIwSt4pairIKw13ftgxCharData_ESt10_Select1stIS3_ESt4lessIwESaIS3_EE7_S_leftEP
 24360      74385F52 
 24360      625F7472 
 24360      65654977 
 24360      53743470 
 24361              	.LASF158:
 24362 1f43 73697A65 		.string	"size"
 24362      00
 24363              	.LASF581:
 24364 1f48 5F5A4E53 		.string	"_ZNSt8_Rb_treeIwSt4pairIKw13ftgxCharData_ESt10_Select1stIS3_ESt4lessIwESaIS3_EE16_M_inser
 24364      74385F52 
 24364      625F7472 
 24364      65654977 
 24364      53743470 
 24365              	.LASF140:
 24366 1fb0 46494C45 		.string	"FILE"
 24366      00
 24367              	.LASF659:
 24368 1fb5 66744C69 		.string	"ftLibrary"
 24368      62726172 
 24368      7900
 24369              	.LASF440:
 24370 1fbf 636C6F63 		.string	"clock"
 24370      6B00
 24371              	.LASF591:
 24372 1fc5 5F5A4E53 		.string	"_ZNSt8_Rb_treeIwSt4pairIKw13ftgxCharData_ESt10_Select1stIS3_ESt4lessIwESaIS3_EE4swapERS9_
 24372      74385F52 
 24372      625F7472 
 24372      65654977 
 24372      53743470 
 24373              	.LASF625:
 24374 201f 5F5A4E53 		.string	"_ZNSt3mapIw13ftgxCharData_St4lessIwESaISt4pairIKwS0_EEE6rbeginEv"
 24374      74336D61 
 24374      70497731 
 24374      33667467 
 24374      78436861 
 24375              	.LASF598:
 24376 2060 636C6561 		.string	"clear"
 24376      7200
 24377              	.LASF289:
 24378 2066 73756267 		.string	"subglyphs"
 24378      6C797068 
 24378      7300
 24379              	.LASF237:
 24380 2070 795F7070 		.string	"y_ppem"
 24380      656D00
 24381              	.LASF444:
 24382 2077 61736374 		.string	"asctime"
 24382      696D6500 
 24383              	.LASF668:
 24384 207f 61646A75 		.string	"adjustTextureWidth"
 24384      73745465 
 24384      78747572 
 24384      65576964 
 24384      746800
 24385              	.LASF730:
 24386 2092 5F5A4E4B 		.string	"_ZNKSt17_Rb_tree_iteratorISt4pairIKw13ftgxCharData_EEeqERKS4_"
 24386      53743137 
 24386      5F52625F 
 24386      74726565 
 24386      5F697465 
 24387              	.LASF542:
 24388 20d0 5F5A4E53 		.string	"_ZNSt8_Rb_treeIwSt4pairIKw13ftgxCharData_ESt10_Select1stIS3_ESt4lessIwESaIS3_EE8_S_rightE
 24388      74385F52 
 24388      625F7472 
 24388      65654977 
 24388      53743470 
 24389              	.LASF807:
 24390 2142 5F52625F 		.string	"_Rb_tree<wchar_t,std::pair<const wchar_t, ftgxCharData_>,std::_Select1st<std::pair<const 
 24390      74726565 
 24390      3C776368 
 24390      61725F74 
 24390      2C737464 
 24391              	.LASF118:
 24392 2203 73697A65 		.string	"size_t"
 24392      5F7400
 24393              	.LASF70:
 24394 220a 5F6C6F63 		.string	"_localtime_buf"
 24394      616C7469 
 24394      6D655F62 
 24394      756600
 24395              	.LASF361:
 24396 2219 72657665 		.string	"reverse_iterator<std::_Rb_tree_iterator<std::pair<const wchar_t, ftgxCharData_> > >"
 24396      7273655F 
 24396      69746572 
 24396      61746F72 
 24396      3C737464 
 24397              	.LASF731:
 24398 226d 6F706572 		.string	"operator!="
 24398      61746F72 
 24398      213D00
 24399              	.LASF446:
 24400 2278 676D7469 		.string	"gmtime"
 24400      6D6500
 24401              	.LASF20:
 24402 227f 5F5F636F 		.string	"__count"
 24402      756E7400 
 24403              	.LASF131:
 24404 2287 75696E74 		.string	"uint8_t"
 24404      385F7400 
 24405              	.LASF143:
 24406 228f 71756F74 		.string	"quot"
 24406      00
 24407              	.LASF584:
 24408 2294 5F4D5F69 		.string	"_M_insert_equal_lower"
 24408      6E736572 
 24408      745F6571 
 24408      75616C5F 
 24408      6C6F7765 
 24409              	.LASF490:
 24410 22aa 64657374 		.string	"destroy"
 24410      726F7900 
 24411              	.LASF236:
 24412 22b2 785F7070 		.string	"x_ppem"
 24412      656D00
 24413              	.LASF578:
 24414 22b9 5F5A4E4B 		.string	"_ZNKSt8_Rb_treeIwSt4pairIKw13ftgxCharData_ESt10_Select1stIS3_ESt4lessIwESaIS3_EE8max_size
 24414      5374385F 
 24414      52625F74 
 24414      72656549 
 24414      77537434 
 24415              	.LASF620:
 24416 2315 5F5A4E4B 		.string	"_ZNKSt3mapIw13ftgxCharData_St4lessIwESaISt4pairIKwS0_EEE13get_allocatorEv"
 24416      5374336D 
 24416      61704977 
 24416      31336674 
 24416      67784368 
 24417              	.LASF521:
 24418 235f 5F4D5F6C 		.string	"_M_leftmost"
 24418      6566746D 
 24418      6F737400 
 24419              	.LASF509:
 24420 236b 5F5A4E53 		.string	"_ZNSt8_Rb_treeIwSt4pairIKw13ftgxCharData_ESt10_Select1stIS3_ESt4lessIwESaIS3_EE11_M_put_n
 24420      74385F52 
 24420      625F7472 
 24420      65654977 
 24420      53743470 
 24421              	.LASF334:
 24422 23e0 46545F53 		.string	"FT_Slot_InternalRec_"
 24422      6C6F745F 
 24422      496E7465 
 24422      726E616C 
 24422      5265635F 
 24423              	.LASF431:
 24424 23f5 70657272 		.string	"perror"
 24424      6F7200
 24425              	.LASF661:
 24426 23fc 6674536C 		.string	"ftSlot"
 24426      6F7400
 24427              	.LASF153:
 24428 2403 46545F46 		.string	"FT_Free_Func"
 24428      7265655F 
 24428      46756E63 
 24428      00
 24429              	.LASF104:
 24430 2410 5F637674 		.string	"_cvtbuf"
 24430      62756600 
 24431              	.LASF327:
 24432 2418 785F7363 		.string	"x_scale"
 24432      616C6500 
 24433              	.LASF196:
 24434 2420 636F6E74 		.string	"contours"
 24434      6F757273 
 24434      00
 24435              	.LASF574:
 24436 2429 5F5A4E4B 		.string	"_ZNKSt8_Rb_treeIwSt4pairIKw13ftgxCharData_ESt10_Select1stIS3_ESt4lessIwESaIS3_EE4rendEv"
 24436      5374385F 
 24436      52625F74 
 24436      72656549 
 24436      77537434 
 24437              	.LASF648:
 24438 2481 5F5A4E4B 		.string	"_ZNKSt3mapIw13ftgxCharData_St4lessIwESaISt4pairIKwS0_EEE4findERS4_"
 24438      5374336D 
 24438      61704977 
 24438      31336674 
 24438      67784368 
 24439              	.LASF588:
 24440 24c4 5F5A4E53 		.string	"_ZNSt8_Rb_treeIwSt4pairIKw13ftgxCharData_ESt10_Select1stIS3_ESt4lessIwESaIS3_EE15_M_inser
 24440      74385F52 
 24440      625F7472 
 24440      65654977 
 24440      53743470 
 24441              	.LASF307:
 24442 2545 46545F45 		.string	"FT_ENCODING_BIG5"
 24442      4E434F44 
 24442      494E475F 
 24442      42494735 
 24442      00
 24443              	.LASF189:
 24444 2556 70616C65 		.string	"palette"
 24444      74746500 
 24445              	.LASF298:
 24446 255e 706C6174 		.string	"platform_id"
 24446      666F726D 
 24446      5F696400 
 24447              	.LASF737:
 24448 256a 5F4D5F76 		.string	"_M_value_field"
 24448      616C7565 
 24448      5F666965 
 24448      6C6400
 24449              	.LASF399:
 24450 2579 6D6F6E5F 		.string	"mon_thousands_sep"
 24450      74686F75 
 24450      73616E64 
 24450      735F7365 
 24450      7000
 24451              	.LASF795:
 24452 258b 785F706F 		.string	"x_pos"
 24452      7300
 24453              	.LASF19:
 24454 2591 5F5F7763 		.string	"__wchb"
 24454      686200
 24455              	.LASF182:
 24456 2598 726F7773 		.string	"rows"
 24456      00
 24457              	.LASF81:
 24458 259d 5F6D6272 		.string	"_mbrtowc_state"
 24458      746F7763 
 24458      5F737461 
 24458      746500
 24459              	.LASF605:
 24460 25ac 6C6F7765 		.string	"lower_bound"
 24460      725F626F 
 24460      756E6400 
 24461              	.LASF33:
 24462 25b8 5F5F746D 		.string	"__tm_hour"
 24462      5F686F75 
 24462      7200
 24463              	.LASF733:
 24464 25c2 66697273 		.string	"first"
 24464      7400
 24465              	.LASF644:
 24466 25c8 5F5A4E4B 		.string	"_ZNKSt3mapIw13ftgxCharData_St4lessIwESaISt4pairIKwS0_EEE8key_compEv"
 24466      5374336D 
 24466      61704977 
 24466      31336674 
 24466      67784368 
 24467              	.LASF551:
 24468 260c 5F4D5F69 		.string	"_M_insert_lower"
 24468      6E736572 
 24468      745F6C6F 
 24468      77657200 
 24469              	.LASF17:
 24470 261c 77696E74 		.string	"wint_t"
 24470      5F7400
 24471              	.LASF678:
 24472 2623 63616368 		.string	"cacheGlyphData"
 24472      65476C79 
 24472      70684461 
 24472      746100
 24473              	.LASF382:
 24474 2632 6D626C65 		.string	"mblen"
 24474      6E00
 24475              	.LASF529:
 24476 2638 5F5A4E4B 		.string	"_ZNKSt8_Rb_treeIwSt4pairIKw13ftgxCharData_ESt10_Select1stIS3_ESt4lessIwESaIS3_EE8_M_begin
 24476      5374385F 
 24476      52625F74 
 24476      72656549 
 24476      77537434 
 24477              	.LASF105:
 24478 2694 5F6E6577 		.string	"_new"
 24478      00
 24479              	.LASF537:
 24480 2699 5F535F6C 		.string	"_S_left"
 24480      65667400 
 24481              	.LASF343:
 24482 26a1 46545F4B 		.string	"FT_KERNING_DEFAULT"
 24482      45524E49 
 24482      4E475F44 
 24482      45464155 
 24482      4C5400
 24483              	.LASF112:
 24484 26b4 5F6E696F 		.string	"_niobs"
 24484      627300
 24485              	.LASF569:
 24486 26bb 72626567 		.string	"rbegin"
 24486      696E00
 24487              	.LASF759:
 24488 26c2 74657874 		.string	"text"
 24488      00
 24489              	.LASF735:
 24490 26c7 70616972 		.string	"pair"
 24490      00
 24491              	.LASF515:
 24492 26cc 5F5A4E53 		.string	"_ZNSt8_Rb_treeIwSt4pairIKw13ftgxCharData_ESt10_Select1stIS3_ESt4lessIwESaIS3_EE13_M_clone
 24492      74385F52 
 24492      625F7472 
 24492      65654977 
 24492      53743470 
 24493              	.LASF554:
 24494 2744 5F4D5F63 		.string	"_M_copy"
 24494      6F707900 
 24495              	.LASF89:
 24496 274c 5F657272 		.string	"_errno"
 24496      6E6F00
 24497              	.LASF248:
 24498 2753 7374796C 		.string	"style_flags"
 24498      655F666C 
 24498      61677300 
 24499              	.LASF321:
 24500 275f 46545F45 		.string	"FT_Encoding"
 24500      6E636F64 
 24500      696E6700 
 24501              	.LASF34:
 24502 276b 5F5F746D 		.string	"__tm_mday"
 24502      5F6D6461 
 24502      7900
 24503              	.LASF174:
 24504 2775 46545F56 		.string	"FT_Vector"
 24504      6563746F 
 24504      7200
 24505              	.LASF41:
 24506 277f 5F666E61 		.string	"_fnargs"
 24506      72677300 
 24507              	.LASF805:
 24508 2787 643A2F63 		.string	"d:/code/dasdd/source/FreeTypeGX.cpp"
 24508      6F64652F 
 24508      64617364 
 24508      642F736F 
 24508      75726365 
 24509              	.LASF516:
 24510 27ab 5F4D5F64 		.string	"_M_destroy_node"
 24510      65737472 
 24510      6F795F6E 
 24510      6F646500 
 24511              	.LASF616:
 24512 27bb 5F4D5F69 		.string	"_M_impl"
 24512      6D706C00 
 24513              	.LASF167:
 24514 27c3 76616C75 		.string	"value"
 24514      6500
 24515              	.LASF788:
 24516 27c9 676C7970 		.string	"glyphBitmap"
 24516      68426974 
 24516      6D617000 
 24517              	.LASF732:
 24518 27d5 5F5A4E4B 		.string	"_ZNKSt17_Rb_tree_iteratorISt4pairIKw13ftgxCharData_EEneERKS4_"
 24518      53743137 
 24518      5F52625F 
 24518      74726565 
 24518      5F697465 
 24519              	.LASF804:
 24520 2813 474E5520 		.string	"GNU C++ 4.2.4 (devkitPPC release 15)"
 24520      432B2B20 
 24520      342E322E 
 24520      34202864 
 24520      65766B69 
 24521              	.LASF600:
 24522 2838 66696E64 		.string	"find"
 24522      00
 24523              	.LASF26:
 24524 283d 5F6E6578 		.string	"_next"
 24524      7400
 24525              	.LASF506:
 24526 2843 6765745F 		.string	"get_allocator"
 24526      616C6C6F 
 24526      6361746F 
 24526      7200
 24527              	.LASF540:
 24528 2851 5F535F72 		.string	"_S_right"
 24528      69676874 
 24528      00
 24529              	.LASF701:
 24530 285a 5F5A4E31 		.string	"_ZN10FreeTypeGX8loadFontEPhljb"
 24530      30467265 
 24530      65547970 
 24530      65475838 
 24530      6C6F6164 
 24531              	.LASF78:
 24532 2879 5F736967 		.string	"_signal_buf"
 24532      6E616C5F 
 24532      62756600 
 24533              	.LASF393:
 24534 2885 64656369 		.string	"decimal_point"
 24534      6D616C5F 
 24534      706F696E 
 24534      7400
 24535              	.LASF478:
 24536 2893 61646472 		.string	"address"
 24536      65737300 
 24537              	.LASF55:
 24538 289b 5F636F6F 		.string	"_cookie"
 24538      6B696500 
 24539              	.LASF611:
 24540 28a3 65717561 		.string	"equal_range"
 24540      6C5F7261 
 24540      6E676500 
 24541              	.LASF274:
 24542 28af 46545F53 		.string	"FT_SizeRec_"
 24542      697A6552 
 24542      65635F00 
 24543              	.LASF85:
 24544 28bb 2E5F3130 		.string	"._10"
 24544      00
 24545              	.LASF285:
 24546 28c0 6269746D 		.string	"bitmap_left"
 24546      61705F6C 
 24546      65667400 
 24547              	.LASF749:
 24548 28cc 74686973 		.string	"this"
 24548      00
 24549              	.LASF789:
 24550 28d1 7374724C 		.string	"strLength"
 24550      656E6774 
 24550      6800
 24551              	.LASF325:
 24552 28db 46545F53 		.string	"FT_Size_InternalRec_"
 24552      697A655F 
 24552      496E7465 
 24552      726E616C 
 24552      5265635F 
 24553              	.LASF415:
 24554 28f0 66636C6F 		.string	"fclose"
 24554      736500
 24555              	.LASF184:
 24556 28f7 70697463 		.string	"pitch"
 24556      6800
 24557              	.LASF390:
 24558 28fd 73747274 		.string	"strtoul"
 24558      6F756C00 
 24559              	.LASF740:
 24560 2905 5F5A4E4B 		.string	"_ZNKSt23_Rb_tree_const_iteratorISt4pairIKw13ftgxCharData_EEptEv"
 24560      53743233 
 24560      5F52625F 
 24560      74726565 
 24560      5F636F6E 
 24561              	.LASF510:
 24562 2945 5F4D5F67 		.string	"_M_get_node"
 24562      65745F6E 
 24562      6F646500 
 24563              	.LASF465:
 24564 2951 676C7970 		.string	"glyphAdvanceX"
 24564      68416476 
 24564      616E6365 
 24564      5800
 24565              	.LASF404:
 24566 295f 66726163 		.string	"frac_digits"
 24566      5F646967 
 24566      69747300 
 24567              	.LASF533:
 24568 296b 5F535F76 		.string	"_S_value"
 24568      616C7565 
 24568      00
 24569              	.LASF624:
 24570 2974 5F5A4E4B 		.string	"_ZNKSt3mapIw13ftgxCharData_St4lessIwESaISt4pairIKwS0_EEE3endEv"
 24570      5374336D 
 24570      61704977 
 24570      31336674 
 24570      67784368 
 24571              	.LASF347:
 24572 29b3 5F535F72 		.string	"_S_red"
 24572      656400
 24573              	.LASF715:
 24574 29ba 5F5A4E31 		.string	"_ZN10FreeTypeGX9getOffsetEPw"
 24574      30467265 
 24574      65547970 
 24574      65475839 
 24574      6765744F 
 24575              	.LASF792:
 24576 29d7 73747257 		.string	"strWidth"
 24576      69647468 
 24576      00
 24577              	.LASF372:
 24578 29e0 73747265 		.string	"strerror"
 24578      72726F72 
 24578      00
 24579              	.LASF632:
 24580 29e9 6F706572 		.string	"operator[]"
 24580      61746F72 
 24580      5B5D00
 24581              	.LASF370:
 24582 29f4 73747278 		.string	"strxfrm"
 24582      66726D00 
 24583              	.LASF437:
 24584 29fc 746D7066 		.string	"tmpfile"
 24584      696C6500 
 24585              	.LASF142:
 24586 2a04 2E5F3234 		.string	"._24"
 24586      00
 24587              	.LASF144:
 24588 2a09 2E5F3235 		.string	"._25"
 24588      00
 24589              	.LASF246:
 24590 2a0e 66616365 		.string	"face_index"
 24590      5F696E64 
 24590      657800
 24591              	.LASF756:
 24592 2a19 5F5F7661 		.string	"__val"
 24592      6C00
 24593              	.LASF555:
 24594 2a1f 5F5A4E53 		.string	"_ZNSt8_Rb_treeIwSt4pairIKw13ftgxCharData_ESt10_Select1stIS3_ESt4lessIwESaIS3_EE7_M_copyEP
 24594      74385F52 
 24594      625F7472 
 24594      65654977 
 24594      53743470 
 24595              	.LASF31:
 24596 2a94 5F5F746D 		.string	"__tm_sec"
 24596      5F736563 
 24596      00
 24597              	.LASF530:
 24598 2a9d 5F4D5F65 		.string	"_M_end"
 24598      6E6400
 24599              	.LASF40:
 24600 2aa4 5F6F6E5F 		.string	"_on_exit_args"
 24600      65786974 
 24600      5F617267 
 24600      7300
 24601              	.LASF769:
 24602 2ab2 74657857 		.string	"texWidth"
 24602      69647468 
 24602      00
 24603              	.LASF695:
 24604 2abb 5F5A4E31 		.string	"_ZN10FreeTypeGX14charToWideCharEPKc"
 24604      30467265 
 24604      65547970 
 24604      65475831 
 24604      34636861 
 24605              	.LASF275:
 24606 2adf 66616365 		.string	"face"
 24606      00
 24607              	.LASF83:
 24608 2ae4 5F776372 		.string	"_wcrtomb_state"
 24608      746F6D62 
 24608      5F737461 
 24608      746500
 24609              	.LASF282:
 24610 2af3 61647661 		.string	"advance"
 24610      6E636500 
 24611              	.LASF35:
 24612 2afb 5F5F746D 		.string	"__tm_mon"
 24612      5F6D6F6E 
 24612      00
 24613              	.LASF240:
 24614 2b04 46545F44 		.string	"FT_Driver"
 24614      72697665 
 24614      7200
 24615              	.LASF281:
 24616 2b0e 6C696E65 		.string	"linearVertAdvance"
 24616      61725665 
 24616      72744164 
 24616      76616E63 
 24616      6500
 24617              	.LASF794:
 24618 2b20 74657874 		.string	"textStyle"
 24618      5374796C 
 24618      6500
 24619              	.LASF367:
 24620 2b2a 756E6172 		.string	"unary_function<std::pair<const wchar_t, ftgxCharData_>,const wchar_t>"
 24620      795F6675 
 24620      6E637469 
 24620      6F6E3C73 
 24620      74643A3A 
 24621              	.LASF514:
 24622 2b70 5F4D5F63 		.string	"_M_clone_node"
 24622      6C6F6E65 
 24622      5F6E6F64 
 24622      6500
 24623              	.LASF311:
 24624 2b7e 46545F45 		.string	"FT_ENCODING_MS_GB2312"
 24624      4E434F44 
 24624      494E475F 
 24624      4D535F47 
 24624      42323331 
 24625              	.LASF414:
 24626 2b94 636C6561 		.string	"clearerr"
 24626      72657272 
 24626      00
 24627              	.LASF408:
 24628 2b9d 6E5F7365 		.string	"n_sep_by_space"
 24628      705F6279 
 24628      5F737061 
 24628      636500
 24629              	.LASF271:
 24630 2bac 65787465 		.string	"extensions"
 24630      6E73696F 
 24630      6E7300
 24631              	.LASF470:
 24632 2bb7 72656E64 		.string	"renderOffsetMax"
 24632      65724F66 
 24632      66736574 
 24632      4D617800 
 24633              	.LASF439:
 24634 2bc7 756E6765 		.string	"ungetc"
 24634      746300
 24635              	.LASF123:
 24636 2bce 746D5F6D 		.string	"tm_min"
 24636      696E00
 24637              	.LASF664:
 24638 2bd5 74657874 		.string	"textureFormat"
 24638      75726546 
 24638      6F726D61 
 24638      7400
 24639              	.LASF313:
 24640 2be3 46545F45 		.string	"FT_ENCODING_MS_WANSUNG"
 24640      4E434F44 
 24640      494E475F 
 24640      4D535F57 
 24640      414E5355 
 24641              	.LASF23:
 24642 2bfa 5F5F554C 		.string	"__ULong"
 24642      6F6E6700 
 24643              	.LASF586:
 24644 2c02 5F5A4E53 		.string	"_ZNSt8_Rb_treeIwSt4pairIKw13ftgxCharData_ESt10_Select1stIS3_ESt4lessIwESaIS3_EE16_M_inser
 24644      74385F52 
 24644      625F7472 
 24644      65654977 
 24644      53743470 
 24645              	.LASF543:
 24646 2c84 5F5A4E53 		.string	"_ZNSt8_Rb_treeIwSt4pairIKw13ftgxCharData_ESt10_Select1stIS3_ESt4lessIwESaIS3_EE8_S_valueE
 24646      74385F52 
 24646      625F7472 
 24646      65654977 
 24646      53743470 
 24647              	.LASF258:
 24648 2cf6 756E6974 		.string	"units_per_EM"
 24648      735F7065 
 24648      725F454D 
 24648      00
 24649              	.LASF717:
 24650 2d03 5F4D5F6E 		.string	"_M_node"
 24650      6F646500 
 24651              	.LASF387:
 24652 2d0b 7372616E 		.string	"srand"
 24652      6400
 24653              	.LASF405:
 24654 2d11 705F6373 		.string	"p_cs_precedes"
 24654      5F707265 
 24654      63656465 
 24654      7300
 24655              	.LASF204:
 24656 2d1f 46545F47 		.string	"FT_Glyph_Format"
 24656      6C797068 
 24656      5F466F72 
 24656      6D617400 
 24657              	.LASF684:
 24658 2d2f 73657444 		.string	"setDefaultMode"
 24658      65666175 
 24658      6C744D6F 
 24658      646500
 24659              	.LASF767:
 24660 2d3e 6F666673 		.string	"offsetData"
 24660      65744461 
 24660      746100
 24661              	.LASF172:
 24662 2d49 46545F50 		.string	"FT_Pos"
 24662      6F7300
 24663              	.LASF455:
 24664 2d50 5F4D5F63 		.string	"_M_color"
 24664      6F6C6F72 
 24664      00
 24665              	.LASF297:
 24666 2d59 656E636F 		.string	"encoding"
 24666      64696E67 
 24666      00
 24667              	.LASF193:
 24668 2d62 6E5F706F 		.string	"n_points"
 24668      696E7473 
 24668      00
 24669              	.LASF650:
 24670 2d6b 5F5A4E53 		.string	"_ZNSt3mapIw13ftgxCharData_St4lessIwESaISt4pairIKwS0_EEE11lower_boundERS4_"
 24670      74336D61 
 24670      70497731 
 24670      33667467 
 24670      78436861 
 24671              	.LASF722:
 24672 2db5 5F5A4E4B 		.string	"_ZNKSt17_Rb_tree_iteratorISt4pairIKw13ftgxCharData_EEptEv"
 24672      53743137 
 24672      5F52625F 
 24672      74726565 
 24672      5F697465 
 24673              	.LASF239:
 24674 2def 46545F4C 		.string	"FT_Library"
 24674      69627261 
 24674      727900
 24675              	.LASF466:
 24676 2dfa 676C7970 		.string	"glyphIndex"
 24676      68496E64 
 24676      657800
 24677              	.LASF400:
 24678 2e05 6D6F6E5F 		.string	"mon_grouping"
 24678      67726F75 
 24678      70696E67 
 24678      00
 24679              	.LASF520:
 24680 2e12 5F5A4E4B 		.string	"_ZNKSt8_Rb_treeIwSt4pairIKw13ftgxCharData_ESt10_Select1stIS3_ESt4lessIwESaIS3_EE7_M_rootE
 24680      5374385F 
 24680      52625F74 
 24680      72656549 
 24680      77537434 
 24681              	.LASF419:
 24682 2e6d 66676574 		.string	"fgetc"
 24682      6300
 24683              	.LASF206:
 24684 2e73 46545F53 		.string	"FT_Short"
 24684      686F7274 
 24684      00
 24685              	.LASF68:
 24686 2e7c 5F737472 		.string	"_strtok_last"
 24686      746F6B5F 
 24686      6C617374 
 24686      00
 24687              	.LASF168:
 24688 2e89 706F696E 		.string	"pointer"
 24688      74657200 
 24689              	.LASF528:
 24690 2e91 5F5A4E53 		.string	"_ZNSt8_Rb_treeIwSt4pairIKw13ftgxCharData_ESt10_Select1stIS3_ESt4lessIwESaIS3_EE8_M_beginE
 24690      74385F52 
 24690      625F7472 
 24690      65654977 
 24690      53743470 
 24691              	.LASF658:
 24692 2eec 46726565 		.string	"FreeTypeGX"
 24692      54797065 
 24692      475800
 24693              	.LASF120:
 24694 2ef7 636C6F63 		.string	"clock_t"
 24694      6B5F7400 
 24695              	.LASF633:
 24696 2eff 5F5A4E53 		.string	"_ZNSt3mapIw13ftgxCharData_St4lessIwESaISt4pairIKwS0_EEEixERS4_"
 24696      74336D61 
 24696      70497731 
 24696      33667467 
 24696      78436861 
 24697              	.LASF115:
 24698 2f3e 5F736565 		.string	"_seed"
 24698      6400
 24699              	.LASF639:
 24700 2f44 5F5A4E53 		.string	"_ZNSt3mapIw13ftgxCharData_St4lessIwESaISt4pairIKwS0_EEE5eraseESt17_Rb_tree_iteratorIS5_E"
 24700      74336D61 
 24700      70497731 
 24700      33667467 
 24700      78436861 
 24701              	.LASF58:
 24702 2f9d 5F736565 		.string	"_seek"
 24702      6B00
 24703              	.LASF356:
 24704 2fa3 5F4D5F6B 		.string	"_M_key_compare"
 24704      65795F63 
 24704      6F6D7061 
 24704      726500
 24705              	.LASF391:
 24706 2fb2 73797374 		.string	"system"
 24706      656D00
 24707              	.LASF501:
 24708 2fb9 6F706572 		.string	"operator()"
 24708      61746F72 
 24708      282900
 24709              	.LASF132:
 24710 2fc4 696E7431 		.string	"int16_t"
 24710      365F7400 
 24711              	.LASF523:
 24712 2fcc 5F5A4E4B 		.string	"_ZNKSt8_Rb_treeIwSt4pairIKw13ftgxCharData_ESt10_Select1stIS3_ESt4lessIwESaIS3_EE11_M_left
 24712      5374385F 
 24712      52625F74 
 24712      72656549 
 24712      77537434 
 24713              	.LASF1:
 24714 302c 73686F72 		.string	"short unsigned int"
 24714      7420756E 
 24714      7369676E 
 24714      65642069 
 24714      6E7400
 24715              	.LASF4:
 24716 303f 7369676E 		.string	"signed char"
 24716      65642063 
 24716      68617200 
 24717              	.LASF562:
 24718 304b 6B65795F 		.string	"key_comp"
 24718      636F6D70 
 24718      00
 24719              	.LASF368:
 24720 3054 5F53656C 		.string	"_Select1st<std::pair<const wchar_t, ftgxCharData_> >"
 24720      65637431 
 24720      73743C73 
 24720      74643A3A 
 24720      70616972 
 24721              	.LASF696:
 24722 3089 73657456 		.string	"setVertexFormat"
 24722      65727465 
 24722      78466F72 
 24722      6D617400 
 24723              	.LASF259:
 24724 3099 61736365 		.string	"ascender"
 24724      6E646572 
 24724      00
 24725              	.LASF782:
 24726 30a2 74656D70 		.string	"tempDest"
 24726      44657374 
 24726      00
 24727              	.LASF603:
 24728 30ab 636F756E 		.string	"count"
 24728      7400
 24729              	.LASF12:
 24730 30b1 5F67785F 		.string	"_gx_color"
 24730      636F6C6F 
 24730      7200
 24731              	.LASF249:
 24732 30bb 6E756D5F 		.string	"num_glyphs"
 24732      676C7970 
 24732      687300
 24733              	.LASF592:
 24734 30c6 5F5A4E53 		.string	"_ZNSt8_Rb_treeIwSt4pairIKw13ftgxCharData_ESt10_Select1stIS3_ESt4lessIwESaIS3_EE5eraseESt1
 24734      74385F52 
 24734      625F7472 
 24734      65654977 
 24734      53743470 
 24735              	.LASF276:
 24736 3137 6D657472 		.string	"metrics"
 24736      69637300 
 24737              	.LASF102:
 24738 313f 5F667265 		.string	"_freelist"
 24738      656C6973 
 24738      7400
 24739              	.LASF318:
 24740 3149 46545F45 		.string	"FT_ENCODING_ADOBE_LATIN_1"
 24740      4E434F44 
 24740      494E475F 
 24740      41444F42 
 24740      455F4C41 
 24741              	.LASF703:
 24742 3163 6368616E 		.string	"changeSize"
 24742      67655369 
 24742      7A6500
 24743              	.LASF641:
 24744 316e 5F5A4E53 		.string	"_ZNSt3mapIw13ftgxCharData_St4lessIwESaISt4pairIKwS0_EEE5eraseESt17_Rb_tree_iteratorIS5_ES
 24744      74336D61 
 24744      70497731 
 24744      33667467 
 24744      78436861 
 24745              	.LASF646:
 24746 31ca 5F5A4E4B 		.string	"_ZNKSt3mapIw13ftgxCharData_St4lessIwESaISt4pairIKwS0_EEE10value_compEv"
 24746      5374336D 
 24746      61704977 
 24746      31336674 
 24746      67784368 
 24747              	.LASF128:
 24748 3211 746D5F77 		.string	"tm_wday"
 24748      64617900 
 24749              	.LASF384:
 24750 3219 77636861 		.string	"wchar_t"
 24750      725F7400 
 24751              	.LASF631:
 24752 3221 5F5A4E4B 		.string	"_ZNKSt3mapIw13ftgxCharData_St4lessIwESaISt4pairIKwS0_EEE8max_sizeEv"
 24752      5374336D 
 24752      61704977 
 24752      31336674 
 24752      67784368 
 24753              	.LASF63:
 24754 3265 5F6F6666 		.string	"_offset"
 24754      73657400 
 24755              	.LASF734:
 24756 326d 7365636F 		.string	"second"
 24756      6E6400
 24757              	.LASF163:
 24758 3274 6D656D6F 		.string	"memory"
 24758      727900
 24759              	.LASF315:
 24760 327b 46545F45 		.string	"FT_ENCODING_ADOBE_STANDARD"
 24760      4E434F44 
 24760      494E475F 
 24760      41444F42 
 24760      455F5354 
 24761              	.LASF284:
 24762 3296 6269746D 		.string	"bitmap"
 24762      617000
 24763              	.LASF345:
 24764 329d 46545F4B 		.string	"FT_KERNING_UNSCALED"
 24764      45524E49 
 24764      4E475F55 
 24764      4E534341 
 24764      4C454400 
 24765              	.LASF181:
 24766 32b1 46545F42 		.string	"FT_Bitmap_"
 24766      69746D61 
 24766      705F00
 24767              	.LASF480:
 24768 32bc 5F5A4E4B 		.string	"_ZNK9__gnu_cxx13new_allocatorISt4pairIKw13ftgxCharData_EE7addressERKS4_"
 24768      395F5F67 
 24768      6E755F63 
 24768      78783133 
 24768      6E65775F 
 24769              	.LASF211:
 24770 3304 46545F55 		.string	"FT_ULong"
 24770      4C6F6E67 
 24770      00
 24771              	.LASF357:
 24772 330d 5F4D5F68 		.string	"_M_header"
 24772      65616465 
 24772      7200
 24773              	.LASF48:
 24774 3317 5F5F7362 		.string	"__sbuf"
 24774      756600
 24775              	.LASF329:
 24776 331e 6D61785F 		.string	"max_advance"
 24776      61647661 
 24776      6E636500 
 24777              	.LASF331:
 24778 332a 46545F53 		.string	"FT_SubGlyph"
 24778      7562476C 
 24778      79706800 
 24779              	.LASF77:
 24780 3336 5F6C3634 		.string	"_l64a_buf"
 24780      615F6275 
 24780      6600
 24781              	.LASF323:
 24782 3340 46545F46 		.string	"FT_Face_InternalRec_"
 24782      6163655F 
 24782      496E7465 
 24782      726E616C 
 24782      5265635F 
 24783              	.LASF449:
 24784 3355 6D627374 		.string	"mbstate_t"
 24784      6174655F 
 24784      7400
 24785              	.LASF410:
 24786 335f 6E5F7369 		.string	"n_sign_posn"
 24786      676E5F70 
 24786      6F736E00 
 24787              	.LASF556:
 24788 336b 5F4D5F65 		.string	"_M_erase"
 24788      72617365 
 24788      00
 24789              	.LASF328:
 24790 3374 795F7363 		.string	"y_scale"
 24790      616C6500 
 24791              	.LASF212:
 24792 337c 46545F46 		.string	"FT_Fixed"
 24792      69786564 
 24792      00
 24793              	.LASF129:
 24794 3385 746D5F79 		.string	"tm_yday"
 24794      64617900 
 24795              	.LASF596:
 24796 338d 5F5A4E53 		.string	"_ZNSt8_Rb_treeIwSt4pairIKw13ftgxCharData_ESt10_Select1stIS3_ESt4lessIwESaIS3_EE5eraseESt2
 24796      74385F52 
 24796      625F7472 
 24796      65654977 
 24796      53743470 
 24797              	.LASF597:
 24798 3407 5F5A4E53 		.string	"_ZNSt8_Rb_treeIwSt4pairIKw13ftgxCharData_ESt10_Select1stIS3_ESt4lessIwESaIS3_EE5eraseEPS1
 24798      74385F52 
 24798      625F7472 
 24798      65654977 
 24798      53743470 
 24799              	.LASF69:
 24800 3465 5F617363 		.string	"_asctime_buf"
 24800      74696D65 
 24800      5F627566 
 24800      00
 24801              	.LASF627:
 24802 3472 5F5A4E53 		.string	"_ZNSt3mapIw13ftgxCharData_St4lessIwESaISt4pairIKwS0_EEE4rendEv"
 24802      74336D61 
 24802      70497731 
 24802      33667467 
 24802      78436861 
 24803              	.LASF18:
 24804 34b1 5F5F7763 		.string	"__wch"
 24804      6800
 24805              	.LASF84:
 24806 34b7 5F776373 		.string	"_wcsrtombs_state"
 24806      72746F6D 
 24806      62735F73 
 24806      74617465 
 24806      00
 24807              	.LASF681:
 24808 34c8 5F5A4E31 		.string	"_ZN10FreeTypeGX22cacheGlyphDataCompleteEv"
 24808      30467265 
 24808      65547970 
 24808      65475832 
 24808      32636163 
 24809              	.LASF156:
 24810 34f2 46545F53 		.string	"FT_StreamRec_"
 24810      74726561 
 24810      6D526563 
 24810      5F00
 24811              	.LASF201:
 24812 3500 46545F47 		.string	"FT_GLYPH_FORMAT_BITMAP"
 24812      4C595048 
 24812      5F464F52 
 24812      4D41545F 
 24812      4249544D 
 24813              	.LASF169:
 24814 3517 46545F53 		.string	"FT_StreamDesc"
 24814      74726561 
 24814      6D446573 
 24814      6300
 24815              	.LASF432:
 24816 3525 72656D6F 		.string	"remove"
 24816      766500
 24817              	.LASF126:
 24818 352c 746D5F6D 		.string	"tm_mon"
 24818      6F6E00
 24819              	.LASF162:
 24820 3533 636C6F73 		.string	"close"
 24820      6500
 24821              	.LASF280:
 24822 3539 6C696E65 		.string	"linearHoriAdvance"
 24822      6172486F 
 24822      72694164 
 24822      76616E63 
 24822      6500
 24823              	.LASF16:
 24824 354b 5F4C4F43 		.string	"_LOCK_RECURSIVE_T"
 24824      4B5F5245 
 24824      43555253 
 24824      4956455F 
 24824      5400
 24825              	.LASF443:
 24826 355d 74696D65 		.string	"time"
 24826      00
 24827              	.LASF679:
 24828 3562 5F5A4E31 		.string	"_ZN10FreeTypeGX14cacheGlyphDataEw"
 24828      30467265 
 24828      65547970 
 24828      65475831 
 24828      34636163 
 24829              	.LASF773:
 24830 3584 63686172 		.string	"charData"
 24830      44617461 
 24830      00
 24831              	.LASF119:
 24832 358d 6C6F6E67 		.string	"long int"
 24832      20696E74 
 24832      00
 24833              	.LASF420:
 24834 3596 66676574 		.string	"fgetpos"
 24834      706F7300 
 24835              	.LASF457:
 24836 359e 5F4D5F6C 		.string	"_M_left"
 24836      65667400 
 24837              	.LASF76:
 24838 35a6 5F776374 		.string	"_wctomb_state"
 24838      6F6D625F 
 24838      73746174 
 24838      6500
 24839              	.LASF713:
 24840 35b4 5F5A4E31 		.string	"_ZN10FreeTypeGX9getHeightEPKw"
 24840      30467265 
 24840      65547970 
 24840      65475839 
 24840      67657448 
 24841              	.LASF283:
 24842 35d2 666F726D 		.string	"format"
 24842      617400
 24843              	.LASF149:
 24844 35d9 616C6C6F 		.string	"alloc"
 24844      6300
 24845              	.LASF127:
 24846 35df 746D5F79 		.string	"tm_year"
 24846      65617200 
 24847              	.LASF657:
 24848 35e7 7E6D6170 		.string	"~map"
 24848      00
 24849              	.LASF187:
 24850 35ec 70697865 		.string	"pixel_mode"
 24850      6C5F6D6F 
 24850      646500
 24851              	.LASF165:
 24852 35f7 6C696D69 		.string	"limit"
 24852      7400
 24853              	.LASF573:
 24854 35fd 5F5A4E53 		.string	"_ZNSt8_Rb_treeIwSt4pairIKw13ftgxCharData_ESt10_Select1stIS3_ESt4lessIwESaIS3_EE4rendEv"
 24854      74385F52 
 24854      625F7472 
 24854      65654977 
 24854      53743470 
 24855              	.LASF565:
 24856 3654 5F5A4E53 		.string	"_ZNSt8_Rb_treeIwSt4pairIKw13ftgxCharData_ESt10_Select1stIS3_ESt4lessIwESaIS3_EE5beginEv"
 24856      74385F52 
 24856      625F7472 
 24856      65654977 
 24856      53743470 
 24857              	.LASF242:
 24858 36ac 46545F44 		.string	"FT_DriverRec_"
 24858      72697665 
 24858      72526563 
 24858      5F00
 24859              	.LASF544:
 24860 36ba 5F5A4E53 		.string	"_ZNSt8_Rb_treeIwSt4pairIKw13ftgxCharData_ESt10_Select1stIS3_ESt4lessIwESaIS3_EE6_S_keyEPK
 24860      74385F52 
 24860      625F7472 
 24860      65654977 
 24860      53743470 
 24861              	.LASF428:
 24862 372a 67657463 		.string	"getc"
 24862      00
 24863              	.LASF190:
 24864 372f 46545F42 		.string	"FT_Bitmap"
 24864      69746D61 
 24864      7000
 24865              	.LASF113:
 24866 3739 5F696F62 		.string	"_iobs"
 24866      7300
 24867              	.LASF94:
 24868 373f 5F656D65 		.string	"_emergency"
 24868      7267656E 
 24868      637900
 24869              	.LASF229:
 24870 374a 686F7269 		.string	"horiBearingY"
 24870      42656172 
 24870      696E6759 
 24870      00
 24871              	.LASF471:
 24872 3757 72656E64 		.string	"renderOffsetMin"
 24872      65724F66 
 24872      66736574 
 24872      4D696E00 
 24873              	.LASF375:
 24874 3767 61746F66 		.string	"atof"
 24874      00
 24875              	.LASF188:
 24876 376c 70616C65 		.string	"palette_mode"
 24876      7474655F 
 24876      6D6F6465 
 24876      00
 24877              	.LASF224:
 24878 3779 7461696C 		.string	"tail"
 24878      00
 24879              	.LASF178:
 24880 377e 784D6178 		.string	"xMax"
 24880      00
 24881              	.LASF86:
 24882 3783 5F6E6578 		.string	"_nextf"
 24882      746600
 24883              	.LASF72:
 24884 378a 5F72616E 		.string	"_rand_next"
 24884      645F6E65 
 24884      787400
 24885              	.LASF398:
 24886 3795 6D6F6E5F 		.string	"mon_decimal_point"
 24886      64656369 
 24886      6D616C5F 
 24886      706F696E 
 24886      7400
 24887              	.LASF134:
 24888 37a7 75696E74 		.string	"uint32_t"
 24888      33325F74 
 24888      00
 24889              	.LASF686:
 24890 37b0 64726177 		.string	"drawTextFeature"
 24890      54657874 
 24890      46656174 
 24890      75726500 
 24891              	.LASF291:
 24892 37c0 636F6E74 		.string	"control_len"
 24892      726F6C5F 
 24892      6C656E00 
 24893              	.LASF306:
 24894 37cc 46545F45 		.string	"FT_ENCODING_GB2312"
 24894      4E434F44 
 24894      494E475F 
 24894      47423233 
 24894      313200
 24895              	.LASF27:
 24896 37df 5F6D6178 		.string	"_maxwds"
 24896      77647300 
 24897              	.LASF295:
 24898 37e7 46545F43 		.string	"FT_CharMap"
 24898      6861724D 
 24898      617000
 24899              	.LASF467:
 24900 37f2 74657874 		.string	"textureWidth"
 24900      75726557 
 24900      69647468 
 24900      00
 24901              	.LASF711:
 24902 37ff 67657448 		.string	"getHeight"
 24902      65696768 
 24902      7400
 24903              	.LASF489:
 24904 3809 5F5A4E39 		.string	"_ZN9__gnu_cxx13new_allocatorISt4pairIKw13ftgxCharData_EE9constructEPS4_RKS4_"
 24904      5F5F676E 
 24904      755F6378 
 24904      7831336E 
 24904      65775F61 
 24905              	.LASF388:
 24906 3856 73747274 		.string	"strtod"
 24906      6F6400
 24907              	.LASF802:
 24908 385d 63616368 		.string	"cacheAll"
 24908      65416C6C 
 24908      00
 24909              	.LASF371:
 24910 3866 73747274 		.string	"strtok"
 24910      6F6B00
 24911              	.LASF389:
 24912 386d 73747274 		.string	"strtol"
 24912      6F6C00
 24913              	.LASF790:
 24914 3874 7374724D 		.string	"strMax"
 24914      617800
 24915              	.LASF287:
 24916 387b 6F75746C 		.string	"outline"
 24916      696E6500 
 24917              	.LASF628:
 24918 3883 5F5A4E4B 		.string	"_ZNKSt3mapIw13ftgxCharData_St4lessIwESaISt4pairIKwS0_EEE4rendEv"
 24918      5374336D 
 24918      61704977 
 24918      31336674 
 24918      67784368 
 24919              	.LASF406:
 24920 38c3 705F7365 		.string	"p_sep_by_space"
 24920      705F6279 
 24920      5F737061 
 24920      636500
 24921              	.LASF718:
 24922 38d2 5F52625F 		.string	"_Rb_tree_iterator"
 24922      74726565 
 24922      5F697465 
 24922      7261746F 
 24922      7200
 24923              	.LASF24:
 24924 38e4 6C6F6E67 		.string	"long unsigned int"
 24924      20756E73 
 24924      69676E65 
 24924      6420696E 
 24924      7400
 24925              	.LASF763:
 24926 38f6 66656174 		.string	"featureHeight"
 24926      75726548 
 24926      65696768 
 24926      7400
 24927              	.LASF365:
 24928 3904 70616972 		.string	"pair<std::_Rb_tree_const_iterator<std::pair<const wchar_t, ftgxCharData_> >,std::_Rb_tree
 24928      3C737464 
 24928      3A3A5F52 
 24928      625F7472 
 24928      65655F63 
 24929              	.LASF292:
 24930 3999 6C73625F 		.string	"lsb_delta"
 24930      64656C74 
 24930      6100
 24931              	.LASF459:
 24932 39a3 5F535F6D 		.string	"_S_minimum"
 24932      696E696D 
 24932      756D00
 24933              	.LASF438:
 24934 39ae 746D706E 		.string	"tmpnam"
 24934      616D00
 24935              	.LASF301:
 24936 39b5 46545F45 		.string	"FT_Encoding_"
 24936      6E636F64 
 24936      696E675F 
 24936      00
 24937              	.LASF615:
 24938 39c2 5F5A4E4B 		.string	"_ZNKSt8_Rb_treeIwSt4pairIKw13ftgxCharData_ESt10_Select1stIS3_ESt4lessIwESaIS3_EE11__rb_ve
 24938      5374385F 
 24938      52625F74 
 24938      72656549 
 24938      77537434 
 24939              	.LASF417:
 24940 3a22 66657272 		.string	"ferror"
 24940      6F7200
 24941              	.LASF675:
 24942 3a29 5F5A4E31 		.string	"_ZN10FreeTypeGX20getStyleOffsetHeightE15ftgxDataOffset_t"
 24942      30467265 
 24942      65547970 
 24942      65475832 
 24942      30676574 
 24943              	.LASF599:
 24944 3a62 5F5A4E53 		.string	"_ZNSt8_Rb_treeIwSt4pairIKw13ftgxCharData_ESt10_Select1stIS3_ESt4lessIwESaIS3_EE5clearEv"
 24944      74385F52 
 24944      625F7472 
 24944      65654977 
 24944      53743470 
 24945              	.LASF59:
 24946 3aba 5F636C6F 		.string	"_close"
 24946      736500
 24947              	.LASF9:
 24948 3ac1 63686172 		.string	"char"
 24948      00
 24949              	.LASF674:
 24950 3ac6 67657453 		.string	"getStyleOffsetHeight"
 24950      74796C65 
 24950      4F666673 
 24950      65744865 
 24950      69676874 
 24951              	.LASF567:
 24952 3adb 5F5A4E53 		.string	"_ZNSt8_Rb_treeIwSt4pairIKw13ftgxCharData_ESt10_Select1stIS3_ESt4lessIwESaIS3_EE3endEv"
 24952      74385F52 
 24952      625F7472 
 24952      65654977 
 24952      53743470 
 24953              	.LASF746:
 24954 3b31 5F5A4E4B 		.string	"_ZNKSt23_Rb_tree_const_iteratorISt4pairIKw13ftgxCharData_EEneERKS4_"
 24954      53743233 
 24954      5F52625F 
 24954      74726565 
 24954      5F636F6E 
 24955              	.LASF781:
 24956 3b75 74656D70 		.string	"tempSrc"
 24956      53726300 
 24957              	.LASF111:
 24958 3b7d 5F676C75 		.string	"_glue"
 24958      6500
 24959              	.LASF723:
 24960 3b83 6F706572 		.string	"operator++"
 24960      61746F72 
 24960      2B2B00
 24961              	.LASF636:
 24962 3b8e 696E7365 		.string	"insert"
 24962      727400
 24963              	.LASF810:
 24964 3b95 5F5F7374 		.string	"__static_initialization_and_destruction_0"
 24964      61746963 
 24964      5F696E69 
 24964      7469616C 
 24964      697A6174 
 24965              	.LASF772:
 24966 3bbf 5F5F696E 		.string	"__insert_left"
 24966      73657274 
 24966      5F6C6566 
 24966      7400
 24967              	.LASF309:
 24968 3bcd 46545F45 		.string	"FT_ENCODING_JOHAB"
 24968      4E434F44 
 24968      494E475F 
 24968      4A4F4841 
 24968      4200
 24969              	.LASF589:
 24970 3bdf 5F5A4E53 		.string	"_ZNSt8_Rb_treeIwSt4pairIKw13ftgxCharData_ESt10_Select1stIS3_ESt4lessIwESaIS3_EE15_M_inser
 24970      74385F52 
 24970      625F7472 
 24970      65654977 
 24970      53743470 
 24971              	.LASF545:
 24972 3c66 5F5A4E53 		.string	"_ZNSt8_Rb_treeIwSt4pairIKw13ftgxCharData_ESt10_Select1stIS3_ESt4lessIwESaIS3_EE10_S_minim
 24972      74385F52 
 24972      625F7472 
 24972      65654977 
 24972      53743470 
 24973              	.LASF219:
 24974 3cda 46545F4C 		.string	"FT_ListNodeRec_"
 24974      6973744E 
 24974      6F646552 
 24974      65635F00 
 24975              	.LASF360:
 24976 3cea 5F52625F 		.string	"_Rb_tree_const_iterator<std::pair<const wchar_t, ftgxCharData_> >"
 24976      74726565 
 24976      5F636F6E 
 24976      73745F69 
 24976      74657261 
 24977              	.LASF726:
 24978 3d2c 6F706572 		.string	"operator--"
 24978      61746F72 
 24978      2D2D00
 24979              	.LASF151:
 24980 3d37 7265616C 		.string	"realloc"
 24980      6C6F6300 
 24981              	.LASF766:
 24982 3d3f 636F6C6F 		.string	"color"
 24982      7200
 24983              	.LASF721:
 24984 3d45 6F706572 		.string	"operator->"
 24984      61746F72 
 24984      2D3E00
 24985              	.LASF25:
 24986 3d50 5F426967 		.string	"_Bigint"
 24986      696E7400 
 24987              	.LASF441:
 24988 3d58 64696666 		.string	"difftime"
 24988      74696D65 
 24988      00
 24989              	.LASF725:
 24990 3d61 5F5A4E53 		.string	"_ZNSt17_Rb_tree_iteratorISt4pairIKw13ftgxCharData_EEppEi"
 24990      7431375F 
 24990      52625F74 
 24990      7265655F 
 24990      69746572 
 24991              	.LASF697:
 24992 3d9a 5F5A4E31 		.string	"_ZN10FreeTypeGX15setVertexFormatEh"
 24992      30467265 
 24992      65547970 
 24992      65475831 
 24992      35736574 
 24993              	.LASF724:
 24994 3dbd 5F5A4E53 		.string	"_ZNSt17_Rb_tree_iteratorISt4pairIKw13ftgxCharData_EEppEv"
 24994      7431375F 
 24994      52625F74 
 24994      7265655F 
 24994      69746572 
 24995              	.LASF202:
 24996 3df6 46545F47 		.string	"FT_GLYPH_FORMAT_OUTLINE"
 24996      4C595048 
 24996      5F464F52 
 24996      4D41545F 
 24996      4F55544C 
 24997              	.LASF532:
 24998 3e0e 5F5A4E4B 		.string	"_ZNKSt8_Rb_treeIwSt4pairIKw13ftgxCharData_ESt10_Select1stIS3_ESt4lessIwESaIS3_EE6_M_endEv
 24998      5374385F 
 24998      52625F74 
 24998      72656549 
 24998      77537434 
 24999              	.LASF106:
 25000 3e68 5F617465 		.string	"_atexit0"
 25000      78697430 
 25000      00
 25001              	.LASF155:
 25002 3e71 46545F53 		.string	"FT_Stream"
 25002      74726561 
 25002      6D00
 25003              	.LASF316:
 25004 3e7b 46545F45 		.string	"FT_ENCODING_ADOBE_EXPERT"
 25004      4E434F44 
 25004      494E475F 
 25004      41444F42 
 25004      455F4558 
 25005              	.LASF500:
 25006 3e94 5F5A4E39 		.string	"_ZN9__gnu_cxx13new_allocatorISt13_Rb_tree_nodeISt4pairIKw13ftgxCharData_EEE7destroyEPS6_"
 25006      5F5F676E 
 25006      755F6378 
 25006      7831336E 
 25006      65775F61 
 25007              	.LASF305:
 25008 3eed 46545F45 		.string	"FT_ENCODING_SJIS"
 25008      4E434F44 
 25008      494E475F 
 25008      534A4953 
 25008      00
 25009              	.LASF614:
 25010 3efe 5F5F7262 		.string	"__rb_verify"
 25010      5F766572 
 25010      69667900 
 25011              	.LASF11:
 25012 3f0a 4758436F 		.string	"GXColor"
 25012      6C6F7200 
 25013              	.LASF124:
 25014 3f12 746D5F68 		.string	"tm_hour"
 25014      6F757200 
 25015              	.LASF185:
 25016 3f1a 62756666 		.string	"buffer"
 25016      657200
 25017              	.LASF79:
 25018 3f21 5F676574 		.string	"_getdate_err"
 25018      64617465 
 25018      5F657272 
 25018      00
 25019              	.LASF786:
 25020 3f2e 63686172 		.string	"charCode"
 25020      436F6465 
 25020      00
 25021              	.LASF353:
 25022 3f37 5F52625F 		.string	"_Rb_tree_node<std::pair<const wchar_t, ftgxCharData_> >"
 25022      74726565 
 25022      5F6E6F64 
 25022      653C7374 
 25022      643A3A70 
 25023              	.LASF425:
 25024 3f6f 66736565 		.string	"fseek"
 25024      6B00
 25025              	.LASF568:
 25026 3f75 5F5A4E4B 		.string	"_ZNKSt8_Rb_treeIwSt4pairIKw13ftgxCharData_ESt10_Select1stIS3_ESt4lessIwESaIS3_EE3endEv"
 25026      5374385F 
 25026      52625F74 
 25026      72656549 
 25026      77537434 
 25027              	.LASF378:
 25028 3fcc 62736561 		.string	"bsearch"
 25028      72636800 
 25029              	.LASF477:
 25030 3fd4 7E6E6577 		.string	"~new_allocator"
 25030      5F616C6C 
 25030      6F636174 
 25030      6F7200
 25031              	.LASF195:
 25032 3fe3 74616773 		.string	"tags"
 25032      00
 25033              	.LASF383:
 25034 3fe8 6D627374 		.string	"mbstowcs"
 25034      6F776373 
 25034      00
 25035              	.LASF125:
 25036 3ff1 746D5F6D 		.string	"tm_mday"
 25036      64617900 
 25037              	.LASF656:
 25038 3ff9 7E5F5262 		.string	"~_Rb_tree_impl"
 25038      5F747265 
 25038      655F696D 
 25038      706C00
 25039              	.LASF655:
 25040 4008 5F5A4E4B 		.string	"_ZNKSt3mapIw13ftgxCharData_St4lessIwESaISt4pairIKwS0_EEE11equal_rangeERS4_"
 25040      5374336D 
 25040      61704977 
 25040      31336674 
 25040      67784368 
 25041              	.LASF707:
 25042 4053 5F5A4E31 		.string	"_ZN10FreeTypeGX8drawTextEssPKw9_gx_colort"
 25042      30467265 
 25042      65547970 
 25042      65475838 
 25042      64726177 
 25043              	.LASF62:
 25044 407d 5F626C6B 		.string	"_blksize"
 25044      73697A65 
 25044      00
 25045              	.LASF351:
 25046 4086 616C6C6F 		.string	"allocator<std::pair<const wchar_t, ftgxCharData_> >"
 25046      6361746F 
 25046      723C7374 
 25046      643A3A70 
 25046      6169723C 
 25047              	.LASF60:
 25048 40ba 5F756275 		.string	"_ubuf"
 25048      6600
 25049              	.LASF191:
 25050 40c0 46545F4F 		.string	"FT_Outline_"
 25050      75746C69 
 25050      6E655F00 
 25051              	.LASF74:
 25052 40cc 5F6D626C 		.string	"_mblen_state"
 25052      656E5F73 
 25052      74617465 
 25052      00
 25053              	.LASF108:
 25054 40d9 5F5F7367 		.string	"__sglue"
 25054      6C756500 
 25055              	.LASF426:
 25056 40e1 66736574 		.string	"fsetpos"
 25056      706F7300 
 25057              	.LASF595:
 25058 40e9 5F5A4E53 		.string	"_ZNSt8_Rb_treeIwSt4pairIKw13ftgxCharData_ESt10_Select1stIS3_ESt4lessIwESaIS3_EE5eraseESt1
 25058      74385F52 
 25058      625F7472 
 25058      65654977 
 25058      53743470 
 25059              	.LASF250:
 25060 415d 66616D69 		.string	"family_name"
 25060      6C795F6E 
 25060      616D6500 
 25061              	.LASF98:
 25062 4169 5F5F636C 		.string	"__cleanup"
 25062      65616E75 
 25062      7000
 25063              	.LASF635:
 25064 4173 5F5A4E4B 		.string	"_ZNKSt3mapIw13ftgxCharData_St4lessIwESaISt4pairIKwS0_EEE2atERS4_"
 25064      5374336D 
 25064      61704977 
 25064      31336674 
 25064      67784368 
 25065              	.LASF764:
 25066 41b4 73637265 		.string	"screenX"
 25066      656E5800 
 25067              	.LASF765:
 25068 41bc 73637265 		.string	"screenY"
 25068      656E5900 
 25069              	.LASF293:
 25070 41c4 7273625F 		.string	"rsb_delta"
 25070      64656C74 
 25070      6100
 25071              	.LASF755:
 25072 41ce 47585F54 		.string	"GX_TexCoord2f32"
 25072      6578436F 
 25072      6F726432 
 25072      66333200 
 25073              	.LASF312:
 25074 41de 46545F45 		.string	"FT_ENCODING_MS_BIG5"
 25074      4E434F44 
 25074      494E475F 
 25074      4D535F42 
 25074      49473500 
 25075              	.LASF15:
 25076 41f2 5F66706F 		.string	"_fpos_t"
 25076      735F7400 
 25077              	.LASF53:
 25078 41fa 5F66696C 		.string	"_file"
 25078      6500
 25079              	.LASF176:
 25080 4200 784D696E 		.string	"xMin"
 25080      00
 25081              	.LASF461:
 25082 4205 5F5A4E53 		.string	"_ZNSt18_Rb_tree_node_base10_S_minimumEPKS_"
 25082      7431385F 
 25082      52625F74 
 25082      7265655F 
 25082      6E6F6465 
 25083              	.LASF381:
 25084 4230 6C646976 		.string	"ldiv"
 25084      00
 25085              	.LASF577:
 25086 4235 5F5A4E4B 		.string	"_ZNKSt8_Rb_treeIwSt4pairIKw13ftgxCharData_ESt10_Select1stIS3_ESt4lessIwESaIS3_EE4sizeEv"
 25086      5374385F 
 25086      52625F74 
 25086      72656549 
 25086      77537434 
 25087              	.LASF51:
 25088 428d 5F5F7346 		.string	"__sFILE"
 25088      494C4500 
 25089              	.LASF590:
 25090 4295 65726173 		.string	"erase"
 25090      6500
 25091              	.LASF8:
 25092 429b 646F7562 		.string	"double"
 25092      6C6500
 25093              	.LASF47:
 25094 42a2 5F666E73 		.string	"_fns"
 25094      00
 25095              	.LASF222:
 25096 42a7 46545F4C 		.string	"FT_ListRec_"
 25096      69737452 
 25096      65635F00 
 25097              	.LASF110:
 25098 42b3 5F5F4649 		.string	"__FILE"
 25098      4C4500
 25099              	.LASF265:
 25100 42ba 676C7970 		.string	"glyph"
 25100      6800
 25101              	.LASF337:
 25102 42c0 46545F52 		.string	"FT_RENDER_MODE_LIGHT"
 25102      454E4445 
 25102      525F4D4F 
 25102      44455F4C 
 25102      49474854 
 25103              	.LASF505:
 25104 42d5 5F5A4E4B 		.string	"_ZNKSt8_Rb_treeIwSt4pairIKw13ftgxCharData_ESt10_Select1stIS3_ESt4lessIwESaIS3_EE21_M_get_
 25104      5374385F 
 25104      52625F74 
 25104      72656549 
 25104      77537434 
 25105              	.LASF524:
 25106 433f 5F4D5F72 		.string	"_M_rightmost"
 25106      69676874 
 25106      6D6F7374 
 25106      00
 25107              	.LASF526:
 25108 434c 5F5A4E4B 		.string	"_ZNKSt8_Rb_treeIwSt4pairIKw13ftgxCharData_ESt10_Select1stIS3_ESt4lessIwESaIS3_EE12_M_righ
 25108      5374385F 
 25108      52625F74 
 25108      72656549 
 25108      77537434 
 25109              	.LASF653:
 25110 43ad 5F5A4E4B 		.string	"_ZNKSt3mapIw13ftgxCharData_St4lessIwESaISt4pairIKwS0_EEE11upper_boundERS4_"
 25110      5374336D 
 25110      61704977 
 25110      31336674 
 25110      67784368 
 25111              	.LASF791:
 25112 43f8 7374724D 		.string	"strMin"
 25112      696E00
 25113              	.LASF665:
 25114 43ff 76657274 		.string	"vertexIndex"
 25114      6578496E 
 25114      64657800 
 25115              	.LASF192:
 25116 440b 6E5F636F 		.string	"n_contours"
 25116      6E746F75 
 25116      727300
 25117              	.LASF445:
 25118 4416 6374696D 		.string	"ctime"
 25118      6500
 25119              	.LASF535:
 25120 441c 5F535F6B 		.string	"_S_key"
 25120      657900
 25121              	.LASF808:
 25122 4423 5F52625F 		.string	"_Rb_tree_impl<std::less<wchar_t>,false>"
 25122      74726565 
 25122      5F696D70 
 25122      6C3C7374 
 25122      643A3A6C 
 25123              	.LASF513:
 25124 444b 5F5A4E53 		.string	"_ZNSt8_Rb_treeIwSt4pairIKw13ftgxCharData_ESt10_Select1stIS3_ESt4lessIwESaIS3_EE14_M_creat
 25124      74385F52 
 25124      625F7472 
 25124      65654977 
 25124      53743470 
 25125              	.LASF386:
 25126 44b1 71736F72 		.string	"qsort"
 25126      7400
 25127              	.LASF640:
 25128 44b7 5F5A4E53 		.string	"_ZNSt3mapIw13ftgxCharData_St4lessIwESaISt4pairIKwS0_EEE5eraseERS4_"
 25128      74336D61 
 25128      70497731 
 25128      33667467 
 25128      78436861 
 25129              	.LASF215:
 25130 44fa 64617461 		.string	"data"
 25130      00
 25131              	.LASF518:
 25132 44ff 5F4D5F72 		.string	"_M_root"
 25132      6F6F7400 
 25133              	.LASF527:
 25134 4507 5F4D5F62 		.string	"_M_begin"
 25134      6567696E 
 25134      00
 25135              	.LASF667:
 25136 4510 666F6E74 		.string	"fontData"
 25136      44617461 
 25136      00
 25137              	.LASF677:
 25138 4519 5F5A4E31 		.string	"_ZN10FreeTypeGX10unloadFontEv"
 25138      30467265 
 25138      65547970 
 25138      65475831 
 25138      30756E6C 
 25139              	.LASF21:
 25140 4537 5F5F7661 		.string	"__value"
 25140      6C756500 
 25141              	.LASF649:
 25142 453f 5F5A4E4B 		.string	"_ZNKSt3mapIw13ftgxCharData_St4lessIwESaISt4pairIKwS0_EEE5countERS4_"
 25142      5374336D 
 25142      61704977 
 25142      31336674 
 25142      67784368 
 25143              	.LASF44:
 25144 4583 5F69735F 		.string	"_is_cxa"
 25144      63786100 
 25145              	.LASF223:
 25146 458b 68656164 		.string	"head"
 25146      00
 25147              	.LASF460:
 25148 4590 5F5A4E53 		.string	"_ZNSt18_Rb_tree_node_base10_S_minimumEPS_"
 25148      7431385F 
 25148      52625F74 
 25148      7265655F 
 25148      6E6F6465 
 25149              	.LASF671:
 25150 45ba 5F5A4E31 		.string	"_ZN10FreeTypeGX19adjustTextureHeightEth"
 25150      30467265 
 25150      65547970 
 25150      65475831 
 25150      3961646A 
 25151              	.LASF785:
 25152 45e2 5F5F6265 		.string	"__before"
 25152      666F7265 
 25152      00
 25153              	.LASF186:
 25154 45eb 6E756D5F 		.string	"num_grays"
 25154      67726179 
 25154      7300
 25155              	.LASF101:
 25156 45f5 5F703573 		.string	"_p5s"
 25156      00
 25157              	.LASF783:
 25158 45fa 5F5F706F 		.string	"__position"
 25158      73697469 
 25158      6F6E00
 25159              	.LASF502:
 25160 4605 5F5A4E4B 		.string	"_ZNKSt4lessIwEclERKwS2_"
 25160      5374346C 
 25160      65737349 
 25160      7745636C 
 25160      45524B77 
 25161              	.LASF549:
 25162 461d 5F4D5F69 		.string	"_M_insert"
 25162      6E736572 
 25162      7400
 25163              	.LASF183:
 25164 4627 77696474 		.string	"width"
 25164      6800
 25165              	.LASF157:
 25166 462d 62617365 		.string	"base"
 25166      00
 25167              	.LASF401:
 25168 4632 706F7369 		.string	"positive_sign"
 25168      74697665 
 25168      5F736967 
 25168      6E00
 25169              	.LASF359:
 25170 4640 5F52625F 		.string	"_Rb_tree_iterator<std::pair<const wchar_t, ftgxCharData_> >"
 25170      74726565 
 25170      5F697465 
 25170      7261746F 
 25170      723C7374 
 25171              	.LASF436:
 25172 467c 73657476 		.string	"setvbuf"
 25172      62756600 
 25173              	.LASF779:
 25174 4684 73747243 		.string	"strChar"
 25174      68617200 
 25175              	.LASF208:
 25176 468c 46545F49 		.string	"FT_Int"
 25176      6E7400
 25177              	.LASF762:
 25178 4693 66656174 		.string	"featureWidth"
 25178      75726557 
 25178      69647468 
 25178      00
 25179              	.LASF469:
 25180 46a0 72656E64 		.string	"renderOffsetY"
 25180      65724F66 
 25180      66736574 
 25180      5900
 25181              	.LASF463:
 25182 46ae 5F5A4E53 		.string	"_ZNSt18_Rb_tree_node_base10_S_maximumEPS_"
 25182      7431385F 
 25182      52625F74 
 25182      7265655F 
 25182      6E6F6465 
 25183              	.LASF207:
 25184 46d8 46545F55 		.string	"FT_UShort"
 25184      53686F72 
 25184      7400
 25185              	.LASF335:
 25186 46e2 46545F52 		.string	"FT_Render_Mode_"
 25186      656E6465 
 25186      725F4D6F 
 25186      64655F00 
 25187              	.LASF344:
 25188 46f2 46545F4B 		.string	"FT_KERNING_UNFITTED"
 25188      45524E49 
 25188      4E475F55 
 25188      4E464954 
 25188      54454400 
 25189              	.LASF218:
 25190 4706 46545F4C 		.string	"FT_ListNode"
 25190      6973744E 
 25190      6F646500 
 25191              	.LASF448:
 25192 4712 73747266 		.string	"strftime"
 25192      74696D65 
 25192      00
 25193              	.LASF575:
 25194 471b 656D7074 		.string	"empty"
 25194      7900
 25195              	.LASF488:
 25196 4721 636F6E73 		.string	"construct"
 25196      74727563 
 25196      7400
 25197              	.LASF800:
 25198 472b 666F6E74 		.string	"fontBuffer"
 25198      42756666 
 25198      657200
 25199              	.LASF660:
 25200 4736 66744661 		.string	"ftFace"
 25200      636500
 25201              	.LASF692:
 25202 473d 7E467265 		.string	"~FreeTypeGX"
 25202      65547970 
 25202      65475800 
 25203              	.LASF385:
 25204 4749 6D62746F 		.string	"mbtowc"
 25204      776300
 25205              	.LASF593:
 25206 4750 5F5A4E53 		.string	"_ZNSt8_Rb_treeIwSt4pairIKw13ftgxCharData_ESt10_Select1stIS3_ESt4lessIwESaIS3_EE5eraseESt2
 25206      74385F52 
 25206      625F7472 
 25206      65654977 
 25206      53743470 
 25207              	.LASF714:
 25208 47c7 6765744F 		.string	"getOffset"
 25208      66667365 
 25208      7400
 25209              	.LASF608:
 25210 47d1 75707065 		.string	"upper_bound"
 25210      725F626F 
 25210      756E6400 
 25211              	.LASF3:
 25212 47dd 6C6F6E67 		.string	"long long unsigned int"
 25212      206C6F6E 
 25212      6720756E 
 25212      7369676E 
 25212      65642069 
 25213              	.LASF758:
 25214 47f4 6F666673 		.string	"offset"
 25214      657400
 25215              	.LASF244:
 25216 47fb 46545F46 		.string	"FT_FaceRec_"
 25216      61636552 
 25216      65635F00 
 25217              	.LASF257:
 25218 4807 62626F78 		.string	"bbox"
 25218      00
 25219              	.LASF71:
 25220 480c 5F67616D 		.string	"_gamma_signgam"
 25220      6D615F73 
 25220      69676E67 
 25220      616D00
 25221              	.LASF194:
 25222 481b 706F696E 		.string	"points"
 25222      747300
 25223              	.LASF651:
 25224 4822 5F5A4E4B 		.string	"_ZNKSt3mapIw13ftgxCharData_St4lessIwESaISt4pairIKwS0_EEE11lower_boundERS4_"
 25224      5374336D 
 25224      61704977 
 25224      31336674 
 25224      67784368 
 25225              	.LASF587:
 25226 486d 5F5A4E53 		.string	"_ZNSt8_Rb_treeIwSt4pairIKw13ftgxCharData_ESt10_Select1stIS3_ESt4lessIwESaIS3_EE16_M_inser
 25226      74385F52 
 25226      625F7472 
 25226      65654977 
 25226      53743470 
 25227              	.LASF243:
 25228 48f5 46545F46 		.string	"FT_Face"
 25228      61636500 
 25229              	.LASF95:
 25230 48fd 5F637572 		.string	"_current_category"
 25230      72656E74 
 25230      5F636174 
 25230      65676F72 
 25230      7900
 25231              	.LASF238:
 25232 490f 46545F42 		.string	"FT_Bitmap_Size"
 25232      69746D61 
 25232      705F5369 
 25232      7A6500
 25233              	.LASF422:
 25234 491e 666F7065 		.string	"fopen"
 25234      6E00
 25235              	.LASF512:
 25236 4924 5F5A4E53 		.string	"_ZNSt8_Rb_treeIwSt4pairIKw13ftgxCharData_ESt10_Select1stIS3_ESt4lessIwESaIS3_EE11_M_get_n
 25236      74385F52 
 25236      625F7472 
 25236      65654977 
 25236      53743470 
 25237              	.LASF302:
 25238 4983 46545F45 		.string	"FT_ENCODING_NONE"
 25238      4E434F44 
 25238      494E475F 
 25238      4E4F4E45 
 25238      00
 25239              	.LASF683:
 25240 4994 5F5A4E31 		.string	"_ZN10FreeTypeGX13loadGlyphDataEP10FT_Bitmap_P13ftgxCharData_"
 25240      30467265 
 25240      65547970 
 25240      65475831 
 25240      336C6F61 
 25241              	.LASF680:
 25242 49d1 63616368 		.string	"cacheGlyphDataComplete"
 25242      65476C79 
 25242      70684461 
 25242      7461436F 
 25242      6D706C65 
 25243              	.LASF642:
 25244 49e8 5F5A4E53 		.string	"_ZNSt3mapIw13ftgxCharData_St4lessIwESaISt4pairIKwS0_EEE4swapERS7_"
 25244      74336D61 
 25244      70497731 
 25244      33667467 
 25244      78436861 
 25245              	.LASF548:
 25246 4a2a 5F5A4E53 		.string	"_ZNSt8_Rb_treeIwSt4pairIKw13ftgxCharData_ESt10_Select1stIS3_ESt4lessIwESaIS3_EE10_S_maxim
 25246      74385F52 
 25246      625F7472 
 25246      65654977 
 25246      53743470 
 25247              	.LASF689:
 25248 4a9f 5F5A4E31 		.string	"_ZN10FreeTypeGX24copyTextureToFramebufferEP10_gx_texobjffss9_gx_color"
 25248      30467265 
 25248      65547970 
 25248      65475832 
 25248      34636F70 
 25249              	.LASF254:
 25250 4ae5 6E756D5F 		.string	"num_charmaps"
 25250      63686172 
 25250      6D617073 
 25250      00
 25251              	.LASF272:
 25252 4af2 696E7465 		.string	"internal"
 25252      726E616C 
 25252      00
 25253              	.LASF811:
 25254 4afb 5F474C4F 		.string	"_GLOBAL__I__ZN10FreeTypeGXC2Ehh"
 25254      42414C5F 
 25254      5F495F5F 
 25254      5A4E3130 
 25254      46726565 
 25255              	.LASF607:
 25256 4b1b 5F5A4E4B 		.string	"_ZNKSt8_Rb_treeIwSt4pairIKw13ftgxCharData_ESt10_Select1stIS3_ESt4lessIwESaIS3_EE11lower_b
 25256      5374385F 
 25256      52625F74 
 25256      72656549 
 25256      77537434 
 25257              	.LASF380:
 25258 4b7e 67657465 		.string	"getenv"
 25258      6E7600
 25259              	.LASF97:
 25260 4b85 5F5F7364 		.string	"__sdidinit"
 25260      6964696E 
 25260      697400
 25261              	.LASF412:
 25262 4b90 72616E64 		.string	"rand"
 25262      00
 25263              	.LASF751:
 25264 4b95 5F5F636F 		.string	"__comp"
 25264      6D7000
 25265              	.LASF22:
 25266 4b9c 5F666C6F 		.string	"_flock_t"
 25266      636B5F74 
 25266      00
 25267              	.LASF550:
 25268 4ba5 5F5A4E53 		.string	"_ZNSt8_Rb_treeIwSt4pairIKw13ftgxCharData_ESt10_Select1stIS3_ESt4lessIwESaIS3_EE9_M_insert
 25268      74385F52 
 25268      625F7472 
 25268      65654977 
 25268      53743470 
 25269              	.LASF750:
 25270 4c1f 5F5F696E 		.string	"__in_chrg"
 25270      5F636872 
 25270      6700
 25271              	.LASF430:
 25272 4c29 67657473 		.string	"gets"
 25272      00
 25273              	.LASF166:
 25274 4c2e 46545F53 		.string	"FT_StreamDesc_"
 25274      74726561 
 25274      6D446573 
 25274      635F00
 25275              	.LASF170:
 25276 4c3d 46545F53 		.string	"FT_Stream_IoFunc"
 25276      74726561 
 25276      6D5F496F 
 25276      46756E63 
 25276      00
 25277              	.LASF557:
 25278 4c4e 5F5A4E53 		.string	"_ZNSt8_Rb_treeIwSt4pairIKw13ftgxCharData_ESt10_Select1stIS3_ESt4lessIwESaIS3_EE8_M_eraseE
 25278      74385F52 
 25278      625F7472 
 25278      65654977 
 25278      53743470 
 25279              	.LASF409:
 25280 4cbf 705F7369 		.string	"p_sign_posn"
 25280      676E5F70 
 25280      6F736E00 
 25281              	.LASF6:
 25282 4ccb 6C6F6E67 		.string	"long long int"
 25282      206C6F6E 
 25282      6720696E 
 25282      7400
 25283              	.LASF693:
 25284 4cd9 63686172 		.string	"charToWideChar"
 25284      546F5769 
 25284      64654368 
 25284      617200
 25285              	.LASF582:
 25286 4ce8 5F4D5F69 		.string	"_M_insert_equal"
 25286      6E736572 
 25286      745F6571 
 25286      75616C00 
 25287              	.LASF474:
 25288 4cf8 66746778 		.string	"ftgxDataOffset_"
 25288      44617461 
 25288      4F666673 
 25288      65745F00 
 25289              	.LASF442:
 25290 4d08 6D6B7469 		.string	"mktime"
 25290      6D6500
 25291              	.LASF757:
 25292 4d0f 616C6967 		.string	"alignment"
 25292      6E6D656E 
 25292      7400
 25293              	.LASF796:
 25294 4d19 7072696E 		.string	"printed"
 25294      74656400 
 25295              	.LASF736:
 25296 4d21 7E706169 		.string	"~pair"
 25296      7200
 25297              	.LASF473:
 25298 4d27 66746778 		.string	"ftgxCharData"
 25298      43686172 
 25298      44617461 
 25298      00
 25299              	.LASF336:
 25300 4d34 46545F52 		.string	"FT_RENDER_MODE_NORMAL"
 25300      454E4445 
 25300      525F4D4F 
 25300      44455F4E 
 25300      4F524D41 
 25301              	.LASF429:
 25302 4d4a 67657463 		.string	"getchar"
 25302      68617200 
 25303              	.LASF164:
 25304 4d52 63757273 		.string	"cursor"
 25304      6F7200
 25305              	.LASF666:
 25306 4d59 636F6D70 		.string	"compatibilityMode"
 25306      61746962 
 25306      696C6974 
 25306      794D6F64 
 25306      6500
 25307              	.LASF706:
 25308 4d6b 5F5A4E31 		.string	"_ZN10FreeTypeGX8drawTextEssPw9_gx_colort"
 25308      30467265 
 25308      65547970 
 25308      65475838 
 25308      64726177 
 25309              	.LASF253:
 25310 4d94 61766169 		.string	"available_sizes"
 25310      6C61626C 
 25310      655F7369 
 25310      7A657300 
 25311              	.LASF602:
 25312 4da4 5F5A4E4B 		.string	"_ZNKSt8_Rb_treeIwSt4pairIKw13ftgxCharData_ESt10_Select1stIS3_ESt4lessIwESaIS3_EE4findERS1
 25312      5374385F 
 25312      52625F74 
 25312      72656549 
 25312      77537434 
 25313              	.LASF634:
 25314 4dff 5F5A4E53 		.string	"_ZNSt3mapIw13ftgxCharData_St4lessIwESaISt4pairIKwS0_EEE2atERS4_"
 25314      74336D61 
 25314      70497731 
 25314      33667467 
 25314      78436861 
 25315              	.LASF801:
 25316 4e3f 62756666 		.string	"bufferSize"
 25316      65725369 
 25316      7A6500
 25317              	.LASF148:
 25318 4e4a 75736572 		.string	"user"
 25318      00
 25319              	.LASF691:
 25320 4e4f 5F5A4E31 		.string	"_ZN10FreeTypeGX24copyFeatureToFramebufferEffss9_gx_color"
 25320      30467265 
 25320      65547970 
 25320      65475832 
 25320      34636F70 
 25321              	.LASF317:
 25322 4e88 46545F45 		.string	"FT_ENCODING_ADOBE_CUSTOM"
 25322      4E434F44 
 25322      494E475F 
 25322      41444F42 
 25322      455F4355 
 25323              	.LASF784:
 25324 4ea1 5F5F6166 		.string	"__after"
 25324      74657200 
 25325              	.LASF407:
 25326 4ea9 6E5F6373 		.string	"n_cs_precedes"
 25326      5F707265 
 25326      63656465 
 25326      7300
 25327              	.LASF154:
 25328 4eb7 46545F52 		.string	"FT_Realloc_Func"
 25328      65616C6C 
 25328      6F635F46 
 25328      756E6300 
 25329              	.LASF645:
 25330 4ec7 76616C75 		.string	"value_comp"
 25330      655F636F 
 25330      6D7000
 25331              	.LASF508:
 25332 4ed2 5F4D5F70 		.string	"_M_put_node"
 25332      75745F6E 
 25332      6F646500 
 25333              	.LASF705:
 25334 4ede 64726177 		.string	"drawText"
 25334      54657874 
 25334      00
 25335              	.LASF610:
 25336 4ee7 5F5A4E4B 		.string	"_ZNKSt8_Rb_treeIwSt4pairIKw13ftgxCharData_ESt10_Select1stIS3_ESt4lessIwESaIS3_EE11upper_b
 25336      5374385F 
 25336      52625F74 
 25336      72656549 
 25336      77537434 
 25337              	.LASF536:
 25338 4f4a 5F5A4E53 		.string	"_ZNSt8_Rb_treeIwSt4pairIKw13ftgxCharData_ESt10_Select1stIS3_ESt4lessIwESaIS3_EE6_S_keyEPK
 25338      74385F52 
 25338      625F7472 
 25338      65654977 
 25338      53743470 
 25339              	.LASF413:
 25340 4fba 6C6F6361 		.string	"localeconv"
 25340      6C65636F 
 25340      6E7600
 25341              	.LASF231:
 25342 4fc5 76657274 		.string	"vertBearingX"
 25342      42656172 
 25342      696E6758 
 25342      00
 25343              	.LASF232:
 25344 4fd2 76657274 		.string	"vertBearingY"
 25344      42656172 
 25344      696E6759 
 25344      00
 25345              	.LASF159:
 25346 4fdf 64657363 		.string	"descriptor"
 25346      72697074 
 25346      6F7200
 25347              	.LASF682:
 25348 4fea 6C6F6164 		.string	"loadGlyphData"
 25348      476C7970 
 25348      68446174 
 25348      6100
 25349              	.LASF541:
 25350 4ff8 5F5A4E53 		.string	"_ZNSt8_Rb_treeIwSt4pairIKw13ftgxCharData_ESt10_Select1stIS3_ESt4lessIwESaIS3_EE8_S_rightE
 25350      74385F52 
 25350      625F7472 
 25350      65654977 
 25350      53743470 
 25351              	.LASF203:
 25352 5069 46545F47 		.string	"FT_GLYPH_FORMAT_PLOTTER"
 25352      4C595048 
 25352      5F464F52 
 25352      4D41545F 
 25352      504C4F54 
 25353              	.LASF28:
 25354 5081 5F736967 		.string	"_sign"
 25354      6E00
 25355              	.LASF209:
 25356 5087 46545F55 		.string	"FT_UInt"
 25356      496E7400 
 25357              	.LASF32:
 25358 508f 5F5F746D 		.string	"__tm_min"
 25358      5F6D696E 
 25358      00
 25359              	.LASF241:
 25360 5098 46545F4C 		.string	"FT_LibraryRec_"
 25360      69627261 
 25360      72795265 
 25360      635F00
 25361              	.LASF618:
 25362 50a7 76616C75 		.string	"value_compare"
 25362      655F636F 
 25362      6D706172 
 25362      6500
 25363              	.LASF729:
 25364 50b5 6F706572 		.string	"operator=="
 25364      61746F72 
 25364      3D3D00
 25365              	.LASF175:
 25366 50c0 46545F42 		.string	"FT_BBox_"
 25366      426F785F 
 25366      00
 25367              	.LASF456:
 25368 50c9 5F4D5F70 		.string	"_M_parent"
 25368      6172656E 
 25368      7400
 25369              	.LASF699:
 25370 50d3 5F5A4E31 		.string	"_ZN10FreeTypeGX20setCompatibilityModeEj"
 25370      30467265 
 25370      65547970 
 25370      65475832 
 25370      30736574 
 25371              	.LASF728:
 25372 50fb 5F5A4E53 		.string	"_ZNSt17_Rb_tree_iteratorISt4pairIKw13ftgxCharData_EEmmEi"
 25372      7431375F 
 25372      52625F74 
 25372      7265655F 
 25372      69746572 
 25373              	.LASF727:
 25374 5134 5F5A4E53 		.string	"_ZNSt17_Rb_tree_iteratorISt4pairIKw13ftgxCharData_EEmmEv"
 25374      7431375F 
 25374      52625F74 
 25374      7265655F 
 25374      69746572 
 25375              	.LASF2:
 25376 516d 756E7369 		.string	"unsigned int"
 25376      676E6564 
 25376      20696E74 
 25376      00
 25377              	.LASF73:
 25378 517a 5F723438 		.string	"_r48"
 25378      00
 25379              	.LASF230:
 25380 517f 686F7269 		.string	"horiAdvance"
 25380      41647661 
 25380      6E636500 
 25381              	.LASF787:
 25382 518b 67496E64 		.string	"gIndex"
 25382      657800
 25383              	.LASF340:
 25384 5192 46545F52 		.string	"FT_RENDER_MODE_LCD_V"
 25384      454E4445 
 25384      525F4D4F 
 25384      44455F4C 
 25384      43445F56 
 25385              	.LASF333:
 25386 51a7 46545F53 		.string	"FT_Slot_Internal"
 25386      6C6F745F 
 25386      496E7465 
 25386      726E616C 
 25386      00
 25387              	.LASF771:
 25388 51b8 5F5F746D 		.string	"__tmp"
 25388      7000
 25389              	.LASF268:
 25390 51be 73747265 		.string	"stream"
 25390      616D00
 25391              	.LASF770:
 25392 51c5 74657848 		.string	"texHeight"
 25392      65696768 
 25392      7400
 25393              	.LASF418:
 25394 51cf 66666C75 		.string	"fflush"
 25394      736800
 25395              	.LASF458:
 25396 51d6 5F4D5F72 		.string	"_M_right"
 25396      69676874 
 25396      00
 25397              	.LASF342:
 25398 51df 46545F4B 		.string	"FT_Kerning_Mode_"
 25398      65726E69 
 25398      6E675F4D 
 25398      6F64655F 
 25398      00
 25399              	.LASF716:
 25400 51f0 5F5A4E31 		.string	"_ZN10FreeTypeGX9getOffsetEPKw"
 25400      30467265 
 25400      65547970 
 25400      65475839 
 25400      6765744F 
 25401              	.LASF234:
 25402 520e 46545F47 		.string	"FT_Glyph_Metrics"
 25402      6C797068 
 25402      5F4D6574 
 25402      72696373 
 25402      00
 25403              	.LASF809:
 25404 521f 47585F45 		.string	"GX_End"
 25404      6E6400
 25405              	.LASF5:
 25406 5226 73686F72 		.string	"short int"
 25406      7420696E 
 25406      7400
 25407              	.LASF504:
 25408 5230 5F5A4E53 		.string	"_ZNSt8_Rb_treeIwSt4pairIKw13ftgxCharData_ESt10_Select1stIS3_ESt4lessIwESaIS3_EE21_M_get_N
 25408      74385F52 
 25408      625F7472 
 25408      65654977 
 25408      53743470 
 25409              	.LASF564:
 25410 5299 62656769 		.string	"begin"
 25410      6E00
 25411              	.LASF558:
 25412 529f 5F52625F 		.string	"_Rb_tree"
 25412      74726565 
 25412      00
 25413              	.LASF319:
 25414 52a8 46545F45 		.string	"FT_ENCODING_OLD_LATIN_2"
 25414      4E434F44 
 25414      494E475F 
 25414      4F4C445F 
 25414      4C415449 
 25415              	.LASF56:
 25416 52c0 5F726561 		.string	"_read"
 25416      6400
 25417              	.LASF363:
 25418 52c6 70616972 		.string	"pair<std::_Rb_tree_iterator<std::pair<const wchar_t, ftgxCharData_> >,bool>"
 25418      3C737464 
 25418      3A3A5F52 
 25418      625F7472 
 25418      65655F69 
 25419              	.LASF220:
 25420 5312 70726576 		.string	"prev"
 25420      00
 25421              	.LASF487:
 25422 5317 5F5A4E4B 		.string	"_ZNK9__gnu_cxx13new_allocatorISt4pairIKw13ftgxCharData_EE8max_sizeEv"
 25422      395F5F67 
 25422      6E755F63 
 25422      78783133 
 25422      6E65775F 
 25423              	.LASF114:
 25424 535c 5F72616E 		.string	"_rand48"
 25424      64343800 
 25425              	.LASF324:
 25426 5364 46545F53 		.string	"FT_Size_Internal"
 25426      697A655F 
 25426      496E7465 
 25426      726E616C 
 25426      00
 25427              	.LASF496:
 25428 5375 5F5A4E39 		.string	"_ZN9__gnu_cxx13new_allocatorISt13_Rb_tree_nodeISt4pairIKw13ftgxCharData_EEE10deallocateEP
 25428      5F5F676E 
 25428      755F6378 
 25428      7831336E 
 25428      65775F61 
 25429              	.LASF647:
 25430 53d3 5F5A4E53 		.string	"_ZNSt3mapIw13ftgxCharData_St4lessIwESaISt4pairIKwS0_EEE4findERS4_"
 25430      74336D61 
 25430      70497731 
 25430      33667467 
 25430      78436861 
 25431              	.LASF503:
 25432 5415 5F4D5F67 		.string	"_M_get_Node_allocator"
 25432      65745F4E 
 25432      6F64655F 
 25432      616C6C6F 
 25432      6361746F 
 25433              	.LASF279:
 25434 542b 6C696272 		.string	"library"
 25434      61727900 
 25435              	.LASF453:
 25436 5433 6E65775F 		.string	"new_allocator<std::_Rb_tree_node<std::pair<const wchar_t, ftgxCharData_> > >"
 25436      616C6C6F 
 25436      6361746F 
 25436      723C7374 
 25436      643A3A5F 
 25437              	.LASF492:
 25438 5480 7E616C6C 		.string	"~allocator"
 25438      6F636174 
 25438      6F7200
 25439              	.LASF373:
 25440 548b 6D656D63 		.string	"memchr"
 25440      687200
 25441              	.LASF197:
 25442 5492 666C6167 		.string	"flags"
 25442      7300
 25443              	.LASF742:
 25444 5498 5F5A4E53 		.string	"_ZNSt23_Rb_tree_const_iteratorISt4pairIKw13ftgxCharData_EEppEi"
 25444      7432335F 
 25444      52625F74 
 25444      7265655F 
 25444      636F6E73 
 25445              	.LASF290:
 25446 54d7 636F6E74 		.string	"control_data"
 25446      726F6C5F 
 25446      64617461 
 25446      00
 25447              	.LASF741:
 25448 54e4 5F5A4E53 		.string	"_ZNSt23_Rb_tree_const_iteratorISt4pairIKw13ftgxCharData_EEppEv"
 25448      7432335F 
 25448      52625F74 
 25448      7265655F 
 25448      636F6E73 
 25449              		.ident	"GCC: (GNU) 4.2.4 (devkitPPC release 15)"
