   1              		.file	"gui_optionbrowser.cpp"
   2              		.section	.debug_abbrev,"",@progbits
   3              	.Ldebug_abbrev0:
   4              		.section	.debug_info,"",@progbits
   5              	.Ldebug_info0:
   6              		.section	.debug_line,"",@progbits
   7              	.Ldebug_line0:
   8 0000 000009D0 		.section	".text"
   8      00020000 
   8      05B10401 
   8      FB0E0D00 
   8      01010101 
   9              	.Ltext0:
  10              		.section	.ctors,"aw",@progbits
  11              		.align 2
  12 0000 000001C0 		.long	_GLOBAL__I__ZN16GuiOptionBrowserC2EiiP11_optionlistPKhi
  13              		.section	".text"
  14              		.align 2
  15              		.globl _ZN16GuiOptionBrowser8SetFocusEi
  16              		.type	_ZN16GuiOptionBrowser8SetFocusEi, @function
  17              	_ZN16GuiOptionBrowser8SetFocusEi:
  18              	.LFB801:
  19              		.file 1 "d:/code/dasdd/source/libwiigui/gui_optionbrowser.cpp"
  20              		.loc 1 296 0
  21              	.LVL0:
  22 0000 7C0802A6 		mflr 0
  23              	.LCFI0:
  24 0004 9421FFE8 		stwu 1,-24(1)
  25              	.LCFI1:
  26 0008 93C10010 		stw 30,16(1)
  27              	.LCFI2:
  28 000c 7C7E1B78 		mr 30,3
  29 0010 9001001C 		stw 0,28(1)
  30              	.LCFI3:
  31 0014 93A1000C 		stw 29,12(1)
  32              	.LCFI4:
  33 0018 7C9D2378 		mr 29,4
  34              	.LBB2:
  35              	.LBB5:
  36              		.loc 1 301 0
  37 001c 806300E4 		lwz 3,228(3)
  38              	.LVL1:
  39              	.LBE5:
  40              	.LBE2:
  41              		.loc 1 296 0
  42 0020 93E10014 		stw 31,20(1)
  43              	.LCFI5:
  44              	.LBB6:
  45              	.LBB4:
  46              		.loc 1 301 0
  47 0024 3BE00004 		li 31,4
  48 0028 81230000 		lwz 9,0(3)
  49              	.LBE4:
  50              		.loc 1 298 0
  51 002c 909E0008 		stw 4,8(30)
  52              	.LBB3:
  53              		.loc 1 301 0
  54 0030 8129000C 		lwz 9,12(9)
  55 0034 7D2903A6 		mtctr 9
  56 0038 4E800421 		bctrl
  57              	.LVL2:
  58              	.L2:
  59 003c 7D3EFA14 		add 9,30,31
  60 0040 806900E4 		lwz 3,228(9)
  61 0044 81630000 		lwz 11,0(3)
  62 0048 816B000C 		lwz 11,12(11)
  63 004c 7D6903A6 		mtctr 11
  64 0050 4E800421 		bctrl
  65              		.loc 1 300 0
  66 0054 2F9F0020 		cmpwi 7,31,32
  67 0058 3BFF0004 		addi 31,31,4
  68 005c 409EFFE0 		bne+ 7,.L2
  69              	.LBE3:
  70              		.loc 1 303 0
  71 0060 2F9D0001 		cmpwi 7,29,1
  72 0064 419E0020 		beq- 7,.L10
  73              	.LBE6:
  74              		.loc 1 305 0
  75 0068 8001001C 		lwz 0,28(1)
  76 006c 83A1000C 		lwz 29,12(1)
  77              	.LVL3:
  78 0070 83C10010 		lwz 30,16(1)
  79              	.LVL4:
  80 0074 7C0803A6 		mtlr 0
  81 0078 83E10014 		lwz 31,20(1)
  82 007c 38210018 		addi 1,1,24
  83 0080 4E800020 		blr
  84              	.LVL5:
  85              	.L10:
  86              	.LBB7:
  87              		.loc 1 304 0
  88 0084 813E00B4 		lwz 9,180(30)
  89 0088 38800001 		li 4,1
  90 008c 38A0FFFF 		li 5,-1
  91 0090 5529103A 		slwi 9,9,2
  92 0094 7D29F214 		add 9,9,30
  93 0098 806900E4 		lwz 3,228(9)
  94 009c 81230000 		lwz 9,0(3)
  95 00a0 81290008 		lwz 9,8(9)
  96 00a4 7D2903A6 		mtctr 9
  97 00a8 4E800421 		bctrl
  98              	.LBE7:
  99              		.loc 1 305 0
 100 00ac 8001001C 		lwz 0,28(1)
 101 00b0 83A1000C 		lwz 29,12(1)
 102              	.LVL6:
 103 00b4 83C10010 		lwz 30,16(1)
 104              	.LVL7:
 105 00b8 7C0803A6 		mtlr 0
 106 00bc 83E10014 		lwz 31,20(1)
 107 00c0 38210018 		addi 1,1,24
 108 00c4 4E800020 		blr
 109              	.LFE801:
 110              		.size	_ZN16GuiOptionBrowser8SetFocusEi, .-_ZN16GuiOptionBrowser8SetFocusEi
 111              		.globl __gxx_personality_v0
 112              		.align 2
 113              		.globl _ZN16GuiOptionBrowser10ResetStateEv
 114              		.type	_ZN16GuiOptionBrowser10ResetStateEv, @function
 115              	_ZN16GuiOptionBrowser10ResetStateEv:
 116              	.LFB802:
 117              		.loc 1 307 0
 118              	.LVL8:
 119 00c8 7C0802A6 		mflr 0
 120              	.LCFI6:
 121 00cc 9421FFF0 		stwu 1,-16(1)
 122              	.LCFI7:
 123 00d0 93C10008 		stw 30,8(1)
 124              	.LCFI8:
 125 00d4 7C7E1B78 		mr 30,3
 126 00d8 90010014 		stw 0,20(1)
 127              	.LCFI9:
 128 00dc 93E1000C 		stw 31,12(1)
 129              	.LCFI10:
 130              	.LBB8:
 131              		.loc 1 309 0
 132 00e0 80030068 		lwz 0,104(3)
 133 00e4 2F800004 		cmpwi 7,0,4
 134 00e8 419E0014 		beq- 7,.L12
 135              		.loc 1 311 0
 136 00ec 38000000 		li 0,0
 137              		.loc 1 312 0
 138 00f0 3920FFFF 		li 9,-1
 139              		.loc 1 311 0
 140 00f4 90030068 		stw 0,104(3)
 141              		.loc 1 312 0
 142 00f8 9123006C 		stw 9,108(3)
 143              	.L12:
 144              	.LBB9:
 145              		.loc 1 317 0
 146 00fc 807E00E4 		lwz 3,228(30)
 147              	.LVL9:
 148 0100 3BE00004 		li 31,4
 149 0104 81230000 		lwz 9,0(3)
 150 0108 8129000C 		lwz 9,12(9)
 151 010c 7D2903A6 		mtctr 9
 152 0110 4E800421 		bctrl
 153              	.L14:
 154 0114 7D3EFA14 		add 9,30,31
 155 0118 806900E4 		lwz 3,228(9)
 156 011c 81630000 		lwz 11,0(3)
 157 0120 816B000C 		lwz 11,12(11)
 158 0124 7D6903A6 		mtctr 11
 159 0128 4E800421 		bctrl
 160              		.loc 1 315 0
 161 012c 2F9F0020 		cmpwi 7,31,32
 162 0130 3BFF0004 		addi 31,31,4
 163 0134 409EFFE0 		bne+ 7,.L14
 164              	.LBE9:
 165              	.LBE8:
 166              		.loc 1 319 0
 167 0138 80010014 		lwz 0,20(1)
 168 013c 83C10008 		lwz 30,8(1)
 169              	.LVL10:
 170 0140 83E1000C 		lwz 31,12(1)
 171 0144 7C0803A6 		mtlr 0
 172 0148 38210010 		addi 1,1,16
 173 014c 4E800020 		blr
 174              	.LFE802:
 175              		.size	_ZN16GuiOptionBrowser10ResetStateEv, .-_ZN16GuiOptionBrowser10ResetStateEv
 176              		.align 2
 177              		.globl _ZN16GuiOptionBrowser12FindMenuItemEii
 178              		.type	_ZN16GuiOptionBrowser12FindMenuItemEii, @function
 179              	_ZN16GuiOptionBrowser12FindMenuItemEii:
 180              	.LFB805:
 181              		.loc 1 357 0
 182              	.LVL11:
 183              		.loc 1 357 0
 184 0150 7C681B78 		mr 8,3
 185 0154 7D652214 		add 11,5,4
 186              	.LVL12:
 187 0158 48000024 		b .L21
 188              	.LVL13:
 189              	.L27:
 190              	.LBB10:
 191              		.loc 1 361 0
 192 015c 812800BC 		lwz 9,188(8)
 193              		.loc 1 364 0
 194 0160 7D404A14 		add 10,0,9
 195              		.loc 1 361 0
 196 0164 80090000 		lwz 0,0(9)
 197 0168 7F801800 		cmpw 7,0,3
 198 016c 409D0024 		ble- 7,.L22
 199              		.loc 1 364 0
 200 0170 880A0004 		lbz 0,4(10)
 201 0174 2F800000 		cmpwi 7,0,0
 202 0178 4C9E0020 		bnelr- 7
 203              	.LVL14:
 204              	.L21:
 205              		.loc 1 361 0
 206 017c 2F8B0000 		cmpwi 7,11,0
 207 0180 7D635B78 		mr 3,11
 208              		.loc 1 364 0
 209 0184 1C0B003C 		mulli 0,11,60
 210              		.loc 1 361 0
 211 0188 7D6B2A14 		add 11,11,5
 212 018c 409CFFD0 		bge+ 7,.L27
 213              	.L22:
 214              		.loc 1 364 0
 215 0190 3860FFFF 		li 3,-1
 216              	.LVL15:
 217              	.LBE10:
 218              		.loc 1 368 0
 219 0194 4E800020 		blr
 220              	.LFE805:
 221              		.size	_ZN16GuiOptionBrowser12FindMenuItemEii, .-_ZN16GuiOptionBrowser12FindMenuItemEii
 222              		.align 2
 223              		.type	_Z41__static_initialization_and_destruction_0ii, @function
 224              	_Z41__static_initialization_and_destruction_0ii:
 225              	.LFB811:
 226              		.loc 1 653 0
 227              	.LVL16:
 228              		.loc 1 653 0
 229 0198 2F830001 		cmpwi 7,3,1
 230 019c 4C9E0020 		bnelr- 7
 231 01a0 6C80FFFF 		xoris 0,4,0xffff
 232 01a4 2F80FFFF 		cmpwi 7,0,-1
 233 01a8 4C9E0020 		bnelr 7
 234              		.file 2 "d:/code/dasdd/source/FreeTypeGX.h"
 235              		.loc 2 220 0
 236 01ac 3D200000 		lis 9,.LANCHOR1@ha
 237 01b0 3D600000 		lis 11,.LANCHOR0@ha
 238 01b4 80090000 		lwz 0,.LANCHOR1@l(9)
 239 01b8 900B0000 		stw 0,.LANCHOR0@l(11)
 240 01bc 4E800020 		blr
 241              	.LFE811:
 242              		.size	_Z41__static_initialization_and_destruction_0ii, .-_Z41__static_initialization_and_destructi
 243              		.align 2
 244              		.type	_GLOBAL__I__ZN16GuiOptionBrowserC2EiiP11_optionlistPKhi, @function
 245              	_GLOBAL__I__ZN16GuiOptionBrowserC2EiiP11_optionlistPKhi:
 246              	.LFB812:
 247              		.loc 1 654 0
 248              		.loc 1 654 0
 249 01c0 38800000 		li 4,0
 250 01c4 38600001 		li 3,1
 251 01c8 6084FFFF 		ori 4,4,65535
 252 01cc 4BFFFFCC 		b _Z41__static_initialization_and_destruction_0ii
 253              	.LFE812:
 254              		.size	_GLOBAL__I__ZN16GuiOptionBrowserC2EiiP11_optionlistPKhi, .-_GLOBAL__I__ZN16GuiOptionBrowserC
 255              		.align 2
 256              		.globl _ZN16GuiOptionBrowser17GetSelectedOptionEv
 257              		.type	_ZN16GuiOptionBrowser17GetSelectedOptionEv, @function
 258              	_ZN16GuiOptionBrowser17GetSelectedOptionEv:
 259              	.LFB804:
 260              		.loc 1 336 0
 261              	.LVL17:
 262 01d0 7C0802A6 		mflr 0
 263              	.LCFI11:
 264 01d4 9421FFE8 		stwu 1,-24(1)
 265              	.LCFI12:
 266 01d8 93A1000C 		stw 29,12(1)
 267              	.LCFI13:
 268 01dc 3BA00000 		li 29,0
 269              	.LVL18:
 270 01e0 9001001C 		stw 0,28(1)
 271              	.LCFI14:
 272 01e4 93C10010 		stw 30,16(1)
 273              	.LCFI15:
 274 01e8 7C7E1B78 		mr 30,3
 275              	.LVL19:
 276 01ec 93E10014 		stw 31,20(1)
 277              	.LCFI16:
 278              		.loc 1 336 0
 279 01f0 7C7F1B78 		mr 31,3
 280              	.L36:
 281              	.LBB11:
 282              	.LBB13:
 283              		.loc 1 341 0
 284 01f4 807F00E4 		lwz 3,228(31)
 285              		.loc 1 339 0
 286 01f8 3BFF0004 		addi 31,31,4
 287              		.loc 1 341 0
 288 01fc 48000001 		bl _ZN10GuiElement8GetStateEv
 289              		.loc 1 339 0
 290 0200 2F1D0008 		cmpwi 6,29,8
 291              		.loc 1 341 0
 292 0204 2F830001 		cmpwi 7,3,1
 293 0208 419E002C 		beq- 7,.L44
 294              		.loc 1 339 0
 295 020c 3BBD0001 		addi 29,29,1
 296 0210 409AFFE4 		bne+ 6,.L36
 297              	.LBE13:
 298              	.LBE11:
 299              		.loc 1 349 0
 300 0214 8001001C 		lwz 0,28(1)
 301              	.LBB16:
 302              	.LBB14:
 303              		.loc 1 339 0
 304 0218 3860FFFF 		li 3,-1
 305              	.LVL20:
 306              	.LBE14:
 307              	.LBE16:
 308              		.loc 1 349 0
 309 021c 83A1000C 		lwz 29,12(1)
 310              	.LVL21:
 311              	.LVL22:
 312 0220 83C10010 		lwz 30,16(1)
 313              	.LVL23:
 314 0224 7C0803A6 		mtlr 0
 315 0228 83E10014 		lwz 31,20(1)
 316 022c 38210018 		addi 1,1,24
 317 0230 4E800020 		blr
 318              	.LVL24:
 319              	.L44:
 320              	.LBB17:
 321              	.LBB12:
 322              		.loc 1 343 0
 323 0234 57BD103A 		slwi 29,29,2
 324              	.LVL25:
 325 0238 38800001 		li 4,1
 326 023c 7FBDF214 		add 29,29,30
 327 0240 38A0FFFF 		li 5,-1
 328 0244 807D00E4 		lwz 3,228(29)
 329 0248 81230000 		lwz 9,0(3)
 330 024c 81290008 		lwz 9,8(9)
 331 0250 7D2903A6 		mtctr 9
 332 0254 4E800421 		bctrl
 333              	.LBE12:
 334              	.LBE17:
 335              		.loc 1 349 0
 336 0258 8001001C 		lwz 0,28(1)
 337              	.LBB18:
 338              	.LBB15:
 339              		.loc 1 344 0
 340 025c 807D00C0 		lwz 3,192(29)
 341              	.LVL26:
 342              	.LVL27:
 343              	.LBE15:
 344              	.LBE18:
 345              		.loc 1 349 0
 346 0260 83A1000C 		lwz 29,12(1)
 347 0264 7C0803A6 		mtlr 0
 348 0268 83C10010 		lwz 30,16(1)
 349              	.LVL28:
 350 026c 83E10014 		lwz 31,20(1)
 351 0270 38210018 		addi 1,1,24
 352 0274 4E800020 		blr
 353              	.LFE804:
 354              		.size	_ZN16GuiOptionBrowser17GetSelectedOptionEv, .-_ZN16GuiOptionBrowser17GetSelectedOptionEv
 355              		.align 2
 356              		.globl _ZN16GuiOptionBrowser16GetClickedOptionEv
 357              		.type	_ZN16GuiOptionBrowser16GetClickedOptionEv, @function
 358              	_ZN16GuiOptionBrowser16GetClickedOptionEv:
 359              	.LFB803:
 360              		.loc 1 321 0
 361              	.LVL29:
 362 0278 7C0802A6 		mflr 0
 363              	.LCFI17:
 364 027c 9421FFE8 		stwu 1,-24(1)
 365              	.LCFI18:
 366 0280 93A1000C 		stw 29,12(1)
 367              	.LCFI19:
 368 0284 3BA00000 		li 29,0
 369              	.LVL30:
 370 0288 9001001C 		stw 0,28(1)
 371              	.LCFI20:
 372 028c 93C10010 		stw 30,16(1)
 373              	.LCFI21:
 374 0290 7C7E1B78 		mr 30,3
 375              	.LVL31:
 376 0294 93E10014 		stw 31,20(1)
 377              	.LCFI22:
 378              		.loc 1 321 0
 379 0298 7C7F1B78 		mr 31,3
 380              	.L46:
 381              	.LBB19:
 382              	.LBB21:
 383              		.loc 1 326 0
 384 029c 807F00E4 		lwz 3,228(31)
 385              		.loc 1 324 0
 386 02a0 3BFF0004 		addi 31,31,4
 387              		.loc 1 326 0
 388 02a4 48000001 		bl _ZN10GuiElement8GetStateEv
 389              		.loc 1 324 0
 390 02a8 2F1D0008 		cmpwi 6,29,8
 391              		.loc 1 326 0
 392 02ac 2F830002 		cmpwi 7,3,2
 393 02b0 419E002C 		beq- 7,.L54
 394              		.loc 1 324 0
 395 02b4 3BBD0001 		addi 29,29,1
 396 02b8 409AFFE4 		bne+ 6,.L46
 397              	.LBE21:
 398              	.LBE19:
 399              		.loc 1 334 0
 400 02bc 8001001C 		lwz 0,28(1)
 401              	.LBB24:
 402              	.LBB22:
 403              		.loc 1 324 0
 404 02c0 3860FFFF 		li 3,-1
 405              	.LVL32:
 406              	.LBE22:
 407              	.LBE24:
 408              		.loc 1 334 0
 409 02c4 83A1000C 		lwz 29,12(1)
 410              	.LVL33:
 411              	.LVL34:
 412 02c8 83C10010 		lwz 30,16(1)
 413              	.LVL35:
 414 02cc 7C0803A6 		mtlr 0
 415 02d0 83E10014 		lwz 31,20(1)
 416 02d4 38210018 		addi 1,1,24
 417 02d8 4E800020 		blr
 418              	.LVL36:
 419              	.L54:
 420              	.LBB25:
 421              	.LBB20:
 422              		.loc 1 328 0
 423 02dc 57BD103A 		slwi 29,29,2
 424              	.LVL37:
 425 02e0 38800001 		li 4,1
 426 02e4 7FBDF214 		add 29,29,30
 427 02e8 38A0FFFF 		li 5,-1
 428 02ec 807D00E4 		lwz 3,228(29)
 429 02f0 81230000 		lwz 9,0(3)
 430 02f4 81290008 		lwz 9,8(9)
 431 02f8 7D2903A6 		mtctr 9
 432 02fc 4E800421 		bctrl
 433              	.LBE20:
 434              	.LBE25:
 435              		.loc 1 334 0
 436 0300 8001001C 		lwz 0,28(1)
 437              	.LBB26:
 438              	.LBB23:
 439              		.loc 1 329 0
 440 0304 807D00C0 		lwz 3,192(29)
 441              	.LVL38:
 442              	.LVL39:
 443              	.LBE23:
 444              	.LBE26:
 445              		.loc 1 334 0
 446 0308 83A1000C 		lwz 29,12(1)
 447 030c 7C0803A6 		mtlr 0
 448 0310 83C10010 		lwz 30,16(1)
 449              	.LVL40:
 450 0314 83E10014 		lwz 31,20(1)
 451 0318 38210018 		addi 1,1,24
 452 031c 4E800020 		blr
 453              	.LFE803:
 454              		.size	_ZN16GuiOptionBrowser16GetClickedOptionEv, .-_ZN16GuiOptionBrowser16GetClickedOptionEv
 455              		.align 2
 456              		.globl _ZN16GuiOptionBrowser15SetCol2PositionEi
 457              		.type	_ZN16GuiOptionBrowser15SetCol2PositionEi, @function
 458              	_ZN16GuiOptionBrowser15SetCol2PositionEi:
 459              	.LFB800:
 460              		.loc 1 290 0
 461              	.LVL41:
 462 0320 7C0802A6 		mflr 0
 463              	.LCFI23:
 464 0324 9421FFE8 		stwu 1,-24(1)
 465              	.LCFI24:
 466              	.LBB27:
 467              	.LBB29:
 468              		.loc 1 293 0
 469 0328 38A00000 		li 5,0
 470              	.LBE29:
 471              	.LBE27:
 472              		.loc 1 290 0
 473 032c 93A1000C 		stw 29,12(1)
 474              	.LCFI25:
 475 0330 7C7D1B78 		mr 29,3
 476 0334 9001001C 		stw 0,28(1)
 477              	.LCFI26:
 478 0338 93C10010 		stw 30,16(1)
 479              	.LCFI27:
 480 033c 7C9E2378 		mr 30,4
 481              	.LBB31:
 482              	.LBB28:
 483              		.loc 1 293 0
 484 0340 80630090 		lwz 3,144(3)
 485              	.LVL42:
 486              	.LBE28:
 487              	.LBE31:
 488              		.loc 1 290 0
 489 0344 93E10014 		stw 31,20(1)
 490              	.LCFI28:
 491              	.LBB32:
 492              	.LBB30:
 493              		.loc 1 293 0
 494 0348 3BE00004 		li 31,4
 495 034c 48000001 		bl _ZN10GuiElement11SetPositionEii
 496              	.LVL43:
 497              	.L56:
 498 0350 7D3DFA14 		add 9,29,31
 499 0354 7FC4F378 		mr 4,30
 500 0358 80690090 		lwz 3,144(9)
 501 035c 38A00000 		li 5,0
 502 0360 48000001 		bl _ZN10GuiElement11SetPositionEii
 503              		.loc 1 292 0
 504 0364 2F9F0020 		cmpwi 7,31,32
 505 0368 3BFF0004 		addi 31,31,4
 506 036c 409EFFE4 		bne+ 7,.L56
 507              	.LBE30:
 508              	.LBE32:
 509              		.loc 1 294 0
 510 0370 8001001C 		lwz 0,28(1)
 511 0374 83A1000C 		lwz 29,12(1)
 512              	.LVL44:
 513 0378 83C10010 		lwz 30,16(1)
 514              	.LVL45:
 515 037c 7C0803A6 		mtlr 0
 516 0380 83E10014 		lwz 31,20(1)
 517 0384 38210018 		addi 1,1,24
 518 0388 4E800020 		blr
 519              	.LFE800:
 520              		.size	_ZN16GuiOptionBrowser15SetCol2PositionEi, .-_ZN16GuiOptionBrowser15SetCol2PositionEi
 521              		.align 2
 522              		.globl _ZN16GuiOptionBrowser6UpdateEP10GuiTrigger
 523              		.type	_ZN16GuiOptionBrowser6UpdateEP10GuiTrigger, @function
 524              	_ZN16GuiOptionBrowser6UpdateEP10GuiTrigger:
 525              	.LFB807:
 526              		.loc 1 402 0
 527              	.LVL46:
 528 038c 9421FFC0 		stwu 1,-64(1)
 529              	.LCFI29:
 530 0390 7C0802A6 		mflr 0
 531              	.LCFI30:
 532              	.LBB33:
 533              		.loc 1 406 0
 534 0394 3D200000 		lis 9,.LANCHOR0@ha
 535              	.LBE33:
 536              		.loc 1 402 0
 537 0398 93410020 		stw 26,32(1)
 538              	.LCFI31:
 539              	.LBB48:
 540              		.loc 1 406 0
 541 039c 3B490000 		la 26,.LANCHOR0@l(9)
 542              	.LBE48:
 543              		.loc 1 402 0
 544 03a0 90010044 		stw 0,68(1)
 545              	.LCFI32:
 546              	.LBB49:
 547              		.loc 1 406 0
 548 03a4 801A0004 		lwz 0,4(26)
 549              		.loc 1 403 0
 550 03a8 812300BC 		lwz 9,188(3)
 551              		.loc 1 406 0
 552 03ac 2F800000 		cmpwi 7,0,0
 553              	.LBE49:
 554              		.loc 1 402 0
 555 03b0 9321001C 		stw 25,28(1)
 556              	.LCFI33:
 557 03b4 93610024 		stw 27,36(1)
 558              	.LCFI34:
 559 03b8 7C9B2378 		mr 27,4
 560 03bc 93A1002C 		stw 29,44(1)
 561              	.LCFI35:
 562 03c0 7C7D1B78 		mr 29,3
 563 03c4 DBE10038 		stfd 31,56(1)
 564              	.LCFI36:
 565 03c8 93810028 		stw 28,40(1)
 566              	.LCFI37:
 567 03cc 93C10030 		stw 30,48(1)
 568              	.LCFI38:
 569 03d0 93E10034 		stw 31,52(1)
 570              	.LCFI39:
 571              	.LBB50:
 572              		.loc 1 403 0
 573 03d4 83290000 		lwz 25,0(9)
 574              	.LVL47:
 575              		.loc 1 406 0
 576 03d8 409E0070 		bne- 7,.L62
 577              	.LVL48:
 578 03dc 817A0008 		lwz 11,8(26)
 579 03e0 2F8B0000 		cmpwi 7,11,0
 580 03e4 409D0064 		ble- 7,.L62
 581              		.loc 1 409 0
 582 03e8 3819FFF7 		addi 0,25,-9
 583 03ec 7F8B0000 		cmpw 7,11,0
 584 03f0 419D0604 		bgt- 7,.L163
 585              		.loc 1 414 0
 586 03f4 2F8B0008 		cmpwi 7,11,8
 587 03f8 419D045C 		bgt- 7,.L68
 588              		.loc 1 416 0
 589 03fc 5569103A 		slwi 9,11,2
 590              		.loc 1 415 0
 591 0400 7D6A5B78 		mr 10,11
 592              		.loc 1 416 0
 593 0404 7D291A14 		add 9,9,3
 594              		.loc 1 420 0
 595 0408 915D00B4 		stw 10,180(29)
 596              		.loc 1 416 0
 597 040c 806900E4 		lwz 3,228(9)
 598              		.loc 1 421 0
 599 0410 38800001 		li 4,1
 600 0414 80BB0004 		lwz 5,4(27)
 601 0418 81230000 		lwz 9,0(3)
 602 041c 81290008 		lwz 9,8(9)
 603 0420 7D2903A6 		mtctr 9
 604 0424 4E800421 		bctrl
 605              		.loc 1 422 0
 606 0428 813D0000 		lwz 9,0(29)
 607 042c 7FA3EB78 		mr 3,29
 608 0430 38800001 		li 4,1
 609 0434 81290004 		lwz 9,4(9)
 610 0438 7D2903A6 		mtctr 9
 611 043c 4E800421 		bctrl
 612              		.loc 1 423 0
 613 0440 38000001 		li 0,1
 614 0444 901A0004 		stw 0,4(26)
 615              	.LVL49:
 616              	.L62:
 617              		.loc 1 426 0
 618 0448 801D0068 		lwz 0,104(29)
 619 044c 2F800004 		cmpwi 7,0,4
 620 0450 419E0248 		beq- 7,.L149
 621 0454 2F9B0000 		cmpwi 7,27,0
 622 0458 419E0240 		beq- 7,.L149
 623              		.loc 1 435 0
 624 045c 801A000C 		lwz 0,12(26)
 625 0460 2F800001 		cmpwi 7,0,1
 626 0464 419E05A4 		beq- 7,.L164
 627              	.L73:
 628              		.loc 1 443 0
 629 0468 83DD00B8 		lwz 30,184(29)
 630              	.LVL50:
 631 046c 7FBFEB78 		mr 31,29
 632 0470 3B800000 		li 28,0
 633              	.LVL51:
 634 0474 48000014 		b .L75
 635              	.LVL52:
 636              	.L89:
 637              	.LBB35:
 638              		.loc 1 445 0
 639 0478 2F9C0008 		cmpwi 7,28,8
 640 047c 3BFF0004 		addi 31,31,4
 641 0480 3B9C0001 		addi 28,28,1
 642 0484 419E00D4 		beq- 7,.L165
 643              	.LVL53:
 644              	.L75:
 645              		.loc 1 447 0
 646 0488 2F9E0000 		cmpwi 7,30,0
 647 048c 419C023C 		blt- 7,.L76
 648              		.loc 1 449 0
 649 0490 807F00E4 		lwz 3,228(31)
 650 0494 48000001 		bl _ZN10GuiElement8GetStateEv
 651 0498 2F830004 		cmpwi 7,3,4
 652 049c 419E0264 		beq- 7,.L166
 653              	.L78:
 654              		.loc 1 455 0
 655 04a0 801D00BC 		lwz 0,188(29)
 656 04a4 1C9E003C 		mulli 4,30,60
 657 04a8 807F0108 		lwz 3,264(31)
 658 04ac 7C840214 		add 4,4,0
 659 04b0 38840004 		addi 4,4,4
 660 04b4 48000001 		bl _ZN7GuiText7SetTextEPKc
 661              		.loc 1 456 0
 662 04b8 801D00BC 		lwz 0,188(29)
 663 04bc 1C9E001E 		mulli 4,30,30
 664 04c0 807F0090 		lwz 3,144(31)
 665 04c4 7C840214 		add 4,4,0
 666 04c8 388427DC 		addi 4,4,10204
 667 04cc 48000001 		bl _ZN7GuiText7SetTextEPKc
 668              		.loc 1 457 0
 669 04d0 93DF00C0 		stw 30,192(31)
 670              		.loc 1 458 0
 671 04d4 7FC4F378 		mr 4,30
 672 04d8 7FA3EB78 		mr 3,29
 673 04dc 38A00001 		li 5,1
 674 04e0 48000001 		bl _ZN16GuiOptionBrowser12FindMenuItemEii
 675 04e4 7C7E1B78 		mr 30,3
 676              	.L80:
 677              		.loc 1 466 0
 678 04e8 801D0008 		lwz 0,8(29)
 679 04ec 2F800000 		cmpwi 7,0,0
 680 04f0 419E002C 		beq- 7,.L81
 681              		.loc 1 468 0
 682 04f4 801D00B4 		lwz 0,180(29)
 683 04f8 7F80E000 		cmpw 7,0,28
 684 04fc 419E012C 		beq- 7,.L83
 685 0500 807F00E4 		lwz 3,228(31)
 686 0504 48000001 		bl _ZN10GuiElement8GetStateEv
 687 0508 2F830001 		cmpwi 7,3,1
 688 050c 419E022C 		beq- 7,.L167
 689              		.loc 1 470 0
 690 0510 813D00B4 		lwz 9,180(29)
 691              	.LVL54:
 692 0514 7F89E000 		cmpw 7,9,28
 693 0518 419E0114 		beq- 7,.L87
 694              	.LVL55:
 695              	.L81:
 696              		.loc 1 474 0
 697 051c 807F00E4 		lwz 3,228(31)
 698 0520 7F64DB78 		mr 4,27
 699 0524 81230000 		lwz 9,0(3)
 700 0528 81290018 		lwz 9,24(9)
 701 052c 7D2903A6 		mtctr 9
 702 0530 4E800421 		bctrl
 703              		.loc 1 476 0
 704 0534 807F00E4 		lwz 3,228(31)
 705 0538 48000001 		bl _ZN10GuiElement8GetStateEv
 706 053c 2F830001 		cmpwi 7,3,1
 707 0540 409EFF38 		bne+ 7,.L89
 708              		.loc 1 445 0
 709 0544 2F9C0008 		cmpwi 7,28,8
 710              		.loc 1 478 0
 711 0548 939D00B4 		stw 28,180(29)
 712              		.loc 1 445 0
 713 054c 3BFF0004 		addi 31,31,4
 714 0550 3B9C0001 		addi 28,28,1
 715 0554 409EFF34 		bne+ 7,.L75
 716              	.L165:
 717              	.LBE35:
 718              		.loc 1 483 0
 719 0558 801D0008 		lwz 0,8(29)
 720 055c 2F800000 		cmpwi 7,0,0
 721 0560 419E0138 		beq- 7,.L149
 722              		.loc 1 486 0
 723 0564 801A000C 		lwz 0,12(26)
 724 0568 2F800001 		cmpwi 7,0,1
 725 056c 419E01E4 		beq- 7,.L168
 726              		.loc 1 611 0
 727 0570 7F63DB78 		mr 3,27
 728 0574 48000001 		bl _ZN10GuiTrigger4DownEv
 729 0578 2F830000 		cmpwi 7,3,0
 730 057c 419E00F4 		beq- 7,.L138
 731              		.loc 1 613 0
 732 0580 813D00B4 		lwz 9,180(29)
 733 0584 7FA3EB78 		mr 3,29
 734 0588 38A00001 		li 5,1
 735 058c 5529103A 		slwi 9,9,2
 736 0590 7D29EA14 		add 9,9,29
 737 0594 808900C0 		lwz 4,192(9)
 738 0598 48000001 		bl _ZN16GuiOptionBrowser12FindMenuItemEii
 739              		.loc 1 615 0
 740 059c 2F830000 		cmpwi 7,3,0
 741 05a0 419C00E0 		blt- 7,.L131
 742              		.loc 1 617 0
 743 05a4 813D00B4 		lwz 9,180(29)
 744 05a8 2F890008 		cmpwi 7,9,8
 745 05ac 419E0604 		beq- 7,.L169
 746              		.loc 1 622 0
 747 05b0 39290001 		addi 9,9,1
 748 05b4 5529103A 		slwi 9,9,2
 749 05b8 7D29EA14 		add 9,9,29
 750 05bc 806900E4 		lwz 3,228(9)
 751 05c0 48000001 		bl _ZN10GuiElement9IsVisibleEv
 752 05c4 2F830000 		cmpwi 7,3,0
 753 05c8 41BE00B8 		beq+ 7,.L131
 754              		.loc 1 624 0
 755 05cc 813D00B4 		lwz 9,180(29)
 756 05d0 5529103A 		slwi 9,9,2
 757 05d4 7D29EA14 		add 9,9,29
 758 05d8 806900E4 		lwz 3,228(9)
 759 05dc 81630000 		lwz 11,0(3)
 760 05e0 816B000C 		lwz 11,12(11)
 761 05e4 7D6903A6 		mtctr 11
 762 05e8 4E800421 		bctrl
 763              		.loc 1 625 0
 764 05ec 813D00B4 		lwz 9,180(29)
 765 05f0 80BB0004 		lwz 5,4(27)
 766 05f4 38800001 		li 4,1
 767 05f8 39290001 		addi 9,9,1
 768 05fc 5529103A 		slwi 9,9,2
 769 0600 7D29EA14 		add 9,9,29
 770 0604 806900E4 		lwz 3,228(9)
 771 0608 81230000 		lwz 9,0(3)
 772 060c 81290008 		lwz 9,8(9)
 773 0610 7D2903A6 		mtctr 9
 774 0614 4E800421 		bctrl
 775              		.loc 1 626 0
 776 0618 813D00B4 		lwz 9,180(29)
 777 061c 39490001 		addi 10,9,1
 778 0620 915D00B4 		stw 10,180(29)
 779 0624 4800005C 		b .L131
 780              	.L83:
 781              	.LBB34:
 782              		.loc 1 469 0
 783 0628 7F89E378 		mr 9,28
 784              	.LVL56:
 785              	.L87:
 786              		.loc 1 470 0
 787 062c 5529103A 		slwi 9,9,2
 788              	.LVL57:
 789 0630 7D29EA14 		add 9,9,29
 790 0634 806900E4 		lwz 3,228(9)
 791 0638 48000001 		bl _ZN10GuiElement8GetStateEv
 792 063c 2F830000 		cmpwi 7,3,0
 793 0640 409EFEDC 		bne+ 7,.L81
 794              		.loc 1 471 0
 795 0644 813D00B4 		lwz 9,180(29)
 796 0648 38800001 		li 4,1
 797 064c 80BB0004 		lwz 5,4(27)
 798 0650 5529103A 		slwi 9,9,2
 799 0654 7D29EA14 		add 9,9,29
 800 0658 806900E4 		lwz 3,228(9)
 801 065c 81230000 		lwz 9,0(3)
 802 0660 81290008 		lwz 9,8(9)
 803 0664 7D2903A6 		mtctr 9
 804 0668 4E800421 		bctrl
 805 066c 4BFFFEB0 		b .L81
 806              	.L138:
 807              	.LBE34:
 808              		.loc 1 630 0
 809 0670 7F63DB78 		mr 3,27
 810 0674 48000001 		bl _ZN10GuiTrigger2UpEv
 811 0678 2F830000 		cmpwi 7,3,0
 812 067c 409E03D8 		bne- 7,.L170
 813              	.LVL58:
 814              	.L131:
 815              		.loc 1 651 0
 816 0680 801D008C 		lwz 0,140(29)
 817 0684 2F800000 		cmpwi 7,0,0
 818 0688 419E0010 		beq- 7,.L149
 819              		.loc 1 652 0
 820 068c 7FA3EB78 		mr 3,29
 821              	.LVL59:
 822 0690 7C0903A6 		mtctr 0
 823 0694 4E800421 		bctrl
 824              	.LVL60:
 825              	.L149:
 826              	.LBE50:
 827              		.loc 1 653 0
 828 0698 80010044 		lwz 0,68(1)
 829 069c 8321001C 		lwz 25,28(1)
 830              	.LVL61:
 831 06a0 83410020 		lwz 26,32(1)
 832 06a4 7C0803A6 		mtlr 0
 833 06a8 83610024 		lwz 27,36(1)
 834              	.LVL62:
 835 06ac 83810028 		lwz 28,40(1)
 836              	.LVL63:
 837 06b0 83A1002C 		lwz 29,44(1)
 838              	.LVL64:
 839 06b4 83C10030 		lwz 30,48(1)
 840              	.LVL65:
 841 06b8 83E10034 		lwz 31,52(1)
 842 06bc CBE10038 		lfd 31,56(1)
 843 06c0 38210040 		addi 1,1,64
 844 06c4 4E800020 		blr
 845              	.LVL66:
 846              	.L76:
 847              	.LBB51:
 848              	.LBB36:
 849              		.loc 1 462 0
 850 06c8 807F00E4 		lwz 3,228(31)
 851 06cc 38800000 		li 4,0
 852 06d0 81230000 		lwz 9,0(3)
 853 06d4 81290000 		lwz 9,0(9)
 854 06d8 7D2903A6 		mtctr 9
 855 06dc 4E800421 		bctrl
 856              		.loc 1 463 0
 857 06e0 807F00E4 		lwz 3,228(31)
 858 06e4 38800004 		li 4,4
 859 06e8 38A0FFFF 		li 5,-1
 860 06ec 81230000 		lwz 9,0(3)
 861 06f0 81290008 		lwz 9,8(9)
 862 06f4 7D2903A6 		mtctr 9
 863 06f8 4E800421 		bctrl
 864 06fc 4BFFFDEC 		b .L80
 865              	.L166:
 866              		.loc 1 451 0
 867 0700 807F00E4 		lwz 3,228(31)
 868 0704 38800001 		li 4,1
 869 0708 81230000 		lwz 9,0(3)
 870 070c 81290000 		lwz 9,0(9)
 871 0710 7D2903A6 		mtctr 9
 872 0714 4E800421 		bctrl
 873              		.loc 1 452 0
 874 0718 807F00E4 		lwz 3,228(31)
 875 071c 38800000 		li 4,0
 876 0720 38A0FFFF 		li 5,-1
 877 0724 81230000 		lwz 9,0(3)
 878 0728 81290008 		lwz 9,8(9)
 879 072c 7D2903A6 		mtctr 9
 880 0730 4E800421 		bctrl
 881 0734 4BFFFD6C 		b .L78
 882              	.L167:
 883              		.loc 1 469 0
 884 0738 807F00E4 		lwz 3,228(31)
 885 073c 81230000 		lwz 9,0(3)
 886 0740 8129000C 		lwz 9,12(9)
 887 0744 7D2903A6 		mtctr 9
 888 0748 4E800421 		bctrl
 889 074c 4BFFFDD0 		b .L81
 890              	.L168:
 891              	.LBE36:
 892              	.LBB37:
 893              		.loc 1 488 0
 894 0750 7F63DB78 		mr 3,27
 895 0754 48000001 		bl _ZN10GuiTrigger4DownEv
 896 0758 2F830000 		cmpwi 7,3,0
 897 075c 409E0150 		bne- 7,.L95
 898 0760 807D0154 		lwz 3,340(29)
 899 0764 48000001 		bl _ZN10GuiElement8GetStateEv
 900 0768 2F830002 		cmpwi 7,3,2
 901 076c 419E0140 		beq- 7,.L95
 902 0770 807D0154 		lwz 3,340(29)
 903 0774 48000001 		bl _ZN10GuiElement8GetStateEv
 904 0778 2F830003 		cmpwi 7,3,3
 905 077c 419E0130 		beq- 7,.L95
 906              		.loc 1 525 0
 907 0780 7F63DB78 		mr 3,27
 908 0784 48000001 		bl _ZN10GuiTrigger2UpEv
 909 0788 2F830000 		cmpwi 7,3,0
 910 078c 409E0024 		bne- 7,.L110
 911 0790 807D0150 		lwz 3,336(29)
 912 0794 48000001 		bl _ZN10GuiElement8GetStateEv
 913 0798 2F830002 		cmpwi 7,3,2
 914 079c 419E0014 		beq- 7,.L110
 915 07a0 807D0150 		lwz 3,336(29)
 916 07a4 48000001 		bl _ZN10GuiElement8GetStateEv
 917 07a8 2F830003 		cmpwi 7,3,3
 918 07ac 40BE01B8 		bne+ 7,.L107
 919              	.L110:
 920              	.LBB40:
 921              		.loc 1 529 0
 922 07b0 813D00B4 		lwz 9,180(29)
 923 07b4 7FA3EB78 		mr 3,29
 924 07b8 38A0FFFF 		li 5,-1
 925 07bc 5529103A 		slwi 9,9,2
 926 07c0 7D29EA14 		add 9,9,29
 927 07c4 808900C0 		lwz 4,192(9)
 928 07c8 48000001 		bl _ZN16GuiOptionBrowser12FindMenuItemEii
 929              		.loc 1 531 0
 930 07cc 2C030000 		cmpwi 0,3,0
 931              	.LVL67:
 932 07d0 41800034 		blt- 0,.L112
 933              		.loc 1 533 0
 934 07d4 813D00B4 		lwz 9,180(29)
 935 07d8 2F890000 		cmpwi 7,9,0
 936 07dc 409E04B4 		bne- 7,.L114
 937              		.loc 1 536 0
 938 07e0 907D00B8 		stw 3,184(29)
 939              	.L116:
 940              		.loc 1 544 0
 941 07e4 807D0158 		lwz 3,344(29)
 942              	.LVL68:
 943 07e8 81230000 		lwz 9,0(3)
 944 07ec 8129001C 		lwz 9,28(9)
 945 07f0 7D2903A6 		mtctr 9
 946 07f4 4E800421 		bctrl
 947              		.loc 1 545 0
 948 07f8 38600000 		li 3,0
 949 07fc 606388B8 		ori 3,3,35000
 950 0800 48000001 		bl usleep
 951              	.LVL69:
 952              	.L112:
 953              		.loc 1 548 0
 954 0804 48000001 		bl WPAD_ScanPads
 955              	.LVL70:
 956              		.loc 1 552 0
 957 0808 38600000 		li 3,0
 958 080c 48000001 		bl WPAD_ButtonsHeld
 959 0810 3BC00001 		li 30,1
 960              	.LVL71:
 961 0814 547F063E 		rlwinm 31,3,0,0xff
 962              	.LVL72:
 963              	.L117:
 964 0818 7FC3F378 		mr 3,30
 965 081c 48000001 		bl WPAD_ButtonsHeld
 966              		.loc 1 551 0
 967 0820 2F9E0003 		cmpwi 7,30,3
 968              		.loc 1 552 0
 969 0824 7FE31B78 		or 3,31,3
 970              		.loc 1 551 0
 971 0828 3BDE0001 		addi 30,30,1
 972              		.loc 1 552 0
 973 082c 547F063E 		rlwinm 31,3,0,0xff
 974              		.loc 1 551 0
 975 0830 409EFFE8 		bne+ 7,.L117
 976              		.loc 1 553 0
 977 0834 2F9F0008 		cmpwi 7,31,8
 978 0838 419E012C 		beq- 7,.L107
 979              		.loc 1 556 0
 980 083c 807D0150 		lwz 3,336(29)
 981 0840 81230000 		lwz 9,0(3)
 982 0844 8129000C 		lwz 9,12(9)
 983 0848 7D2903A6 		mtctr 9
 984 084c 4E800421 		bctrl
 985 0850 48000114 		b .L107
 986              	.LVL73:
 987              	.L68:
 988              	.LBE40:
 989              	.LBE37:
 990              		.loc 1 421 0
 991 0854 5569103A 		slwi 9,11,2
 992              		.loc 1 420 0
 993 0858 7D6A5B78 		mr 10,11
 994              		.loc 1 421 0
 995 085c 7D291A14 		add 9,9,3
 996              		.loc 1 419 0
 997 0860 380BFFFC 		addi 0,11,-4
 998              		.loc 1 421 0
 999 0864 806900E4 		lwz 3,228(9)
 1000              	.L161:
 1001 0868 81230000 		lwz 9,0(3)
 1002 086c 38800001 		li 4,1
 1003              		.loc 1 419 0
 1004 0870 901D00B8 		stw 0,184(29)
 1005              		.loc 1 420 0
 1006 0874 915D00B4 		stw 10,180(29)
 1007              		.loc 1 421 0
 1008 0878 81290008 		lwz 9,8(9)
 1009 087c 80BB0004 		lwz 5,4(27)
 1010 0880 7D2903A6 		mtctr 9
 1011 0884 4E800421 		bctrl
 1012              		.loc 1 422 0
 1013 0888 813D0000 		lwz 9,0(29)
 1014 088c 7FA3EB78 		mr 3,29
 1015 0890 38800001 		li 4,1
 1016 0894 81290004 		lwz 9,4(9)
 1017 0898 7D2903A6 		mtctr 9
 1018 089c 4E800421 		bctrl
 1019              		.loc 1 423 0
 1020 08a0 38000001 		li 0,1
 1021 08a4 901A0004 		stw 0,4(26)
 1022 08a8 4BFFFBA0 		b .L62
 1023              	.LVL74:
 1024              	.L95:
 1025              	.LBB44:
 1026              	.LBB39:
 1027              		.loc 1 493 0
 1028 08ac 813D00B4 		lwz 9,180(29)
 1029 08b0 7FA3EB78 		mr 3,29
 1030 08b4 38A00001 		li 5,1
 1031 08b8 5529103A 		slwi 9,9,2
 1032 08bc 7D29EA14 		add 9,9,29
 1033 08c0 808900C0 		lwz 4,192(9)
 1034 08c4 48000001 		bl _ZN16GuiOptionBrowser12FindMenuItemEii
 1035              		.loc 1 495 0
 1036 08c8 2F830000 		cmpwi 7,3,0
 1037 08cc 419C004C 		blt- 7,.L99
 1038              		.loc 1 497 0
 1039 08d0 813D00B4 		lwz 9,180(29)
 1040 08d4 2F890008 		cmpwi 7,9,8
 1041 08d8 419E02F0 		beq- 7,.L171
 1042              		.loc 1 502 0
 1043 08dc 39290001 		addi 9,9,1
 1044 08e0 5529103A 		slwi 9,9,2
 1045 08e4 7D29EA14 		add 9,9,29
 1046 08e8 806900E4 		lwz 3,228(9)
 1047 08ec 48000001 		bl _ZN10GuiElement9IsVisibleEv
 1048 08f0 2F830000 		cmpwi 7,3,0
 1049 08f4 409E02EC 		bne- 7,.L172
 1050              	.L103:
 1051              		.loc 1 508 0
 1052 08f8 807D0158 		lwz 3,344(29)
 1053 08fc 81230000 		lwz 9,0(3)
 1054 0900 8129001C 		lwz 9,28(9)
 1055 0904 7D2903A6 		mtctr 9
 1056 0908 4E800421 		bctrl
 1057              		.loc 1 509 0
 1058 090c 38600000 		li 3,0
 1059 0910 606388B8 		ori 3,3,35000
 1060 0914 48000001 		bl usleep
 1061              	.L99:
 1062              		.loc 1 512 0
 1063 0918 48000001 		bl WPAD_ScanPads
 1064              		.loc 1 516 0
 1065 091c 38600000 		li 3,0
 1066 0920 48000001 		bl WPAD_ButtonsHeld
 1067 0924 3BC00001 		li 30,1
 1068              	.LVL75:
 1069 0928 547F063E 		rlwinm 31,3,0,0xff
 1070              	.LVL76:
 1071              	.L105:
 1072 092c 7FC3F378 		mr 3,30
 1073 0930 48000001 		bl WPAD_ButtonsHeld
 1074              		.loc 1 515 0
 1075 0934 2F9E0003 		cmpwi 7,30,3
 1076              		.loc 1 516 0
 1077 0938 7FE31B78 		or 3,31,3
 1078              		.loc 1 515 0
 1079 093c 3BDE0001 		addi 30,30,1
 1080              		.loc 1 516 0
 1081 0940 547F063E 		rlwinm 31,3,0,0xff
 1082              		.loc 1 515 0
 1083 0944 409EFFE8 		bne+ 7,.L105
 1084              		.loc 1 517 0
 1085 0948 2F9F0008 		cmpwi 7,31,8
 1086 094c 419E0018 		beq- 7,.L107
 1087              		.loc 1 520 0
 1088 0950 807D0154 		lwz 3,340(29)
 1089 0954 81230000 		lwz 9,0(3)
 1090 0958 8129000C 		lwz 9,12(9)
 1091 095c 7D2903A6 		mtctr 9
 1092 0960 4E800421 		bctrl
 1093              	.LVL77:
 1094              	.L107:
 1095              	.LBE39:
 1096              		.loc 1 561 0
 1097 0964 807D0158 		lwz 3,344(29)
 1098 0968 48000001 		bl _ZN10GuiElement8GetStateEv
 1099 096c 2F830003 		cmpwi 7,3,3
 1100 0970 419E011C 		beq- 7,.L173
 1101              	.L153:
 1102 0974 815D00B4 		lwz 10,180(29)
 1103              	.L120:
 1104              		.loc 1 582 0
 1105 0978 801D00B8 		lwz 0,184(29)
 1106              		.loc 1 586 0
 1107 097c 813D000C 		lwz 9,12(29)
 1108              		.loc 1 582 0
 1109 0980 7C0A0214 		add 0,10,0
 1110              		.loc 1 586 0
 1111 0984 807D0158 		lwz 3,344(29)
 1112              		.loc 1 582 0
 1113 0988 1C0000ED 		mulli 0,0,237
 1114              		.loc 1 586 0
 1115 098c 7D290E70 		srawi 9,9,1
 1116 0990 7D290194 		addze 9,9
 1117 0994 3889FFF5 		addi 4,9,-11
 1118 0998 7CA0CBD6 		divw 5,0,25
 1119              	.LVL78:
 1120 099c 2F8500D8 		cmpwi 7,5,216
 1121 09a0 409D0008 		ble- 7,.L128
 1122 09a4 38A000D8 		li 5,216
 1123              	.L128:
 1124 09a8 38A50008 		addi 5,5,8
 1125              	.LVL79:
 1126 09ac 48000001 		bl _ZN10GuiElement11SetPositionEii
 1127              		.loc 1 589 0
 1128 09b0 7F63DB78 		mr 3,27
 1129 09b4 48000001 		bl _ZN10GuiTrigger5RightEv
 1130 09b8 7C7F1B79 		mr. 31,3
 1131              	.LVL80:
 1132 09bc 418201C0 		beq- 0,.L129
 1133              		.loc 1 591 0
 1134 09c0 813D00B8 		lwz 9,184(29)
 1135 09c4 7F994800 		cmpw 7,25,9
 1136 09c8 40BDFCB8 		ble- 7,.L131
 1137 09cc 2F990009 		cmpwi 7,25,9
 1138 09d0 40BDFCB0 		ble- 7,.L131
 1139              		.loc 1 594 0
 1140 09d4 38090012 		addi 0,9,18
 1141              		.loc 1 593 0
 1142 09d8 39290009 		addi 9,9,9
 1143              		.loc 1 594 0
 1144 09dc 7F990000 		cmpw 7,25,0
 1145              		.loc 1 593 0
 1146 09e0 913D00B8 		stw 9,184(29)
 1147              		.loc 1 594 0
 1148 09e4 41BDFC9C 		bgt- 7,.L131
 1149              		.loc 1 595 0
 1150 09e8 3819FFF7 		addi 0,25,-9
 1151 09ec 901D00B8 		stw 0,184(29)
 1152 09f0 4BFFFC90 		b .L131
 1153              	.LVL81:
 1154              	.L163:
 1155              	.LBE44:
 1156              		.loc 1 412 0
 1157 09f4 5569103A 		slwi 9,11,2
 1158              		.loc 1 411 0
 1159 09f8 7D6A5B78 		mr 10,11
 1160              		.loc 1 412 0
 1161 09fc 7D291A14 		add 9,9,3
 1162 0a00 806900E4 		lwz 3,228(9)
 1163 0a04 4BFFFE64 		b .L161
 1164              	.LVL82:
 1165              	.L164:
 1166              		.loc 1 439 0
 1167 0a08 807D0150 		lwz 3,336(29)
 1168 0a0c 7F64DB78 		mr 4,27
 1169 0a10 81230000 		lwz 9,0(3)
 1170 0a14 81290018 		lwz 9,24(9)
 1171 0a18 7D2903A6 		mtctr 9
 1172 0a1c 4E800421 		bctrl
 1173              		.loc 1 440 0
 1174 0a20 807D0154 		lwz 3,340(29)
 1175 0a24 7F64DB78 		mr 4,27
 1176 0a28 81230000 		lwz 9,0(3)
 1177 0a2c 81290018 		lwz 9,24(9)
 1178 0a30 7D2903A6 		mtctr 9
 1179 0a34 4E800421 		bctrl
 1180              		.loc 1 441 0
 1181 0a38 807D0158 		lwz 3,344(29)
 1182 0a3c 7F64DB78 		mr 4,27
 1183 0a40 81230000 		lwz 9,0(3)
 1184 0a44 81290018 		lwz 9,24(9)
 1185 0a48 7D2903A6 		mtctr 9
 1186 0a4c 4E800421 		bctrl
 1187 0a50 4BFFFA18 		b .L73
 1188              	.LVL83:
 1189              	.L170:
 1190              		.loc 1 632 0
 1191 0a54 813D00B4 		lwz 9,180(29)
 1192 0a58 7FA3EB78 		mr 3,29
 1193 0a5c 38A0FFFF 		li 5,-1
 1194 0a60 5529103A 		slwi 9,9,2
 1195 0a64 7D29EA14 		add 9,9,29
 1196 0a68 808900C0 		lwz 4,192(9)
 1197 0a6c 48000001 		bl _ZN16GuiOptionBrowser12FindMenuItemEii
 1198              		.loc 1 634 0
 1199 0a70 2C030000 		cmpwi 0,3,0
 1200              	.LVL84:
 1201 0a74 41A0FC0C 		blt- 0,.L131
 1202              		.loc 1 636 0
 1203 0a78 813D00B4 		lwz 9,180(29)
 1204 0a7c 2F890000 		cmpwi 7,9,0
 1205 0a80 409E01BC 		bne- 7,.L146
 1206              		.loc 1 639 0
 1207 0a84 907D00B8 		stw 3,184(29)
 1208 0a88 4BFFFBF8 		b .L131
 1209              	.LVL85:
 1210              	.L173:
 1211              	.LBB45:
 1212              		.loc 1 561 0
 1213 0a8c 807D0158 		lwz 3,344(29)
 1214 0a90 48000001 		bl _ZN10GuiElement12GetStateChanEv
 1215 0a94 801B0004 		lwz 0,4(27)
 1216 0a98 7F830000 		cmpw 7,3,0
 1217 0a9c 409EFED8 		bne+ 7,.L153
 1218 0aa0 801B00B4 		lwz 0,180(27)
 1219 0aa4 2F800000 		cmpwi 7,0,0
 1220 0aa8 41BEFECC 		beq- 7,.L153
 1221 0aac 813D00BC 		lwz 9,188(29)
 1222 0ab0 80090000 		lwz 0,0(9)
 1223 0ab4 2F800009 		cmpwi 7,0,9
 1224 0ab8 409DFEBC 		ble+ 7,.L153
 1225              	.LBB41:
 1226              		.loc 1 565 0
 1227 0abc 809D000C 		lwz 4,12(29)
 1228 0ac0 38A00000 		li 5,0
 1229 0ac4 807D0158 		lwz 3,344(29)
 1230 0ac8 7C840E70 		srawi 4,4,1
 1231 0acc 7C840194 		addze 4,4
 1232 0ad0 3884FFF5 		addi 4,4,-11
 1233 0ad4 48000001 		bl _ZN10GuiElement11SetPositionEii
 1234              		.loc 1 566 0
 1235 0ad8 3D200000 		lis 9,.LC0@ha
 1236 0adc C0090000 		lfs 0,.LC0@l(9)
 1237 0ae0 C3FB00BC 		lfs 31,188(27)
 1238 0ae4 807D0158 		lwz 3,344(29)
 1239 0ae8 EFFF0028 		fsubs 31,31,0
 1240 0aec 48000001 		bl _ZN10GuiElement6GetTopEv
 1241              		.loc 1 568 0
 1242 0af0 3C004330 		lis 0,0x4330
 1243 0af4 6C638000 		xoris 3,3,0x8000
 1244 0af8 90010008 		stw 0,8(1)
 1245 0afc 9061000C 		stw 3,12(1)
 1246 0b00 3D200000 		lis 9,.LC2@ha
 1247 0b04 C0090004 		lfs 0,.LC2@l(9)
 1248 0b08 39210010 		addi 9,1,16
 1249 0b0c C9A10008 		lfd 13,8(1)
 1250 0b10 3D60B60B 		lis 11,0xb60b
 1251 0b14 815D00B4 		lwz 10,180(29)
 1252 0b18 616B60B7 		ori 11,11,24759
 1253 0b1c FDAD0028 		fsub 13,13,0
 1254 0b20 FDA06818 		frsp 13,13
 1255 0b24 EFFF6828 		fsubs 31,31,13
 1256 0b28 FC00F81E 		fctiwz 0,31
 1257 0b2c 7C004FAE 		stfiwx 0,0,9
 1258 0b30 80010010 		lwz 0,16(1)
 1259 0b34 7C00C9D6 		mullw 0,0,25
 1260 0b38 7D605896 		mulhw 11,0,11
 1261 0b3c 7C09FE70 		srawi 9,0,31
 1262 0b40 7D6B0214 		add 11,11,0
 1263 0b44 7D6B3E70 		srawi 11,11,7
 1264 0b48 7D695850 		subf 11,9,11
 1265 0b4c 7D6A5850 		subf 11,10,11
 1266              		.loc 1 570 0
 1267 0b50 2F8B0000 		cmpwi 7,11,0
 1268              		.loc 1 568 0
 1269 0b54 917D00B8 		stw 11,184(29)
 1270              		.loc 1 570 0
 1271 0b58 409D018C 		ble- 7,.L174
 1272              		.loc 1 575 0
 1273 0b5c 380B0009 		addi 0,11,9
 1274 0b60 7F990000 		cmpw 7,25,0
 1275 0b64 41BDFE14 		bgt- 7,.L120
 1276              		.loc 1 577 0
 1277 0b68 3819FFF7 		addi 0,25,-9
 1278              		.loc 1 578 0
 1279 0b6c 39400008 		li 10,8
 1280              		.loc 1 577 0
 1281 0b70 901D00B8 		stw 0,184(29)
 1282              		.loc 1 578 0
 1283 0b74 915D00B4 		stw 10,180(29)
 1284 0b78 4BFFFE00 		b .L120
 1285              	.LVL86:
 1286              	.L129:
 1287              	.LBE41:
 1288              		.loc 1 598 0
 1289 0b7c 7F63DB78 		mr 3,27
 1290 0b80 48000001 		bl _ZN10GuiTrigger4LeftEv
 1291 0b84 2F830000 		cmpwi 7,3,0
 1292 0b88 41BEFAF8 		beq- 7,.L131
 1293              		.loc 1 600 0
 1294 0b8c 813D00B8 		lwz 9,184(29)
 1295 0b90 2F890000 		cmpwi 7,9,0
 1296 0b94 40BDFAEC 		ble- 7,.L131
 1297              		.loc 1 602 0
 1298 0b98 3809FFF7 		addi 0,9,-9
 1299              		.loc 1 603 0
 1300 0b9c 2F800000 		cmpwi 7,0,0
 1301              		.loc 1 602 0
 1302 0ba0 901D00B8 		stw 0,184(29)
 1303              		.loc 1 603 0
 1304 0ba4 409CFADC 		bge+ 7,.L131
 1305              		.loc 1 604 0
 1306 0ba8 93FD00B8 		stw 31,184(29)
 1307 0bac 4BFFFAD4 		b .L131
 1308              	.L169:
 1309              	.LBE45:
 1310              		.loc 1 620 0
 1311 0bb0 809D00B8 		lwz 4,184(29)
 1312 0bb4 7FA3EB78 		mr 3,29
 1313 0bb8 38A00001 		li 5,1
 1314 0bbc 48000001 		bl _ZN16GuiOptionBrowser12FindMenuItemEii
 1315 0bc0 907D00B8 		stw 3,184(29)
 1316 0bc4 4BFFFABC 		b .L131
 1317              	.L171:
 1318              	.LBB46:
 1319              	.LBB38:
 1320              		.loc 1 500 0
 1321 0bc8 809D00B8 		lwz 4,184(29)
 1322 0bcc 7FA3EB78 		mr 3,29
 1323 0bd0 38A00001 		li 5,1
 1324 0bd4 48000001 		bl _ZN16GuiOptionBrowser12FindMenuItemEii
 1325 0bd8 907D00B8 		stw 3,184(29)
 1326 0bdc 4BFFFD1C 		b .L103
 1327              	.L172:
 1328              		.loc 1 504 0
 1329 0be0 813D00B4 		lwz 9,180(29)
 1330 0be4 5529103A 		slwi 9,9,2
 1331 0be8 7D29EA14 		add 9,9,29
 1332 0bec 806900E4 		lwz 3,228(9)
 1333 0bf0 81630000 		lwz 11,0(3)
 1334 0bf4 816B000C 		lwz 11,12(11)
 1335 0bf8 7D6903A6 		mtctr 11
 1336 0bfc 4E800421 		bctrl
 1337              		.loc 1 505 0
 1338 0c00 813D00B4 		lwz 9,180(29)
 1339 0c04 38800001 		li 4,1
 1340 0c08 80BB0004 		lwz 5,4(27)
 1341 0c0c 39290001 		addi 9,9,1
 1342 0c10 5529103A 		slwi 9,9,2
 1343 0c14 7D29EA14 		add 9,9,29
 1344 0c18 806900E4 		lwz 3,228(9)
 1345 0c1c 81230000 		lwz 9,0(3)
 1346 0c20 81290008 		lwz 9,8(9)
 1347 0c24 7D2903A6 		mtctr 9
 1348 0c28 4E800421 		bctrl
 1349              		.loc 1 506 0
 1350 0c2c 813D00B4 		lwz 9,180(29)
 1351 0c30 39490001 		addi 10,9,1
 1352 0c34 915D00B4 		stw 10,180(29)
 1353 0c38 4BFFFCC0 		b .L103
 1354              	.LVL87:
 1355              	.L146:
 1356              	.LBE38:
 1357              	.LBE46:
 1358              		.loc 1 643 0
 1359 0c3c 5529103A 		slwi 9,9,2
 1360 0c40 7D29EA14 		add 9,9,29
 1361 0c44 806900E4 		lwz 3,228(9)
 1362              	.LVL88:
 1363 0c48 81630000 		lwz 11,0(3)
 1364 0c4c 816B000C 		lwz 11,12(11)
 1365 0c50 7D6903A6 		mtctr 11
 1366 0c54 4E800421 		bctrl
 1367              		.loc 1 644 0
 1368 0c58 813D00B4 		lwz 9,180(29)
 1369 0c5c 80BB0004 		lwz 5,4(27)
 1370 0c60 38800001 		li 4,1
 1371 0c64 5529103A 		slwi 9,9,2
 1372 0c68 7D29EA14 		add 9,9,29
 1373 0c6c 806900E0 		lwz 3,224(9)
 1374 0c70 81230000 		lwz 9,0(3)
 1375 0c74 81290008 		lwz 9,8(9)
 1376 0c78 7D2903A6 		mtctr 9
 1377 0c7c 4E800421 		bctrl
 1378              		.loc 1 645 0
 1379 0c80 813D00B4 		lwz 9,180(29)
 1380 0c84 3929FFFF 		addi 9,9,-1
 1381 0c88 913D00B4 		stw 9,180(29)
 1382 0c8c 4BFFF9F4 		b .L131
 1383              	.LVL89:
 1384              	.L114:
 1385              	.LBB47:
 1386              	.LBB42:
 1387              		.loc 1 540 0
 1388 0c90 5529103A 		slwi 9,9,2
 1389 0c94 7D29EA14 		add 9,9,29
 1390 0c98 806900E4 		lwz 3,228(9)
 1391              	.LVL90:
 1392 0c9c 81630000 		lwz 11,0(3)
 1393 0ca0 816B000C 		lwz 11,12(11)
 1394 0ca4 7D6903A6 		mtctr 11
 1395 0ca8 4E800421 		bctrl
 1396              		.loc 1 541 0
 1397 0cac 813D00B4 		lwz 9,180(29)
 1398 0cb0 38800001 		li 4,1
 1399 0cb4 80BB0004 		lwz 5,4(27)
 1400 0cb8 5529103A 		slwi 9,9,2
 1401 0cbc 7D29EA14 		add 9,9,29
 1402 0cc0 806900E0 		lwz 3,224(9)
 1403 0cc4 81230000 		lwz 9,0(3)
 1404 0cc8 81290008 		lwz 9,8(9)
 1405 0ccc 7D2903A6 		mtctr 9
 1406 0cd0 4E800421 		bctrl
 1407              		.loc 1 542 0
 1408 0cd4 813D00B4 		lwz 9,180(29)
 1409 0cd8 3949FFFF 		addi 10,9,-1
 1410 0cdc 915D00B4 		stw 10,180(29)
 1411 0ce0 4BFFFB04 		b .L116
 1412              	.LVL91:
 1413              	.L174:
 1414              	.LBE42:
 1415              	.LBB43:
 1416              		.loc 1 573 0
 1417 0ce4 39400000 		li 10,0
 1418              		.loc 1 572 0
 1419 0ce8 38000000 		li 0,0
 1420 0cec 901D00B8 		stw 0,184(29)
 1421              		.loc 1 573 0
 1422 0cf0 915D00B4 		stw 10,180(29)
 1423 0cf4 4BFFFC84 		b .L120
 1424              	.LBE43:
 1425              	.LBE47:
 1426              	.LBE51:
 1427              	.LFE807:
 1428              		.size	_ZN16GuiOptionBrowser6UpdateEP10GuiTrigger, .-_ZN16GuiOptionBrowser6UpdateEP10GuiTrigger
 1429              		.align 2
 1430              		.globl _ZN16GuiOptionBrowser4DrawEv
 1431              		.type	_ZN16GuiOptionBrowser4DrawEv, @function
 1432              	_ZN16GuiOptionBrowser4DrawEv:
 1433              	.LFB806:
 1434              		.loc 1 373 0
 1435              	.LVL92:
 1436 0cf8 7C0802A6 		mflr 0
 1437              	.LCFI40:
 1438 0cfc 9421FFE8 		stwu 1,-24(1)
 1439              	.LCFI41:
 1440 0d00 93A1000C 		stw 29,12(1)
 1441              	.LCFI42:
 1442 0d04 7C7D1B78 		mr 29,3
 1443 0d08 93C10010 		stw 30,16(1)
 1444              	.LCFI43:
 1445 0d0c 93E10014 		stw 31,20(1)
 1446              	.LCFI44:
 1447 0d10 9001001C 		stw 0,28(1)
 1448              	.LCFI45:
 1449              	.LBB52:
 1450              		.loc 1 375 0
 1451 0d14 48000001 		bl _ZN10GuiElement9IsVisibleEv
 1452              	.LVL93:
 1453 0d18 2F830000 		cmpwi 7,3,0
 1454 0d1c 409E0020 		bne- 7,.L186
 1455              	.LBE52:
 1456              		.loc 1 400 0
 1457 0d20 8001001C 		lwz 0,28(1)
 1458 0d24 83A1000C 		lwz 29,12(1)
 1459              	.LVL94:
 1460 0d28 83C10010 		lwz 30,16(1)
 1461 0d2c 7C0803A6 		mtlr 0
 1462 0d30 83E10014 		lwz 31,20(1)
 1463 0d34 38210018 		addi 1,1,24
 1464 0d38 4E800020 		blr
 1465              	.LVL95:
 1466              	.L186:
 1467              	.LBB54:
 1468              		.loc 1 378 0
 1469 0d3c 807D015C 		lwz 3,348(29)
 1470 0d40 81230000 		lwz 9,0(3)
 1471 0d44 8129001C 		lwz 9,28(9)
 1472 0d48 7D2903A6 		mtctr 9
 1473 0d4c 4E800421 		bctrl
 1474              		.loc 1 380 0
 1475 0d50 83FD00B8 		lwz 31,184(29)
 1476              	.LVL96:
 1477              	.LBB53:
 1478              		.loc 1 384 0
 1479 0d54 2F9F0000 		cmpwi 7,31,0
 1480 0d58 419C0070 		blt- 7,.L179
 1481              		.loc 1 386 0
 1482 0d5c 807D00E4 		lwz 3,228(29)
 1483              		.loc 1 387 0
 1484 0d60 3BC00000 		li 30,0
 1485              		.loc 1 386 0
 1486 0d64 81230000 		lwz 9,0(3)
 1487 0d68 8129001C 		lwz 9,28(9)
 1488 0d6c 7D2903A6 		mtctr 9
 1489 0d70 4E800421 		bctrl
 1490              		.loc 1 387 0
 1491 0d74 7FE4FB78 		mr 4,31
 1492 0d78 7FA3EB78 		mr 3,29
 1493 0d7c 38A00001 		li 5,1
 1494 0d80 48000001 		bl _ZN16GuiOptionBrowser12FindMenuItemEii
 1495 0d84 7C7F1B78 		mr 31,3
 1496              	.LVL97:
 1497              	.L180:
 1498              		.loc 1 384 0
 1499 0d88 2F9F0000 		cmpwi 7,31,0
 1500              		.loc 1 386 0
 1501 0d8c 7D3DF214 		add 9,29,30
 1502              		.loc 1 384 0
 1503 0d90 419C0038 		blt- 7,.L179
 1504              		.loc 1 386 0
 1505 0d94 806900E8 		lwz 3,232(9)
 1506 0d98 81230000 		lwz 9,0(3)
 1507 0d9c 8129001C 		lwz 9,28(9)
 1508 0da0 7D2903A6 		mtctr 9
 1509 0da4 4E800421 		bctrl
 1510              		.loc 1 387 0
 1511 0da8 7FE4FB78 		mr 4,31
 1512 0dac 7FA3EB78 		mr 3,29
 1513 0db0 38A00001 		li 5,1
 1514 0db4 48000001 		bl _ZN16GuiOptionBrowser12FindMenuItemEii
 1515              		.loc 1 382 0
 1516 0db8 2F9E001C 		cmpwi 7,30,28
 1517              		.loc 1 387 0
 1518 0dbc 7C7F1B78 		mr 31,3
 1519              		.loc 1 382 0
 1520 0dc0 3BDE0004 		addi 30,30,4
 1521 0dc4 409EFFC4 		bne+ 7,.L180
 1522              	.L179:
 1523              	.LBE53:
 1524              		.loc 1 393 0
 1525 0dc8 3D200000 		lis 9,.LANCHOR0+12@ha
 1526 0dcc 8009000C 		lwz 0,.LANCHOR0+12@l(9)
 1527 0dd0 2F800001 		cmpwi 7,0,1
 1528 0dd4 419E0028 		beq- 7,.L187
 1529              	.L182:
 1530              		.loc 1 399 0
 1531 0dd8 7FA3EB78 		mr 3,29
 1532 0ddc 48000001 		bl _ZN10GuiElement13UpdateEffectsEv
 1533              	.LBE54:
 1534              		.loc 1 400 0
 1535 0de0 8001001C 		lwz 0,28(1)
 1536 0de4 83A1000C 		lwz 29,12(1)
 1537              	.LVL98:
 1538 0de8 83C10010 		lwz 30,16(1)
 1539 0dec 7C0803A6 		mtlr 0
 1540 0df0 83E10014 		lwz 31,20(1)
 1541              	.LVL99:
 1542 0df4 38210018 		addi 1,1,24
 1543 0df8 4E800020 		blr
 1544              	.LVL100:
 1545              	.L187:
 1546              	.LBB55:
 1547              		.loc 1 394 0
 1548 0dfc 807D0164 		lwz 3,356(29)
 1549 0e00 81230000 		lwz 9,0(3)
 1550 0e04 8129001C 		lwz 9,28(9)
 1551 0e08 7D2903A6 		mtctr 9
 1552 0e0c 4E800421 		bctrl
 1553              		.loc 1 395 0
 1554 0e10 807D0150 		lwz 3,336(29)
 1555 0e14 81230000 		lwz 9,0(3)
 1556 0e18 8129001C 		lwz 9,28(9)
 1557 0e1c 7D2903A6 		mtctr 9
 1558 0e20 4E800421 		bctrl
 1559              		.loc 1 396 0
 1560 0e24 807D0154 		lwz 3,340(29)
 1561 0e28 81230000 		lwz 9,0(3)
 1562 0e2c 8129001C 		lwz 9,28(9)
 1563 0e30 7D2903A6 		mtctr 9
 1564 0e34 4E800421 		bctrl
 1565              		.loc 1 397 0
 1566 0e38 807D0158 		lwz 3,344(29)
 1567 0e3c 81230000 		lwz 9,0(3)
 1568 0e40 8129001C 		lwz 9,28(9)
 1569 0e44 7D2903A6 		mtctr 9
 1570 0e48 4E800421 		bctrl
 1571 0e4c 4BFFFF8C 		b .L182
 1572              	.LBE55:
 1573              	.LFE806:
 1574              		.size	_ZN16GuiOptionBrowser4DrawEv, .-_ZN16GuiOptionBrowser4DrawEv
 1575              		.globl _Unwind_Resume
 1576              		.align 2
 1577              		.globl _ZN16GuiOptionBrowserD1Ev
 1578              		.type	_ZN16GuiOptionBrowserD1Ev, @function
 1579              	_ZN16GuiOptionBrowserD1Ev:
 1580              	.LFB799:
 1581              		.loc 1 251 0
 1582              	.LVL101:
 1583 0e50 7C0802A6 		mflr 0
 1584              	.LCFI46:
 1585 0e54 9421FFE8 		stwu 1,-24(1)
 1586              	.LCFI47:
 1587              		.loc 1 253 0
 1588 0e58 3D200000 		lis 9,.LANCHOR0@ha
 1589              		.loc 1 251 0
 1590 0e5c 93C10010 		stw 30,16(1)
 1591              	.LCFI48:
 1592              		.loc 1 253 0
 1593 0e60 3BC90000 		la 30,.LANCHOR0@l(9)
 1594              		.loc 1 251 0
 1595 0e64 9001001C 		stw 0,28(1)
 1596              	.LCFI49:
 1597 0e68 3D200000 		lis 9,_ZTV16GuiOptionBrowser+8@ha
 1598 0e6c 39290008 		la 9,_ZTV16GuiOptionBrowser+8@l(9)
 1599 0e70 93810008 		stw 28,8(1)
 1600              	.LCFI50:
 1601              		.loc 1 253 0
 1602 0e74 801E000C 		lwz 0,12(30)
 1603              		.loc 1 251 0
 1604 0e78 7C7C1B78 		mr 28,3
 1605 0e7c 93A1000C 		stw 29,12(1)
 1606              	.LCFI51:
 1607              		.loc 1 253 0
 1608 0e80 2F800001 		cmpwi 7,0,1
 1609              		.loc 1 251 0
 1610 0e84 93E10014 		stw 31,20(1)
 1611              	.LCFI52:
 1612              		.loc 1 251 0
 1613 0e88 91230000 		stw 9,0(3)
 1614              		.loc 1 253 0
 1615 0e8c 419E0148 		beq- 7,.L250
 1616              	.LVL102:
 1617              	.L189:
 1618              		.loc 1 272 0
 1619 0e90 83FC015C 		lwz 31,348(28)
 1620 0e94 2F9F0000 		cmpwi 7,31,0
 1621 0e98 419E0014 		beq- 7,.L224
 1622 0e9c 7FE3FB78 		mr 3,31
 1623              	.LEHB0:
 1624 0ea0 48000001 		bl _ZN8GuiImageD1Ev
 1625 0ea4 7FE3FB78 		mr 3,31
 1626 0ea8 48000001 		bl _ZdlPv
 1627              	.LVL103:
 1628              	.L224:
 1629              		.loc 1 273 0
 1630 0eac 83FC0180 		lwz 31,384(28)
 1631 0eb0 2F9F0000 		cmpwi 7,31,0
 1632 0eb4 419E0014 		beq- 7,.L226
 1633 0eb8 7FE3FB78 		mr 3,31
 1634 0ebc 48000001 		bl _ZN12GuiImageDataD1Ev
 1635 0ec0 7FE3FB78 		mr 3,31
 1636 0ec4 48000001 		bl _ZdlPv
 1637              	.LVL104:
 1638              	.L226:
 1639              		.loc 1 274 0
 1640 0ec8 83FC0188 		lwz 31,392(28)
 1641 0ecc 2F9F0000 		cmpwi 7,31,0
 1642 0ed0 419E0014 		beq- 7,.L228
 1643 0ed4 7FE3FB78 		mr 3,31
 1644 0ed8 48000001 		bl _ZN12GuiImageDataD1Ev
 1645 0edc 7FE3FB78 		mr 3,31
 1646 0ee0 48000001 		bl _ZdlPv
 1647              	.LVL105:
 1648              	.L228:
 1649              		.loc 1 277 0
 1650 0ee4 83FC01B0 		lwz 31,432(28)
 1651              		.loc 1 275 0
 1652 0ee8 38000000 		li 0,0
 1653 0eec 901E0004 		stw 0,4(30)
 1654              		.loc 1 277 0
 1655 0ef0 2F9F0000 		cmpwi 7,31,0
 1656 0ef4 419E0014 		beq- 7,.L230
 1657 0ef8 7FE3FB78 		mr 3,31
 1658 0efc 48000001 		bl _ZN10GuiTriggerD1Ev
 1659 0f00 7FE3FB78 		mr 3,31
 1660 0f04 48000001 		bl _ZdlPv
 1661              	.LVL106:
 1662              	.L230:
 1663              		.loc 1 278 0
 1664 0f08 83FC01AC 		lwz 31,428(28)
 1665 0f0c 2F9F0000 		cmpwi 7,31,0
 1666 0f10 419E0014 		beq- 7,.L232
 1667 0f14 7FE3FB78 		mr 3,31
 1668 0f18 48000001 		bl _ZN8GuiSoundD1Ev
 1669 0f1c 7FE3FB78 		mr 3,31
 1670 0f20 48000001 		bl _ZdlPv
 1671              	.LVL107:
 1672              	.L232:
 1673 0f24 7F9FE378 		mr 31,28
 1674 0f28 3BC00000 		li 30,0
 1675              	.LVL108:
 1676              	.L234:
 1677              	.LBB56:
 1678              		.loc 1 283 0
 1679 0f2c 83BF0108 		lwz 29,264(31)
 1680 0f30 2F9D0000 		cmpwi 7,29,0
 1681 0f34 419E0014 		beq- 7,.L235
 1682 0f38 7FA3EB78 		mr 3,29
 1683 0f3c 48000001 		bl _ZN7GuiTextD1Ev
 1684 0f40 7FA3EB78 		mr 3,29
 1685 0f44 48000001 		bl _ZdlPv
 1686              	.LVL109:
 1687              	.L235:
 1688              		.loc 1 284 0
 1689 0f48 83BF0090 		lwz 29,144(31)
 1690 0f4c 2F9D0000 		cmpwi 7,29,0
 1691 0f50 419E0014 		beq- 7,.L237
 1692 0f54 7FA3EB78 		mr 3,29
 1693 0f58 48000001 		bl _ZN7GuiTextD1Ev
 1694 0f5c 7FA3EB78 		mr 3,29
 1695 0f60 48000001 		bl _ZdlPv
 1696              	.LVL110:
 1697              	.L237:
 1698              		.loc 1 285 0
 1699 0f64 83BF012C 		lwz 29,300(31)
 1700 0f68 2F9D0000 		cmpwi 7,29,0
 1701 0f6c 419E0014 		beq- 7,.L239
 1702 0f70 7FA3EB78 		mr 3,29
 1703 0f74 48000001 		bl _ZN8GuiImageD1Ev
 1704 0f78 7FA3EB78 		mr 3,29
 1705 0f7c 48000001 		bl _ZdlPv
 1706              	.LVL111:
 1707              	.L239:
 1708              		.loc 1 286 0
 1709 0f80 83BF00E4 		lwz 29,228(31)
 1710 0f84 2F9D0000 		cmpwi 7,29,0
 1711 0f88 419E0014 		beq- 7,.L241
 1712 0f8c 7FA3EB78 		mr 3,29
 1713 0f90 48000001 		bl _ZN9GuiButtonD1Ev
 1714              	.LEHE0:
 1715 0f94 7FA3EB78 		mr 3,29
 1716 0f98 48000001 		bl _ZdlPv
 1717              	.LVL112:
 1718              	.L241:
 1719              		.loc 1 281 0
 1720 0f9c 2F9E0008 		cmpwi 7,30,8
 1721 0fa0 3BFF0004 		addi 31,31,4
 1722 0fa4 3BDE0001 		addi 30,30,1
 1723 0fa8 409EFF84 		bne+ 7,.L234
 1724              	.LBE56:
 1725              		.loc 1 288 0
 1726 0fac 7F83E378 		mr 3,28
 1727              	.LEHB1:
 1728 0fb0 48000001 		bl _ZN10GuiElementD2Ev
 1729              	.LEHE1:
 1730 0fb4 8001001C 		lwz 0,28(1)
 1731 0fb8 83810008 		lwz 28,8(1)
 1732              	.LVL113:
 1733 0fbc 83A1000C 		lwz 29,12(1)
 1734 0fc0 7C0803A6 		mtlr 0
 1735 0fc4 83C10010 		lwz 30,16(1)
 1736              	.LVL114:
 1737 0fc8 83E10014 		lwz 31,20(1)
 1738 0fcc 38210018 		addi 1,1,24
 1739 0fd0 4E800020 		blr
 1740              	.LVL115:
 1741              	.L250:
 1742              		.loc 1 254 0
 1743 0fd4 83E30150 		lwz 31,336(3)
 1744 0fd8 2F9F0000 		cmpwi 7,31,0
 1745 0fdc 419E0014 		beq- 7,.L191
 1746 0fe0 7FE3FB78 		mr 3,31
 1747              	.LVL116:
 1748              	.LEHB2:
 1749 0fe4 48000001 		bl _ZN9GuiButtonD1Ev
 1750 0fe8 7FE3FB78 		mr 3,31
 1751 0fec 48000001 		bl _ZdlPv
 1752              	.LVL117:
 1753              	.L191:
 1754              		.loc 1 255 0
 1755 0ff0 83FC0154 		lwz 31,340(28)
 1756 0ff4 2F9F0000 		cmpwi 7,31,0
 1757 0ff8 419E0014 		beq- 7,.L193
 1758 0ffc 7FE3FB78 		mr 3,31
 1759 1000 48000001 		bl _ZN9GuiButtonD1Ev
 1760 1004 7FE3FB78 		mr 3,31
 1761 1008 48000001 		bl _ZdlPv
 1762              	.LVL118:
 1763              	.L193:
 1764              		.loc 1 256 0
 1765 100c 83FC0158 		lwz 31,344(28)
 1766 1010 2F9F0000 		cmpwi 7,31,0
 1767 1014 419E0014 		beq- 7,.L195
 1768 1018 7FE3FB78 		mr 3,31
 1769 101c 48000001 		bl _ZN9GuiButtonD1Ev
 1770 1020 7FE3FB78 		mr 3,31
 1771 1024 48000001 		bl _ZdlPv
 1772              	.LVL119:
 1773              	.L195:
 1774              		.loc 1 257 0
 1775 1028 83FC0164 		lwz 31,356(28)
 1776 102c 2F9F0000 		cmpwi 7,31,0
 1777 1030 419E0014 		beq- 7,.L197
 1778 1034 7FE3FB78 		mr 3,31
 1779 1038 48000001 		bl _ZN8GuiImageD1Ev
 1780 103c 7FE3FB78 		mr 3,31
 1781 1040 48000001 		bl _ZdlPv
 1782              	.LVL120:
 1783              	.L197:
 1784              		.loc 1 258 0
 1785 1044 83FC0168 		lwz 31,360(28)
 1786 1048 2F9F0000 		cmpwi 7,31,0
 1787 104c 419E0014 		beq- 7,.L199
 1788 1050 7FE3FB78 		mr 3,31
 1789 1054 48000001 		bl _ZN8GuiImageD1Ev
 1790 1058 7FE3FB78 		mr 3,31
 1791 105c 48000001 		bl _ZdlPv
 1792              	.LVL121:
 1793              	.L199:
 1794              		.loc 1 259 0
 1795 1060 83FC016C 		lwz 31,364(28)
 1796 1064 2F9F0000 		cmpwi 7,31,0
 1797 1068 419E0014 		beq- 7,.L201
 1798 106c 7FE3FB78 		mr 3,31
 1799 1070 48000001 		bl _ZN8GuiImageD1Ev
 1800 1074 7FE3FB78 		mr 3,31
 1801 1078 48000001 		bl _ZdlPv
 1802              	.LVL122:
 1803              	.L201:
 1804              		.loc 1 260 0
 1805 107c 83FC0170 		lwz 31,368(28)
 1806 1080 2F9F0000 		cmpwi 7,31,0
 1807 1084 419E0014 		beq- 7,.L203
 1808 1088 7FE3FB78 		mr 3,31
 1809 108c 48000001 		bl _ZN8GuiImageD1Ev
 1810 1090 7FE3FB78 		mr 3,31
 1811 1094 48000001 		bl _ZdlPv
 1812              	.LVL123:
 1813              	.L203:
 1814              		.loc 1 261 0
 1815 1098 83FC0174 		lwz 31,372(28)
 1816 109c 2F9F0000 		cmpwi 7,31,0
 1817 10a0 419E0014 		beq- 7,.L205
 1818 10a4 7FE3FB78 		mr 3,31
 1819 10a8 48000001 		bl _ZN8GuiImageD1Ev
 1820 10ac 7FE3FB78 		mr 3,31
 1821 10b0 48000001 		bl _ZdlPv
 1822              	.LVL124:
 1823              	.L205:
 1824              		.loc 1 262 0
 1825 10b4 83FC0178 		lwz 31,376(28)
 1826 10b8 2F9F0000 		cmpwi 7,31,0
 1827 10bc 419E0014 		beq- 7,.L207
 1828 10c0 7FE3FB78 		mr 3,31
 1829 10c4 48000001 		bl _ZN8GuiImageD1Ev
 1830 10c8 7FE3FB78 		mr 3,31
 1831 10cc 48000001 		bl _ZdlPv
 1832              	.LVL125:
 1833              	.L207:
 1834              		.loc 1 263 0
 1835 10d0 83FC017C 		lwz 31,380(28)
 1836 10d4 2F9F0000 		cmpwi 7,31,0
 1837 10d8 419E0014 		beq- 7,.L209
 1838 10dc 7FE3FB78 		mr 3,31
 1839 10e0 48000001 		bl _ZN8GuiImageD1Ev
 1840 10e4 7FE3FB78 		mr 3,31
 1841 10e8 48000001 		bl _ZdlPv
 1842              	.LVL126:
 1843              	.L209:
 1844              		.loc 1 264 0
 1845 10ec 83FC018C 		lwz 31,396(28)
 1846 10f0 2F9F0000 		cmpwi 7,31,0
 1847 10f4 419E0014 		beq- 7,.L211
 1848 10f8 7FE3FB78 		mr 3,31
 1849 10fc 48000001 		bl _ZN12GuiImageDataD1Ev
 1850 1100 7FE3FB78 		mr 3,31
 1851 1104 48000001 		bl _ZdlPv
 1852              	.LVL127:
 1853              	.L211:
 1854              		.loc 1 265 0
 1855 1108 83FC0190 		lwz 31,400(28)
 1856 110c 2F9F0000 		cmpwi 7,31,0
 1857 1110 419E0014 		beq- 7,.L213
 1858 1114 7FE3FB78 		mr 3,31
 1859 1118 48000001 		bl _ZN12GuiImageDataD1Ev
 1860 111c 7FE3FB78 		mr 3,31
 1861 1120 48000001 		bl _ZdlPv
 1862              	.LVL128:
 1863              	.L213:
 1864              		.loc 1 266 0
 1865 1124 83FC0194 		lwz 31,404(28)
 1866 1128 2F9F0000 		cmpwi 7,31,0
 1867 112c 419E0014 		beq- 7,.L215
 1868 1130 7FE3FB78 		mr 3,31
 1869 1134 48000001 		bl _ZN12GuiImageDataD1Ev
 1870 1138 7FE3FB78 		mr 3,31
 1871 113c 48000001 		bl _ZdlPv
 1872              	.LVL129:
 1873              	.L215:
 1874              		.loc 1 267 0
 1875 1140 83FC0198 		lwz 31,408(28)
 1876 1144 2F9F0000 		cmpwi 7,31,0
 1877 1148 419E0014 		beq- 7,.L217
 1878 114c 7FE3FB78 		mr 3,31
 1879 1150 48000001 		bl _ZN12GuiImageDataD1Ev
 1880 1154 7FE3FB78 		mr 3,31
 1881 1158 48000001 		bl _ZdlPv
 1882              	.LVL130:
 1883              	.L217:
 1884              		.loc 1 268 0
 1885 115c 83FC019C 		lwz 31,412(28)
 1886 1160 2F9F0000 		cmpwi 7,31,0
 1887 1164 419E0014 		beq- 7,.L219
 1888 1168 7FE3FB78 		mr 3,31
 1889 116c 48000001 		bl _ZN12GuiImageDataD1Ev
 1890 1170 7FE3FB78 		mr 3,31
 1891 1174 48000001 		bl _ZdlPv
 1892              	.LVL131:
 1893              	.L219:
 1894              		.loc 1 269 0
 1895 1178 83FC01A0 		lwz 31,416(28)
 1896 117c 2F9F0000 		cmpwi 7,31,0
 1897 1180 419E0014 		beq- 7,.L221
 1898 1184 7FE3FB78 		mr 3,31
 1899 1188 48000001 		bl _ZN12GuiImageDataD1Ev
 1900 118c 7FE3FB78 		mr 3,31
 1901 1190 48000001 		bl _ZdlPv
 1902              	.LVL132:
 1903              	.L221:
 1904              		.loc 1 270 0
 1905 1194 83FC01A4 		lwz 31,420(28)
 1906 1198 2F9F0000 		cmpwi 7,31,0
 1907 119c 41BEFCF4 		beq- 7,.L189
 1908 11a0 7FE3FB78 		mr 3,31
 1909 11a4 48000001 		bl _ZN12GuiImageDataD1Ev
 1910              	.LEHE2:
 1911 11a8 7FE3FB78 		mr 3,31
 1912 11ac 48000001 		bl _ZdlPv
 1913 11b0 4BFFFCE0 		b .L189
 1914              	.LVL133:
 1915              	.L247:
 1916              	.L244:
 1917 11b4 7C7D1B78 		mr 29,3
 1918              		.loc 1 288 0
 1919 11b8 7F83E378 		mr 3,28
 1920 11bc 48000001 		bl _ZN10GuiElementD2Ev
 1921 11c0 7FA3EB78 		mr 3,29
 1922              	.LEHB3:
 1923 11c4 48000001 		bl _Unwind_Resume
 1924              	.LEHE3:
 1925              	.LFE799:
 1926              		.size	_ZN16GuiOptionBrowserD1Ev, .-_ZN16GuiOptionBrowserD1Ev
 1927              		.section	.gcc_except_table,"a",@progbits
 1928              	.LLSDA799:
 1929 0000 FF       		.byte	0xff
 1930 0001 FF       		.byte	0xff
 1931 0002 01       		.byte	0x1
 1932 0003 17       		.uleb128 .LLSDACSE799-.LLSDACSB799
 1933              	.LLSDACSB799:
 1934 0004 50       		.uleb128 .LEHB0-.LFB799
 1935 0005 F401     		.uleb128 .LEHE0-.LEHB0
 1936 0007 E406     		.uleb128 .L247-.LFB799
 1937 0009 00       		.uleb128 0x0
 1938 000a E002     		.uleb128 .LEHB1-.LFB799
 1939 000c 04       		.uleb128 .LEHE1-.LEHB1
 1940 000d 00       		.uleb128 0x0
 1941 000e 00       		.uleb128 0x0
 1942 000f 9403     		.uleb128 .LEHB2-.LFB799
 1943 0011 C403     		.uleb128 .LEHE2-.LEHB2
 1944 0013 E406     		.uleb128 .L247-.LFB799
 1945 0015 00       		.uleb128 0x0
 1946 0016 F406     		.uleb128 .LEHB3-.LFB799
 1947 0018 04       		.uleb128 .LEHE3-.LEHB3
 1948 0019 00       		.uleb128 0x0
 1949 001a 00       		.uleb128 0x0
 1950              	.LLSDACSE799:
 1951              		.section	".text"
 1952              		.align 2
 1953              		.globl _ZN16GuiOptionBrowserD2Ev
 1954              		.type	_ZN16GuiOptionBrowserD2Ev, @function
 1955              	_ZN16GuiOptionBrowserD2Ev:
 1956              	.LFB798:
 1957              		.loc 1 251 0
 1958              	.LVL134:
 1959 11c8 7C0802A6 		mflr 0
 1960              	.LCFI53:
 1961 11cc 9421FFE8 		stwu 1,-24(1)
 1962              	.LCFI54:
 1963              		.loc 1 253 0
 1964 11d0 3D200000 		lis 9,.LANCHOR0@ha
 1965              		.loc 1 251 0
 1966 11d4 93C10010 		stw 30,16(1)
 1967              	.LCFI55:
 1968              		.loc 1 253 0
 1969 11d8 3BC90000 		la 30,.LANCHOR0@l(9)
 1970              		.loc 1 251 0
 1971 11dc 9001001C 		stw 0,28(1)
 1972              	.LCFI56:
 1973 11e0 3D200000 		lis 9,_ZTV16GuiOptionBrowser+8@ha
 1974 11e4 39290008 		la 9,_ZTV16GuiOptionBrowser+8@l(9)
 1975 11e8 93810008 		stw 28,8(1)
 1976              	.LCFI57:
 1977              		.loc 1 253 0
 1978 11ec 801E000C 		lwz 0,12(30)
 1979              		.loc 1 251 0
 1980 11f0 7C7C1B78 		mr 28,3
 1981 11f4 93A1000C 		stw 29,12(1)
 1982              	.LCFI58:
 1983              		.loc 1 253 0
 1984 11f8 2F800001 		cmpwi 7,0,1
 1985              		.loc 1 251 0
 1986 11fc 93E10014 		stw 31,20(1)
 1987              	.LCFI59:
 1988              		.loc 1 251 0
 1989 1200 91230000 		stw 9,0(3)
 1990              		.loc 1 253 0
 1991 1204 419E0148 		beq- 7,.L313
 1992              	.LVL135:
 1993              	.L252:
 1994              		.loc 1 272 0
 1995 1208 83FC015C 		lwz 31,348(28)
 1996 120c 2F9F0000 		cmpwi 7,31,0
 1997 1210 419E0014 		beq- 7,.L287
 1998 1214 7FE3FB78 		mr 3,31
 1999              	.LEHB4:
 2000 1218 48000001 		bl _ZN8GuiImageD1Ev
 2001 121c 7FE3FB78 		mr 3,31
 2002 1220 48000001 		bl _ZdlPv
 2003              	.LVL136:
 2004              	.L287:
 2005              		.loc 1 273 0
 2006 1224 83FC0180 		lwz 31,384(28)
 2007 1228 2F9F0000 		cmpwi 7,31,0
 2008 122c 419E0014 		beq- 7,.L289
 2009 1230 7FE3FB78 		mr 3,31
 2010 1234 48000001 		bl _ZN12GuiImageDataD1Ev
 2011 1238 7FE3FB78 		mr 3,31
 2012 123c 48000001 		bl _ZdlPv
 2013              	.LVL137:
 2014              	.L289:
 2015              		.loc 1 274 0
 2016 1240 83FC0188 		lwz 31,392(28)
 2017 1244 2F9F0000 		cmpwi 7,31,0
 2018 1248 419E0014 		beq- 7,.L291
 2019 124c 7FE3FB78 		mr 3,31
 2020 1250 48000001 		bl _ZN12GuiImageDataD1Ev
 2021 1254 7FE3FB78 		mr 3,31
 2022 1258 48000001 		bl _ZdlPv
 2023              	.LVL138:
 2024              	.L291:
 2025              		.loc 1 277 0
 2026 125c 83FC01B0 		lwz 31,432(28)
 2027              		.loc 1 275 0
 2028 1260 38000000 		li 0,0
 2029 1264 901E0004 		stw 0,4(30)
 2030              		.loc 1 277 0
 2031 1268 2F9F0000 		cmpwi 7,31,0
 2032 126c 419E0014 		beq- 7,.L293
 2033 1270 7FE3FB78 		mr 3,31
 2034 1274 48000001 		bl _ZN10GuiTriggerD1Ev
 2035 1278 7FE3FB78 		mr 3,31
 2036 127c 48000001 		bl _ZdlPv
 2037              	.LVL139:
 2038              	.L293:
 2039              		.loc 1 278 0
 2040 1280 83FC01AC 		lwz 31,428(28)
 2041 1284 2F9F0000 		cmpwi 7,31,0
 2042 1288 419E0014 		beq- 7,.L295
 2043 128c 7FE3FB78 		mr 3,31
 2044 1290 48000001 		bl _ZN8GuiSoundD1Ev
 2045 1294 7FE3FB78 		mr 3,31
 2046 1298 48000001 		bl _ZdlPv
 2047              	.LVL140:
 2048              	.L295:
 2049 129c 7F9FE378 		mr 31,28
 2050 12a0 3BC00000 		li 30,0
 2051              	.LVL141:
 2052              	.L297:
 2053              	.LBB57:
 2054              		.loc 1 283 0
 2055 12a4 83BF0108 		lwz 29,264(31)
 2056 12a8 2F9D0000 		cmpwi 7,29,0
 2057 12ac 419E0014 		beq- 7,.L298
 2058 12b0 7FA3EB78 		mr 3,29
 2059 12b4 48000001 		bl _ZN7GuiTextD1Ev
 2060 12b8 7FA3EB78 		mr 3,29
 2061 12bc 48000001 		bl _ZdlPv
 2062              	.LVL142:
 2063              	.L298:
 2064              		.loc 1 284 0
 2065 12c0 83BF0090 		lwz 29,144(31)
 2066 12c4 2F9D0000 		cmpwi 7,29,0
 2067 12c8 419E0014 		beq- 7,.L300
 2068 12cc 7FA3EB78 		mr 3,29
 2069 12d0 48000001 		bl _ZN7GuiTextD1Ev
 2070 12d4 7FA3EB78 		mr 3,29
 2071 12d8 48000001 		bl _ZdlPv
 2072              	.LVL143:
 2073              	.L300:
 2074              		.loc 1 285 0
 2075 12dc 83BF012C 		lwz 29,300(31)
 2076 12e0 2F9D0000 		cmpwi 7,29,0
 2077 12e4 419E0014 		beq- 7,.L302
 2078 12e8 7FA3EB78 		mr 3,29
 2079 12ec 48000001 		bl _ZN8GuiImageD1Ev
 2080 12f0 7FA3EB78 		mr 3,29
 2081 12f4 48000001 		bl _ZdlPv
 2082              	.LVL144:
 2083              	.L302:
 2084              		.loc 1 286 0
 2085 12f8 83BF00E4 		lwz 29,228(31)
 2086 12fc 2F9D0000 		cmpwi 7,29,0
 2087 1300 419E0014 		beq- 7,.L304
 2088 1304 7FA3EB78 		mr 3,29
 2089 1308 48000001 		bl _ZN9GuiButtonD1Ev
 2090              	.LEHE4:
 2091 130c 7FA3EB78 		mr 3,29
 2092 1310 48000001 		bl _ZdlPv
 2093              	.LVL145:
 2094              	.L304:
 2095              		.loc 1 281 0
 2096 1314 2F9E0008 		cmpwi 7,30,8
 2097 1318 3BFF0004 		addi 31,31,4
 2098 131c 3BDE0001 		addi 30,30,1
 2099 1320 409EFF84 		bne+ 7,.L297
 2100              	.LBE57:
 2101              		.loc 1 288 0
 2102 1324 7F83E378 		mr 3,28
 2103              	.LEHB5:
 2104 1328 48000001 		bl _ZN10GuiElementD2Ev
 2105              	.LEHE5:
 2106 132c 8001001C 		lwz 0,28(1)
 2107 1330 83810008 		lwz 28,8(1)
 2108              	.LVL146:
 2109 1334 83A1000C 		lwz 29,12(1)
 2110 1338 7C0803A6 		mtlr 0
 2111 133c 83C10010 		lwz 30,16(1)
 2112              	.LVL147:
 2113 1340 83E10014 		lwz 31,20(1)
 2114 1344 38210018 		addi 1,1,24
 2115 1348 4E800020 		blr
 2116              	.LVL148:
 2117              	.L313:
 2118              		.loc 1 254 0
 2119 134c 83E30150 		lwz 31,336(3)
 2120 1350 2F9F0000 		cmpwi 7,31,0
 2121 1354 419E0014 		beq- 7,.L254
 2122 1358 7FE3FB78 		mr 3,31
 2123              	.LVL149:
 2124              	.LEHB6:
 2125 135c 48000001 		bl _ZN9GuiButtonD1Ev
 2126 1360 7FE3FB78 		mr 3,31
 2127 1364 48000001 		bl _ZdlPv
 2128              	.LVL150:
 2129              	.L254:
 2130              		.loc 1 255 0
 2131 1368 83FC0154 		lwz 31,340(28)
 2132 136c 2F9F0000 		cmpwi 7,31,0
 2133 1370 419E0014 		beq- 7,.L256
 2134 1374 7FE3FB78 		mr 3,31
 2135 1378 48000001 		bl _ZN9GuiButtonD1Ev
 2136 137c 7FE3FB78 		mr 3,31
 2137 1380 48000001 		bl _ZdlPv
 2138              	.LVL151:
 2139              	.L256:
 2140              		.loc 1 256 0
 2141 1384 83FC0158 		lwz 31,344(28)
 2142 1388 2F9F0000 		cmpwi 7,31,0
 2143 138c 419E0014 		beq- 7,.L258
 2144 1390 7FE3FB78 		mr 3,31
 2145 1394 48000001 		bl _ZN9GuiButtonD1Ev
 2146 1398 7FE3FB78 		mr 3,31
 2147 139c 48000001 		bl _ZdlPv
 2148              	.LVL152:
 2149              	.L258:
 2150              		.loc 1 257 0
 2151 13a0 83FC0164 		lwz 31,356(28)
 2152 13a4 2F9F0000 		cmpwi 7,31,0
 2153 13a8 419E0014 		beq- 7,.L260
 2154 13ac 7FE3FB78 		mr 3,31
 2155 13b0 48000001 		bl _ZN8GuiImageD1Ev
 2156 13b4 7FE3FB78 		mr 3,31
 2157 13b8 48000001 		bl _ZdlPv
 2158              	.LVL153:
 2159              	.L260:
 2160              		.loc 1 258 0
 2161 13bc 83FC0168 		lwz 31,360(28)
 2162 13c0 2F9F0000 		cmpwi 7,31,0
 2163 13c4 419E0014 		beq- 7,.L262
 2164 13c8 7FE3FB78 		mr 3,31
 2165 13cc 48000001 		bl _ZN8GuiImageD1Ev
 2166 13d0 7FE3FB78 		mr 3,31
 2167 13d4 48000001 		bl _ZdlPv
 2168              	.LVL154:
 2169              	.L262:
 2170              		.loc 1 259 0
 2171 13d8 83FC016C 		lwz 31,364(28)
 2172 13dc 2F9F0000 		cmpwi 7,31,0
 2173 13e0 419E0014 		beq- 7,.L264
 2174 13e4 7FE3FB78 		mr 3,31
 2175 13e8 48000001 		bl _ZN8GuiImageD1Ev
 2176 13ec 7FE3FB78 		mr 3,31
 2177 13f0 48000001 		bl _ZdlPv
 2178              	.LVL155:
 2179              	.L264:
 2180              		.loc 1 260 0
 2181 13f4 83FC0170 		lwz 31,368(28)
 2182 13f8 2F9F0000 		cmpwi 7,31,0
 2183 13fc 419E0014 		beq- 7,.L266
 2184 1400 7FE3FB78 		mr 3,31
 2185 1404 48000001 		bl _ZN8GuiImageD1Ev
 2186 1408 7FE3FB78 		mr 3,31
 2187 140c 48000001 		bl _ZdlPv
 2188              	.LVL156:
 2189              	.L266:
 2190              		.loc 1 261 0
 2191 1410 83FC0174 		lwz 31,372(28)
 2192 1414 2F9F0000 		cmpwi 7,31,0
 2193 1418 419E0014 		beq- 7,.L268
 2194 141c 7FE3FB78 		mr 3,31
 2195 1420 48000001 		bl _ZN8GuiImageD1Ev
 2196 1424 7FE3FB78 		mr 3,31
 2197 1428 48000001 		bl _ZdlPv
 2198              	.LVL157:
 2199              	.L268:
 2200              		.loc 1 262 0
 2201 142c 83FC0178 		lwz 31,376(28)
 2202 1430 2F9F0000 		cmpwi 7,31,0
 2203 1434 419E0014 		beq- 7,.L270
 2204 1438 7FE3FB78 		mr 3,31
 2205 143c 48000001 		bl _ZN8GuiImageD1Ev
 2206 1440 7FE3FB78 		mr 3,31
 2207 1444 48000001 		bl _ZdlPv
 2208              	.LVL158:
 2209              	.L270:
 2210              		.loc 1 263 0
 2211 1448 83FC017C 		lwz 31,380(28)
 2212 144c 2F9F0000 		cmpwi 7,31,0
 2213 1450 419E0014 		beq- 7,.L272
 2214 1454 7FE3FB78 		mr 3,31
 2215 1458 48000001 		bl _ZN8GuiImageD1Ev
 2216 145c 7FE3FB78 		mr 3,31
 2217 1460 48000001 		bl _ZdlPv
 2218              	.LVL159:
 2219              	.L272:
 2220              		.loc 1 264 0
 2221 1464 83FC018C 		lwz 31,396(28)
 2222 1468 2F9F0000 		cmpwi 7,31,0
 2223 146c 419E0014 		beq- 7,.L274
 2224 1470 7FE3FB78 		mr 3,31
 2225 1474 48000001 		bl _ZN12GuiImageDataD1Ev
 2226 1478 7FE3FB78 		mr 3,31
 2227 147c 48000001 		bl _ZdlPv
 2228              	.LVL160:
 2229              	.L274:
 2230              		.loc 1 265 0
 2231 1480 83FC0190 		lwz 31,400(28)
 2232 1484 2F9F0000 		cmpwi 7,31,0
 2233 1488 419E0014 		beq- 7,.L276
 2234 148c 7FE3FB78 		mr 3,31
 2235 1490 48000001 		bl _ZN12GuiImageDataD1Ev
 2236 1494 7FE3FB78 		mr 3,31
 2237 1498 48000001 		bl _ZdlPv
 2238              	.LVL161:
 2239              	.L276:
 2240              		.loc 1 266 0
 2241 149c 83FC0194 		lwz 31,404(28)
 2242 14a0 2F9F0000 		cmpwi 7,31,0
 2243 14a4 419E0014 		beq- 7,.L278
 2244 14a8 7FE3FB78 		mr 3,31
 2245 14ac 48000001 		bl _ZN12GuiImageDataD1Ev
 2246 14b0 7FE3FB78 		mr 3,31
 2247 14b4 48000001 		bl _ZdlPv
 2248              	.LVL162:
 2249              	.L278:
 2250              		.loc 1 267 0
 2251 14b8 83FC0198 		lwz 31,408(28)
 2252 14bc 2F9F0000 		cmpwi 7,31,0
 2253 14c0 419E0014 		beq- 7,.L280
 2254 14c4 7FE3FB78 		mr 3,31
 2255 14c8 48000001 		bl _ZN12GuiImageDataD1Ev
 2256 14cc 7FE3FB78 		mr 3,31
 2257 14d0 48000001 		bl _ZdlPv
 2258              	.LVL163:
 2259              	.L280:
 2260              		.loc 1 268 0
 2261 14d4 83FC019C 		lwz 31,412(28)
 2262 14d8 2F9F0000 		cmpwi 7,31,0
 2263 14dc 419E0014 		beq- 7,.L282
 2264 14e0 7FE3FB78 		mr 3,31
 2265 14e4 48000001 		bl _ZN12GuiImageDataD1Ev
 2266 14e8 7FE3FB78 		mr 3,31
 2267 14ec 48000001 		bl _ZdlPv
 2268              	.LVL164:
 2269              	.L282:
 2270              		.loc 1 269 0
 2271 14f0 83FC01A0 		lwz 31,416(28)
 2272 14f4 2F9F0000 		cmpwi 7,31,0
 2273 14f8 419E0014 		beq- 7,.L284
 2274 14fc 7FE3FB78 		mr 3,31
 2275 1500 48000001 		bl _ZN12GuiImageDataD1Ev
 2276 1504 7FE3FB78 		mr 3,31
 2277 1508 48000001 		bl _ZdlPv
 2278              	.LVL165:
 2279              	.L284:
 2280              		.loc 1 270 0
 2281 150c 83FC01A4 		lwz 31,420(28)
 2282 1510 2F9F0000 		cmpwi 7,31,0
 2283 1514 41BEFCF4 		beq- 7,.L252
 2284 1518 7FE3FB78 		mr 3,31
 2285 151c 48000001 		bl _ZN12GuiImageDataD1Ev
 2286              	.LEHE6:
 2287 1520 7FE3FB78 		mr 3,31
 2288 1524 48000001 		bl _ZdlPv
 2289 1528 4BFFFCE0 		b .L252
 2290              	.LVL166:
 2291              	.L310:
 2292              	.L307:
 2293 152c 7C7D1B78 		mr 29,3
 2294              		.loc 1 288 0
 2295 1530 7F83E378 		mr 3,28
 2296 1534 48000001 		bl _ZN10GuiElementD2Ev
 2297 1538 7FA3EB78 		mr 3,29
 2298              	.LEHB7:
 2299 153c 48000001 		bl _Unwind_Resume
 2300              	.LEHE7:
 2301              	.LFE798:
 2302              		.size	_ZN16GuiOptionBrowserD2Ev, .-_ZN16GuiOptionBrowserD2Ev
 2303              		.section	.gcc_except_table
 2304              	.LLSDA798:
 2305 001b FF       		.byte	0xff
 2306 001c FF       		.byte	0xff
 2307 001d 01       		.byte	0x1
 2308 001e 17       		.uleb128 .LLSDACSE798-.LLSDACSB798
 2309              	.LLSDACSB798:
 2310 001f 50       		.uleb128 .LEHB4-.LFB798
 2311 0020 F401     		.uleb128 .LEHE4-.LEHB4
 2312 0022 E406     		.uleb128 .L310-.LFB798
 2313 0024 00       		.uleb128 0x0
 2314 0025 E002     		.uleb128 .LEHB5-.LFB798
 2315 0027 04       		.uleb128 .LEHE5-.LEHB5
 2316 0028 00       		.uleb128 0x0
 2317 0029 00       		.uleb128 0x0
 2318 002a 9403     		.uleb128 .LEHB6-.LFB798
 2319 002c C403     		.uleb128 .LEHE6-.LEHB6
 2320 002e E406     		.uleb128 .L310-.LFB798
 2321 0030 00       		.uleb128 0x0
 2322 0031 F406     		.uleb128 .LEHB7-.LFB798
 2323 0033 04       		.uleb128 .LEHE7-.LEHB7
 2324 0034 00       		.uleb128 0x0
 2325 0035 00       		.uleb128 0x0
 2326              	.LLSDACSE798:
 2327              		.section	".text"
 2328              		.align 2
 2329              		.globl _ZN16GuiOptionBrowserC1EiiP11_optionlistPKcPKhii
 2330              		.type	_ZN16GuiOptionBrowserC1EiiP11_optionlistPKcPKhii, @function
 2331              	_ZN16GuiOptionBrowserC1EiiP11_optionlistPKcPKhii:
 2332              	.LFB796:
 2333              		.loc 1 133 0
 2334              	.LVL167:
 2335 1540 7C0802A6 		mflr 0
 2336              	.LCFI60:
 2337 1544 9421FF58 		stwu 1,-168(1)
 2338              	.LCFI61:
 2339 1548 92E10084 		stw 23,132(1)
 2340              	.LCFI62:
 2341 154c 7D174378 		mr 23,8
 2342 1550 93010088 		stw 24,136(1)
 2343              	.LCFI63:
 2344 1554 7CF83B78 		mr 24,7
 2345 1558 9321008C 		stw 25,140(1)
 2346              	.LCFI64:
 2347 155c 7D394B78 		mr 25,9
 2348 1560 93410090 		stw 26,144(1)
 2349              	.LCFI65:
 2350 1564 7D5A5378 		mr 26,10
 2351 1568 93610094 		stw 27,148(1)
 2352              	.LCFI66:
 2353 156c 7CDB3378 		mr 27,6
 2354 1570 93810098 		stw 28,152(1)
 2355              	.LCFI67:
 2356 1574 7CBC2B78 		mr 28,5
 2357 1578 93A1009C 		stw 29,156(1)
 2358              	.LCFI68:
 2359 157c 7C9D2378 		mr 29,4
 2360 1580 93C100A0 		stw 30,160(1)
 2361              	.LCFI69:
 2362 1584 3BC00000 		li 30,0
 2363 1588 93E100A4 		stw 31,164(1)
 2364              	.LCFI70:
 2365 158c 7C7F1B78 		mr 31,3
 2366 1590 900100AC 		stw 0,172(1)
 2367              	.LCFI71:
 2368              	.LEHB8:
 2369              	.LBB58:
 2370              		.loc 1 133 0
 2371 1594 48000001 		bl _ZN10GuiElementC2Ev
 2372              	.LEHE8:
 2373              	.LVL168:
 2374 1598 3D200000 		lis 9,_ZTV16GuiOptionBrowser+8@ha
 2375              	.LBB61:
 2376              		.loc 1 135 0
 2377 159c 93BF000C 		stw 29,12(31)
 2378              	.LBE61:
 2379              		.loc 1 133 0
 2380 15a0 39290008 		la 9,_ZTV16GuiOptionBrowser+8@l(9)
 2381              	.LBB60:
 2382              		.loc 1 141 0
 2383 15a4 38000001 		li 0,1
 2384              	.LBE60:
 2385              		.loc 1 133 0
 2386 15a8 913F0000 		stw 9,0(31)
 2387              	.LBB59:
 2388              		.loc 1 138 0
 2389 15ac 3D200000 		lis 9,.LANCHOR0@ha
 2390              		.loc 1 137 0
 2391 15b0 937F00BC 		stw 27,188(31)
 2392              		.loc 1 139 0
 2393 15b4 3BA00000 		li 29,0
 2394              	.LVL169:
 2395              		.loc 1 138 0
 2396 15b8 3B690000 		la 27,.LANCHOR0@l(9)
 2397              	.LVL170:
 2398              		.loc 1 136 0
 2399 15bc 939F0010 		stw 28,16(31)
 2400              		.loc 1 141 0
 2401 15c0 981F0070 		stb 0,112(31)
 2402              		.loc 1 142 0
 2403 15c4 7FE3FB78 		mr 3,31
 2404              		.loc 1 140 0
 2405 15c8 933B000C 		stw 25,12(27)
 2406              		.loc 1 142 0
 2407 15cc 3880FFFF 		li 4,-1
 2408              		.loc 1 138 0
 2409 15d0 935B0008 		stw 26,8(27)
 2410              		.loc 1 142 0
 2411 15d4 38A00001 		li 5,1
 2412              		.loc 1 139 0
 2413 15d8 93BB0004 		stw 29,4(27)
 2414 15dc 3B200000 		li 25,0
 2415              	.LVL171:
 2416              		.loc 1 142 0
 2417 15e0 48000001 		bl _ZN16GuiOptionBrowser12FindMenuItemEii
 2418              		.loc 1 144 0
 2419 15e4 38000001 		li 0,1
 2420              		.loc 1 142 0
 2421 15e8 907F00B8 		stw 3,184(31)
 2422              		.loc 1 147 0
 2423 15ec 38600168 		li 3,360
 2424              		.loc 1 143 0
 2425 15f0 93BF00B4 		stw 29,180(31)
 2426              		.loc 1 144 0
 2427 15f4 901F0008 		stw 0,8(31)
 2428              	.LEHB9:
 2429              		.loc 1 147 0
 2430 15f8 48000001 		bl _Znwj
 2431              	.LEHE9:
 2432 15fc 7C7D1B78 		mr 29,3
 2433              	.LEHB10:
 2434 1600 48000001 		bl _ZN10GuiTriggerC1Ev
 2435              	.LEHE10:
 2436              	.L316:
 2437 1604 93BF01B0 		stw 29,432(31)
 2438              		.loc 1 148 0
 2439 1608 3CA00010 		lis 5,0x10
 2440 160c 7FA3EB78 		mr 3,29
 2441 1610 60A50008 		ori 5,5,8
 2442 1614 3880FFFF 		li 4,-1
 2443 1618 38C00100 		li 6,256
 2444              	.LEHB11:
 2445 161c 48000001 		bl _ZN10GuiTrigger16SetSimpleTriggerEijt
 2446              		.loc 1 149 0
 2447 1620 38600168 		li 3,360
 2448 1624 48000001 		bl _Znwj
 2449              	.LEHE11:
 2450 1628 7C7D1B78 		mr 29,3
 2451              	.LEHB12:
 2452 162c 48000001 		bl _ZN10GuiTriggerC1Ev
 2453              	.LEHE12:
 2454              	.L318:
 2455 1630 93BF01B8 		stw 29,440(31)
 2456              		.loc 1 150 0
 2457 1634 7FA3EB78 		mr 3,29
 2458 1638 3880FFFF 		li 4,-1
 2459 163c 38A00008 		li 5,8
 2460 1640 38C00100 		li 6,256
 2461              	.LEHB13:
 2462 1644 48000001 		bl _ZN10GuiTrigger14SetHeldTriggerEijt
 2463              		.loc 1 151 0
 2464 1648 38600018 		li 3,24
 2465 164c 48000001 		bl _Znwj
 2466              	.LEHE13:
 2467 1650 3C800000 		lis 4,button_click_pcm@ha
 2468 1654 3D200000 		lis 9,button_click_pcm_size@ha
 2469 1658 7C7D1B78 		mr 29,3
 2470 165c 38840000 		la 4,button_click_pcm@l(4)
 2471 1660 80A90000 		lwz 5,button_click_pcm_size@l(9)
 2472 1664 38C00000 		li 6,0
 2473              	.LEHB14:
 2474 1668 48000001 		bl _ZN8GuiSoundC1EPKhii
 2475              	.LEHE14:
 2476              	.L320:
 2477 166c 93BF01AC 		stw 29,428(31)
 2478              		.loc 1 153 0
 2479 1670 3B810008 		addi 28,1,8
 2480              	.LVL172:
 2481 1674 3CA00000 		lis 5,.LC5@ha
 2482 1678 7F83E378 		mr 3,28
 2483 167c 38A50000 		la 5,.LC5@l(5)
 2484 1680 38800064 		li 4,100
 2485 1684 7F06C378 		mr 6,24
 2486              	.LEHB15:
 2487 1688 4CC63182 		crxor 6,6,6
 2488 168c 48000001 		bl snprintf
 2489              		.loc 1 154 0
 2490 1690 3860000C 		li 3,12
 2491 1694 48000001 		bl _Znwj
 2492              	.LEHE15:
 2493 1698 7C7D1B78 		mr 29,3
 2494 169c 7F84E378 		mr 4,28
 2495 16a0 7EE5BB78 		mr 5,23
 2496 16a4 38C00000 		li 6,0
 2497              	.LEHB16:
 2498 16a8 48000001 		bl _ZN12GuiImageDataC1EPKcPKhb
 2499              	.LEHE16:
 2500              	.L322:
 2501 16ac 93BF0180 		stw 29,384(31)
 2502              		.loc 1 156 0
 2503 16b0 386000A8 		li 3,168
 2504              	.LEHB17:
 2505 16b4 48000001 		bl _Znwj
 2506              	.LEHE17:
 2507 16b8 7C7D1B78 		mr 29,3
 2508 16bc 809F0180 		lwz 4,384(31)
 2509              	.LEHB18:
 2510 16c0 48000001 		bl _ZN8GuiImageC1EP12GuiImageData
 2511              	.LEHE18:
 2512              	.L324:
 2513 16c4 93BF015C 		stw 29,348(31)
 2514              		.loc 1 157 0
 2515 16c8 7FA3EB78 		mr 3,29
 2516 16cc 7FE4FB78 		mr 4,31
 2517              	.LEHB19:
 2518 16d0 48000001 		bl _ZN10GuiElement9SetParentEPS_
 2519              		.loc 1 158 0
 2520 16d4 807F015C 		lwz 3,348(31)
 2521 16d8 38800000 		li 4,0
 2522 16dc 38A00005 		li 5,5
 2523 16e0 81230000 		lwz 9,0(3)
 2524 16e4 81290014 		lwz 9,20(9)
 2525 16e8 7D2903A6 		mtctr 9
 2526 16ec 4E800421 		bctrl
 2527              		.loc 1 160 0
 2528 16f0 3CA00000 		lis 5,.LC6@ha
 2529 16f4 7F83E378 		mr 3,28
 2530 16f8 38A50014 		la 5,.LC6@l(5)
 2531 16fc 38800064 		li 4,100
 2532 1700 7F06C378 		mr 6,24
 2533 1704 4CC63182 		crxor 6,6,6
 2534 1708 48000001 		bl snprintf
 2535              		.loc 1 161 0
 2536 170c 3860000C 		li 3,12
 2537 1710 48000001 		bl _Znwj
 2538              	.LEHE19:
 2539 1714 3CA00000 		lis 5,bg_options_entry_png@ha
 2540 1718 7C7D1B78 		mr 29,3
 2541 171c 38A50000 		la 5,bg_options_entry_png@l(5)
 2542 1720 7F84E378 		mr 4,28
 2543 1724 38C00000 		li 6,0
 2544              	.LEHB20:
 2545 1728 48000001 		bl _ZN12GuiImageDataC1EPKcPKhb
 2546              	.LEHE20:
 2547              	.L326:
 2548              		.loc 1 162 0
 2549 172c 801B000C 		lwz 0,12(27)
 2550              		.loc 1 161 0
 2551 1730 93BF0188 		stw 29,392(31)
 2552              		.loc 1 162 0
 2553 1734 2F800001 		cmpwi 7,0,1
 2554 1738 419E01D0 		beq- 7,.L433
 2555              	.L327:
 2556              		.loc 1 221 0
 2557 173c 7FFCFB78 		mr 28,31
 2558 1740 3B600000 		li 27,0
 2559              	.LVL173:
 2560 1744 3B400004 		li 26,4
 2561              	.LVL174:
 2562              	.LBB62:
 2563              	.LBB63:
 2564              		.loc 1 227 0
 2565 1748 3B010078 		addi 24,1,120
 2566              	.LVL175:
 2567              	.L363:
 2568 174c 38000000 		li 0,0
 2569 1750 3920FFFF 		li 9,-1
 2570 1754 501EC00E 		rlwimi 30,0,24,0,7
 2571 1758 386000A4 		li 3,164
 2572 175c 501E821E 		rlwimi 30,0,16,8,15
 2573 1760 501E442E 		rlwimi 30,0,8,16,23
 2574 1764 513E063E 		rlwimi 30,9,0,24,31
 2575              	.LEHB21:
 2576 1768 48000001 		bl _Znwj
 2577              	.LEHE21:
 2578 176c 801F00BC 		lwz 0,188(31)
 2579 1770 1C9B003C 		mulli 4,27,60
 2580 1774 7C7D1B78 		mr 29,3
 2581 1778 93C10078 		stw 30,120(1)
 2582 177c 7C840214 		add 4,4,0
 2583 1780 38A00014 		li 5,20
 2584 1784 38840004 		addi 4,4,4
 2585 1788 7F06C378 		mr 6,24
 2586              	.LEHB22:
 2587 178c 48000001 		bl _ZN7GuiTextC1EPKci9_gx_color
 2588              	.LEHE22:
 2589              	.L365:
 2590              		.loc 1 228 0
 2591 1790 813D0000 		lwz 9,0(29)
 2592 1794 7FA3EB78 		mr 3,29
 2593              		.loc 1 227 0
 2594 1798 93BC0108 		stw 29,264(28)
 2595              		.loc 1 228 0
 2596 179c 38800000 		li 4,0
 2597 17a0 81290014 		lwz 9,20(9)
 2598 17a4 38A00005 		li 5,5
 2599 17a8 7D2903A6 		mtctr 9
 2600              	.LEHB23:
 2601 17ac 4E800421 		bctrl
 2602              		.loc 1 229 0
 2603 17b0 807C0108 		lwz 3,264(28)
 2604 17b4 38800018 		li 4,24
 2605 17b8 38A00000 		li 5,0
 2606 17bc 48000001 		bl _ZN10GuiElement11SetPositionEii
 2607              		.loc 1 231 0
 2608 17c0 386000A8 		li 3,168
 2609 17c4 48000001 		bl _Znwj
 2610              	.LEHE23:
 2611 17c8 7C7D1B78 		mr 29,3
 2612 17cc 809F0188 		lwz 4,392(31)
 2613              	.LEHB24:
 2614 17d0 48000001 		bl _ZN8GuiImageC1EP12GuiImageData
 2615              	.LEHE24:
 2616              	.L367:
 2617              		.loc 1 233 0
 2618 17d4 38000000 		li 0,0
 2619              		.loc 1 231 0
 2620 17d8 93BC012C 		stw 29,300(28)
 2621              		.loc 1 233 0
 2622 17dc 5019C00E 		rlwimi 25,0,24,0,7
 2623 17e0 3920FFFF 		li 9,-1
 2624 17e4 5019821E 		rlwimi 25,0,16,8,15
 2625 17e8 386000A4 		li 3,164
 2626 17ec 5019442E 		rlwimi 25,0,8,16,23
 2627 17f0 5139063E 		rlwimi 25,9,0,24,31
 2628              	.LEHB25:
 2629 17f4 48000001 		bl _Znwj
 2630              	.LEHE25:
 2631 17f8 7C7D1B78 		mr 29,3
 2632 17fc 93210078 		stw 25,120(1)
 2633 1800 38800000 		li 4,0
 2634 1804 38A00014 		li 5,20
 2635 1808 7F06C378 		mr 6,24
 2636              	.LEHB26:
 2637 180c 48000001 		bl _ZN7GuiTextC1EPKci9_gx_color
 2638              	.LEHE26:
 2639              	.L369:
 2640              		.loc 1 234 0
 2641 1810 813D0000 		lwz 9,0(29)
 2642 1814 7FA3EB78 		mr 3,29
 2643              		.loc 1 233 0
 2644 1818 93BC0090 		stw 29,144(28)
 2645              		.loc 1 234 0
 2646 181c 38800000 		li 4,0
 2647 1820 81290014 		lwz 9,20(9)
 2648 1824 38A00005 		li 5,5
 2649 1828 7D2903A6 		mtctr 9
 2650              	.LEHB27:
 2651 182c 4E800421 		bctrl
 2652              		.loc 1 235 0
 2653 1830 807C0090 		lwz 3,144(28)
 2654 1834 388000FA 		li 4,250
 2655 1838 38A00000 		li 5,0
 2656 183c 48000001 		bl _ZN10GuiElement11SetPositionEii
 2657              		.loc 1 237 0
 2658 1840 386000FC 		li 3,252
 2659 1844 48000001 		bl _Znwj
 2660              	.LEHE27:
 2661 1848 809F000C 		lwz 4,12(31)
 2662 184c 7C7D1B78 		mr 29,3
 2663 1850 38A0001E 		li 5,30
 2664 1854 3884FFE4 		addi 4,4,-28
 2665              	.LEHB28:
 2666 1858 48000001 		bl _ZN9GuiButtonC1Eii
 2667              	.LEHE28:
 2668              	.L371:
 2669 185c 93BC00E4 		stw 29,228(28)
 2670              		.loc 1 238 0
 2671 1860 7FA3EB78 		mr 3,29
 2672 1864 7FE4FB78 		mr 4,31
 2673              	.LEHB29:
 2674 1868 48000001 		bl _ZN10GuiElement9SetParentEPS_
 2675              		.loc 1 239 0
 2676 186c 807C00E4 		lwz 3,228(28)
 2677 1870 38A00000 		li 5,0
 2678 1874 809C0108 		lwz 4,264(28)
 2679 1878 48000001 		bl _ZN9GuiButton8SetLabelEP7GuiTexti
 2680              		.loc 1 240 0
 2681 187c 807C00E4 		lwz 3,228(28)
 2682 1880 38A00001 		li 5,1
 2683 1884 809C0090 		lwz 4,144(28)
 2684 1888 48000001 		bl _ZN9GuiButton8SetLabelEP7GuiTexti
 2685              		.loc 1 241 0
 2686 188c 807C00E4 		lwz 3,228(28)
 2687 1890 809C012C 		lwz 4,300(28)
 2688 1894 48000001 		bl _ZN9GuiButton12SetImageOverEP8GuiImage
 2689              		.loc 1 242 0
 2690 1898 807C00E4 		lwz 3,228(28)
 2691 189c 38800005 		li 4,5
 2692 18a0 7F45D378 		mr 5,26
 2693 18a4 48000001 		bl _ZN10GuiElement11SetPositionEii
 2694              		.loc 1 243 0
 2695 18a8 807C00E4 		lwz 3,228(28)
 2696 18ac 809F01B0 		lwz 4,432(31)
 2697 18b0 48000001 		bl _ZN10GuiElement10SetTriggerEP10GuiTrigger
 2698              		.loc 1 244 0
 2699 18b4 807C00E4 		lwz 3,228(28)
 2700 18b8 809F01AC 		lwz 4,428(31)
 2701 18bc 48000001 		bl _ZN9GuiButton13SetSoundClickEP8GuiSound
 2702              	.LBE63:
 2703              		.loc 1 225 0
 2704 18c0 2F9B0008 		cmpwi 7,27,8
 2705 18c4 3B9C0004 		addi 28,28,4
 2706 18c8 3B5A001E 		addi 26,26,30
 2707 18cc 3B7B0001 		addi 27,27,1
 2708 18d0 409EFE7C 		bne+ 7,.L363
 2709              	.LBE62:
 2710              	.LBE59:
 2711              	.LBE58:
 2712              		.loc 1 246 0
 2713 18d4 800100AC 		lwz 0,172(1)
 2714 18d8 82E10084 		lwz 23,132(1)
 2715              	.LVL176:
 2716 18dc 83010088 		lwz 24,136(1)
 2717 18e0 7C0803A6 		mtlr 0
 2718 18e4 8321008C 		lwz 25,140(1)
 2719 18e8 83410090 		lwz 26,144(1)
 2720 18ec 83610094 		lwz 27,148(1)
 2721              	.LVL177:
 2722 18f0 83810098 		lwz 28,152(1)
 2723 18f4 83A1009C 		lwz 29,156(1)
 2724 18f8 83C100A0 		lwz 30,160(1)
 2725 18fc 83E100A4 		lwz 31,164(1)
 2726              	.LVL178:
 2727 1900 382100A8 		addi 1,1,168
 2728 1904 4E800020 		blr
 2729              	.LVL179:
 2730              	.L433:
 2731              	.LBB65:
 2732              	.LBB64:
 2733              		.loc 1 163 0
 2734 1908 3CA00000 		lis 5,.LC7@ha
 2735 190c 7F83E378 		mr 3,28
 2736 1910 38A5002C 		la 5,.LC7@l(5)
 2737 1914 38800064 		li 4,100
 2738 1918 7F06C378 		mr 6,24
 2739 191c 4CC63182 		crxor 6,6,6
 2740 1920 48000001 		bl snprintf
 2741              		.loc 1 164 0
 2742 1924 3860000C 		li 3,12
 2743 1928 48000001 		bl _Znwj
 2744              	.LEHE29:
 2745 192c 3CA00000 		lis 5,scrollbar_png@ha
 2746 1930 7C7D1B78 		mr 29,3
 2747 1934 38A50000 		la 5,scrollbar_png@l(5)
 2748 1938 7F84E378 		mr 4,28
 2749 193c 38C00000 		li 6,0
 2750              	.LEHB30:
 2751 1940 48000001 		bl _ZN12GuiImageDataC1EPKcPKhb
 2752              	.LEHE30:
 2753              	.L330:
 2754 1944 93BF018C 		stw 29,396(31)
 2755              		.loc 1 165 0
 2756 1948 386000A8 		li 3,168
 2757              	.LEHB31:
 2758 194c 48000001 		bl _Znwj
 2759              	.LEHE31:
 2760 1950 7C7D1B78 		mr 29,3
 2761 1954 809F018C 		lwz 4,396(31)
 2762              	.LEHB32:
 2763 1958 48000001 		bl _ZN8GuiImageC1EP12GuiImageData
 2764              	.LEHE32:
 2765              	.L332:
 2766 195c 93BF0164 		stw 29,356(31)
 2767              		.loc 1 166 0
 2768 1960 7FA3EB78 		mr 3,29
 2769 1964 7FE4FB78 		mr 4,31
 2770              	.LEHB33:
 2771 1968 48000001 		bl _ZN10GuiElement9SetParentEPS_
 2772              		.loc 1 167 0
 2773 196c 807F0164 		lwz 3,356(31)
 2774 1970 38800001 		li 4,1
 2775 1974 38A00003 		li 5,3
 2776 1978 81230000 		lwz 9,0(3)
 2777 197c 81290014 		lwz 9,20(9)
 2778 1980 7D2903A6 		mtctr 9
 2779 1984 4E800421 		bctrl
 2780              		.loc 1 168 0
 2781 1988 807F0164 		lwz 3,356(31)
 2782 198c 38800000 		li 4,0
 2783 1990 38A00004 		li 5,4
 2784 1994 48000001 		bl _ZN10GuiElement11SetPositionEii
 2785              		.loc 1 170 0
 2786 1998 3CA00000 		lis 5,.LC8@ha
 2787 199c 7F83E378 		mr 3,28
 2788 19a0 38A5003C 		la 5,.LC8@l(5)
 2789 19a4 38800064 		li 4,100
 2790 19a8 7F06C378 		mr 6,24
 2791 19ac 4CC63182 		crxor 6,6,6
 2792 19b0 48000001 		bl snprintf
 2793              		.loc 1 171 0
 2794 19b4 3860000C 		li 3,12
 2795 19b8 48000001 		bl _Znwj
 2796              	.LEHE33:
 2797 19bc 3D200000 		lis 9,scrollbar_arrowdown_png@ha
 2798 19c0 7C7D1B78 		mr 29,3
 2799 19c4 3B690000 		la 27,scrollbar_arrowdown_png@l(9)
 2800 19c8 7F84E378 		mr 4,28
 2801 19cc 7F65DB78 		mr 5,27
 2802 19d0 38C00000 		li 6,0
 2803              	.LEHB34:
 2804 19d4 48000001 		bl _ZN12GuiImageDataC1EPKcPKhb
 2805              	.LEHE34:
 2806              	.L334:
 2807 19d8 93BF0190 		stw 29,400(31)
 2808              		.loc 1 172 0
 2809 19dc 386000A8 		li 3,168
 2810              	.LEHB35:
 2811 19e0 48000001 		bl _Znwj
 2812              	.LEHE35:
 2813 19e4 7C7D1B78 		mr 29,3
 2814 19e8 809F0190 		lwz 4,400(31)
 2815              	.LEHB36:
 2816 19ec 48000001 		bl _ZN8GuiImageC1EP12GuiImageData
 2817              	.LEHE36:
 2818              	.L336:
 2819 19f0 93BF0168 		stw 29,360(31)
 2820              		.loc 1 173 0
 2821 19f4 3860000C 		li 3,12
 2822              	.LEHB37:
 2823 19f8 48000001 		bl _Znwj
 2824              	.LEHE37:
 2825 19fc 7C7D1B78 		mr 29,3
 2826 1a00 7F84E378 		mr 4,28
 2827 1a04 7F65DB78 		mr 5,27
 2828 1a08 38C00000 		li 6,0
 2829              	.LEHB38:
 2830 1a0c 48000001 		bl _ZN12GuiImageDataC1EPKcPKhb
 2831              	.LEHE38:
 2832              	.L338:
 2833 1a10 93BF0194 		stw 29,404(31)
 2834              		.loc 1 174 0
 2835 1a14 386000A8 		li 3,168
 2836              	.LEHB39:
 2837 1a18 48000001 		bl _Znwj
 2838              	.LEHE39:
 2839 1a1c 7C7D1B78 		mr 29,3
 2840 1a20 809F0194 		lwz 4,404(31)
 2841              	.LEHB40:
 2842 1a24 48000001 		bl _ZN8GuiImageC1EP12GuiImageData
 2843              	.LEHE40:
 2844              	.L340:
 2845 1a28 93BF016C 		stw 29,364(31)
 2846              		.loc 1 175 0
 2847 1a2c 3CA00000 		lis 5,.LC9@ha
 2848 1a30 38A50058 		la 5,.LC9@l(5)
 2849 1a34 7F83E378 		mr 3,28
 2850 1a38 38800064 		li 4,100
 2851 1a3c 7F06C378 		mr 6,24
 2852              	.LEHB41:
 2853 1a40 4CC63182 		crxor 6,6,6
 2854 1a44 48000001 		bl snprintf
 2855              		.loc 1 176 0
 2856 1a48 3860000C 		li 3,12
 2857 1a4c 48000001 		bl _Znwj
 2858              	.LEHE41:
 2859 1a50 3D200000 		lis 9,scrollbar_arrowup_png@ha
 2860 1a54 7C7D1B78 		mr 29,3
 2861 1a58 3B690000 		la 27,scrollbar_arrowup_png@l(9)
 2862 1a5c 7F84E378 		mr 4,28
 2863 1a60 7F65DB78 		mr 5,27
 2864 1a64 38C00000 		li 6,0
 2865              	.LEHB42:
 2866 1a68 48000001 		bl _ZN12GuiImageDataC1EPKcPKhb
 2867              	.LEHE42:
 2868              	.L342:
 2869 1a6c 93BF0198 		stw 29,408(31)
 2870              		.loc 1 177 0
 2871 1a70 386000A8 		li 3,168
 2872              	.LEHB43:
 2873 1a74 48000001 		bl _Znwj
 2874              	.LEHE43:
 2875 1a78 7C7D1B78 		mr 29,3
 2876 1a7c 809F0198 		lwz 4,408(31)
 2877              	.LEHB44:
 2878 1a80 48000001 		bl _ZN8GuiImageC1EP12GuiImageData
 2879              	.LEHE44:
 2880              	.L344:
 2881 1a84 93BF0170 		stw 29,368(31)
 2882              		.loc 1 178 0
 2883 1a88 3860000C 		li 3,12
 2884              	.LEHB45:
 2885 1a8c 48000001 		bl _Znwj
 2886              	.LEHE45:
 2887 1a90 7C7D1B78 		mr 29,3
 2888 1a94 7F84E378 		mr 4,28
 2889 1a98 7F65DB78 		mr 5,27
 2890 1a9c 38C00000 		li 6,0
 2891              	.LEHB46:
 2892 1aa0 48000001 		bl _ZN12GuiImageDataC1EPKcPKhb
 2893              	.LEHE46:
 2894              	.L346:
 2895 1aa4 93BF019C 		stw 29,412(31)
 2896              		.loc 1 179 0
 2897 1aa8 386000A8 		li 3,168
 2898              	.LEHB47:
 2899 1aac 48000001 		bl _Znwj
 2900              	.LEHE47:
 2901 1ab0 7C7D1B78 		mr 29,3
 2902 1ab4 809F019C 		lwz 4,412(31)
 2903              	.LEHB48:
 2904 1ab8 48000001 		bl _ZN8GuiImageC1EP12GuiImageData
 2905              	.LEHE48:
 2906              	.L348:
 2907 1abc 93BF0174 		stw 29,372(31)
 2908              		.loc 1 180 0
 2909 1ac0 3CA00000 		lis 5,.LC10@ha
 2910 1ac4 38A50070 		la 5,.LC10@l(5)
 2911 1ac8 7F06C378 		mr 6,24
 2912 1acc 7F83E378 		mr 3,28
 2913 1ad0 38800064 		li 4,100
 2914              	.LEHB49:
 2915 1ad4 4CC63182 		crxor 6,6,6
 2916 1ad8 48000001 		bl snprintf
 2917              		.loc 1 181 0
 2918 1adc 3860000C 		li 3,12
 2919 1ae0 48000001 		bl _Znwj
 2920              	.LEHE49:
 2921 1ae4 3D200000 		lis 9,scrollbar_box_png@ha
 2922 1ae8 7C7D1B78 		mr 29,3
 2923 1aec 3B690000 		la 27,scrollbar_box_png@l(9)
 2924 1af0 7F84E378 		mr 4,28
 2925 1af4 7F65DB78 		mr 5,27
 2926 1af8 38C00000 		li 6,0
 2927              	.LEHB50:
 2928 1afc 48000001 		bl _ZN12GuiImageDataC1EPKcPKhb
 2929              	.LEHE50:
 2930              	.L350:
 2931 1b00 93BF01A0 		stw 29,416(31)
 2932              		.loc 1 182 0
 2933 1b04 386000A8 		li 3,168
 2934              	.LEHB51:
 2935 1b08 48000001 		bl _Znwj
 2936              	.LEHE51:
 2937 1b0c 7C7D1B78 		mr 29,3
 2938 1b10 809F01A0 		lwz 4,416(31)
 2939              	.LEHB52:
 2940 1b14 48000001 		bl _ZN8GuiImageC1EP12GuiImageData
 2941              	.LEHE52:
 2942              	.L352:
 2943 1b18 93BF0178 		stw 29,376(31)
 2944              		.loc 1 183 0
 2945 1b1c 3860000C 		li 3,12
 2946              	.LEHB53:
 2947 1b20 48000001 		bl _Znwj
 2948              	.LEHE53:
 2949 1b24 7C7D1B78 		mr 29,3
 2950 1b28 7F84E378 		mr 4,28
 2951 1b2c 7F65DB78 		mr 5,27
 2952 1b30 38C00000 		li 6,0
 2953              	.LEHB54:
 2954 1b34 48000001 		bl _ZN12GuiImageDataC1EPKcPKhb
 2955              	.LEHE54:
 2956 1b38 93BF01A4 		stw 29,420(31)
 2957              		.loc 1 184 0
 2958 1b3c 386000A8 		li 3,168
 2959              	.LEHB55:
 2960 1b40 48000001 		bl _Znwj
 2961              	.LEHE55:
 2962 1b44 7C7D1B78 		mr 29,3
 2963 1b48 809F01A4 		lwz 4,420(31)
 2964              	.LEHB56:
 2965 1b4c 48000001 		bl _ZN8GuiImageC1EP12GuiImageData
 2966              	.LEHE56:
 2967              	.L356:
 2968 1b50 93BF017C 		stw 29,380(31)
 2969              		.loc 1 186 0
 2970 1b54 807F0170 		lwz 3,368(31)
 2971              	.LEHB57:
 2972 1b58 48000001 		bl _ZN10GuiElement8GetWidthEv
 2973 1b5c 7C7B1B78 		mr 27,3
 2974 1b60 807F0170 		lwz 3,368(31)
 2975 1b64 48000001 		bl _ZN10GuiElement9GetHeightEv
 2976 1b68 7C7C1B78 		mr 28,3
 2977 1b6c 386000FC 		li 3,252
 2978 1b70 48000001 		bl _Znwj
 2979              	.LEHE57:
 2980 1b74 7C7D1B78 		mr 29,3
 2981 1b78 7F64DB78 		mr 4,27
 2982 1b7c 7F85E378 		mr 5,28
 2983              	.LEHB58:
 2984 1b80 48000001 		bl _ZN9GuiButtonC1Eii
 2985              	.LEHE58:
 2986              	.L358:
 2987 1b84 93BF0150 		stw 29,336(31)
 2988              		.loc 1 187 0
 2989 1b88 7FA3EB78 		mr 3,29
 2990 1b8c 7FE4FB78 		mr 4,31
 2991              	.LEHB59:
 2992 1b90 48000001 		bl _ZN10GuiElement9SetParentEPS_
 2993              		.loc 1 188 0
 2994 1b94 807F0150 		lwz 3,336(31)
 2995 1b98 809F0170 		lwz 4,368(31)
 2996 1b9c 48000001 		bl _ZN9GuiButton8SetImageEP8GuiImage
 2997              		.loc 1 189 0
 2998 1ba0 807F0150 		lwz 3,336(31)
 2999 1ba4 809F0174 		lwz 4,372(31)
 3000 1ba8 48000001 		bl _ZN9GuiButton12SetImageOverEP8GuiImage
 3001              		.loc 1 190 0
 3002 1bac 807F0150 		lwz 3,336(31)
 3003 1bb0 809F0174 		lwz 4,372(31)
 3004 1bb4 48000001 		bl _ZN9GuiButton12SetImageHoldEP8GuiImage
 3005              		.loc 1 191 0
 3006 1bb8 807F0150 		lwz 3,336(31)
 3007 1bbc 38800002 		li 4,2
 3008 1bc0 38A00003 		li 5,3
 3009 1bc4 81230000 		lwz 9,0(3)
 3010 1bc8 81290014 		lwz 9,20(9)
 3011 1bcc 7D2903A6 		mtctr 9
 3012 1bd0 4E800421 		bctrl
 3013              		.loc 1 192 0
 3014 1bd4 809F000C 		lwz 4,12(31)
 3015 1bd8 38A0FFEE 		li 5,-18
 3016 1bdc 807F0150 		lwz 3,336(31)
 3017 1be0 7C840E70 		srawi 4,4,1
 3018 1be4 7C840194 		addze 4,4
 3019 1be8 3884FFF5 		addi 4,4,-11
 3020 1bec 48000001 		bl _ZN10GuiElement11SetPositionEii
 3021              		.loc 1 193 0
 3022 1bf0 807F0150 		lwz 3,336(31)
 3023 1bf4 38800000 		li 4,0
 3024 1bf8 48000001 		bl _ZN10GuiElement13SetSelectableEb
 3025              		.loc 1 194 0
 3026 1bfc 807F0150 		lwz 3,336(31)
 3027 1c00 809F01B0 		lwz 4,432(31)
 3028 1c04 48000001 		bl _ZN10GuiElement10SetTriggerEP10GuiTrigger
 3029              		.loc 1 195 0
 3030 1c08 807F0150 		lwz 3,336(31)
 3031 1c0c 38800080 		li 4,128
 3032 1c10 38A00032 		li 5,50
 3033 1c14 38C00082 		li 6,130
 3034 1c18 48000001 		bl _ZN10GuiElement15SetEffectOnOverEiii
 3035              		.loc 1 196 0
 3036 1c1c 807F0150 		lwz 3,336(31)
 3037 1c20 809F01AC 		lwz 4,428(31)
 3038 1c24 48000001 		bl _ZN9GuiButton13SetSoundClickEP8GuiSound
 3039              		.loc 1 198 0
 3040 1c28 807F0168 		lwz 3,360(31)
 3041 1c2c 48000001 		bl _ZN10GuiElement8GetWidthEv
 3042 1c30 7C7B1B78 		mr 27,3
 3043 1c34 807F0168 		lwz 3,360(31)
 3044 1c38 48000001 		bl _ZN10GuiElement9GetHeightEv
 3045 1c3c 7C7C1B78 		mr 28,3
 3046 1c40 386000FC 		li 3,252
 3047 1c44 48000001 		bl _Znwj
 3048              	.LEHE59:
 3049 1c48 7C7D1B78 		mr 29,3
 3050 1c4c 7F64DB78 		mr 4,27
 3051 1c50 7F85E378 		mr 5,28
 3052              	.LEHB60:
 3053 1c54 48000001 		bl _ZN9GuiButtonC1Eii
 3054              	.LEHE60:
 3055              	.L360:
 3056 1c58 93BF0154 		stw 29,340(31)
 3057              		.loc 1 199 0
 3058 1c5c 7FA3EB78 		mr 3,29
 3059 1c60 7FE4FB78 		mr 4,31
 3060              	.LEHB61:
 3061 1c64 48000001 		bl _ZN10GuiElement9SetParentEPS_
 3062              		.loc 1 200 0
 3063 1c68 807F0154 		lwz 3,340(31)
 3064 1c6c 809F0168 		lwz 4,360(31)
 3065 1c70 48000001 		bl _ZN9GuiButton8SetImageEP8GuiImage
 3066              		.loc 1 201 0
 3067 1c74 807F0154 		lwz 3,340(31)
 3068 1c78 809F016C 		lwz 4,364(31)
 3069 1c7c 48000001 		bl _ZN9GuiButton12SetImageOverEP8GuiImage
 3070              		.loc 1 202 0
 3071 1c80 807F0154 		lwz 3,340(31)
 3072 1c84 809F016C 		lwz 4,364(31)
 3073 1c88 48000001 		bl _ZN9GuiButton12SetImageHoldEP8GuiImage
 3074              		.loc 1 203 0
 3075 1c8c 807F0154 		lwz 3,340(31)
 3076 1c90 38800002 		li 4,2
 3077 1c94 38A00004 		li 5,4
 3078 1c98 81230000 		lwz 9,0(3)
 3079 1c9c 81290014 		lwz 9,20(9)
 3080 1ca0 7D2903A6 		mtctr 9
 3081 1ca4 4E800421 		bctrl
 3082              		.loc 1 204 0
 3083 1ca8 809F000C 		lwz 4,12(31)
 3084 1cac 38A00012 		li 5,18
 3085 1cb0 807F0154 		lwz 3,340(31)
 3086 1cb4 7C840E70 		srawi 4,4,1
 3087 1cb8 7C840194 		addze 4,4
 3088 1cbc 3884FFF5 		addi 4,4,-11
 3089 1cc0 48000001 		bl _ZN10GuiElement11SetPositionEii
 3090              		.loc 1 205 0
 3091 1cc4 807F0154 		lwz 3,340(31)
 3092 1cc8 38800000 		li 4,0
 3093 1ccc 48000001 		bl _ZN10GuiElement13SetSelectableEb
 3094              		.loc 1 206 0
 3095 1cd0 807F0154 		lwz 3,340(31)
 3096 1cd4 809F01B0 		lwz 4,432(31)
 3097 1cd8 48000001 		bl _ZN10GuiElement10SetTriggerEP10GuiTrigger
 3098              		.loc 1 207 0
 3099 1cdc 807F0154 		lwz 3,340(31)
 3100 1ce0 38800080 		li 4,128
 3101 1ce4 38A00032 		li 5,50
 3102 1ce8 38C00082 		li 6,130
 3103 1cec 48000001 		bl _ZN10GuiElement15SetEffectOnOverEiii
 3104              		.loc 1 208 0
 3105 1cf0 807F0154 		lwz 3,340(31)
 3106 1cf4 809F01AC 		lwz 4,428(31)
 3107 1cf8 48000001 		bl _ZN9GuiButton13SetSoundClickEP8GuiSound
 3108              		.loc 1 210 0
 3109 1cfc 807F0178 		lwz 3,376(31)
 3110 1d00 48000001 		bl _ZN10GuiElement8GetWidthEv
 3111 1d04 7C7B1B78 		mr 27,3
 3112 1d08 807F0178 		lwz 3,376(31)
 3113 1d0c 48000001 		bl _ZN10GuiElement9GetHeightEv
 3114 1d10 7C7C1B78 		mr 28,3
 3115 1d14 386000FC 		li 3,252
 3116 1d18 48000001 		bl _Znwj
 3117              	.LEHE61:
 3118 1d1c 7C7D1B78 		mr 29,3
 3119 1d20 7F64DB78 		mr 4,27
 3120 1d24 7F85E378 		mr 5,28
 3121              	.LEHB62:
 3122 1d28 48000001 		bl _ZN9GuiButtonC1Eii
 3123              	.LEHE62:
 3124              	.L362:
 3125 1d2c 93BF0158 		stw 29,344(31)
 3126              		.loc 1 211 0
 3127 1d30 7FA3EB78 		mr 3,29
 3128 1d34 7FE4FB78 		mr 4,31
 3129              	.LEHB63:
 3130 1d38 48000001 		bl _ZN10GuiElement9SetParentEPS_
 3131              		.loc 1 212 0
 3132 1d3c 807F0158 		lwz 3,344(31)
 3133 1d40 809F0178 		lwz 4,376(31)
 3134 1d44 48000001 		bl _ZN9GuiButton8SetImageEP8GuiImage
 3135              		.loc 1 213 0
 3136 1d48 807F0158 		lwz 3,344(31)
 3137 1d4c 809F017C 		lwz 4,380(31)
 3138 1d50 48000001 		bl _ZN9GuiButton12SetImageOverEP8GuiImage
 3139              		.loc 1 214 0
 3140 1d54 807F0158 		lwz 3,344(31)
 3141 1d58 809F017C 		lwz 4,380(31)
 3142 1d5c 48000001 		bl _ZN9GuiButton12SetImageHoldEP8GuiImage
 3143              		.loc 1 215 0
 3144 1d60 807F0158 		lwz 3,344(31)
 3145 1d64 38800002 		li 4,2
 3146 1d68 38A00003 		li 5,3
 3147 1d6c 81230000 		lwz 9,0(3)
 3148 1d70 81290014 		lwz 9,20(9)
 3149 1d74 7D2903A6 		mtctr 9
 3150 1d78 4E800421 		bctrl
 3151              		.loc 1 216 0
 3152 1d7c 807F0158 		lwz 3,344(31)
 3153 1d80 38800000 		li 4,0
 3154 1d84 48000001 		bl _ZN10GuiElement13SetSelectableEb
 3155              		.loc 1 217 0
 3156 1d88 807F0158 		lwz 3,344(31)
 3157 1d8c 38800080 		li 4,128
 3158 1d90 38A00032 		li 5,50
 3159 1d94 38C00078 		li 6,120
 3160 1d98 48000001 		bl _ZN10GuiElement15SetEffectOnOverEiii
 3161              		.loc 1 218 0
 3162 1d9c 807F0158 		lwz 3,344(31)
 3163 1da0 38800000 		li 4,0
 3164 1da4 48000001 		bl _ZN10GuiElement7SetMinYEi
 3165              		.loc 1 219 0
 3166 1da8 809F0010 		lwz 4,16(31)
 3167 1dac 807F0158 		lwz 3,344(31)
 3168 1db0 3884FFE2 		addi 4,4,-30
 3169 1db4 48000001 		bl _ZN10GuiElement7SetMaxYEi
 3170              		.loc 1 220 0
 3171 1db8 807F0158 		lwz 3,344(31)
 3172 1dbc 38800001 		li 4,1
 3173 1dc0 48000001 		bl _ZN10GuiElement11SetHoldableEb
 3174              		.loc 1 221 0
 3175 1dc4 807F0158 		lwz 3,344(31)
 3176 1dc8 809F01B8 		lwz 4,440(31)
 3177 1dcc 48000001 		bl _ZN10GuiElement10SetTriggerEP10GuiTrigger
 3178              	.LEHE63:
 3179 1dd0 4BFFF96C 		b .L327
 3180              	.L395:
 3181              	.LVL180:
 3182              	.L432:
 3183              	.L354:
 3184 1dd4 7C7E1B78 		mr 30,3
 3185              		.loc 1 183 0
 3186 1dd8 7FA3EB78 		mr 3,29
 3187 1ddc 48000001 		bl _ZdlPv
 3188              	.L373:
 3189              	.LBE64:
 3190              		.loc 1 246 0
 3191 1de0 7FE3FB78 		mr 3,31
 3192 1de4 48000001 		bl _ZN10GuiElementD2Ev
 3193 1de8 7FC3F378 		mr 3,30
 3194              	.LEHB64:
 3195 1dec 48000001 		bl _Unwind_Resume
 3196              	.LEHE64:
 3197              	.LVL181:
 3198              	.L396:
 3199 1df0 4BFFFFE4 		b .L432
 3200              	.L397:
 3201 1df4 4BFFFFE0 		b .L432
 3202              	.L398:
 3203 1df8 4BFFFFDC 		b .L432
 3204              	.LVL182:
 3205              	.L399:
 3206 1dfc 4BFFFFD8 		b .L432
 3207              	.L400:
 3208 1e00 4BFFFFD4 		b .L432
 3209              	.L401:
 3210 1e04 4BFFFFD0 		b .L432
 3211              	.LVL183:
 3212              	.L402:
 3213 1e08 7C7E1B78 		mr 30,3
 3214 1e0c 4BFFFFD4 		b .L373
 3215              	.LVL184:
 3216              	.L375:
 3217 1e10 4BFFFFC4 		b .L432
 3218              	.L376:
 3219 1e14 4BFFFFC0 		b .L432
 3220              	.L377:
 3221 1e18 4BFFFFBC 		b .L432
 3222              	.L378:
 3223 1e1c 4BFFFFB8 		b .L432
 3224              	.LVL185:
 3225              	.L379:
 3226 1e20 4BFFFFB4 		b .L432
 3227              	.L380:
 3228 1e24 4BFFFFB0 		b .L432
 3229              	.L381:
 3230 1e28 4BFFFFAC 		b .L432
 3231              	.L382:
 3232 1e2c 4BFFFFA8 		b .L432
 3233              	.L383:
 3234 1e30 4BFFFFA4 		b .L432
 3235              	.L384:
 3236 1e34 4BFFFFA0 		b .L432
 3237              	.L385:
 3238 1e38 4BFFFF9C 		b .L432
 3239              	.L386:
 3240 1e3c 4BFFFF98 		b .L432
 3241              	.L387:
 3242 1e40 4BFFFF94 		b .L432
 3243              	.L388:
 3244 1e44 4BFFFF90 		b .L432
 3245              	.L389:
 3246 1e48 4BFFFF8C 		b .L432
 3247              	.L390:
 3248 1e4c 4BFFFF88 		b .L432
 3249              	.L391:
 3250 1e50 4BFFFF84 		b .L432
 3251              	.L392:
 3252 1e54 4BFFFF80 		b .L432
 3253              	.L393:
 3254 1e58 4BFFFF7C 		b .L432
 3255              	.L394:
 3256 1e5c 4BFFFF78 		b .L432
 3257              	.LBE65:
 3258              	.LFE796:
 3259              		.size	_ZN16GuiOptionBrowserC1EiiP11_optionlistPKcPKhii, .-_ZN16GuiOptionBrowserC1EiiP11_optionlist
 3260              		.section	.gcc_except_table
 3261              	.LLSDA796:
 3262 0036 FF       		.byte	0xff
 3263 0037 FF       		.byte	0xff
 3264 0038 01       		.byte	0x1
 3265 0039 D702     		.uleb128 .LLSDACSE796-.LLSDACSB796
 3266              	.LLSDACSB796:
 3267 003b 54       		.uleb128 .LEHB8-.LFB796
 3268 003c 04       		.uleb128 .LEHE8-.LEHB8
 3269 003d 00       		.uleb128 0x0
 3270 003e 00       		.uleb128 0x0
 3271 003f B801     		.uleb128 .LEHB9-.LFB796
 3272 0041 04       		.uleb128 .LEHE9-.LEHB9
 3273 0042 C811     		.uleb128 .L402-.LFB796
 3274 0044 00       		.uleb128 0x0
 3275 0045 C001     		.uleb128 .LEHB10-.LFB796
 3276 0047 04       		.uleb128 .LEHE10-.LEHB10
 3277 0048 C411     		.uleb128 .L401-.LFB796
 3278 004a 00       		.uleb128 0x0
 3279 004b DC01     		.uleb128 .LEHB11-.LFB796
 3280 004d 0C       		.uleb128 .LEHE11-.LEHB11
 3281 004e C811     		.uleb128 .L402-.LFB796
 3282 0050 00       		.uleb128 0x0
 3283 0051 EC01     		.uleb128 .LEHB12-.LFB796
 3284 0053 04       		.uleb128 .LEHE12-.LEHB12
 3285 0054 C011     		.uleb128 .L400-.LFB796
 3286 0056 00       		.uleb128 0x0
 3287 0057 8402     		.uleb128 .LEHB13-.LFB796
 3288 0059 0C       		.uleb128 .LEHE13-.LEHB13
 3289 005a C811     		.uleb128 .L402-.LFB796
 3290 005c 00       		.uleb128 0x0
 3291 005d A802     		.uleb128 .LEHB14-.LFB796
 3292 005f 04       		.uleb128 .LEHE14-.LEHB14
 3293 0060 BC11     		.uleb128 .L399-.LFB796
 3294 0062 00       		.uleb128 0x0
 3295 0063 C802     		.uleb128 .LEHB15-.LFB796
 3296 0065 10       		.uleb128 .LEHE15-.LEHB15
 3297 0066 C811     		.uleb128 .L402-.LFB796
 3298 0068 00       		.uleb128 0x0
 3299 0069 E802     		.uleb128 .LEHB16-.LFB796
 3300 006b 04       		.uleb128 .LEHE16-.LEHB16
 3301 006c B811     		.uleb128 .L398-.LFB796
 3302 006e 00       		.uleb128 0x0
 3303 006f F402     		.uleb128 .LEHB17-.LFB796
 3304 0071 04       		.uleb128 .LEHE17-.LEHB17
 3305 0072 C811     		.uleb128 .L402-.LFB796
 3306 0074 00       		.uleb128 0x0
 3307 0075 8003     		.uleb128 .LEHB18-.LFB796
 3308 0077 04       		.uleb128 .LEHE18-.LEHB18
 3309 0078 B411     		.uleb128 .L397-.LFB796
 3310 007a 00       		.uleb128 0x0
 3311 007b 9003     		.uleb128 .LEHB19-.LFB796
 3312 007d 44       		.uleb128 .LEHE19-.LEHB19
 3313 007e C811     		.uleb128 .L402-.LFB796
 3314 0080 00       		.uleb128 0x0
 3315 0081 E803     		.uleb128 .LEHB20-.LFB796
 3316 0083 04       		.uleb128 .LEHE20-.LEHB20
 3317 0084 B011     		.uleb128 .L396-.LFB796
 3318 0086 00       		.uleb128 0x0
 3319 0087 A804     		.uleb128 .LEHB21-.LFB796
 3320 0089 04       		.uleb128 .LEHE21-.LEHB21
 3321 008a C811     		.uleb128 .L402-.LFB796
 3322 008c 00       		.uleb128 0x0
 3323 008d CC04     		.uleb128 .LEHB22-.LFB796
 3324 008f 04       		.uleb128 .LEHE22-.LEHB22
 3325 0090 DC11     		.uleb128 .L378-.LFB796
 3326 0092 00       		.uleb128 0x0
 3327 0093 EC04     		.uleb128 .LEHB23-.LFB796
 3328 0095 1C       		.uleb128 .LEHE23-.LEHB23
 3329 0096 C811     		.uleb128 .L402-.LFB796
 3330 0098 00       		.uleb128 0x0
 3331 0099 9005     		.uleb128 .LEHB24-.LFB796
 3332 009b 04       		.uleb128 .LEHE24-.LEHB24
 3333 009c D811     		.uleb128 .L377-.LFB796
 3334 009e 00       		.uleb128 0x0
 3335 009f B405     		.uleb128 .LEHB25-.LFB796
 3336 00a1 04       		.uleb128 .LEHE25-.LEHB25
 3337 00a2 C811     		.uleb128 .L402-.LFB796
 3338 00a4 00       		.uleb128 0x0
 3339 00a5 CC05     		.uleb128 .LEHB26-.LFB796
 3340 00a7 04       		.uleb128 .LEHE26-.LEHB26
 3341 00a8 D411     		.uleb128 .L376-.LFB796
 3342 00aa 00       		.uleb128 0x0
 3343 00ab EC05     		.uleb128 .LEHB27-.LFB796
 3344 00ad 1C       		.uleb128 .LEHE27-.LEHB27
 3345 00ae C811     		.uleb128 .L402-.LFB796
 3346 00b0 00       		.uleb128 0x0
 3347 00b1 9806     		.uleb128 .LEHB28-.LFB796
 3348 00b3 04       		.uleb128 .LEHE28-.LEHB28
 3349 00b4 D011     		.uleb128 .L375-.LFB796
 3350 00b6 00       		.uleb128 0x0
 3351 00b7 A806     		.uleb128 .LEHB29-.LFB796
 3352 00b9 C401     		.uleb128 .LEHE29-.LEHB29
 3353 00bb C811     		.uleb128 .L402-.LFB796
 3354 00bd 00       		.uleb128 0x0
 3355 00be 8008     		.uleb128 .LEHB30-.LFB796
 3356 00c0 04       		.uleb128 .LEHE30-.LEHB30
 3357 00c1 9411     		.uleb128 .L395-.LFB796
 3358 00c3 00       		.uleb128 0x0
 3359 00c4 8C08     		.uleb128 .LEHB31-.LFB796
 3360 00c6 04       		.uleb128 .LEHE31-.LEHB31
 3361 00c7 C811     		.uleb128 .L402-.LFB796
 3362 00c9 00       		.uleb128 0x0
 3363 00ca 9808     		.uleb128 .LEHB32-.LFB796
 3364 00cc 04       		.uleb128 .LEHE32-.LEHB32
 3365 00cd 9C12     		.uleb128 .L394-.LFB796
 3366 00cf 00       		.uleb128 0x0
 3367 00d0 A808     		.uleb128 .LEHB33-.LFB796
 3368 00d2 54       		.uleb128 .LEHE33-.LEHB33
 3369 00d3 C811     		.uleb128 .L402-.LFB796
 3370 00d5 00       		.uleb128 0x0
 3371 00d6 9409     		.uleb128 .LEHB34-.LFB796
 3372 00d8 04       		.uleb128 .LEHE34-.LEHB34
 3373 00d9 9812     		.uleb128 .L393-.LFB796
 3374 00db 00       		.uleb128 0x0
 3375 00dc A009     		.uleb128 .LEHB35-.LFB796
 3376 00de 04       		.uleb128 .LEHE35-.LEHB35
 3377 00df C811     		.uleb128 .L402-.LFB796
 3378 00e1 00       		.uleb128 0x0
 3379 00e2 AC09     		.uleb128 .LEHB36-.LFB796
 3380 00e4 04       		.uleb128 .LEHE36-.LEHB36
 3381 00e5 9412     		.uleb128 .L392-.LFB796
 3382 00e7 00       		.uleb128 0x0
 3383 00e8 B809     		.uleb128 .LEHB37-.LFB796
 3384 00ea 04       		.uleb128 .LEHE37-.LEHB37
 3385 00eb C811     		.uleb128 .L402-.LFB796
 3386 00ed 00       		.uleb128 0x0
 3387 00ee CC09     		.uleb128 .LEHB38-.LFB796
 3388 00f0 04       		.uleb128 .LEHE38-.LEHB38
 3389 00f1 9012     		.uleb128 .L391-.LFB796
 3390 00f3 00       		.uleb128 0x0
 3391 00f4 D809     		.uleb128 .LEHB39-.LFB796
 3392 00f6 04       		.uleb128 .LEHE39-.LEHB39
 3393 00f7 C811     		.uleb128 .L402-.LFB796
 3394 00f9 00       		.uleb128 0x0
 3395 00fa E409     		.uleb128 .LEHB40-.LFB796
 3396 00fc 04       		.uleb128 .LEHE40-.LEHB40
 3397 00fd 8C12     		.uleb128 .L390-.LFB796
 3398 00ff 00       		.uleb128 0x0
 3399 0100 800A     		.uleb128 .LEHB41-.LFB796
 3400 0102 10       		.uleb128 .LEHE41-.LEHB41
 3401 0103 C811     		.uleb128 .L402-.LFB796
 3402 0105 00       		.uleb128 0x0
 3403 0106 A80A     		.uleb128 .LEHB42-.LFB796
 3404 0108 04       		.uleb128 .LEHE42-.LEHB42
 3405 0109 8812     		.uleb128 .L389-.LFB796
 3406 010b 00       		.uleb128 0x0
 3407 010c B40A     		.uleb128 .LEHB43-.LFB796
 3408 010e 04       		.uleb128 .LEHE43-.LEHB43
 3409 010f C811     		.uleb128 .L402-.LFB796
 3410 0111 00       		.uleb128 0x0
 3411 0112 C00A     		.uleb128 .LEHB44-.LFB796
 3412 0114 04       		.uleb128 .LEHE44-.LEHB44
 3413 0115 8412     		.uleb128 .L388-.LFB796
 3414 0117 00       		.uleb128 0x0
 3415 0118 CC0A     		.uleb128 .LEHB45-.LFB796
 3416 011a 04       		.uleb128 .LEHE45-.LEHB45
 3417 011b C811     		.uleb128 .L402-.LFB796
 3418 011d 00       		.uleb128 0x0
 3419 011e E00A     		.uleb128 .LEHB46-.LFB796
 3420 0120 04       		.uleb128 .LEHE46-.LEHB46
 3421 0121 8012     		.uleb128 .L387-.LFB796
 3422 0123 00       		.uleb128 0x0
 3423 0124 EC0A     		.uleb128 .LEHB47-.LFB796
 3424 0126 04       		.uleb128 .LEHE47-.LEHB47
 3425 0127 C811     		.uleb128 .L402-.LFB796
 3426 0129 00       		.uleb128 0x0
 3427 012a F80A     		.uleb128 .LEHB48-.LFB796
 3428 012c 04       		.uleb128 .LEHE48-.LEHB48
 3429 012d FC11     		.uleb128 .L386-.LFB796
 3430 012f 00       		.uleb128 0x0
 3431 0130 940B     		.uleb128 .LEHB49-.LFB796
 3432 0132 10       		.uleb128 .LEHE49-.LEHB49
 3433 0133 C811     		.uleb128 .L402-.LFB796
 3434 0135 00       		.uleb128 0x0
 3435 0136 BC0B     		.uleb128 .LEHB50-.LFB796
 3436 0138 04       		.uleb128 .LEHE50-.LEHB50
 3437 0139 F811     		.uleb128 .L385-.LFB796
 3438 013b 00       		.uleb128 0x0
 3439 013c C80B     		.uleb128 .LEHB51-.LFB796
 3440 013e 04       		.uleb128 .LEHE51-.LEHB51
 3441 013f C811     		.uleb128 .L402-.LFB796
 3442 0141 00       		.uleb128 0x0
 3443 0142 D40B     		.uleb128 .LEHB52-.LFB796
 3444 0144 04       		.uleb128 .LEHE52-.LEHB52
 3445 0145 F411     		.uleb128 .L384-.LFB796
 3446 0147 00       		.uleb128 0x0
 3447 0148 E00B     		.uleb128 .LEHB53-.LFB796
 3448 014a 04       		.uleb128 .LEHE53-.LEHB53
 3449 014b C811     		.uleb128 .L402-.LFB796
 3450 014d 00       		.uleb128 0x0
 3451 014e F40B     		.uleb128 .LEHB54-.LFB796
 3452 0150 04       		.uleb128 .LEHE54-.LEHB54
 3453 0151 F011     		.uleb128 .L383-.LFB796
 3454 0153 00       		.uleb128 0x0
 3455 0154 800C     		.uleb128 .LEHB55-.LFB796
 3456 0156 04       		.uleb128 .LEHE55-.LEHB55
 3457 0157 C811     		.uleb128 .L402-.LFB796
 3458 0159 00       		.uleb128 0x0
 3459 015a 8C0C     		.uleb128 .LEHB56-.LFB796
 3460 015c 04       		.uleb128 .LEHE56-.LEHB56
 3461 015d EC11     		.uleb128 .L382-.LFB796
 3462 015f 00       		.uleb128 0x0
 3463 0160 980C     		.uleb128 .LEHB57-.LFB796
 3464 0162 1C       		.uleb128 .LEHE57-.LEHB57
 3465 0163 C811     		.uleb128 .L402-.LFB796
 3466 0165 00       		.uleb128 0x0
 3467 0166 C00C     		.uleb128 .LEHB58-.LFB796
 3468 0168 04       		.uleb128 .LEHE58-.LEHB58
 3469 0169 E811     		.uleb128 .L381-.LFB796
 3470 016b 00       		.uleb128 0x0
 3471 016c D00C     		.uleb128 .LEHB59-.LFB796
 3472 016e B801     		.uleb128 .LEHE59-.LEHB59
 3473 0170 C811     		.uleb128 .L402-.LFB796
 3474 0172 00       		.uleb128 0x0
 3475 0173 940E     		.uleb128 .LEHB60-.LFB796
 3476 0175 04       		.uleb128 .LEHE60-.LEHB60
 3477 0176 E411     		.uleb128 .L380-.LFB796
 3478 0178 00       		.uleb128 0x0
 3479 0179 A40E     		.uleb128 .LEHB61-.LFB796
 3480 017b B801     		.uleb128 .LEHE61-.LEHB61
 3481 017d C811     		.uleb128 .L402-.LFB796
 3482 017f 00       		.uleb128 0x0
 3483 0180 E80F     		.uleb128 .LEHB62-.LFB796
 3484 0182 04       		.uleb128 .LEHE62-.LEHB62
 3485 0183 E011     		.uleb128 .L379-.LFB796
 3486 0185 00       		.uleb128 0x0
 3487 0186 F80F     		.uleb128 .LEHB63-.LFB796
 3488 0188 9801     		.uleb128 .LEHE63-.LEHB63
 3489 018a C811     		.uleb128 .L402-.LFB796
 3490 018c 00       		.uleb128 0x0
 3491 018d AC11     		.uleb128 .LEHB64-.LFB796
 3492 018f 04       		.uleb128 .LEHE64-.LEHB64
 3493 0190 00       		.uleb128 0x0
 3494 0191 00       		.uleb128 0x0
 3495              	.LLSDACSE796:
 3496              		.section	".text"
 3497              		.align 2
 3498              		.globl _ZN16GuiOptionBrowserC2EiiP11_optionlistPKcPKhii
 3499              		.type	_ZN16GuiOptionBrowserC2EiiP11_optionlistPKcPKhii, @function
 3500              	_ZN16GuiOptionBrowserC2EiiP11_optionlistPKcPKhii:
 3501              	.LFB795:
 3502              		.loc 1 133 0
 3503              	.LVL186:
 3504 1e60 7C0802A6 		mflr 0
 3505              	.LCFI72:
 3506 1e64 9421FF58 		stwu 1,-168(1)
 3507              	.LCFI73:
 3508 1e68 92E10084 		stw 23,132(1)
 3509              	.LCFI74:
 3510 1e6c 7D174378 		mr 23,8
 3511 1e70 93010088 		stw 24,136(1)
 3512              	.LCFI75:
 3513 1e74 7CF83B78 		mr 24,7
 3514 1e78 9321008C 		stw 25,140(1)
 3515              	.LCFI76:
 3516 1e7c 7D394B78 		mr 25,9
 3517 1e80 93410090 		stw 26,144(1)
 3518              	.LCFI77:
 3519 1e84 7D5A5378 		mr 26,10
 3520 1e88 93610094 		stw 27,148(1)
 3521              	.LCFI78:
 3522 1e8c 7CDB3378 		mr 27,6
 3523 1e90 93810098 		stw 28,152(1)
 3524              	.LCFI79:
 3525 1e94 7CBC2B78 		mr 28,5
 3526 1e98 93A1009C 		stw 29,156(1)
 3527              	.LCFI80:
 3528 1e9c 7C9D2378 		mr 29,4
 3529 1ea0 93C100A0 		stw 30,160(1)
 3530              	.LCFI81:
 3531 1ea4 3BC00000 		li 30,0
 3532 1ea8 93E100A4 		stw 31,164(1)
 3533              	.LCFI82:
 3534 1eac 7C7F1B78 		mr 31,3
 3535 1eb0 900100AC 		stw 0,172(1)
 3536              	.LCFI83:
 3537              	.LEHB65:
 3538              	.LBB66:
 3539              		.loc 1 133 0
 3540 1eb4 48000001 		bl _ZN10GuiElementC2Ev
 3541              	.LEHE65:
 3542              	.LVL187:
 3543 1eb8 3D200000 		lis 9,_ZTV16GuiOptionBrowser+8@ha
 3544              	.LBB69:
 3545              		.loc 1 135 0
 3546 1ebc 93BF000C 		stw 29,12(31)
 3547              	.LBE69:
 3548              		.loc 1 133 0
 3549 1ec0 39290008 		la 9,_ZTV16GuiOptionBrowser+8@l(9)
 3550              	.LBB68:
 3551              		.loc 1 141 0
 3552 1ec4 38000001 		li 0,1
 3553              	.LBE68:
 3554              		.loc 1 133 0
 3555 1ec8 913F0000 		stw 9,0(31)
 3556              	.LBB67:
 3557              		.loc 1 138 0
 3558 1ecc 3D200000 		lis 9,.LANCHOR0@ha
 3559              		.loc 1 137 0
 3560 1ed0 937F00BC 		stw 27,188(31)
 3561              		.loc 1 139 0
 3562 1ed4 3BA00000 		li 29,0
 3563              	.LVL188:
 3564              		.loc 1 138 0
 3565 1ed8 3B690000 		la 27,.LANCHOR0@l(9)
 3566              	.LVL189:
 3567              		.loc 1 136 0
 3568 1edc 939F0010 		stw 28,16(31)
 3569              		.loc 1 141 0
 3570 1ee0 981F0070 		stb 0,112(31)
 3571              		.loc 1 142 0
 3572 1ee4 7FE3FB78 		mr 3,31
 3573              		.loc 1 140 0
 3574 1ee8 933B000C 		stw 25,12(27)
 3575              		.loc 1 142 0
 3576 1eec 3880FFFF 		li 4,-1
 3577              		.loc 1 138 0
 3578 1ef0 935B0008 		stw 26,8(27)
 3579              		.loc 1 142 0
 3580 1ef4 38A00001 		li 5,1
 3581              		.loc 1 139 0
 3582 1ef8 93BB0004 		stw 29,4(27)
 3583 1efc 3B200000 		li 25,0
 3584              	.LVL190:
 3585              		.loc 1 142 0
 3586 1f00 48000001 		bl _ZN16GuiOptionBrowser12FindMenuItemEii
 3587              		.loc 1 144 0
 3588 1f04 38000001 		li 0,1
 3589              		.loc 1 142 0
 3590 1f08 907F00B8 		stw 3,184(31)
 3591              		.loc 1 147 0
 3592 1f0c 38600168 		li 3,360
 3593              		.loc 1 143 0
 3594 1f10 93BF00B4 		stw 29,180(31)
 3595              		.loc 1 144 0
 3596 1f14 901F0008 		stw 0,8(31)
 3597              	.LEHB66:
 3598              		.loc 1 147 0
 3599 1f18 48000001 		bl _Znwj
 3600              	.LEHE66:
 3601 1f1c 7C7D1B78 		mr 29,3
 3602              	.LEHB67:
 3603 1f20 48000001 		bl _ZN10GuiTriggerC1Ev
 3604              	.LEHE67:
 3605              	.L436:
 3606 1f24 93BF01B0 		stw 29,432(31)
 3607              		.loc 1 148 0
 3608 1f28 3CA00010 		lis 5,0x10
 3609 1f2c 7FA3EB78 		mr 3,29
 3610 1f30 60A50008 		ori 5,5,8
 3611 1f34 3880FFFF 		li 4,-1
 3612 1f38 38C00100 		li 6,256
 3613              	.LEHB68:
 3614 1f3c 48000001 		bl _ZN10GuiTrigger16SetSimpleTriggerEijt
 3615              		.loc 1 149 0
 3616 1f40 38600168 		li 3,360
 3617 1f44 48000001 		bl _Znwj
 3618              	.LEHE68:
 3619 1f48 7C7D1B78 		mr 29,3
 3620              	.LEHB69:
 3621 1f4c 48000001 		bl _ZN10GuiTriggerC1Ev
 3622              	.LEHE69:
 3623              	.L438:
 3624 1f50 93BF01B8 		stw 29,440(31)
 3625              		.loc 1 150 0
 3626 1f54 7FA3EB78 		mr 3,29
 3627 1f58 3880FFFF 		li 4,-1
 3628 1f5c 38A00008 		li 5,8
 3629 1f60 38C00100 		li 6,256
 3630              	.LEHB70:
 3631 1f64 48000001 		bl _ZN10GuiTrigger14SetHeldTriggerEijt
 3632              		.loc 1 151 0
 3633 1f68 38600018 		li 3,24
 3634 1f6c 48000001 		bl _Znwj
 3635              	.LEHE70:
 3636 1f70 3C800000 		lis 4,button_click_pcm@ha
 3637 1f74 3D200000 		lis 9,button_click_pcm_size@ha
 3638 1f78 7C7D1B78 		mr 29,3
 3639 1f7c 38840000 		la 4,button_click_pcm@l(4)
 3640 1f80 80A90000 		lwz 5,button_click_pcm_size@l(9)
 3641 1f84 38C00000 		li 6,0
 3642              	.LEHB71:
 3643 1f88 48000001 		bl _ZN8GuiSoundC1EPKhii
 3644              	.LEHE71:
 3645              	.L440:
 3646 1f8c 93BF01AC 		stw 29,428(31)
 3647              		.loc 1 153 0
 3648 1f90 3B810008 		addi 28,1,8
 3649              	.LVL191:
 3650 1f94 3CA00000 		lis 5,.LC5@ha
 3651 1f98 7F83E378 		mr 3,28
 3652 1f9c 38A50000 		la 5,.LC5@l(5)
 3653 1fa0 38800064 		li 4,100
 3654 1fa4 7F06C378 		mr 6,24
 3655              	.LEHB72:
 3656 1fa8 4CC63182 		crxor 6,6,6
 3657 1fac 48000001 		bl snprintf
 3658              		.loc 1 154 0
 3659 1fb0 3860000C 		li 3,12
 3660 1fb4 48000001 		bl _Znwj
 3661              	.LEHE72:
 3662 1fb8 7C7D1B78 		mr 29,3
 3663 1fbc 7F84E378 		mr 4,28
 3664 1fc0 7EE5BB78 		mr 5,23
 3665 1fc4 38C00000 		li 6,0
 3666              	.LEHB73:
 3667 1fc8 48000001 		bl _ZN12GuiImageDataC1EPKcPKhb
 3668              	.LEHE73:
 3669              	.L442:
 3670 1fcc 93BF0180 		stw 29,384(31)
 3671              		.loc 1 156 0
 3672 1fd0 386000A8 		li 3,168
 3673              	.LEHB74:
 3674 1fd4 48000001 		bl _Znwj
 3675              	.LEHE74:
 3676 1fd8 7C7D1B78 		mr 29,3
 3677 1fdc 809F0180 		lwz 4,384(31)
 3678              	.LEHB75:
 3679 1fe0 48000001 		bl _ZN8GuiImageC1EP12GuiImageData
 3680              	.LEHE75:
 3681              	.L444:
 3682 1fe4 93BF015C 		stw 29,348(31)
 3683              		.loc 1 157 0
 3684 1fe8 7FA3EB78 		mr 3,29
 3685 1fec 7FE4FB78 		mr 4,31
 3686              	.LEHB76:
 3687 1ff0 48000001 		bl _ZN10GuiElement9SetParentEPS_
 3688              		.loc 1 158 0
 3689 1ff4 807F015C 		lwz 3,348(31)
 3690 1ff8 38800000 		li 4,0
 3691 1ffc 38A00005 		li 5,5
 3692 2000 81230000 		lwz 9,0(3)
 3693 2004 81290014 		lwz 9,20(9)
 3694 2008 7D2903A6 		mtctr 9
 3695 200c 4E800421 		bctrl
 3696              		.loc 1 160 0
 3697 2010 3CA00000 		lis 5,.LC6@ha
 3698 2014 7F83E378 		mr 3,28
 3699 2018 38A50014 		la 5,.LC6@l(5)
 3700 201c 38800064 		li 4,100
 3701 2020 7F06C378 		mr 6,24
 3702 2024 4CC63182 		crxor 6,6,6
 3703 2028 48000001 		bl snprintf
 3704              		.loc 1 161 0
 3705 202c 3860000C 		li 3,12
 3706 2030 48000001 		bl _Znwj
 3707              	.LEHE76:
 3708 2034 3CA00000 		lis 5,bg_options_entry_png@ha
 3709 2038 7C7D1B78 		mr 29,3
 3710 203c 38A50000 		la 5,bg_options_entry_png@l(5)
 3711 2040 7F84E378 		mr 4,28
 3712 2044 38C00000 		li 6,0
 3713              	.LEHB77:
 3714 2048 48000001 		bl _ZN12GuiImageDataC1EPKcPKhb
 3715              	.LEHE77:
 3716              	.L446:
 3717              		.loc 1 162 0
 3718 204c 801B000C 		lwz 0,12(27)
 3719              		.loc 1 161 0
 3720 2050 93BF0188 		stw 29,392(31)
 3721              		.loc 1 162 0
 3722 2054 2F800001 		cmpwi 7,0,1
 3723 2058 419E01D0 		beq- 7,.L553
 3724              	.L447:
 3725              		.loc 1 221 0
 3726 205c 7FFCFB78 		mr 28,31
 3727 2060 3B600000 		li 27,0
 3728              	.LVL192:
 3729 2064 3B400004 		li 26,4
 3730              	.LVL193:
 3731              	.LBB70:
 3732              	.LBB71:
 3733              		.loc 1 227 0
 3734 2068 3B010078 		addi 24,1,120
 3735              	.LVL194:
 3736              	.L483:
 3737 206c 38000000 		li 0,0
 3738 2070 3920FFFF 		li 9,-1
 3739 2074 501EC00E 		rlwimi 30,0,24,0,7
 3740 2078 386000A4 		li 3,164
 3741 207c 501E821E 		rlwimi 30,0,16,8,15
 3742 2080 501E442E 		rlwimi 30,0,8,16,23
 3743 2084 513E063E 		rlwimi 30,9,0,24,31
 3744              	.LEHB78:
 3745 2088 48000001 		bl _Znwj
 3746              	.LEHE78:
 3747 208c 801F00BC 		lwz 0,188(31)
 3748 2090 1C9B003C 		mulli 4,27,60
 3749 2094 7C7D1B78 		mr 29,3
 3750 2098 93C10078 		stw 30,120(1)
 3751 209c 7C840214 		add 4,4,0
 3752 20a0 38A00014 		li 5,20
 3753 20a4 38840004 		addi 4,4,4
 3754 20a8 7F06C378 		mr 6,24
 3755              	.LEHB79:
 3756 20ac 48000001 		bl _ZN7GuiTextC1EPKci9_gx_color
 3757              	.LEHE79:
 3758              	.L485:
 3759              		.loc 1 228 0
 3760 20b0 813D0000 		lwz 9,0(29)
 3761 20b4 7FA3EB78 		mr 3,29
 3762              		.loc 1 227 0
 3763 20b8 93BC0108 		stw 29,264(28)
 3764              		.loc 1 228 0
 3765 20bc 38800000 		li 4,0
 3766 20c0 81290014 		lwz 9,20(9)
 3767 20c4 38A00005 		li 5,5
 3768 20c8 7D2903A6 		mtctr 9
 3769              	.LEHB80:
 3770 20cc 4E800421 		bctrl
 3771              		.loc 1 229 0
 3772 20d0 807C0108 		lwz 3,264(28)
 3773 20d4 38800018 		li 4,24
 3774 20d8 38A00000 		li 5,0
 3775 20dc 48000001 		bl _ZN10GuiElement11SetPositionEii
 3776              		.loc 1 231 0
 3777 20e0 386000A8 		li 3,168
 3778 20e4 48000001 		bl _Znwj
 3779              	.LEHE80:
 3780 20e8 7C7D1B78 		mr 29,3
 3781 20ec 809F0188 		lwz 4,392(31)
 3782              	.LEHB81:
 3783 20f0 48000001 		bl _ZN8GuiImageC1EP12GuiImageData
 3784              	.LEHE81:
 3785              	.L487:
 3786              		.loc 1 233 0
 3787 20f4 38000000 		li 0,0
 3788              		.loc 1 231 0
 3789 20f8 93BC012C 		stw 29,300(28)
 3790              		.loc 1 233 0
 3791 20fc 5019C00E 		rlwimi 25,0,24,0,7
 3792 2100 3920FFFF 		li 9,-1
 3793 2104 5019821E 		rlwimi 25,0,16,8,15
 3794 2108 386000A4 		li 3,164
 3795 210c 5019442E 		rlwimi 25,0,8,16,23
 3796 2110 5139063E 		rlwimi 25,9,0,24,31
 3797              	.LEHB82:
 3798 2114 48000001 		bl _Znwj
 3799              	.LEHE82:
 3800 2118 7C7D1B78 		mr 29,3
 3801 211c 93210078 		stw 25,120(1)
 3802 2120 38800000 		li 4,0
 3803 2124 38A00014 		li 5,20
 3804 2128 7F06C378 		mr 6,24
 3805              	.LEHB83:
 3806 212c 48000001 		bl _ZN7GuiTextC1EPKci9_gx_color
 3807              	.LEHE83:
 3808              	.L489:
 3809              		.loc 1 234 0
 3810 2130 813D0000 		lwz 9,0(29)
 3811 2134 7FA3EB78 		mr 3,29
 3812              		.loc 1 233 0
 3813 2138 93BC0090 		stw 29,144(28)
 3814              		.loc 1 234 0
 3815 213c 38800000 		li 4,0
 3816 2140 81290014 		lwz 9,20(9)
 3817 2144 38A00005 		li 5,5
 3818 2148 7D2903A6 		mtctr 9
 3819              	.LEHB84:
 3820 214c 4E800421 		bctrl
 3821              		.loc 1 235 0
 3822 2150 807C0090 		lwz 3,144(28)
 3823 2154 388000FA 		li 4,250
 3824 2158 38A00000 		li 5,0
 3825 215c 48000001 		bl _ZN10GuiElement11SetPositionEii
 3826              		.loc 1 237 0
 3827 2160 386000FC 		li 3,252
 3828 2164 48000001 		bl _Znwj
 3829              	.LEHE84:
 3830 2168 809F000C 		lwz 4,12(31)
 3831 216c 7C7D1B78 		mr 29,3
 3832 2170 38A0001E 		li 5,30
 3833 2174 3884FFE4 		addi 4,4,-28
 3834              	.LEHB85:
 3835 2178 48000001 		bl _ZN9GuiButtonC1Eii
 3836              	.LEHE85:
 3837              	.L491:
 3838 217c 93BC00E4 		stw 29,228(28)
 3839              		.loc 1 238 0
 3840 2180 7FA3EB78 		mr 3,29
 3841 2184 7FE4FB78 		mr 4,31
 3842              	.LEHB86:
 3843 2188 48000001 		bl _ZN10GuiElement9SetParentEPS_
 3844              		.loc 1 239 0
 3845 218c 807C00E4 		lwz 3,228(28)
 3846 2190 38A00000 		li 5,0
 3847 2194 809C0108 		lwz 4,264(28)
 3848 2198 48000001 		bl _ZN9GuiButton8SetLabelEP7GuiTexti
 3849              		.loc 1 240 0
 3850 219c 807C00E4 		lwz 3,228(28)
 3851 21a0 38A00001 		li 5,1
 3852 21a4 809C0090 		lwz 4,144(28)
 3853 21a8 48000001 		bl _ZN9GuiButton8SetLabelEP7GuiTexti
 3854              		.loc 1 241 0
 3855 21ac 807C00E4 		lwz 3,228(28)
 3856 21b0 809C012C 		lwz 4,300(28)
 3857 21b4 48000001 		bl _ZN9GuiButton12SetImageOverEP8GuiImage
 3858              		.loc 1 242 0
 3859 21b8 807C00E4 		lwz 3,228(28)
 3860 21bc 38800005 		li 4,5
 3861 21c0 7F45D378 		mr 5,26
 3862 21c4 48000001 		bl _ZN10GuiElement11SetPositionEii
 3863              		.loc 1 243 0
 3864 21c8 807C00E4 		lwz 3,228(28)
 3865 21cc 809F01B0 		lwz 4,432(31)
 3866 21d0 48000001 		bl _ZN10GuiElement10SetTriggerEP10GuiTrigger
 3867              		.loc 1 244 0
 3868 21d4 807C00E4 		lwz 3,228(28)
 3869 21d8 809F01AC 		lwz 4,428(31)
 3870 21dc 48000001 		bl _ZN9GuiButton13SetSoundClickEP8GuiSound
 3871              	.LBE71:
 3872              		.loc 1 225 0
 3873 21e0 2F9B0008 		cmpwi 7,27,8
 3874 21e4 3B9C0004 		addi 28,28,4
 3875 21e8 3B5A001E 		addi 26,26,30
 3876 21ec 3B7B0001 		addi 27,27,1
 3877 21f0 409EFE7C 		bne+ 7,.L483
 3878              	.LBE70:
 3879              	.LBE67:
 3880              	.LBE66:
 3881              		.loc 1 246 0
 3882 21f4 800100AC 		lwz 0,172(1)
 3883 21f8 82E10084 		lwz 23,132(1)
 3884              	.LVL195:
 3885 21fc 83010088 		lwz 24,136(1)
 3886 2200 7C0803A6 		mtlr 0
 3887 2204 8321008C 		lwz 25,140(1)
 3888 2208 83410090 		lwz 26,144(1)
 3889 220c 83610094 		lwz 27,148(1)
 3890              	.LVL196:
 3891 2210 83810098 		lwz 28,152(1)
 3892 2214 83A1009C 		lwz 29,156(1)
 3893 2218 83C100A0 		lwz 30,160(1)
 3894 221c 83E100A4 		lwz 31,164(1)
 3895              	.LVL197:
 3896 2220 382100A8 		addi 1,1,168
 3897 2224 4E800020 		blr
 3898              	.LVL198:
 3899              	.L553:
 3900              	.LBB73:
 3901              	.LBB72:
 3902              		.loc 1 163 0
 3903 2228 3CA00000 		lis 5,.LC7@ha
 3904 222c 7F83E378 		mr 3,28
 3905 2230 38A5002C 		la 5,.LC7@l(5)
 3906 2234 38800064 		li 4,100
 3907 2238 7F06C378 		mr 6,24
 3908 223c 4CC63182 		crxor 6,6,6
 3909 2240 48000001 		bl snprintf
 3910              		.loc 1 164 0
 3911 2244 3860000C 		li 3,12
 3912 2248 48000001 		bl _Znwj
 3913              	.LEHE86:
 3914 224c 3CA00000 		lis 5,scrollbar_png@ha
 3915 2250 7C7D1B78 		mr 29,3
 3916 2254 38A50000 		la 5,scrollbar_png@l(5)
 3917 2258 7F84E378 		mr 4,28
 3918 225c 38C00000 		li 6,0
 3919              	.LEHB87:
 3920 2260 48000001 		bl _ZN12GuiImageDataC1EPKcPKhb
 3921              	.LEHE87:
 3922              	.L450:
 3923 2264 93BF018C 		stw 29,396(31)
 3924              		.loc 1 165 0
 3925 2268 386000A8 		li 3,168
 3926              	.LEHB88:
 3927 226c 48000001 		bl _Znwj
 3928              	.LEHE88:
 3929 2270 7C7D1B78 		mr 29,3
 3930 2274 809F018C 		lwz 4,396(31)
 3931              	.LEHB89:
 3932 2278 48000001 		bl _ZN8GuiImageC1EP12GuiImageData
 3933              	.LEHE89:
 3934              	.L452:
 3935 227c 93BF0164 		stw 29,356(31)
 3936              		.loc 1 166 0
 3937 2280 7FA3EB78 		mr 3,29
 3938 2284 7FE4FB78 		mr 4,31
 3939              	.LEHB90:
 3940 2288 48000001 		bl _ZN10GuiElement9SetParentEPS_
 3941              		.loc 1 167 0
 3942 228c 807F0164 		lwz 3,356(31)
 3943 2290 38800001 		li 4,1
 3944 2294 38A00003 		li 5,3
 3945 2298 81230000 		lwz 9,0(3)
 3946 229c 81290014 		lwz 9,20(9)
 3947 22a0 7D2903A6 		mtctr 9
 3948 22a4 4E800421 		bctrl
 3949              		.loc 1 168 0
 3950 22a8 807F0164 		lwz 3,356(31)
 3951 22ac 38800000 		li 4,0
 3952 22b0 38A00004 		li 5,4
 3953 22b4 48000001 		bl _ZN10GuiElement11SetPositionEii
 3954              		.loc 1 170 0
 3955 22b8 3CA00000 		lis 5,.LC8@ha
 3956 22bc 7F83E378 		mr 3,28
 3957 22c0 38A5003C 		la 5,.LC8@l(5)
 3958 22c4 38800064 		li 4,100
 3959 22c8 7F06C378 		mr 6,24
 3960 22cc 4CC63182 		crxor 6,6,6
 3961 22d0 48000001 		bl snprintf
 3962              		.loc 1 171 0
 3963 22d4 3860000C 		li 3,12
 3964 22d8 48000001 		bl _Znwj
 3965              	.LEHE90:
 3966 22dc 3D200000 		lis 9,scrollbar_arrowdown_png@ha
 3967 22e0 7C7D1B78 		mr 29,3
 3968 22e4 3B690000 		la 27,scrollbar_arrowdown_png@l(9)
 3969 22e8 7F84E378 		mr 4,28
 3970 22ec 7F65DB78 		mr 5,27
 3971 22f0 38C00000 		li 6,0
 3972              	.LEHB91:
 3973 22f4 48000001 		bl _ZN12GuiImageDataC1EPKcPKhb
 3974              	.LEHE91:
 3975              	.L454:
 3976 22f8 93BF0190 		stw 29,400(31)
 3977              		.loc 1 172 0
 3978 22fc 386000A8 		li 3,168
 3979              	.LEHB92:
 3980 2300 48000001 		bl _Znwj
 3981              	.LEHE92:
 3982 2304 7C7D1B78 		mr 29,3
 3983 2308 809F0190 		lwz 4,400(31)
 3984              	.LEHB93:
 3985 230c 48000001 		bl _ZN8GuiImageC1EP12GuiImageData
 3986              	.LEHE93:
 3987              	.L456:
 3988 2310 93BF0168 		stw 29,360(31)
 3989              		.loc 1 173 0
 3990 2314 3860000C 		li 3,12
 3991              	.LEHB94:
 3992 2318 48000001 		bl _Znwj
 3993              	.LEHE94:
 3994 231c 7C7D1B78 		mr 29,3
 3995 2320 7F84E378 		mr 4,28
 3996 2324 7F65DB78 		mr 5,27
 3997 2328 38C00000 		li 6,0
 3998              	.LEHB95:
 3999 232c 48000001 		bl _ZN12GuiImageDataC1EPKcPKhb
 4000              	.LEHE95:
 4001              	.L458:
 4002 2330 93BF0194 		stw 29,404(31)
 4003              		.loc 1 174 0
 4004 2334 386000A8 		li 3,168
 4005              	.LEHB96:
 4006 2338 48000001 		bl _Znwj
 4007              	.LEHE96:
 4008 233c 7C7D1B78 		mr 29,3
 4009 2340 809F0194 		lwz 4,404(31)
 4010              	.LEHB97:
 4011 2344 48000001 		bl _ZN8GuiImageC1EP12GuiImageData
 4012              	.LEHE97:
 4013              	.L460:
 4014 2348 93BF016C 		stw 29,364(31)
 4015              		.loc 1 175 0
 4016 234c 3CA00000 		lis 5,.LC9@ha
 4017 2350 38A50058 		la 5,.LC9@l(5)
 4018 2354 7F83E378 		mr 3,28
 4019 2358 38800064 		li 4,100
 4020 235c 7F06C378 		mr 6,24
 4021              	.LEHB98:
 4022 2360 4CC63182 		crxor 6,6,6
 4023 2364 48000001 		bl snprintf
 4024              		.loc 1 176 0
 4025 2368 3860000C 		li 3,12
 4026 236c 48000001 		bl _Znwj
 4027              	.LEHE98:
 4028 2370 3D200000 		lis 9,scrollbar_arrowup_png@ha
 4029 2374 7C7D1B78 		mr 29,3
 4030 2378 3B690000 		la 27,scrollbar_arrowup_png@l(9)
 4031 237c 7F84E378 		mr 4,28
 4032 2380 7F65DB78 		mr 5,27
 4033 2384 38C00000 		li 6,0
 4034              	.LEHB99:
 4035 2388 48000001 		bl _ZN12GuiImageDataC1EPKcPKhb
 4036              	.LEHE99:
 4037              	.L462:
 4038 238c 93BF0198 		stw 29,408(31)
 4039              		.loc 1 177 0
 4040 2390 386000A8 		li 3,168
 4041              	.LEHB100:
 4042 2394 48000001 		bl _Znwj
 4043              	.LEHE100:
 4044 2398 7C7D1B78 		mr 29,3
 4045 239c 809F0198 		lwz 4,408(31)
 4046              	.LEHB101:
 4047 23a0 48000001 		bl _ZN8GuiImageC1EP12GuiImageData
 4048              	.LEHE101:
 4049              	.L464:
 4050 23a4 93BF0170 		stw 29,368(31)
 4051              		.loc 1 178 0
 4052 23a8 3860000C 		li 3,12
 4053              	.LEHB102:
 4054 23ac 48000001 		bl _Znwj
 4055              	.LEHE102:
 4056 23b0 7C7D1B78 		mr 29,3
 4057 23b4 7F84E378 		mr 4,28
 4058 23b8 7F65DB78 		mr 5,27
 4059 23bc 38C00000 		li 6,0
 4060              	.LEHB103:
 4061 23c0 48000001 		bl _ZN12GuiImageDataC1EPKcPKhb
 4062              	.LEHE103:
 4063              	.L466:
 4064 23c4 93BF019C 		stw 29,412(31)
 4065              		.loc 1 179 0
 4066 23c8 386000A8 		li 3,168
 4067              	.LEHB104:
 4068 23cc 48000001 		bl _Znwj
 4069              	.LEHE104:
 4070 23d0 7C7D1B78 		mr 29,3
 4071 23d4 809F019C 		lwz 4,412(31)
 4072              	.LEHB105:
 4073 23d8 48000001 		bl _ZN8GuiImageC1EP12GuiImageData
 4074              	.LEHE105:
 4075              	.L468:
 4076 23dc 93BF0174 		stw 29,372(31)
 4077              		.loc 1 180 0
 4078 23e0 3CA00000 		lis 5,.LC10@ha
 4079 23e4 38A50070 		la 5,.LC10@l(5)
 4080 23e8 7F06C378 		mr 6,24
 4081 23ec 7F83E378 		mr 3,28
 4082 23f0 38800064 		li 4,100
 4083              	.LEHB106:
 4084 23f4 4CC63182 		crxor 6,6,6
 4085 23f8 48000001 		bl snprintf
 4086              		.loc 1 181 0
 4087 23fc 3860000C 		li 3,12
 4088 2400 48000001 		bl _Znwj
 4089              	.LEHE106:
 4090 2404 3D200000 		lis 9,scrollbar_box_png@ha
 4091 2408 7C7D1B78 		mr 29,3
 4092 240c 3B690000 		la 27,scrollbar_box_png@l(9)
 4093 2410 7F84E378 		mr 4,28
 4094 2414 7F65DB78 		mr 5,27
 4095 2418 38C00000 		li 6,0
 4096              	.LEHB107:
 4097 241c 48000001 		bl _ZN12GuiImageDataC1EPKcPKhb
 4098              	.LEHE107:
 4099              	.L470:
 4100 2420 93BF01A0 		stw 29,416(31)
 4101              		.loc 1 182 0
 4102 2424 386000A8 		li 3,168
 4103              	.LEHB108:
 4104 2428 48000001 		bl _Znwj
 4105              	.LEHE108:
 4106 242c 7C7D1B78 		mr 29,3
 4107 2430 809F01A0 		lwz 4,416(31)
 4108              	.LEHB109:
 4109 2434 48000001 		bl _ZN8GuiImageC1EP12GuiImageData
 4110              	.LEHE109:
 4111              	.L472:
 4112 2438 93BF0178 		stw 29,376(31)
 4113              		.loc 1 183 0
 4114 243c 3860000C 		li 3,12
 4115              	.LEHB110:
 4116 2440 48000001 		bl _Znwj
 4117              	.LEHE110:
 4118 2444 7C7D1B78 		mr 29,3
 4119 2448 7F84E378 		mr 4,28
 4120 244c 7F65DB78 		mr 5,27
 4121 2450 38C00000 		li 6,0
 4122              	.LEHB111:
 4123 2454 48000001 		bl _ZN12GuiImageDataC1EPKcPKhb
 4124              	.LEHE111:
 4125 2458 93BF01A4 		stw 29,420(31)
 4126              		.loc 1 184 0
 4127 245c 386000A8 		li 3,168
 4128              	.LEHB112:
 4129 2460 48000001 		bl _Znwj
 4130              	.LEHE112:
 4131 2464 7C7D1B78 		mr 29,3
 4132 2468 809F01A4 		lwz 4,420(31)
 4133              	.LEHB113:
 4134 246c 48000001 		bl _ZN8GuiImageC1EP12GuiImageData
 4135              	.LEHE113:
 4136              	.L476:
 4137 2470 93BF017C 		stw 29,380(31)
 4138              		.loc 1 186 0
 4139 2474 807F0170 		lwz 3,368(31)
 4140              	.LEHB114:
 4141 2478 48000001 		bl _ZN10GuiElement8GetWidthEv
 4142 247c 7C7B1B78 		mr 27,3
 4143 2480 807F0170 		lwz 3,368(31)
 4144 2484 48000001 		bl _ZN10GuiElement9GetHeightEv
 4145 2488 7C7C1B78 		mr 28,3
 4146 248c 386000FC 		li 3,252
 4147 2490 48000001 		bl _Znwj
 4148              	.LEHE114:
 4149 2494 7C7D1B78 		mr 29,3
 4150 2498 7F64DB78 		mr 4,27
 4151 249c 7F85E378 		mr 5,28
 4152              	.LEHB115:
 4153 24a0 48000001 		bl _ZN9GuiButtonC1Eii
 4154              	.LEHE115:
 4155              	.L478:
 4156 24a4 93BF0150 		stw 29,336(31)
 4157              		.loc 1 187 0
 4158 24a8 7FA3EB78 		mr 3,29
 4159 24ac 7FE4FB78 		mr 4,31
 4160              	.LEHB116:
 4161 24b0 48000001 		bl _ZN10GuiElement9SetParentEPS_
 4162              		.loc 1 188 0
 4163 24b4 807F0150 		lwz 3,336(31)
 4164 24b8 809F0170 		lwz 4,368(31)
 4165 24bc 48000001 		bl _ZN9GuiButton8SetImageEP8GuiImage
 4166              		.loc 1 189 0
 4167 24c0 807F0150 		lwz 3,336(31)
 4168 24c4 809F0174 		lwz 4,372(31)
 4169 24c8 48000001 		bl _ZN9GuiButton12SetImageOverEP8GuiImage
 4170              		.loc 1 190 0
 4171 24cc 807F0150 		lwz 3,336(31)
 4172 24d0 809F0174 		lwz 4,372(31)
 4173 24d4 48000001 		bl _ZN9GuiButton12SetImageHoldEP8GuiImage
 4174              		.loc 1 191 0
 4175 24d8 807F0150 		lwz 3,336(31)
 4176 24dc 38800002 		li 4,2
 4177 24e0 38A00003 		li 5,3
 4178 24e4 81230000 		lwz 9,0(3)
 4179 24e8 81290014 		lwz 9,20(9)
 4180 24ec 7D2903A6 		mtctr 9
 4181 24f0 4E800421 		bctrl
 4182              		.loc 1 192 0
 4183 24f4 809F000C 		lwz 4,12(31)
 4184 24f8 38A0FFEE 		li 5,-18
 4185 24fc 807F0150 		lwz 3,336(31)
 4186 2500 7C840E70 		srawi 4,4,1
 4187 2504 7C840194 		addze 4,4
 4188 2508 3884FFF5 		addi 4,4,-11
 4189 250c 48000001 		bl _ZN10GuiElement11SetPositionEii
 4190              		.loc 1 193 0
 4191 2510 807F0150 		lwz 3,336(31)
 4192 2514 38800000 		li 4,0
 4193 2518 48000001 		bl _ZN10GuiElement13SetSelectableEb
 4194              		.loc 1 194 0
 4195 251c 807F0150 		lwz 3,336(31)
 4196 2520 809F01B0 		lwz 4,432(31)
 4197 2524 48000001 		bl _ZN10GuiElement10SetTriggerEP10GuiTrigger
 4198              		.loc 1 195 0
 4199 2528 807F0150 		lwz 3,336(31)
 4200 252c 38800080 		li 4,128
 4201 2530 38A00032 		li 5,50
 4202 2534 38C00082 		li 6,130
 4203 2538 48000001 		bl _ZN10GuiElement15SetEffectOnOverEiii
 4204              		.loc 1 196 0
 4205 253c 807F0150 		lwz 3,336(31)
 4206 2540 809F01AC 		lwz 4,428(31)
 4207 2544 48000001 		bl _ZN9GuiButton13SetSoundClickEP8GuiSound
 4208              		.loc 1 198 0
 4209 2548 807F0168 		lwz 3,360(31)
 4210 254c 48000001 		bl _ZN10GuiElement8GetWidthEv
 4211 2550 7C7B1B78 		mr 27,3
 4212 2554 807F0168 		lwz 3,360(31)
 4213 2558 48000001 		bl _ZN10GuiElement9GetHeightEv
 4214 255c 7C7C1B78 		mr 28,3
 4215 2560 386000FC 		li 3,252
 4216 2564 48000001 		bl _Znwj
 4217              	.LEHE116:
 4218 2568 7C7D1B78 		mr 29,3
 4219 256c 7F64DB78 		mr 4,27
 4220 2570 7F85E378 		mr 5,28
 4221              	.LEHB117:
 4222 2574 48000001 		bl _ZN9GuiButtonC1Eii
 4223              	.LEHE117:
 4224              	.L480:
 4225 2578 93BF0154 		stw 29,340(31)
 4226              		.loc 1 199 0
 4227 257c 7FA3EB78 		mr 3,29
 4228 2580 7FE4FB78 		mr 4,31
 4229              	.LEHB118:
 4230 2584 48000001 		bl _ZN10GuiElement9SetParentEPS_
 4231              		.loc 1 200 0
 4232 2588 807F0154 		lwz 3,340(31)
 4233 258c 809F0168 		lwz 4,360(31)
 4234 2590 48000001 		bl _ZN9GuiButton8SetImageEP8GuiImage
 4235              		.loc 1 201 0
 4236 2594 807F0154 		lwz 3,340(31)
 4237 2598 809F016C 		lwz 4,364(31)
 4238 259c 48000001 		bl _ZN9GuiButton12SetImageOverEP8GuiImage
 4239              		.loc 1 202 0
 4240 25a0 807F0154 		lwz 3,340(31)
 4241 25a4 809F016C 		lwz 4,364(31)
 4242 25a8 48000001 		bl _ZN9GuiButton12SetImageHoldEP8GuiImage
 4243              		.loc 1 203 0
 4244 25ac 807F0154 		lwz 3,340(31)
 4245 25b0 38800002 		li 4,2
 4246 25b4 38A00004 		li 5,4
 4247 25b8 81230000 		lwz 9,0(3)
 4248 25bc 81290014 		lwz 9,20(9)
 4249 25c0 7D2903A6 		mtctr 9
 4250 25c4 4E800421 		bctrl
 4251              		.loc 1 204 0
 4252 25c8 809F000C 		lwz 4,12(31)
 4253 25cc 38A00012 		li 5,18
 4254 25d0 807F0154 		lwz 3,340(31)
 4255 25d4 7C840E70 		srawi 4,4,1
 4256 25d8 7C840194 		addze 4,4
 4257 25dc 3884FFF5 		addi 4,4,-11
 4258 25e0 48000001 		bl _ZN10GuiElement11SetPositionEii
 4259              		.loc 1 205 0
 4260 25e4 807F0154 		lwz 3,340(31)
 4261 25e8 38800000 		li 4,0
 4262 25ec 48000001 		bl _ZN10GuiElement13SetSelectableEb
 4263              		.loc 1 206 0
 4264 25f0 807F0154 		lwz 3,340(31)
 4265 25f4 809F01B0 		lwz 4,432(31)
 4266 25f8 48000001 		bl _ZN10GuiElement10SetTriggerEP10GuiTrigger
 4267              		.loc 1 207 0
 4268 25fc 807F0154 		lwz 3,340(31)
 4269 2600 38800080 		li 4,128
 4270 2604 38A00032 		li 5,50
 4271 2608 38C00082 		li 6,130
 4272 260c 48000001 		bl _ZN10GuiElement15SetEffectOnOverEiii
 4273              		.loc 1 208 0
 4274 2610 807F0154 		lwz 3,340(31)
 4275 2614 809F01AC 		lwz 4,428(31)
 4276 2618 48000001 		bl _ZN9GuiButton13SetSoundClickEP8GuiSound
 4277              		.loc 1 210 0
 4278 261c 807F0178 		lwz 3,376(31)
 4279 2620 48000001 		bl _ZN10GuiElement8GetWidthEv
 4280 2624 7C7B1B78 		mr 27,3
 4281 2628 807F0178 		lwz 3,376(31)
 4282 262c 48000001 		bl _ZN10GuiElement9GetHeightEv
 4283 2630 7C7C1B78 		mr 28,3
 4284 2634 386000FC 		li 3,252
 4285 2638 48000001 		bl _Znwj
 4286              	.LEHE118:
 4287 263c 7C7D1B78 		mr 29,3
 4288 2640 7F64DB78 		mr 4,27
 4289 2644 7F85E378 		mr 5,28
 4290              	.LEHB119:
 4291 2648 48000001 		bl _ZN9GuiButtonC1Eii
 4292              	.LEHE119:
 4293              	.L482:
 4294 264c 93BF0158 		stw 29,344(31)
 4295              		.loc 1 211 0
 4296 2650 7FA3EB78 		mr 3,29
 4297 2654 7FE4FB78 		mr 4,31
 4298              	.LEHB120:
 4299 2658 48000001 		bl _ZN10GuiElement9SetParentEPS_
 4300              		.loc 1 212 0
 4301 265c 807F0158 		lwz 3,344(31)
 4302 2660 809F0178 		lwz 4,376(31)
 4303 2664 48000001 		bl _ZN9GuiButton8SetImageEP8GuiImage
 4304              		.loc 1 213 0
 4305 2668 807F0158 		lwz 3,344(31)
 4306 266c 809F017C 		lwz 4,380(31)
 4307 2670 48000001 		bl _ZN9GuiButton12SetImageOverEP8GuiImage
 4308              		.loc 1 214 0
 4309 2674 807F0158 		lwz 3,344(31)
 4310 2678 809F017C 		lwz 4,380(31)
 4311 267c 48000001 		bl _ZN9GuiButton12SetImageHoldEP8GuiImage
 4312              		.loc 1 215 0
 4313 2680 807F0158 		lwz 3,344(31)
 4314 2684 38800002 		li 4,2
 4315 2688 38A00003 		li 5,3
 4316 268c 81230000 		lwz 9,0(3)
 4317 2690 81290014 		lwz 9,20(9)
 4318 2694 7D2903A6 		mtctr 9
 4319 2698 4E800421 		bctrl
 4320              		.loc 1 216 0
 4321 269c 807F0158 		lwz 3,344(31)
 4322 26a0 38800000 		li 4,0
 4323 26a4 48000001 		bl _ZN10GuiElement13SetSelectableEb
 4324              		.loc 1 217 0
 4325 26a8 807F0158 		lwz 3,344(31)
 4326 26ac 38800080 		li 4,128
 4327 26b0 38A00032 		li 5,50
 4328 26b4 38C00078 		li 6,120
 4329 26b8 48000001 		bl _ZN10GuiElement15SetEffectOnOverEiii
 4330              		.loc 1 218 0
 4331 26bc 807F0158 		lwz 3,344(31)
 4332 26c0 38800000 		li 4,0
 4333 26c4 48000001 		bl _ZN10GuiElement7SetMinYEi
 4334              		.loc 1 219 0
 4335 26c8 809F0010 		lwz 4,16(31)
 4336 26cc 807F0158 		lwz 3,344(31)
 4337 26d0 3884FFE2 		addi 4,4,-30
 4338 26d4 48000001 		bl _ZN10GuiElement7SetMaxYEi
 4339              		.loc 1 220 0
 4340 26d8 807F0158 		lwz 3,344(31)
 4341 26dc 38800001 		li 4,1
 4342 26e0 48000001 		bl _ZN10GuiElement11SetHoldableEb
 4343              		.loc 1 221 0
 4344 26e4 807F0158 		lwz 3,344(31)
 4345 26e8 809F01B8 		lwz 4,440(31)
 4346 26ec 48000001 		bl _ZN10GuiElement10SetTriggerEP10GuiTrigger
 4347              	.LEHE120:
 4348 26f0 4BFFF96C 		b .L447
 4349              	.L515:
 4350              	.LVL199:
 4351              	.L552:
 4352              	.L474:
 4353 26f4 7C7E1B78 		mr 30,3
 4354              		.loc 1 183 0
 4355 26f8 7FA3EB78 		mr 3,29
 4356 26fc 48000001 		bl _ZdlPv
 4357              	.L493:
 4358              	.LBE72:
 4359              		.loc 1 246 0
 4360 2700 7FE3FB78 		mr 3,31
 4361 2704 48000001 		bl _ZN10GuiElementD2Ev
 4362 2708 7FC3F378 		mr 3,30
 4363              	.LEHB121:
 4364 270c 48000001 		bl _Unwind_Resume
 4365              	.LEHE121:
 4366              	.LVL200:
 4367              	.L516:
 4368 2710 4BFFFFE4 		b .L552
 4369              	.L517:
 4370 2714 4BFFFFE0 		b .L552
 4371              	.L518:
 4372 2718 4BFFFFDC 		b .L552
 4373              	.LVL201:
 4374              	.L519:
 4375 271c 4BFFFFD8 		b .L552
 4376              	.L520:
 4377 2720 4BFFFFD4 		b .L552
 4378              	.L521:
 4379 2724 4BFFFFD0 		b .L552
 4380              	.LVL202:
 4381              	.L522:
 4382 2728 7C7E1B78 		mr 30,3
 4383 272c 4BFFFFD4 		b .L493
 4384              	.LVL203:
 4385              	.L495:
 4386 2730 4BFFFFC4 		b .L552
 4387              	.L496:
 4388 2734 4BFFFFC0 		b .L552
 4389              	.L497:
 4390 2738 4BFFFFBC 		b .L552
 4391              	.L498:
 4392 273c 4BFFFFB8 		b .L552
 4393              	.LVL204:
 4394              	.L499:
 4395 2740 4BFFFFB4 		b .L552
 4396              	.L500:
 4397 2744 4BFFFFB0 		b .L552
 4398              	.L501:
 4399 2748 4BFFFFAC 		b .L552
 4400              	.L502:
 4401 274c 4BFFFFA8 		b .L552
 4402              	.L503:
 4403 2750 4BFFFFA4 		b .L552
 4404              	.L504:
 4405 2754 4BFFFFA0 		b .L552
 4406              	.L505:
 4407 2758 4BFFFF9C 		b .L552
 4408              	.L506:
 4409 275c 4BFFFF98 		b .L552
 4410              	.L507:
 4411 2760 4BFFFF94 		b .L552
 4412              	.L508:
 4413 2764 4BFFFF90 		b .L552
 4414              	.L509:
 4415 2768 4BFFFF8C 		b .L552
 4416              	.L510:
 4417 276c 4BFFFF88 		b .L552
 4418              	.L511:
 4419 2770 4BFFFF84 		b .L552
 4420              	.L512:
 4421 2774 4BFFFF80 		b .L552
 4422              	.L513:
 4423 2778 4BFFFF7C 		b .L552
 4424              	.L514:
 4425 277c 4BFFFF78 		b .L552
 4426              	.LBE73:
 4427              	.LFE795:
 4428              		.size	_ZN16GuiOptionBrowserC2EiiP11_optionlistPKcPKhii, .-_ZN16GuiOptionBrowserC2EiiP11_optionlist
 4429              		.section	.gcc_except_table
 4430              	.LLSDA795:
 4431 0192 FF       		.byte	0xff
 4432 0193 FF       		.byte	0xff
 4433 0194 01       		.byte	0x1
 4434 0195 D702     		.uleb128 .LLSDACSE795-.LLSDACSB795
 4435              	.LLSDACSB795:
 4436 0197 54       		.uleb128 .LEHB65-.LFB795
 4437 0198 04       		.uleb128 .LEHE65-.LEHB65
 4438 0199 00       		.uleb128 0x0
 4439 019a 00       		.uleb128 0x0
 4440 019b B801     		.uleb128 .LEHB66-.LFB795
 4441 019d 04       		.uleb128 .LEHE66-.LEHB66
 4442 019e C811     		.uleb128 .L522-.LFB795
 4443 01a0 00       		.uleb128 0x0
 4444 01a1 C001     		.uleb128 .LEHB67-.LFB795
 4445 01a3 04       		.uleb128 .LEHE67-.LEHB67
 4446 01a4 C411     		.uleb128 .L521-.LFB795
 4447 01a6 00       		.uleb128 0x0
 4448 01a7 DC01     		.uleb128 .LEHB68-.LFB795
 4449 01a9 0C       		.uleb128 .LEHE68-.LEHB68
 4450 01aa C811     		.uleb128 .L522-.LFB795
 4451 01ac 00       		.uleb128 0x0
 4452 01ad EC01     		.uleb128 .LEHB69-.LFB795
 4453 01af 04       		.uleb128 .LEHE69-.LEHB69
 4454 01b0 C011     		.uleb128 .L520-.LFB795
 4455 01b2 00       		.uleb128 0x0
 4456 01b3 8402     		.uleb128 .LEHB70-.LFB795
 4457 01b5 0C       		.uleb128 .LEHE70-.LEHB70
 4458 01b6 C811     		.uleb128 .L522-.LFB795
 4459 01b8 00       		.uleb128 0x0
 4460 01b9 A802     		.uleb128 .LEHB71-.LFB795
 4461 01bb 04       		.uleb128 .LEHE71-.LEHB71
 4462 01bc BC11     		.uleb128 .L519-.LFB795
 4463 01be 00       		.uleb128 0x0
 4464 01bf C802     		.uleb128 .LEHB72-.LFB795
 4465 01c1 10       		.uleb128 .LEHE72-.LEHB72
 4466 01c2 C811     		.uleb128 .L522-.LFB795
 4467 01c4 00       		.uleb128 0x0
 4468 01c5 E802     		.uleb128 .LEHB73-.LFB795
 4469 01c7 04       		.uleb128 .LEHE73-.LEHB73
 4470 01c8 B811     		.uleb128 .L518-.LFB795
 4471 01ca 00       		.uleb128 0x0
 4472 01cb F402     		.uleb128 .LEHB74-.LFB795
 4473 01cd 04       		.uleb128 .LEHE74-.LEHB74
 4474 01ce C811     		.uleb128 .L522-.LFB795
 4475 01d0 00       		.uleb128 0x0
 4476 01d1 8003     		.uleb128 .LEHB75-.LFB795
 4477 01d3 04       		.uleb128 .LEHE75-.LEHB75
 4478 01d4 B411     		.uleb128 .L517-.LFB795
 4479 01d6 00       		.uleb128 0x0
 4480 01d7 9003     		.uleb128 .LEHB76-.LFB795
 4481 01d9 44       		.uleb128 .LEHE76-.LEHB76
 4482 01da C811     		.uleb128 .L522-.LFB795
 4483 01dc 00       		.uleb128 0x0
 4484 01dd E803     		.uleb128 .LEHB77-.LFB795
 4485 01df 04       		.uleb128 .LEHE77-.LEHB77
 4486 01e0 B011     		.uleb128 .L516-.LFB795
 4487 01e2 00       		.uleb128 0x0
 4488 01e3 A804     		.uleb128 .LEHB78-.LFB795
 4489 01e5 04       		.uleb128 .LEHE78-.LEHB78
 4490 01e6 C811     		.uleb128 .L522-.LFB795
 4491 01e8 00       		.uleb128 0x0
 4492 01e9 CC04     		.uleb128 .LEHB79-.LFB795
 4493 01eb 04       		.uleb128 .LEHE79-.LEHB79
 4494 01ec DC11     		.uleb128 .L498-.LFB795
 4495 01ee 00       		.uleb128 0x0
 4496 01ef EC04     		.uleb128 .LEHB80-.LFB795
 4497 01f1 1C       		.uleb128 .LEHE80-.LEHB80
 4498 01f2 C811     		.uleb128 .L522-.LFB795
 4499 01f4 00       		.uleb128 0x0
 4500 01f5 9005     		.uleb128 .LEHB81-.LFB795
 4501 01f7 04       		.uleb128 .LEHE81-.LEHB81
 4502 01f8 D811     		.uleb128 .L497-.LFB795
 4503 01fa 00       		.uleb128 0x0
 4504 01fb B405     		.uleb128 .LEHB82-.LFB795
 4505 01fd 04       		.uleb128 .LEHE82-.LEHB82
 4506 01fe C811     		.uleb128 .L522-.LFB795
 4507 0200 00       		.uleb128 0x0
 4508 0201 CC05     		.uleb128 .LEHB83-.LFB795
 4509 0203 04       		.uleb128 .LEHE83-.LEHB83
 4510 0204 D411     		.uleb128 .L496-.LFB795
 4511 0206 00       		.uleb128 0x0
 4512 0207 EC05     		.uleb128 .LEHB84-.LFB795
 4513 0209 1C       		.uleb128 .LEHE84-.LEHB84
 4514 020a C811     		.uleb128 .L522-.LFB795
 4515 020c 00       		.uleb128 0x0
 4516 020d 9806     		.uleb128 .LEHB85-.LFB795
 4517 020f 04       		.uleb128 .LEHE85-.LEHB85
 4518 0210 D011     		.uleb128 .L495-.LFB795
 4519 0212 00       		.uleb128 0x0
 4520 0213 A806     		.uleb128 .LEHB86-.LFB795
 4521 0215 C401     		.uleb128 .LEHE86-.LEHB86
 4522 0217 C811     		.uleb128 .L522-.LFB795
 4523 0219 00       		.uleb128 0x0
 4524 021a 8008     		.uleb128 .LEHB87-.LFB795
 4525 021c 04       		.uleb128 .LEHE87-.LEHB87
 4526 021d 9411     		.uleb128 .L515-.LFB795
 4527 021f 00       		.uleb128 0x0
 4528 0220 8C08     		.uleb128 .LEHB88-.LFB795
 4529 0222 04       		.uleb128 .LEHE88-.LEHB88
 4530 0223 C811     		.uleb128 .L522-.LFB795
 4531 0225 00       		.uleb128 0x0
 4532 0226 9808     		.uleb128 .LEHB89-.LFB795
 4533 0228 04       		.uleb128 .LEHE89-.LEHB89
 4534 0229 9C12     		.uleb128 .L514-.LFB795
 4535 022b 00       		.uleb128 0x0
 4536 022c A808     		.uleb128 .LEHB90-.LFB795
 4537 022e 54       		.uleb128 .LEHE90-.LEHB90
 4538 022f C811     		.uleb128 .L522-.LFB795
 4539 0231 00       		.uleb128 0x0
 4540 0232 9409     		.uleb128 .LEHB91-.LFB795
 4541 0234 04       		.uleb128 .LEHE91-.LEHB91
 4542 0235 9812     		.uleb128 .L513-.LFB795
 4543 0237 00       		.uleb128 0x0
 4544 0238 A009     		.uleb128 .LEHB92-.LFB795
 4545 023a 04       		.uleb128 .LEHE92-.LEHB92
 4546 023b C811     		.uleb128 .L522-.LFB795
 4547 023d 00       		.uleb128 0x0
 4548 023e AC09     		.uleb128 .LEHB93-.LFB795
 4549 0240 04       		.uleb128 .LEHE93-.LEHB93
 4550 0241 9412     		.uleb128 .L512-.LFB795
 4551 0243 00       		.uleb128 0x0
 4552 0244 B809     		.uleb128 .LEHB94-.LFB795
 4553 0246 04       		.uleb128 .LEHE94-.LEHB94
 4554 0247 C811     		.uleb128 .L522-.LFB795
 4555 0249 00       		.uleb128 0x0
 4556 024a CC09     		.uleb128 .LEHB95-.LFB795
 4557 024c 04       		.uleb128 .LEHE95-.LEHB95
 4558 024d 9012     		.uleb128 .L511-.LFB795
 4559 024f 00       		.uleb128 0x0
 4560 0250 D809     		.uleb128 .LEHB96-.LFB795
 4561 0252 04       		.uleb128 .LEHE96-.LEHB96
 4562 0253 C811     		.uleb128 .L522-.LFB795
 4563 0255 00       		.uleb128 0x0
 4564 0256 E409     		.uleb128 .LEHB97-.LFB795
 4565 0258 04       		.uleb128 .LEHE97-.LEHB97
 4566 0259 8C12     		.uleb128 .L510-.LFB795
 4567 025b 00       		.uleb128 0x0
 4568 025c 800A     		.uleb128 .LEHB98-.LFB795
 4569 025e 10       		.uleb128 .LEHE98-.LEHB98
 4570 025f C811     		.uleb128 .L522-.LFB795
 4571 0261 00       		.uleb128 0x0
 4572 0262 A80A     		.uleb128 .LEHB99-.LFB795
 4573 0264 04       		.uleb128 .LEHE99-.LEHB99
 4574 0265 8812     		.uleb128 .L509-.LFB795
 4575 0267 00       		.uleb128 0x0
 4576 0268 B40A     		.uleb128 .LEHB100-.LFB795
 4577 026a 04       		.uleb128 .LEHE100-.LEHB100
 4578 026b C811     		.uleb128 .L522-.LFB795
 4579 026d 00       		.uleb128 0x0
 4580 026e C00A     		.uleb128 .LEHB101-.LFB795
 4581 0270 04       		.uleb128 .LEHE101-.LEHB101
 4582 0271 8412     		.uleb128 .L508-.LFB795
 4583 0273 00       		.uleb128 0x0
 4584 0274 CC0A     		.uleb128 .LEHB102-.LFB795
 4585 0276 04       		.uleb128 .LEHE102-.LEHB102
 4586 0277 C811     		.uleb128 .L522-.LFB795
 4587 0279 00       		.uleb128 0x0
 4588 027a E00A     		.uleb128 .LEHB103-.LFB795
 4589 027c 04       		.uleb128 .LEHE103-.LEHB103
 4590 027d 8012     		.uleb128 .L507-.LFB795
 4591 027f 00       		.uleb128 0x0
 4592 0280 EC0A     		.uleb128 .LEHB104-.LFB795
 4593 0282 04       		.uleb128 .LEHE104-.LEHB104
 4594 0283 C811     		.uleb128 .L522-.LFB795
 4595 0285 00       		.uleb128 0x0
 4596 0286 F80A     		.uleb128 .LEHB105-.LFB795
 4597 0288 04       		.uleb128 .LEHE105-.LEHB105
 4598 0289 FC11     		.uleb128 .L506-.LFB795
 4599 028b 00       		.uleb128 0x0
 4600 028c 940B     		.uleb128 .LEHB106-.LFB795
 4601 028e 10       		.uleb128 .LEHE106-.LEHB106
 4602 028f C811     		.uleb128 .L522-.LFB795
 4603 0291 00       		.uleb128 0x0
 4604 0292 BC0B     		.uleb128 .LEHB107-.LFB795
 4605 0294 04       		.uleb128 .LEHE107-.LEHB107
 4606 0295 F811     		.uleb128 .L505-.LFB795
 4607 0297 00       		.uleb128 0x0
 4608 0298 C80B     		.uleb128 .LEHB108-.LFB795
 4609 029a 04       		.uleb128 .LEHE108-.LEHB108
 4610 029b C811     		.uleb128 .L522-.LFB795
 4611 029d 00       		.uleb128 0x0
 4612 029e D40B     		.uleb128 .LEHB109-.LFB795
 4613 02a0 04       		.uleb128 .LEHE109-.LEHB109
 4614 02a1 F411     		.uleb128 .L504-.LFB795
 4615 02a3 00       		.uleb128 0x0
 4616 02a4 E00B     		.uleb128 .LEHB110-.LFB795
 4617 02a6 04       		.uleb128 .LEHE110-.LEHB110
 4618 02a7 C811     		.uleb128 .L522-.LFB795
 4619 02a9 00       		.uleb128 0x0
 4620 02aa F40B     		.uleb128 .LEHB111-.LFB795
 4621 02ac 04       		.uleb128 .LEHE111-.LEHB111
 4622 02ad F011     		.uleb128 .L503-.LFB795
 4623 02af 00       		.uleb128 0x0
 4624 02b0 800C     		.uleb128 .LEHB112-.LFB795
 4625 02b2 04       		.uleb128 .LEHE112-.LEHB112
 4626 02b3 C811     		.uleb128 .L522-.LFB795
 4627 02b5 00       		.uleb128 0x0
 4628 02b6 8C0C     		.uleb128 .LEHB113-.LFB795
 4629 02b8 04       		.uleb128 .LEHE113-.LEHB113
 4630 02b9 EC11     		.uleb128 .L502-.LFB795
 4631 02bb 00       		.uleb128 0x0
 4632 02bc 980C     		.uleb128 .LEHB114-.LFB795
 4633 02be 1C       		.uleb128 .LEHE114-.LEHB114
 4634 02bf C811     		.uleb128 .L522-.LFB795
 4635 02c1 00       		.uleb128 0x0
 4636 02c2 C00C     		.uleb128 .LEHB115-.LFB795
 4637 02c4 04       		.uleb128 .LEHE115-.LEHB115
 4638 02c5 E811     		.uleb128 .L501-.LFB795
 4639 02c7 00       		.uleb128 0x0
 4640 02c8 D00C     		.uleb128 .LEHB116-.LFB795
 4641 02ca B801     		.uleb128 .LEHE116-.LEHB116
 4642 02cc C811     		.uleb128 .L522-.LFB795
 4643 02ce 00       		.uleb128 0x0
 4644 02cf 940E     		.uleb128 .LEHB117-.LFB795
 4645 02d1 04       		.uleb128 .LEHE117-.LEHB117
 4646 02d2 E411     		.uleb128 .L500-.LFB795
 4647 02d4 00       		.uleb128 0x0
 4648 02d5 A40E     		.uleb128 .LEHB118-.LFB795
 4649 02d7 B801     		.uleb128 .LEHE118-.LEHB118
 4650 02d9 C811     		.uleb128 .L522-.LFB795
 4651 02db 00       		.uleb128 0x0
 4652 02dc E80F     		.uleb128 .LEHB119-.LFB795
 4653 02de 04       		.uleb128 .LEHE119-.LEHB119
 4654 02df E011     		.uleb128 .L499-.LFB795
 4655 02e1 00       		.uleb128 0x0
 4656 02e2 F80F     		.uleb128 .LEHB120-.LFB795
 4657 02e4 9801     		.uleb128 .LEHE120-.LEHB120
 4658 02e6 C811     		.uleb128 .L522-.LFB795
 4659 02e8 00       		.uleb128 0x0
 4660 02e9 AC11     		.uleb128 .LEHB121-.LFB795
 4661 02eb 04       		.uleb128 .LEHE121-.LEHB121
 4662 02ec 00       		.uleb128 0x0
 4663 02ed 00       		.uleb128 0x0
 4664              	.LLSDACSE795:
 4665              		.section	".text"
 4666              		.align 2
 4667              		.globl _ZN16GuiOptionBrowserC1EiiP11_optionlistPKhi
 4668              		.type	_ZN16GuiOptionBrowserC1EiiP11_optionlistPKhi, @function
 4669              	_ZN16GuiOptionBrowserC1EiiP11_optionlistPKhi:
 4670              	.LFB793:
 4671              		.loc 1 23 0
 4672              	.LVL205:
 4673 2780 7C0802A6 		mflr 0
 4674              	.LCFI84:
 4675 2784 9421FFD0 		stwu 1,-48(1)
 4676              	.LCFI85:
 4677 2788 93010010 		stw 24,16(1)
 4678              	.LCFI86:
 4679 278c 7CF83B78 		mr 24,7
 4680 2790 93210014 		stw 25,20(1)
 4681              	.LCFI87:
 4682 2794 3B200000 		li 25,0
 4683 2798 93410018 		stw 26,24(1)
 4684              	.LCFI88:
 4685 279c 7D1A4378 		mr 26,8
 4686 27a0 9361001C 		stw 27,28(1)
 4687              	.LCFI89:
 4688 27a4 7CDB3378 		mr 27,6
 4689 27a8 93810020 		stw 28,32(1)
 4690              	.LCFI90:
 4691 27ac 7CBC2B78 		mr 28,5
 4692 27b0 93A10024 		stw 29,36(1)
 4693              	.LCFI91:
 4694 27b4 7C9D2378 		mr 29,4
 4695 27b8 93E1002C 		stw 31,44(1)
 4696              	.LCFI92:
 4697 27bc 7C7F1B78 		mr 31,3
 4698 27c0 90010034 		stw 0,52(1)
 4699              	.LCFI93:
 4700 27c4 93C10028 		stw 30,40(1)
 4701              	.LCFI94:
 4702              	.LEHB122:
 4703              	.LBB74:
 4704              		.loc 1 23 0
 4705 27c8 48000001 		bl _ZN10GuiElementC2Ev
 4706              	.LEHE122:
 4707              	.LVL206:
 4708 27cc 3D200000 		lis 9,_ZTV16GuiOptionBrowser+8@ha
 4709              		.loc 1 26 0
 4710 27d0 939F0010 		stw 28,16(31)
 4711              		.loc 1 23 0
 4712 27d4 39290008 		la 9,_ZTV16GuiOptionBrowser+8@l(9)
 4713              		.loc 1 29 0
 4714 27d8 38000001 		li 0,1
 4715              		.loc 1 23 0
 4716 27dc 913F0000 		stw 9,0(31)
 4717              		.loc 1 28 0
 4718 27e0 3D200000 		lis 9,.LANCHOR0@ha
 4719 27e4 3B890000 		la 28,.LANCHOR0@l(9)
 4720              	.LVL207:
 4721              		.loc 1 25 0
 4722 27e8 93BF000C 		stw 29,12(31)
 4723              		.loc 1 29 0
 4724 27ec 981F0070 		stb 0,112(31)
 4725              		.loc 1 30 0
 4726 27f0 7FE3FB78 		mr 3,31
 4727              		.loc 1 28 0
 4728 27f4 935C000C 		stw 26,12(28)
 4729              		.loc 1 30 0
 4730 27f8 3880FFFF 		li 4,-1
 4731              		.loc 1 27 0
 4732 27fc 937F00BC 		stw 27,188(31)
 4733              		.loc 1 30 0
 4734 2800 38A00001 		li 5,1
 4735 2804 3B400000 		li 26,0
 4736              	.LVL208:
 4737 2808 48000001 		bl _ZN16GuiOptionBrowser12FindMenuItemEii
 4738              		.loc 1 31 0
 4739 280c 38000000 		li 0,0
 4740              		.loc 1 32 0
 4741 2810 39200001 		li 9,1
 4742              		.loc 1 30 0
 4743 2814 907F00B8 		stw 3,184(31)
 4744              		.loc 1 31 0
 4745 2818 901F00B4 		stw 0,180(31)
 4746              		.loc 1 34 0
 4747 281c 38600168 		li 3,360
 4748              		.loc 1 32 0
 4749 2820 913F0008 		stw 9,8(31)
 4750              	.LEHB123:
 4751              		.loc 1 34 0
 4752 2824 48000001 		bl _Znwj
 4753              	.LEHE123:
 4754 2828 7C7D1B78 		mr 29,3
 4755              	.LVL209:
 4756              	.LEHB124:
 4757 282c 48000001 		bl _ZN10GuiTriggerC1Ev
 4758              	.LEHE124:
 4759              	.L556:
 4760 2830 93BF01B0 		stw 29,432(31)
 4761              		.loc 1 35 0
 4762 2834 3CA00010 		lis 5,0x10
 4763 2838 7FA3EB78 		mr 3,29
 4764 283c 60A50008 		ori 5,5,8
 4765 2840 3880FFFF 		li 4,-1
 4766 2844 38C00100 		li 6,256
 4767              	.LEHB125:
 4768 2848 48000001 		bl _ZN10GuiTrigger16SetSimpleTriggerEijt
 4769              		.loc 1 36 0
 4770 284c 38600168 		li 3,360
 4771 2850 48000001 		bl _Znwj
 4772              	.LEHE125:
 4773 2854 7C7D1B78 		mr 29,3
 4774              	.LEHB126:
 4775 2858 48000001 		bl _ZN10GuiTriggerC1Ev
 4776              	.LEHE126:
 4777 285c 93BF01B8 		stw 29,440(31)
 4778              		.loc 1 37 0
 4779 2860 7FA3EB78 		mr 3,29
 4780 2864 3880FFFF 		li 4,-1
 4781 2868 38A00008 		li 5,8
 4782 286c 38C00100 		li 6,256
 4783              	.LEHB127:
 4784 2870 48000001 		bl _ZN10GuiTrigger14SetHeldTriggerEijt
 4785              		.loc 1 39 0
 4786 2874 38600018 		li 3,24
 4787 2878 48000001 		bl _Znwj
 4788              	.LEHE127:
 4789 287c 3C800000 		lis 4,button_click_pcm@ha
 4790 2880 3D200000 		lis 9,button_click_pcm_size@ha
 4791 2884 7C7E1B78 		mr 30,3
 4792 2888 38840000 		la 4,button_click_pcm@l(4)
 4793 288c 80A90000 		lwz 5,button_click_pcm_size@l(9)
 4794 2890 38C00000 		li 6,0
 4795              	.LEHB128:
 4796 2894 48000001 		bl _ZN8GuiSoundC1EPKhii
 4797              	.LEHE128:
 4798              	.L560:
 4799 2898 93DF01AC 		stw 30,428(31)
 4800              		.loc 1 41 0
 4801 289c 3860000C 		li 3,12
 4802              	.LEHB129:
 4803 28a0 48000001 		bl _Znwj
 4804              	.LEHE129:
 4805 28a4 7C7E1B78 		mr 30,3
 4806 28a8 7F04C378 		mr 4,24
 4807 28ac 38A00000 		li 5,0
 4808              	.LEHB130:
 4809 28b0 48000001 		bl _ZN12GuiImageDataC1EPKhb
 4810              	.LEHE130:
 4811              	.L562:
 4812 28b4 93DF0180 		stw 30,384(31)
 4813              		.loc 1 42 0
 4814 28b8 386000A8 		li 3,168
 4815              	.LEHB131:
 4816 28bc 48000001 		bl _Znwj
 4817              	.LEHE131:
 4818 28c0 7C7D1B78 		mr 29,3
 4819 28c4 809F0180 		lwz 4,384(31)
 4820              	.LEHB132:
 4821 28c8 48000001 		bl _ZN8GuiImageC1EP12GuiImageData
 4822              	.LEHE132:
 4823              	.L564:
 4824 28cc 93BF015C 		stw 29,348(31)
 4825              		.loc 1 43 0
 4826 28d0 7FA3EB78 		mr 3,29
 4827 28d4 7FE4FB78 		mr 4,31
 4828              	.LEHB133:
 4829 28d8 48000001 		bl _ZN10GuiElement9SetParentEPS_
 4830              		.loc 1 44 0
 4831 28dc 807F015C 		lwz 3,348(31)
 4832 28e0 38800000 		li 4,0
 4833 28e4 38A00005 		li 5,5
 4834 28e8 81230000 		lwz 9,0(3)
 4835 28ec 81290014 		lwz 9,20(9)
 4836 28f0 7D2903A6 		mtctr 9
 4837 28f4 4E800421 		bctrl
 4838              		.loc 1 46 0
 4839 28f8 3860000C 		li 3,12
 4840 28fc 48000001 		bl _Znwj
 4841              	.LEHE133:
 4842 2900 3C800000 		lis 4,bg_options_entry_png@ha
 4843 2904 7C7E1B78 		mr 30,3
 4844 2908 38840000 		la 4,bg_options_entry_png@l(4)
 4845 290c 38A00000 		li 5,0
 4846              	.LEHB134:
 4847 2910 48000001 		bl _ZN12GuiImageDataC1EPKhb
 4848              	.LEHE134:
 4849              	.L566:
 4850              		.loc 1 47 0
 4851 2914 801C000C 		lwz 0,12(28)
 4852              		.loc 1 46 0
 4853 2918 93DF0188 		stw 30,392(31)
 4854              		.loc 1 47 0
 4855 291c 2F800001 		cmpwi 7,0,1
 4856 2920 419E01D8 		beq- 7,.L674
 4857              	.L567:
 4858              		.loc 1 102 0
 4859 2924 7FFCFB78 		mr 28,31
 4860 2928 3B600000 		li 27,0
 4861              	.LVL210:
 4862 292c 3BC00004 		li 30,4
 4863              	.LBB75:
 4864              	.LBB76:
 4865              		.loc 1 108 0
 4866 2930 3B010008 		addi 24,1,8
 4867              	.LVL211:
 4868              	.L603:
 4869 2934 38000000 		li 0,0
 4870 2938 3920FFFF 		li 9,-1
 4871 293c 5019C00E 		rlwimi 25,0,24,0,7
 4872 2940 386000A4 		li 3,164
 4873 2944 5019821E 		rlwimi 25,0,16,8,15
 4874 2948 5019442E 		rlwimi 25,0,8,16,23
 4875 294c 5139063E 		rlwimi 25,9,0,24,31
 4876              	.LEHB135:
 4877 2950 48000001 		bl _Znwj
 4878              	.LEHE135:
 4879 2954 801F00BC 		lwz 0,188(31)
 4880 2958 1C9B003C 		mulli 4,27,60
 4881 295c 7C7D1B78 		mr 29,3
 4882 2960 93210008 		stw 25,8(1)
 4883 2964 7C840214 		add 4,4,0
 4884 2968 38A00014 		li 5,20
 4885 296c 38840004 		addi 4,4,4
 4886 2970 7F06C378 		mr 6,24
 4887              	.LEHB136:
 4888 2974 48000001 		bl _ZN7GuiTextC1EPKci9_gx_color
 4889              	.LEHE136:
 4890              	.L605:
 4891              		.loc 1 109 0
 4892 2978 813D0000 		lwz 9,0(29)
 4893 297c 7FA3EB78 		mr 3,29
 4894              		.loc 1 108 0
 4895 2980 93BC0108 		stw 29,264(28)
 4896              		.loc 1 109 0
 4897 2984 38800000 		li 4,0
 4898 2988 81290014 		lwz 9,20(9)
 4899 298c 38A00005 		li 5,5
 4900 2990 7D2903A6 		mtctr 9
 4901              	.LEHB137:
 4902 2994 4E800421 		bctrl
 4903              		.loc 1 110 0
 4904 2998 807C0108 		lwz 3,264(28)
 4905 299c 38800018 		li 4,24
 4906 29a0 38A00000 		li 5,0
 4907 29a4 48000001 		bl _ZN10GuiElement11SetPositionEii
 4908              		.loc 1 112 0
 4909 29a8 386000A8 		li 3,168
 4910 29ac 48000001 		bl _Znwj
 4911              	.LEHE137:
 4912 29b0 7C7D1B78 		mr 29,3
 4913 29b4 809F0188 		lwz 4,392(31)
 4914              	.LEHB138:
 4915 29b8 48000001 		bl _ZN8GuiImageC1EP12GuiImageData
 4916              	.LEHE138:
 4917              	.L607:
 4918              		.loc 1 114 0
 4919 29bc 38000000 		li 0,0
 4920              		.loc 1 112 0
 4921 29c0 93BC012C 		stw 29,300(28)
 4922              		.loc 1 114 0
 4923 29c4 501AC00E 		rlwimi 26,0,24,0,7
 4924 29c8 3920FFFF 		li 9,-1
 4925 29cc 501A821E 		rlwimi 26,0,16,8,15
 4926 29d0 386000A4 		li 3,164
 4927 29d4 501A442E 		rlwimi 26,0,8,16,23
 4928 29d8 513A063E 		rlwimi 26,9,0,24,31
 4929              	.LEHB139:
 4930 29dc 48000001 		bl _Znwj
 4931              	.LEHE139:
 4932 29e0 7C7D1B78 		mr 29,3
 4933 29e4 93410008 		stw 26,8(1)
 4934 29e8 38800000 		li 4,0
 4935 29ec 38A00014 		li 5,20
 4936 29f0 7F06C378 		mr 6,24
 4937              	.LEHB140:
 4938 29f4 48000001 		bl _ZN7GuiTextC1EPKci9_gx_color
 4939              	.LEHE140:
 4940              	.L609:
 4941              		.loc 1 115 0
 4942 29f8 813D0000 		lwz 9,0(29)
 4943 29fc 7FA3EB78 		mr 3,29
 4944              		.loc 1 114 0
 4945 2a00 93BC0090 		stw 29,144(28)
 4946              		.loc 1 115 0
 4947 2a04 38800000 		li 4,0
 4948 2a08 81290014 		lwz 9,20(9)
 4949 2a0c 38A00005 		li 5,5
 4950 2a10 7D2903A6 		mtctr 9
 4951              	.LEHB141:
 4952 2a14 4E800421 		bctrl
 4953              		.loc 1 116 0
 4954 2a18 807C0090 		lwz 3,144(28)
 4955 2a1c 388000FA 		li 4,250
 4956 2a20 38A00000 		li 5,0
 4957 2a24 48000001 		bl _ZN10GuiElement11SetPositionEii
 4958              		.loc 1 118 0
 4959 2a28 386000FC 		li 3,252
 4960 2a2c 48000001 		bl _Znwj
 4961              	.LEHE141:
 4962 2a30 809F000C 		lwz 4,12(31)
 4963 2a34 7C7D1B78 		mr 29,3
 4964 2a38 38A0001E 		li 5,30
 4965 2a3c 3884FFE4 		addi 4,4,-28
 4966              	.LEHB142:
 4967 2a40 48000001 		bl _ZN9GuiButtonC1Eii
 4968              	.LEHE142:
 4969              	.L611:
 4970 2a44 93BC00E4 		stw 29,228(28)
 4971              		.loc 1 119 0
 4972 2a48 7FA3EB78 		mr 3,29
 4973 2a4c 7FE4FB78 		mr 4,31
 4974              	.LEHB143:
 4975 2a50 48000001 		bl _ZN10GuiElement9SetParentEPS_
 4976              		.loc 1 120 0
 4977 2a54 807C00E4 		lwz 3,228(28)
 4978 2a58 38A00000 		li 5,0
 4979 2a5c 809C0108 		lwz 4,264(28)
 4980 2a60 48000001 		bl _ZN9GuiButton8SetLabelEP7GuiTexti
 4981              		.loc 1 121 0
 4982 2a64 807C00E4 		lwz 3,228(28)
 4983 2a68 38A00001 		li 5,1
 4984 2a6c 809C0090 		lwz 4,144(28)
 4985 2a70 48000001 		bl _ZN9GuiButton8SetLabelEP7GuiTexti
 4986              		.loc 1 122 0
 4987 2a74 807C00E4 		lwz 3,228(28)
 4988 2a78 809C012C 		lwz 4,300(28)
 4989 2a7c 48000001 		bl _ZN9GuiButton12SetImageOverEP8GuiImage
 4990              		.loc 1 123 0
 4991 2a80 807C00E4 		lwz 3,228(28)
 4992 2a84 38800005 		li 4,5
 4993 2a88 7FC5F378 		mr 5,30
 4994 2a8c 48000001 		bl _ZN10GuiElement11SetPositionEii
 4995              		.loc 1 124 0
 4996 2a90 807C00E4 		lwz 3,228(28)
 4997 2a94 38800000 		li 4,0
 4998 2a98 48000001 		bl _ZN10GuiElement9SetRumbleEb
 4999              		.loc 1 125 0
 5000 2a9c 807C00E4 		lwz 3,228(28)
 5001 2aa0 809F01B0 		lwz 4,432(31)
 5002 2aa4 48000001 		bl _ZN10GuiElement10SetTriggerEP10GuiTrigger
 5003              		.loc 1 126 0
 5004 2aa8 807C00E4 		lwz 3,228(28)
 5005 2aac 809F01AC 		lwz 4,428(31)
 5006 2ab0 48000001 		bl _ZN9GuiButton13SetSoundClickEP8GuiSound
 5007              	.LBE76:
 5008              		.loc 1 106 0
 5009 2ab4 2F9B0008 		cmpwi 7,27,8
 5010 2ab8 3B9C0004 		addi 28,28,4
 5011 2abc 3BDE001E 		addi 30,30,30
 5012 2ac0 3B7B0001 		addi 27,27,1
 5013 2ac4 409EFE70 		bne+ 7,.L603
 5014              	.LBE75:
 5015              	.LBE74:
 5016              		.loc 1 128 0
 5017 2ac8 80010034 		lwz 0,52(1)
 5018 2acc 83010010 		lwz 24,16(1)
 5019 2ad0 83210014 		lwz 25,20(1)
 5020 2ad4 7C0803A6 		mtlr 0
 5021 2ad8 83410018 		lwz 26,24(1)
 5022 2adc 8361001C 		lwz 27,28(1)
 5023              	.LVL212:
 5024 2ae0 83810020 		lwz 28,32(1)
 5025 2ae4 83A10024 		lwz 29,36(1)
 5026 2ae8 83C10028 		lwz 30,40(1)
 5027 2aec 83E1002C 		lwz 31,44(1)
 5028              	.LVL213:
 5029 2af0 38210030 		addi 1,1,48
 5030 2af4 4E800020 		blr
 5031              	.LVL214:
 5032              	.L674:
 5033              	.LBB77:
 5034              		.loc 1 48 0
 5035 2af8 3860000C 		li 3,12
 5036 2afc 48000001 		bl _Znwj
 5037              	.LEHE143:
 5038 2b00 3C800000 		lis 4,scrollbar_png@ha
 5039 2b04 7C7E1B78 		mr 30,3
 5040 2b08 38840000 		la 4,scrollbar_png@l(4)
 5041 2b0c 38A00000 		li 5,0
 5042              	.LEHB144:
 5043 2b10 48000001 		bl _ZN12GuiImageDataC1EPKhb
 5044              	.LEHE144:
 5045              	.L570:
 5046 2b14 93DF018C 		stw 30,396(31)
 5047              		.loc 1 49 0
 5048 2b18 386000A8 		li 3,168
 5049              	.LEHB145:
 5050 2b1c 48000001 		bl _Znwj
 5051              	.LEHE145:
 5052 2b20 7C7E1B78 		mr 30,3
 5053 2b24 809F018C 		lwz 4,396(31)
 5054              	.LEHB146:
 5055 2b28 48000001 		bl _ZN8GuiImageC1EP12GuiImageData
 5056              	.LEHE146:
 5057              	.L572:
 5058 2b2c 93DF0164 		stw 30,356(31)
 5059              		.loc 1 50 0
 5060 2b30 7FC3F378 		mr 3,30
 5061 2b34 7FE4FB78 		mr 4,31
 5062              	.LEHB147:
 5063 2b38 48000001 		bl _ZN10GuiElement9SetParentEPS_
 5064              		.loc 1 51 0
 5065 2b3c 807F0164 		lwz 3,356(31)
 5066 2b40 38800001 		li 4,1
 5067 2b44 38A00003 		li 5,3
 5068 2b48 81230000 		lwz 9,0(3)
 5069 2b4c 81290014 		lwz 9,20(9)
 5070 2b50 7D2903A6 		mtctr 9
 5071 2b54 4E800421 		bctrl
 5072              		.loc 1 52 0
 5073 2b58 807F0164 		lwz 3,356(31)
 5074 2b5c 38800000 		li 4,0
 5075 2b60 38A00004 		li 5,4
 5076 2b64 48000001 		bl _ZN10GuiElement11SetPositionEii
 5077              		.loc 1 54 0
 5078 2b68 3860000C 		li 3,12
 5079 2b6c 48000001 		bl _Znwj
 5080              	.LEHE147:
 5081 2b70 3D200000 		lis 9,scrollbar_arrowdown_png@ha
 5082 2b74 7C7E1B78 		mr 30,3
 5083 2b78 3BA90000 		la 29,scrollbar_arrowdown_png@l(9)
 5084 2b7c 38A00000 		li 5,0
 5085 2b80 7FA4EB78 		mr 4,29
 5086              	.LEHB148:
 5087 2b84 48000001 		bl _ZN12GuiImageDataC1EPKhb
 5088              	.LEHE148:
 5089              	.L574:
 5090 2b88 93DF0190 		stw 30,400(31)
 5091              		.loc 1 55 0
 5092 2b8c 386000A8 		li 3,168
 5093              	.LEHB149:
 5094 2b90 48000001 		bl _Znwj
 5095              	.LEHE149:
 5096 2b94 7C7E1B78 		mr 30,3
 5097 2b98 809F0190 		lwz 4,400(31)
 5098              	.LEHB150:
 5099 2b9c 48000001 		bl _ZN8GuiImageC1EP12GuiImageData
 5100              	.LEHE150:
 5101              	.L576:
 5102 2ba0 93DF0168 		stw 30,360(31)
 5103              		.loc 1 56 0
 5104 2ba4 3860000C 		li 3,12
 5105              	.LEHB151:
 5106 2ba8 48000001 		bl _Znwj
 5107              	.LEHE151:
 5108 2bac 7C7E1B78 		mr 30,3
 5109 2bb0 7FA4EB78 		mr 4,29
 5110 2bb4 38A00000 		li 5,0
 5111              	.LEHB152:
 5112 2bb8 48000001 		bl _ZN12GuiImageDataC1EPKhb
 5113              	.LEHE152:
 5114              	.L578:
 5115 2bbc 93DF0194 		stw 30,404(31)
 5116              		.loc 1 57 0
 5117 2bc0 386000A8 		li 3,168
 5118              	.LEHB153:
 5119 2bc4 48000001 		bl _Znwj
 5120              	.LEHE153:
 5121 2bc8 7C7E1B78 		mr 30,3
 5122 2bcc 809F0194 		lwz 4,404(31)
 5123              	.LEHB154:
 5124 2bd0 48000001 		bl _ZN8GuiImageC1EP12GuiImageData
 5125              	.LEHE154:
 5126              	.L580:
 5127 2bd4 93DF016C 		stw 30,364(31)
 5128              		.loc 1 58 0
 5129 2bd8 3860000C 		li 3,12
 5130              	.LEHB155:
 5131 2bdc 48000001 		bl _Znwj
 5132              	.LEHE155:
 5133 2be0 3D200000 		lis 9,scrollbar_arrowup_png@ha
 5134 2be4 7C7E1B78 		mr 30,3
 5135 2be8 3BA90000 		la 29,scrollbar_arrowup_png@l(9)
 5136 2bec 38A00000 		li 5,0
 5137 2bf0 7FA4EB78 		mr 4,29
 5138              	.LEHB156:
 5139 2bf4 48000001 		bl _ZN12GuiImageDataC1EPKhb
 5140              	.LEHE156:
 5141              	.L582:
 5142 2bf8 93DF0198 		stw 30,408(31)
 5143              		.loc 1 59 0
 5144 2bfc 386000A8 		li 3,168
 5145              	.LEHB157:
 5146 2c00 48000001 		bl _Znwj
 5147              	.LEHE157:
 5148 2c04 7C7E1B78 		mr 30,3
 5149 2c08 809F0198 		lwz 4,408(31)
 5150              	.LEHB158:
 5151 2c0c 48000001 		bl _ZN8GuiImageC1EP12GuiImageData
 5152              	.LEHE158:
 5153              	.L584:
 5154 2c10 93DF0170 		stw 30,368(31)
 5155              		.loc 1 60 0
 5156 2c14 3860000C 		li 3,12
 5157              	.LEHB159:
 5158 2c18 48000001 		bl _Znwj
 5159              	.LEHE159:
 5160 2c1c 7C7E1B78 		mr 30,3
 5161 2c20 7FA4EB78 		mr 4,29
 5162 2c24 38A00000 		li 5,0
 5163              	.LEHB160:
 5164 2c28 48000001 		bl _ZN12GuiImageDataC1EPKhb
 5165              	.LEHE160:
 5166              	.L586:
 5167 2c2c 93DF019C 		stw 30,412(31)
 5168              		.loc 1 61 0
 5169 2c30 386000A8 		li 3,168
 5170              	.LEHB161:
 5171 2c34 48000001 		bl _Znwj
 5172              	.LEHE161:
 5173 2c38 7C7E1B78 		mr 30,3
 5174 2c3c 809F019C 		lwz 4,412(31)
 5175              	.LEHB162:
 5176 2c40 48000001 		bl _ZN8GuiImageC1EP12GuiImageData
 5177              	.LEHE162:
 5178              	.L588:
 5179 2c44 93DF0174 		stw 30,372(31)
 5180              		.loc 1 62 0
 5181 2c48 3860000C 		li 3,12
 5182              	.LEHB163:
 5183 2c4c 48000001 		bl _Znwj
 5184              	.LEHE163:
 5185 2c50 3D200000 		lis 9,scrollbar_box_png@ha
 5186 2c54 7C7E1B78 		mr 30,3
 5187 2c58 3BA90000 		la 29,scrollbar_box_png@l(9)
 5188 2c5c 38A00000 		li 5,0
 5189 2c60 7FA4EB78 		mr 4,29
 5190              	.LEHB164:
 5191 2c64 48000001 		bl _ZN12GuiImageDataC1EPKhb
 5192              	.LEHE164:
 5193              	.L590:
 5194 2c68 93DF01A0 		stw 30,416(31)
 5195              		.loc 1 63 0
 5196 2c6c 386000A8 		li 3,168
 5197              	.LEHB165:
 5198 2c70 48000001 		bl _Znwj
 5199              	.LEHE165:
 5200 2c74 7C7E1B78 		mr 30,3
 5201 2c78 809F01A0 		lwz 4,416(31)
 5202              	.LEHB166:
 5203 2c7c 48000001 		bl _ZN8GuiImageC1EP12GuiImageData
 5204              	.LEHE166:
 5205              	.L592:
 5206 2c80 93DF0178 		stw 30,376(31)
 5207              		.loc 1 64 0
 5208 2c84 3860000C 		li 3,12
 5209              	.LEHB167:
 5210 2c88 48000001 		bl _Znwj
 5211              	.LEHE167:
 5212 2c8c 7C7E1B78 		mr 30,3
 5213 2c90 7FA4EB78 		mr 4,29
 5214 2c94 38A00000 		li 5,0
 5215              	.LEHB168:
 5216 2c98 48000001 		bl _ZN12GuiImageDataC1EPKhb
 5217              	.LEHE168:
 5218              	.L594:
 5219 2c9c 93DF01A4 		stw 30,420(31)
 5220              		.loc 1 65 0
 5221 2ca0 386000A8 		li 3,168
 5222              	.LEHB169:
 5223 2ca4 48000001 		bl _Znwj
 5224              	.LEHE169:
 5225 2ca8 7C7E1B78 		mr 30,3
 5226 2cac 809F01A4 		lwz 4,420(31)
 5227              	.LEHB170:
 5228 2cb0 48000001 		bl _ZN8GuiImageC1EP12GuiImageData
 5229              	.LEHE170:
 5230              	.L596:
 5231 2cb4 93DF017C 		stw 30,380(31)
 5232              		.loc 1 67 0
 5233 2cb8 807F0170 		lwz 3,368(31)
 5234              	.LEHB171:
 5235 2cbc 48000001 		bl _ZN10GuiElement8GetWidthEv
 5236 2cc0 7C7C1B78 		mr 28,3
 5237 2cc4 807F0170 		lwz 3,368(31)
 5238 2cc8 48000001 		bl _ZN10GuiElement9GetHeightEv
 5239 2ccc 7C7D1B78 		mr 29,3
 5240 2cd0 386000FC 		li 3,252
 5241 2cd4 48000001 		bl _Znwj
 5242              	.LEHE171:
 5243 2cd8 7C7E1B78 		mr 30,3
 5244 2cdc 7F84E378 		mr 4,28
 5245 2ce0 7FA5EB78 		mr 5,29
 5246              	.LEHB172:
 5247 2ce4 48000001 		bl _ZN9GuiButtonC1Eii
 5248              	.LEHE172:
 5249 2ce8 93DF0150 		stw 30,336(31)
 5250              		.loc 1 68 0
 5251 2cec 7FC3F378 		mr 3,30
 5252 2cf0 7FE4FB78 		mr 4,31
 5253              	.LEHB173:
 5254 2cf4 48000001 		bl _ZN10GuiElement9SetParentEPS_
 5255              		.loc 1 69 0
 5256 2cf8 807F0150 		lwz 3,336(31)
 5257 2cfc 809F0170 		lwz 4,368(31)
 5258 2d00 48000001 		bl _ZN9GuiButton8SetImageEP8GuiImage
 5259              		.loc 1 70 0
 5260 2d04 807F0150 		lwz 3,336(31)
 5261 2d08 809F0174 		lwz 4,372(31)
 5262 2d0c 48000001 		bl _ZN9GuiButton12SetImageOverEP8GuiImage
 5263              		.loc 1 71 0
 5264 2d10 807F0150 		lwz 3,336(31)
 5265 2d14 809F0174 		lwz 4,372(31)
 5266 2d18 48000001 		bl _ZN9GuiButton12SetImageHoldEP8GuiImage
 5267              		.loc 1 72 0
 5268 2d1c 807F0150 		lwz 3,336(31)
 5269 2d20 38800002 		li 4,2
 5270 2d24 38A00003 		li 5,3
 5271 2d28 81230000 		lwz 9,0(3)
 5272 2d2c 81290014 		lwz 9,20(9)
 5273 2d30 7D2903A6 		mtctr 9
 5274 2d34 4E800421 		bctrl
 5275              		.loc 1 73 0
 5276 2d38 809F000C 		lwz 4,12(31)
 5277 2d3c 38A0FFEE 		li 5,-18
 5278 2d40 807F0150 		lwz 3,336(31)
 5279 2d44 7C840E70 		srawi 4,4,1
 5280 2d48 7C840194 		addze 4,4
 5281 2d4c 3884FFF5 		addi 4,4,-11
 5282 2d50 48000001 		bl _ZN10GuiElement11SetPositionEii
 5283              		.loc 1 74 0
 5284 2d54 807F0150 		lwz 3,336(31)
 5285 2d58 38800000 		li 4,0
 5286 2d5c 48000001 		bl _ZN10GuiElement13SetSelectableEb
 5287              		.loc 1 75 0
 5288 2d60 807F0150 		lwz 3,336(31)
 5289 2d64 809F01B0 		lwz 4,432(31)
 5290 2d68 48000001 		bl _ZN10GuiElement10SetTriggerEP10GuiTrigger
 5291              		.loc 1 76 0
 5292 2d6c 807F0150 		lwz 3,336(31)
 5293 2d70 38800080 		li 4,128
 5294 2d74 38A00032 		li 5,50
 5295 2d78 38C00082 		li 6,130
 5296 2d7c 48000001 		bl _ZN10GuiElement15SetEffectOnOverEiii
 5297              		.loc 1 77 0
 5298 2d80 807F0150 		lwz 3,336(31)
 5299 2d84 809F01AC 		lwz 4,428(31)
 5300 2d88 48000001 		bl _ZN9GuiButton13SetSoundClickEP8GuiSound
 5301              		.loc 1 79 0
 5302 2d8c 807F0168 		lwz 3,360(31)
 5303 2d90 48000001 		bl _ZN10GuiElement8GetWidthEv
 5304 2d94 7C7C1B78 		mr 28,3
 5305 2d98 807F0168 		lwz 3,360(31)
 5306 2d9c 48000001 		bl _ZN10GuiElement9GetHeightEv
 5307 2da0 7C7D1B78 		mr 29,3
 5308 2da4 386000FC 		li 3,252
 5309 2da8 48000001 		bl _Znwj
 5310              	.LEHE173:
 5311 2dac 7C7E1B78 		mr 30,3
 5312 2db0 7F84E378 		mr 4,28
 5313 2db4 7FA5EB78 		mr 5,29
 5314              	.LEHB174:
 5315 2db8 48000001 		bl _ZN9GuiButtonC1Eii
 5316              	.LEHE174:
 5317              	.L600:
 5318 2dbc 93DF0154 		stw 30,340(31)
 5319              		.loc 1 80 0
 5320 2dc0 7FC3F378 		mr 3,30
 5321 2dc4 7FE4FB78 		mr 4,31
 5322              	.LEHB175:
 5323 2dc8 48000001 		bl _ZN10GuiElement9SetParentEPS_
 5324              		.loc 1 81 0
 5325 2dcc 807F0154 		lwz 3,340(31)
 5326 2dd0 809F0168 		lwz 4,360(31)
 5327 2dd4 48000001 		bl _ZN9GuiButton8SetImageEP8GuiImage
 5328              		.loc 1 82 0
 5329 2dd8 807F0154 		lwz 3,340(31)
 5330 2ddc 809F016C 		lwz 4,364(31)
 5331 2de0 48000001 		bl _ZN9GuiButton12SetImageOverEP8GuiImage
 5332              		.loc 1 83 0
 5333 2de4 807F0154 		lwz 3,340(31)
 5334 2de8 809F016C 		lwz 4,364(31)
 5335 2dec 48000001 		bl _ZN9GuiButton12SetImageHoldEP8GuiImage
 5336              		.loc 1 84 0
 5337 2df0 807F0154 		lwz 3,340(31)
 5338 2df4 38800002 		li 4,2
 5339 2df8 38A00004 		li 5,4
 5340 2dfc 81230000 		lwz 9,0(3)
 5341 2e00 81290014 		lwz 9,20(9)
 5342 2e04 7D2903A6 		mtctr 9
 5343 2e08 4E800421 		bctrl
 5344              		.loc 1 85 0
 5345 2e0c 809F000C 		lwz 4,12(31)
 5346 2e10 38A00012 		li 5,18
 5347 2e14 807F0154 		lwz 3,340(31)
 5348 2e18 7C840E70 		srawi 4,4,1
 5349 2e1c 7C840194 		addze 4,4
 5350 2e20 3884FFF5 		addi 4,4,-11
 5351 2e24 48000001 		bl _ZN10GuiElement11SetPositionEii
 5352              		.loc 1 86 0
 5353 2e28 807F0154 		lwz 3,340(31)
 5354 2e2c 38800000 		li 4,0
 5355 2e30 48000001 		bl _ZN10GuiElement13SetSelectableEb
 5356              		.loc 1 87 0
 5357 2e34 807F0154 		lwz 3,340(31)
 5358 2e38 809F01B0 		lwz 4,432(31)
 5359 2e3c 48000001 		bl _ZN10GuiElement10SetTriggerEP10GuiTrigger
 5360              		.loc 1 88 0
 5361 2e40 807F0154 		lwz 3,340(31)
 5362 2e44 38800080 		li 4,128
 5363 2e48 38A00032 		li 5,50
 5364 2e4c 38C00082 		li 6,130
 5365 2e50 48000001 		bl _ZN10GuiElement15SetEffectOnOverEiii
 5366              		.loc 1 89 0
 5367 2e54 807F0154 		lwz 3,340(31)
 5368 2e58 809F01AC 		lwz 4,428(31)
 5369 2e5c 48000001 		bl _ZN9GuiButton13SetSoundClickEP8GuiSound
 5370              		.loc 1 91 0
 5371 2e60 807F0178 		lwz 3,376(31)
 5372 2e64 48000001 		bl _ZN10GuiElement8GetWidthEv
 5373 2e68 7C7C1B78 		mr 28,3
 5374 2e6c 807F0178 		lwz 3,376(31)
 5375 2e70 48000001 		bl _ZN10GuiElement9GetHeightEv
 5376 2e74 7C7D1B78 		mr 29,3
 5377 2e78 386000FC 		li 3,252
 5378 2e7c 48000001 		bl _Znwj
 5379              	.LEHE175:
 5380 2e80 7C7E1B78 		mr 30,3
 5381 2e84 7F84E378 		mr 4,28
 5382 2e88 7FA5EB78 		mr 5,29
 5383              	.LEHB176:
 5384 2e8c 48000001 		bl _ZN9GuiButtonC1Eii
 5385              	.LEHE176:
 5386              	.L602:
 5387 2e90 93DF0158 		stw 30,344(31)
 5388              		.loc 1 92 0
 5389 2e94 7FC3F378 		mr 3,30
 5390 2e98 7FE4FB78 		mr 4,31
 5391              	.LEHB177:
 5392 2e9c 48000001 		bl _ZN10GuiElement9SetParentEPS_
 5393              		.loc 1 93 0
 5394 2ea0 807F0158 		lwz 3,344(31)
 5395 2ea4 809F0178 		lwz 4,376(31)
 5396 2ea8 48000001 		bl _ZN9GuiButton8SetImageEP8GuiImage
 5397              		.loc 1 94 0
 5398 2eac 807F0158 		lwz 3,344(31)
 5399 2eb0 809F017C 		lwz 4,380(31)
 5400 2eb4 48000001 		bl _ZN9GuiButton12SetImageOverEP8GuiImage
 5401              		.loc 1 95 0
 5402 2eb8 807F0158 		lwz 3,344(31)
 5403 2ebc 809F017C 		lwz 4,380(31)
 5404 2ec0 48000001 		bl _ZN9GuiButton12SetImageHoldEP8GuiImage
 5405              		.loc 1 96 0
 5406 2ec4 807F0158 		lwz 3,344(31)
 5407 2ec8 38800002 		li 4,2
 5408 2ecc 38A00003 		li 5,3
 5409 2ed0 81230000 		lwz 9,0(3)
 5410 2ed4 81290014 		lwz 9,20(9)
 5411 2ed8 7D2903A6 		mtctr 9
 5412 2edc 4E800421 		bctrl
 5413              		.loc 1 97 0
 5414 2ee0 807F0158 		lwz 3,344(31)
 5415 2ee4 38800000 		li 4,0
 5416 2ee8 48000001 		bl _ZN10GuiElement13SetSelectableEb
 5417              		.loc 1 98 0
 5418 2eec 807F0158 		lwz 3,344(31)
 5419 2ef0 38800080 		li 4,128
 5420 2ef4 38A00032 		li 5,50
 5421 2ef8 38C00078 		li 6,120
 5422 2efc 48000001 		bl _ZN10GuiElement15SetEffectOnOverEiii
 5423              		.loc 1 99 0
 5424 2f00 807F0158 		lwz 3,344(31)
 5425 2f04 38800000 		li 4,0
 5426 2f08 48000001 		bl _ZN10GuiElement7SetMinYEi
 5427              		.loc 1 100 0
 5428 2f0c 807F0158 		lwz 3,344(31)
 5429 2f10 809F0010 		lwz 4,16(31)
 5430 2f14 48000001 		bl _ZN10GuiElement7SetMaxYEi
 5431              		.loc 1 101 0
 5432 2f18 807F0158 		lwz 3,344(31)
 5433 2f1c 38800001 		li 4,1
 5434 2f20 48000001 		bl _ZN10GuiElement11SetHoldableEb
 5435              		.loc 1 102 0
 5436 2f24 807F0158 		lwz 3,344(31)
 5437 2f28 809F01B8 		lwz 4,440(31)
 5438 2f2c 48000001 		bl _ZN10GuiElement10SetTriggerEP10GuiTrigger
 5439              	.LEHE177:
 5440 2f30 4BFFF9F4 		b .L567
 5441              	.L635:
 5442              	.L673:
 5443              	.L598:
 5444 2f34 7C7C1B78 		mr 28,3
 5445              		.loc 1 67 0
 5446 2f38 7FC3F378 		mr 3,30
 5447 2f3c 48000001 		bl _ZdlPv
 5448              	.LVL215:
 5449              	.L613:
 5450              		.loc 1 128 0
 5451 2f40 7FE3FB78 		mr 3,31
 5452 2f44 48000001 		bl _ZN10GuiElementD2Ev
 5453 2f48 7F83E378 		mr 3,28
 5454              	.LEHB178:
 5455 2f4c 48000001 		bl _Unwind_Resume
 5456              	.LEHE178:
 5457              	.LVL216:
 5458              	.L636:
 5459 2f50 4BFFFFE4 		b .L673
 5460              	.L637:
 5461              	.LVL217:
 5462              	.L672:
 5463              	.L558:
 5464 2f54 7C7C1B78 		mr 28,3
 5465              		.loc 1 36 0
 5466 2f58 7FA3EB78 		mr 3,29
 5467 2f5c 48000001 		bl _ZdlPv
 5468 2f60 4BFFFFE0 		b .L613
 5469              	.LVL218:
 5470              	.L638:
 5471 2f64 4BFFFFD0 		b .L673
 5472              	.L639:
 5473 2f68 4BFFFFCC 		b .L673
 5474              	.L640:
 5475 2f6c 4BFFFFE8 		b .L672
 5476              	.L641:
 5477 2f70 4BFFFFE4 		b .L672
 5478              	.LVL219:
 5479              	.L642:
 5480 2f74 7C7C1B78 		mr 28,3
 5481 2f78 4BFFFFC8 		b .L613
 5482              	.LVL220:
 5483              	.L615:
 5484 2f7c 4BFFFFD8 		b .L672
 5485              	.L616:
 5486 2f80 4BFFFFD4 		b .L672
 5487              	.L617:
 5488 2f84 4BFFFFD0 		b .L672
 5489              	.L618:
 5490 2f88 4BFFFFCC 		b .L672
 5491              	.LVL221:
 5492              	.L619:
 5493 2f8c 4BFFFFA8 		b .L673
 5494              	.L620:
 5495 2f90 4BFFFFA4 		b .L673
 5496              	.L621:
 5497 2f94 4BFFFFA0 		b .L673
 5498              	.L622:
 5499 2f98 4BFFFF9C 		b .L673
 5500              	.L623:
 5501 2f9c 4BFFFF98 		b .L673
 5502              	.L624:
 5503 2fa0 4BFFFF94 		b .L673
 5504              	.L625:
 5505 2fa4 4BFFFF90 		b .L673
 5506              	.L626:
 5507 2fa8 4BFFFF8C 		b .L673
 5508              	.L627:
 5509 2fac 4BFFFF88 		b .L673
 5510              	.L628:
 5511 2fb0 4BFFFF84 		b .L673
 5512              	.L629:
 5513 2fb4 4BFFFF80 		b .L673
 5514              	.L630:
 5515 2fb8 4BFFFF7C 		b .L673
 5516              	.L631:
 5517 2fbc 4BFFFF78 		b .L673
 5518              	.L632:
 5519 2fc0 4BFFFF74 		b .L673
 5520              	.L633:
 5521 2fc4 4BFFFF70 		b .L673
 5522              	.L634:
 5523 2fc8 4BFFFF6C 		b .L673
 5524              	.LBE77:
 5525              	.LFE793:
 5526              		.size	_ZN16GuiOptionBrowserC1EiiP11_optionlistPKhi, .-_ZN16GuiOptionBrowserC1EiiP11_optionlistPKhi
 5527              		.section	.gcc_except_table
 5528              	.LLSDA793:
 5529 02ee FF       		.byte	0xff
 5530 02ef FF       		.byte	0xff
 5531 02f0 01       		.byte	0x1
 5532 02f1 D702     		.uleb128 .LLSDACSE793-.LLSDACSB793
 5533              	.LLSDACSB793:
 5534 02f3 48       		.uleb128 .LEHB122-.LFB793
 5535 02f4 04       		.uleb128 .LEHE122-.LEHB122
 5536 02f5 00       		.uleb128 0x0
 5537 02f6 00       		.uleb128 0x0
 5538 02f7 A401     		.uleb128 .LEHB123-.LFB793
 5539 02f9 04       		.uleb128 .LEHE123-.LEHB123
 5540 02fa F40F     		.uleb128 .L642-.LFB793
 5541 02fc 00       		.uleb128 0x0
 5542 02fd AC01     		.uleb128 .LEHB124-.LFB793
 5543 02ff 04       		.uleb128 .LEHE124-.LEHB124
 5544 0300 F00F     		.uleb128 .L641-.LFB793
 5545 0302 00       		.uleb128 0x0
 5546 0303 C801     		.uleb128 .LEHB125-.LFB793
 5547 0305 0C       		.uleb128 .LEHE125-.LEHB125
 5548 0306 F40F     		.uleb128 .L642-.LFB793
 5549 0308 00       		.uleb128 0x0
 5550 0309 D801     		.uleb128 .LEHB126-.LFB793
 5551 030b 04       		.uleb128 .LEHE126-.LEHB126
 5552 030c EC0F     		.uleb128 .L640-.LFB793
 5553 030e 00       		.uleb128 0x0
 5554 030f F001     		.uleb128 .LEHB127-.LFB793
 5555 0311 0C       		.uleb128 .LEHE127-.LEHB127
 5556 0312 F40F     		.uleb128 .L642-.LFB793
 5557 0314 00       		.uleb128 0x0
 5558 0315 9402     		.uleb128 .LEHB128-.LFB793
 5559 0317 04       		.uleb128 .LEHE128-.LEHB128
 5560 0318 E80F     		.uleb128 .L639-.LFB793
 5561 031a 00       		.uleb128 0x0
 5562 031b A002     		.uleb128 .LEHB129-.LFB793
 5563 031d 04       		.uleb128 .LEHE129-.LEHB129
 5564 031e F40F     		.uleb128 .L642-.LFB793
 5565 0320 00       		.uleb128 0x0
 5566 0321 B002     		.uleb128 .LEHB130-.LFB793
 5567 0323 04       		.uleb128 .LEHE130-.LEHB130
 5568 0324 E40F     		.uleb128 .L638-.LFB793
 5569 0326 00       		.uleb128 0x0
 5570 0327 BC02     		.uleb128 .LEHB131-.LFB793
 5571 0329 04       		.uleb128 .LEHE131-.LEHB131
 5572 032a F40F     		.uleb128 .L642-.LFB793
 5573 032c 00       		.uleb128 0x0
 5574 032d C802     		.uleb128 .LEHB132-.LFB793
 5575 032f 04       		.uleb128 .LEHE132-.LEHB132
 5576 0330 D40F     		.uleb128 .L637-.LFB793
 5577 0332 00       		.uleb128 0x0
 5578 0333 D802     		.uleb128 .LEHB133-.LFB793
 5579 0335 28       		.uleb128 .LEHE133-.LEHB133
 5580 0336 F40F     		.uleb128 .L642-.LFB793
 5581 0338 00       		.uleb128 0x0
 5582 0339 9003     		.uleb128 .LEHB134-.LFB793
 5583 033b 04       		.uleb128 .LEHE134-.LEHB134
 5584 033c D00F     		.uleb128 .L636-.LFB793
 5585 033e 00       		.uleb128 0x0
 5586 033f D003     		.uleb128 .LEHB135-.LFB793
 5587 0341 04       		.uleb128 .LEHE135-.LEHB135
 5588 0342 F40F     		.uleb128 .L642-.LFB793
 5589 0344 00       		.uleb128 0x0
 5590 0345 F403     		.uleb128 .LEHB136-.LFB793
 5591 0347 04       		.uleb128 .LEHE136-.LEHB136
 5592 0348 8810     		.uleb128 .L618-.LFB793
 5593 034a 00       		.uleb128 0x0
 5594 034b 9404     		.uleb128 .LEHB137-.LFB793
 5595 034d 1C       		.uleb128 .LEHE137-.LEHB137
 5596 034e F40F     		.uleb128 .L642-.LFB793
 5597 0350 00       		.uleb128 0x0
 5598 0351 B804     		.uleb128 .LEHB138-.LFB793
 5599 0353 04       		.uleb128 .LEHE138-.LEHB138
 5600 0354 8410     		.uleb128 .L617-.LFB793
 5601 0356 00       		.uleb128 0x0
 5602 0357 DC04     		.uleb128 .LEHB139-.LFB793
 5603 0359 04       		.uleb128 .LEHE139-.LEHB139
 5604 035a F40F     		.uleb128 .L642-.LFB793
 5605 035c 00       		.uleb128 0x0
 5606 035d F404     		.uleb128 .LEHB140-.LFB793
 5607 035f 04       		.uleb128 .LEHE140-.LEHB140
 5608 0360 8010     		.uleb128 .L616-.LFB793
 5609 0362 00       		.uleb128 0x0
 5610 0363 9405     		.uleb128 .LEHB141-.LFB793
 5611 0365 1C       		.uleb128 .LEHE141-.LEHB141
 5612 0366 F40F     		.uleb128 .L642-.LFB793
 5613 0368 00       		.uleb128 0x0
 5614 0369 C005     		.uleb128 .LEHB142-.LFB793
 5615 036b 04       		.uleb128 .LEHE142-.LEHB142
 5616 036c FC0F     		.uleb128 .L615-.LFB793
 5617 036e 00       		.uleb128 0x0
 5618 036f D005     		.uleb128 .LEHB143-.LFB793
 5619 0371 B001     		.uleb128 .LEHE143-.LEHB143
 5620 0373 F40F     		.uleb128 .L642-.LFB793
 5621 0375 00       		.uleb128 0x0
 5622 0376 9007     		.uleb128 .LEHB144-.LFB793
 5623 0378 04       		.uleb128 .LEHE144-.LEHB144
 5624 0379 B40F     		.uleb128 .L635-.LFB793
 5625 037b 00       		.uleb128 0x0
 5626 037c 9C07     		.uleb128 .LEHB145-.LFB793
 5627 037e 04       		.uleb128 .LEHE145-.LEHB145
 5628 037f F40F     		.uleb128 .L642-.LFB793
 5629 0381 00       		.uleb128 0x0
 5630 0382 A807     		.uleb128 .LEHB146-.LFB793
 5631 0384 04       		.uleb128 .LEHE146-.LEHB146
 5632 0385 C810     		.uleb128 .L634-.LFB793
 5633 0387 00       		.uleb128 0x0
 5634 0388 B807     		.uleb128 .LEHB147-.LFB793
 5635 038a 38       		.uleb128 .LEHE147-.LEHB147
 5636 038b F40F     		.uleb128 .L642-.LFB793
 5637 038d 00       		.uleb128 0x0
 5638 038e 8408     		.uleb128 .LEHB148-.LFB793
 5639 0390 04       		.uleb128 .LEHE148-.LEHB148
 5640 0391 C410     		.uleb128 .L633-.LFB793
 5641 0393 00       		.uleb128 0x0
 5642 0394 9008     		.uleb128 .LEHB149-.LFB793
 5643 0396 04       		.uleb128 .LEHE149-.LEHB149
 5644 0397 F40F     		.uleb128 .L642-.LFB793
 5645 0399 00       		.uleb128 0x0
 5646 039a 9C08     		.uleb128 .LEHB150-.LFB793
 5647 039c 04       		.uleb128 .LEHE150-.LEHB150
 5648 039d C010     		.uleb128 .L632-.LFB793
 5649 039f 00       		.uleb128 0x0
 5650 03a0 A808     		.uleb128 .LEHB151-.LFB793
 5651 03a2 04       		.uleb128 .LEHE151-.LEHB151
 5652 03a3 F40F     		.uleb128 .L642-.LFB793
 5653 03a5 00       		.uleb128 0x0
 5654 03a6 B808     		.uleb128 .LEHB152-.LFB793
 5655 03a8 04       		.uleb128 .LEHE152-.LEHB152
 5656 03a9 BC10     		.uleb128 .L631-.LFB793
 5657 03ab 00       		.uleb128 0x0
 5658 03ac C408     		.uleb128 .LEHB153-.LFB793
 5659 03ae 04       		.uleb128 .LEHE153-.LEHB153
 5660 03af F40F     		.uleb128 .L642-.LFB793
 5661 03b1 00       		.uleb128 0x0
 5662 03b2 D008     		.uleb128 .LEHB154-.LFB793
 5663 03b4 04       		.uleb128 .LEHE154-.LEHB154
 5664 03b5 B810     		.uleb128 .L630-.LFB793
 5665 03b7 00       		.uleb128 0x0
 5666 03b8 DC08     		.uleb128 .LEHB155-.LFB793
 5667 03ba 04       		.uleb128 .LEHE155-.LEHB155
 5668 03bb F40F     		.uleb128 .L642-.LFB793
 5669 03bd 00       		.uleb128 0x0
 5670 03be F408     		.uleb128 .LEHB156-.LFB793
 5671 03c0 04       		.uleb128 .LEHE156-.LEHB156
 5672 03c1 B410     		.uleb128 .L629-.LFB793
 5673 03c3 00       		.uleb128 0x0
 5674 03c4 8009     		.uleb128 .LEHB157-.LFB793
 5675 03c6 04       		.uleb128 .LEHE157-.LEHB157
 5676 03c7 F40F     		.uleb128 .L642-.LFB793
 5677 03c9 00       		.uleb128 0x0
 5678 03ca 8C09     		.uleb128 .LEHB158-.LFB793
 5679 03cc 04       		.uleb128 .LEHE158-.LEHB158
 5680 03cd B010     		.uleb128 .L628-.LFB793
 5681 03cf 00       		.uleb128 0x0
 5682 03d0 9809     		.uleb128 .LEHB159-.LFB793
 5683 03d2 04       		.uleb128 .LEHE159-.LEHB159
 5684 03d3 F40F     		.uleb128 .L642-.LFB793
 5685 03d5 00       		.uleb128 0x0
 5686 03d6 A809     		.uleb128 .LEHB160-.LFB793
 5687 03d8 04       		.uleb128 .LEHE160-.LEHB160
 5688 03d9 AC10     		.uleb128 .L627-.LFB793
 5689 03db 00       		.uleb128 0x0
 5690 03dc B409     		.uleb128 .LEHB161-.LFB793
 5691 03de 04       		.uleb128 .LEHE161-.LEHB161
 5692 03df F40F     		.uleb128 .L642-.LFB793
 5693 03e1 00       		.uleb128 0x0
 5694 03e2 C009     		.uleb128 .LEHB162-.LFB793
 5695 03e4 04       		.uleb128 .LEHE162-.LEHB162
 5696 03e5 A810     		.uleb128 .L626-.LFB793
 5697 03e7 00       		.uleb128 0x0
 5698 03e8 CC09     		.uleb128 .LEHB163-.LFB793
 5699 03ea 04       		.uleb128 .LEHE163-.LEHB163
 5700 03eb F40F     		.uleb128 .L642-.LFB793
 5701 03ed 00       		.uleb128 0x0
 5702 03ee E409     		.uleb128 .LEHB164-.LFB793
 5703 03f0 04       		.uleb128 .LEHE164-.LEHB164
 5704 03f1 A410     		.uleb128 .L625-.LFB793
 5705 03f3 00       		.uleb128 0x0
 5706 03f4 F009     		.uleb128 .LEHB165-.LFB793
 5707 03f6 04       		.uleb128 .LEHE165-.LEHB165
 5708 03f7 F40F     		.uleb128 .L642-.LFB793
 5709 03f9 00       		.uleb128 0x0
 5710 03fa FC09     		.uleb128 .LEHB166-.LFB793
 5711 03fc 04       		.uleb128 .LEHE166-.LEHB166
 5712 03fd A010     		.uleb128 .L624-.LFB793
 5713 03ff 00       		.uleb128 0x0
 5714 0400 880A     		.uleb128 .LEHB167-.LFB793
 5715 0402 04       		.uleb128 .LEHE167-.LEHB167
 5716 0403 F40F     		.uleb128 .L642-.LFB793
 5717 0405 00       		.uleb128 0x0
 5718 0406 980A     		.uleb128 .LEHB168-.LFB793
 5719 0408 04       		.uleb128 .LEHE168-.LEHB168
 5720 0409 9C10     		.uleb128 .L623-.LFB793
 5721 040b 00       		.uleb128 0x0
 5722 040c A40A     		.uleb128 .LEHB169-.LFB793
 5723 040e 04       		.uleb128 .LEHE169-.LEHB169
 5724 040f F40F     		.uleb128 .L642-.LFB793
 5725 0411 00       		.uleb128 0x0
 5726 0412 B00A     		.uleb128 .LEHB170-.LFB793
 5727 0414 04       		.uleb128 .LEHE170-.LEHB170
 5728 0415 9810     		.uleb128 .L622-.LFB793
 5729 0417 00       		.uleb128 0x0
 5730 0418 BC0A     		.uleb128 .LEHB171-.LFB793
 5731 041a 1C       		.uleb128 .LEHE171-.LEHB171
 5732 041b F40F     		.uleb128 .L642-.LFB793
 5733 041d 00       		.uleb128 0x0
 5734 041e E40A     		.uleb128 .LEHB172-.LFB793
 5735 0420 04       		.uleb128 .LEHE172-.LEHB172
 5736 0421 9410     		.uleb128 .L621-.LFB793
 5737 0423 00       		.uleb128 0x0
 5738 0424 F40A     		.uleb128 .LEHB173-.LFB793
 5739 0426 B801     		.uleb128 .LEHE173-.LEHB173
 5740 0428 F40F     		.uleb128 .L642-.LFB793
 5741 042a 00       		.uleb128 0x0
 5742 042b B80C     		.uleb128 .LEHB174-.LFB793
 5743 042d 04       		.uleb128 .LEHE174-.LEHB174
 5744 042e 9010     		.uleb128 .L620-.LFB793
 5745 0430 00       		.uleb128 0x0
 5746 0431 C80C     		.uleb128 .LEHB175-.LFB793
 5747 0433 B801     		.uleb128 .LEHE175-.LEHB175
 5748 0435 F40F     		.uleb128 .L642-.LFB793
 5749 0437 00       		.uleb128 0x0
 5750 0438 8C0E     		.uleb128 .LEHB176-.LFB793
 5751 043a 04       		.uleb128 .LEHE176-.LEHB176
 5752 043b 8C10     		.uleb128 .L619-.LFB793
 5753 043d 00       		.uleb128 0x0
 5754 043e 9C0E     		.uleb128 .LEHB177-.LFB793
 5755 0440 9401     		.uleb128 .LEHE177-.LEHB177
 5756 0442 F40F     		.uleb128 .L642-.LFB793
 5757 0444 00       		.uleb128 0x0
 5758 0445 CC0F     		.uleb128 .LEHB178-.LFB793
 5759 0447 04       		.uleb128 .LEHE178-.LEHB178
 5760 0448 00       		.uleb128 0x0
 5761 0449 00       		.uleb128 0x0
 5762              	.LLSDACSE793:
 5763              		.section	".text"
 5764              		.align 2
 5765              		.globl _ZN16GuiOptionBrowserC2EiiP11_optionlistPKhi
 5766              		.type	_ZN16GuiOptionBrowserC2EiiP11_optionlistPKhi, @function
 5767              	_ZN16GuiOptionBrowserC2EiiP11_optionlistPKhi:
 5768              	.LFB792:
 5769              		.loc 1 23 0
 5770              	.LVL222:
 5771 2fcc 7C0802A6 		mflr 0
 5772              	.LCFI95:
 5773 2fd0 9421FFD0 		stwu 1,-48(1)
 5774              	.LCFI96:
 5775 2fd4 93010010 		stw 24,16(1)
 5776              	.LCFI97:
 5777 2fd8 7CF83B78 		mr 24,7
 5778 2fdc 93210014 		stw 25,20(1)
 5779              	.LCFI98:
 5780 2fe0 3B200000 		li 25,0
 5781 2fe4 93410018 		stw 26,24(1)
 5782              	.LCFI99:
 5783 2fe8 7D1A4378 		mr 26,8
 5784 2fec 9361001C 		stw 27,28(1)
 5785              	.LCFI100:
 5786 2ff0 7CDB3378 		mr 27,6
 5787 2ff4 93810020 		stw 28,32(1)
 5788              	.LCFI101:
 5789 2ff8 7CBC2B78 		mr 28,5
 5790 2ffc 93A10024 		stw 29,36(1)
 5791              	.LCFI102:
 5792 3000 7C9D2378 		mr 29,4
 5793 3004 93E1002C 		stw 31,44(1)
 5794              	.LCFI103:
 5795 3008 7C7F1B78 		mr 31,3
 5796 300c 90010034 		stw 0,52(1)
 5797              	.LCFI104:
 5798 3010 93C10028 		stw 30,40(1)
 5799              	.LCFI105:
 5800              	.LEHB179:
 5801              	.LBB78:
 5802              		.loc 1 23 0
 5803 3014 48000001 		bl _ZN10GuiElementC2Ev
 5804              	.LEHE179:
 5805              	.LVL223:
 5806 3018 3D200000 		lis 9,_ZTV16GuiOptionBrowser+8@ha
 5807              		.loc 1 26 0
 5808 301c 939F0010 		stw 28,16(31)
 5809              		.loc 1 23 0
 5810 3020 39290008 		la 9,_ZTV16GuiOptionBrowser+8@l(9)
 5811              		.loc 1 29 0
 5812 3024 38000001 		li 0,1
 5813              		.loc 1 23 0
 5814 3028 913F0000 		stw 9,0(31)
 5815              		.loc 1 28 0
 5816 302c 3D200000 		lis 9,.LANCHOR0@ha
 5817 3030 3B890000 		la 28,.LANCHOR0@l(9)
 5818              	.LVL224:
 5819              		.loc 1 25 0
 5820 3034 93BF000C 		stw 29,12(31)
 5821              		.loc 1 29 0
 5822 3038 981F0070 		stb 0,112(31)
 5823              		.loc 1 30 0
 5824 303c 7FE3FB78 		mr 3,31
 5825              		.loc 1 28 0
 5826 3040 935C000C 		stw 26,12(28)
 5827              		.loc 1 30 0
 5828 3044 3880FFFF 		li 4,-1
 5829              		.loc 1 27 0
 5830 3048 937F00BC 		stw 27,188(31)
 5831              		.loc 1 30 0
 5832 304c 38A00001 		li 5,1
 5833 3050 3B400000 		li 26,0
 5834              	.LVL225:
 5835 3054 48000001 		bl _ZN16GuiOptionBrowser12FindMenuItemEii
 5836              		.loc 1 31 0
 5837 3058 38000000 		li 0,0
 5838              		.loc 1 32 0
 5839 305c 39200001 		li 9,1
 5840              		.loc 1 30 0
 5841 3060 907F00B8 		stw 3,184(31)
 5842              		.loc 1 31 0
 5843 3064 901F00B4 		stw 0,180(31)
 5844              		.loc 1 34 0
 5845 3068 38600168 		li 3,360
 5846              		.loc 1 32 0
 5847 306c 913F0008 		stw 9,8(31)
 5848              	.LEHB180:
 5849              		.loc 1 34 0
 5850 3070 48000001 		bl _Znwj
 5851              	.LEHE180:
 5852 3074 7C7D1B78 		mr 29,3
 5853              	.LVL226:
 5854              	.LEHB181:
 5855 3078 48000001 		bl _ZN10GuiTriggerC1Ev
 5856              	.LEHE181:
 5857              	.L677:
 5858 307c 93BF01B0 		stw 29,432(31)
 5859              		.loc 1 35 0
 5860 3080 3CA00010 		lis 5,0x10
 5861 3084 7FA3EB78 		mr 3,29
 5862 3088 60A50008 		ori 5,5,8
 5863 308c 3880FFFF 		li 4,-1
 5864 3090 38C00100 		li 6,256
 5865              	.LEHB182:
 5866 3094 48000001 		bl _ZN10GuiTrigger16SetSimpleTriggerEijt
 5867              		.loc 1 36 0
 5868 3098 38600168 		li 3,360
 5869 309c 48000001 		bl _Znwj
 5870              	.LEHE182:
 5871 30a0 7C7D1B78 		mr 29,3
 5872              	.LEHB183:
 5873 30a4 48000001 		bl _ZN10GuiTriggerC1Ev
 5874              	.LEHE183:
 5875 30a8 93BF01B8 		stw 29,440(31)
 5876              		.loc 1 37 0
 5877 30ac 7FA3EB78 		mr 3,29
 5878 30b0 3880FFFF 		li 4,-1
 5879 30b4 38A00008 		li 5,8
 5880 30b8 38C00100 		li 6,256
 5881              	.LEHB184:
 5882 30bc 48000001 		bl _ZN10GuiTrigger14SetHeldTriggerEijt
 5883              		.loc 1 39 0
 5884 30c0 38600018 		li 3,24
 5885 30c4 48000001 		bl _Znwj
 5886              	.LEHE184:
 5887 30c8 3C800000 		lis 4,button_click_pcm@ha
 5888 30cc 3D200000 		lis 9,button_click_pcm_size@ha
 5889 30d0 7C7E1B78 		mr 30,3
 5890 30d4 38840000 		la 4,button_click_pcm@l(4)
 5891 30d8 80A90000 		lwz 5,button_click_pcm_size@l(9)
 5892 30dc 38C00000 		li 6,0
 5893              	.LEHB185:
 5894 30e0 48000001 		bl _ZN8GuiSoundC1EPKhii
 5895              	.LEHE185:
 5896              	.L681:
 5897 30e4 93DF01AC 		stw 30,428(31)
 5898              		.loc 1 41 0
 5899 30e8 3860000C 		li 3,12
 5900              	.LEHB186:
 5901 30ec 48000001 		bl _Znwj
 5902              	.LEHE186:
 5903 30f0 7C7E1B78 		mr 30,3
 5904 30f4 7F04C378 		mr 4,24
 5905 30f8 38A00000 		li 5,0
 5906              	.LEHB187:
 5907 30fc 48000001 		bl _ZN12GuiImageDataC1EPKhb
 5908              	.LEHE187:
 5909              	.L683:
 5910 3100 93DF0180 		stw 30,384(31)
 5911              		.loc 1 42 0
 5912 3104 386000A8 		li 3,168
 5913              	.LEHB188:
 5914 3108 48000001 		bl _Znwj
 5915              	.LEHE188:
 5916 310c 7C7D1B78 		mr 29,3
 5917 3110 809F0180 		lwz 4,384(31)
 5918              	.LEHB189:
 5919 3114 48000001 		bl _ZN8GuiImageC1EP12GuiImageData
 5920              	.LEHE189:
 5921              	.L685:
 5922 3118 93BF015C 		stw 29,348(31)
 5923              		.loc 1 43 0
 5924 311c 7FA3EB78 		mr 3,29
 5925 3120 7FE4FB78 		mr 4,31
 5926              	.LEHB190:
 5927 3124 48000001 		bl _ZN10GuiElement9SetParentEPS_
 5928              		.loc 1 44 0
 5929 3128 807F015C 		lwz 3,348(31)
 5930 312c 38800000 		li 4,0
 5931 3130 38A00005 		li 5,5
 5932 3134 81230000 		lwz 9,0(3)
 5933 3138 81290014 		lwz 9,20(9)
 5934 313c 7D2903A6 		mtctr 9
 5935 3140 4E800421 		bctrl
 5936              		.loc 1 46 0
 5937 3144 3860000C 		li 3,12
 5938 3148 48000001 		bl _Znwj
 5939              	.LEHE190:
 5940 314c 3C800000 		lis 4,bg_options_entry_png@ha
 5941 3150 7C7E1B78 		mr 30,3
 5942 3154 38840000 		la 4,bg_options_entry_png@l(4)
 5943 3158 38A00000 		li 5,0
 5944              	.LEHB191:
 5945 315c 48000001 		bl _ZN12GuiImageDataC1EPKhb
 5946              	.LEHE191:
 5947              	.L687:
 5948              		.loc 1 47 0
 5949 3160 801C000C 		lwz 0,12(28)
 5950              		.loc 1 46 0
 5951 3164 93DF0188 		stw 30,392(31)
 5952              		.loc 1 47 0
 5953 3168 2F800001 		cmpwi 7,0,1
 5954 316c 419E01D8 		beq- 7,.L795
 5955              	.L688:
 5956              		.loc 1 102 0
 5957 3170 7FFCFB78 		mr 28,31
 5958 3174 3B600000 		li 27,0
 5959              	.LVL227:
 5960 3178 3BC00004 		li 30,4
 5961              	.LBB79:
 5962              	.LBB80:
 5963              		.loc 1 108 0
 5964 317c 3B010008 		addi 24,1,8
 5965              	.LVL228:
 5966              	.L724:
 5967 3180 38000000 		li 0,0
 5968 3184 3920FFFF 		li 9,-1
 5969 3188 5019C00E 		rlwimi 25,0,24,0,7
 5970 318c 386000A4 		li 3,164
 5971 3190 5019821E 		rlwimi 25,0,16,8,15
 5972 3194 5019442E 		rlwimi 25,0,8,16,23
 5973 3198 5139063E 		rlwimi 25,9,0,24,31
 5974              	.LEHB192:
 5975 319c 48000001 		bl _Znwj
 5976              	.LEHE192:
 5977 31a0 801F00BC 		lwz 0,188(31)
 5978 31a4 1C9B003C 		mulli 4,27,60
 5979 31a8 7C7D1B78 		mr 29,3
 5980 31ac 93210008 		stw 25,8(1)
 5981 31b0 7C840214 		add 4,4,0
 5982 31b4 38A00014 		li 5,20
 5983 31b8 38840004 		addi 4,4,4
 5984 31bc 7F06C378 		mr 6,24
 5985              	.LEHB193:
 5986 31c0 48000001 		bl _ZN7GuiTextC1EPKci9_gx_color
 5987              	.LEHE193:
 5988              	.L726:
 5989              		.loc 1 109 0
 5990 31c4 813D0000 		lwz 9,0(29)
 5991 31c8 7FA3EB78 		mr 3,29
 5992              		.loc 1 108 0
 5993 31cc 93BC0108 		stw 29,264(28)
 5994              		.loc 1 109 0
 5995 31d0 38800000 		li 4,0
 5996 31d4 81290014 		lwz 9,20(9)
 5997 31d8 38A00005 		li 5,5
 5998 31dc 7D2903A6 		mtctr 9
 5999              	.LEHB194:
 6000 31e0 4E800421 		bctrl
 6001              		.loc 1 110 0
 6002 31e4 807C0108 		lwz 3,264(28)
 6003 31e8 38800018 		li 4,24
 6004 31ec 38A00000 		li 5,0
 6005 31f0 48000001 		bl _ZN10GuiElement11SetPositionEii
 6006              		.loc 1 112 0
 6007 31f4 386000A8 		li 3,168
 6008 31f8 48000001 		bl _Znwj
 6009              	.LEHE194:
 6010 31fc 7C7D1B78 		mr 29,3
 6011 3200 809F0188 		lwz 4,392(31)
 6012              	.LEHB195:
 6013 3204 48000001 		bl _ZN8GuiImageC1EP12GuiImageData
 6014              	.LEHE195:
 6015              	.L728:
 6016              		.loc 1 114 0
 6017 3208 38000000 		li 0,0
 6018              		.loc 1 112 0
 6019 320c 93BC012C 		stw 29,300(28)
 6020              		.loc 1 114 0
 6021 3210 501AC00E 		rlwimi 26,0,24,0,7
 6022 3214 3920FFFF 		li 9,-1
 6023 3218 501A821E 		rlwimi 26,0,16,8,15
 6024 321c 386000A4 		li 3,164
 6025 3220 501A442E 		rlwimi 26,0,8,16,23
 6026 3224 513A063E 		rlwimi 26,9,0,24,31
 6027              	.LEHB196:
 6028 3228 48000001 		bl _Znwj
 6029              	.LEHE196:
 6030 322c 7C7D1B78 		mr 29,3
 6031 3230 93410008 		stw 26,8(1)
 6032 3234 38800000 		li 4,0
 6033 3238 38A00014 		li 5,20
 6034 323c 7F06C378 		mr 6,24
 6035              	.LEHB197:
 6036 3240 48000001 		bl _ZN7GuiTextC1EPKci9_gx_color
 6037              	.LEHE197:
 6038              	.L730:
 6039              		.loc 1 115 0
 6040 3244 813D0000 		lwz 9,0(29)
 6041 3248 7FA3EB78 		mr 3,29
 6042              		.loc 1 114 0
 6043 324c 93BC0090 		stw 29,144(28)
 6044              		.loc 1 115 0
 6045 3250 38800000 		li 4,0
 6046 3254 81290014 		lwz 9,20(9)
 6047 3258 38A00005 		li 5,5
 6048 325c 7D2903A6 		mtctr 9
 6049              	.LEHB198:
 6050 3260 4E800421 		bctrl
 6051              		.loc 1 116 0
 6052 3264 807C0090 		lwz 3,144(28)
 6053 3268 388000FA 		li 4,250
 6054 326c 38A00000 		li 5,0
 6055 3270 48000001 		bl _ZN10GuiElement11SetPositionEii
 6056              		.loc 1 118 0
 6057 3274 386000FC 		li 3,252
 6058 3278 48000001 		bl _Znwj
 6059              	.LEHE198:
 6060 327c 809F000C 		lwz 4,12(31)
 6061 3280 7C7D1B78 		mr 29,3
 6062 3284 38A0001E 		li 5,30
 6063 3288 3884FFE4 		addi 4,4,-28
 6064              	.LEHB199:
 6065 328c 48000001 		bl _ZN9GuiButtonC1Eii
 6066              	.LEHE199:
 6067              	.L732:
 6068 3290 93BC00E4 		stw 29,228(28)
 6069              		.loc 1 119 0
 6070 3294 7FA3EB78 		mr 3,29
 6071 3298 7FE4FB78 		mr 4,31
 6072              	.LEHB200:
 6073 329c 48000001 		bl _ZN10GuiElement9SetParentEPS_
 6074              		.loc 1 120 0
 6075 32a0 807C00E4 		lwz 3,228(28)
 6076 32a4 38A00000 		li 5,0
 6077 32a8 809C0108 		lwz 4,264(28)
 6078 32ac 48000001 		bl _ZN9GuiButton8SetLabelEP7GuiTexti
 6079              		.loc 1 121 0
 6080 32b0 807C00E4 		lwz 3,228(28)
 6081 32b4 38A00001 		li 5,1
 6082 32b8 809C0090 		lwz 4,144(28)
 6083 32bc 48000001 		bl _ZN9GuiButton8SetLabelEP7GuiTexti
 6084              		.loc 1 122 0
 6085 32c0 807C00E4 		lwz 3,228(28)
 6086 32c4 809C012C 		lwz 4,300(28)
 6087 32c8 48000001 		bl _ZN9GuiButton12SetImageOverEP8GuiImage
 6088              		.loc 1 123 0
 6089 32cc 807C00E4 		lwz 3,228(28)
 6090 32d0 38800005 		li 4,5
 6091 32d4 7FC5F378 		mr 5,30
 6092 32d8 48000001 		bl _ZN10GuiElement11SetPositionEii
 6093              		.loc 1 124 0
 6094 32dc 807C00E4 		lwz 3,228(28)
 6095 32e0 38800000 		li 4,0
 6096 32e4 48000001 		bl _ZN10GuiElement9SetRumbleEb
 6097              		.loc 1 125 0
 6098 32e8 807C00E4 		lwz 3,228(28)
 6099 32ec 809F01B0 		lwz 4,432(31)
 6100 32f0 48000001 		bl _ZN10GuiElement10SetTriggerEP10GuiTrigger
 6101              		.loc 1 126 0
 6102 32f4 807C00E4 		lwz 3,228(28)
 6103 32f8 809F01AC 		lwz 4,428(31)
 6104 32fc 48000001 		bl _ZN9GuiButton13SetSoundClickEP8GuiSound
 6105              	.LBE80:
 6106              		.loc 1 106 0
 6107 3300 2F9B0008 		cmpwi 7,27,8
 6108 3304 3B9C0004 		addi 28,28,4
 6109 3308 3BDE001E 		addi 30,30,30
 6110 330c 3B7B0001 		addi 27,27,1
 6111 3310 409EFE70 		bne+ 7,.L724
 6112              	.LBE79:
 6113              	.LBE78:
 6114              		.loc 1 128 0
 6115 3314 80010034 		lwz 0,52(1)
 6116 3318 83010010 		lwz 24,16(1)
 6117 331c 83210014 		lwz 25,20(1)
 6118 3320 7C0803A6 		mtlr 0
 6119 3324 83410018 		lwz 26,24(1)
 6120 3328 8361001C 		lwz 27,28(1)
 6121              	.LVL229:
 6122 332c 83810020 		lwz 28,32(1)
 6123 3330 83A10024 		lwz 29,36(1)
 6124 3334 83C10028 		lwz 30,40(1)
 6125 3338 83E1002C 		lwz 31,44(1)
 6126              	.LVL230:
 6127 333c 38210030 		addi 1,1,48
 6128 3340 4E800020 		blr
 6129              	.LVL231:
 6130              	.L795:
 6131              	.LBB81:
 6132              		.loc 1 48 0
 6133 3344 3860000C 		li 3,12
 6134 3348 48000001 		bl _Znwj
 6135              	.LEHE200:
 6136 334c 3C800000 		lis 4,scrollbar_png@ha
 6137 3350 7C7E1B78 		mr 30,3
 6138 3354 38840000 		la 4,scrollbar_png@l(4)
 6139 3358 38A00000 		li 5,0
 6140              	.LEHB201:
 6141 335c 48000001 		bl _ZN12GuiImageDataC1EPKhb
 6142              	.LEHE201:
 6143              	.L691:
 6144 3360 93DF018C 		stw 30,396(31)
 6145              		.loc 1 49 0
 6146 3364 386000A8 		li 3,168
 6147              	.LEHB202:
 6148 3368 48000001 		bl _Znwj
 6149              	.LEHE202:
 6150 336c 7C7E1B78 		mr 30,3
 6151 3370 809F018C 		lwz 4,396(31)
 6152              	.LEHB203:
 6153 3374 48000001 		bl _ZN8GuiImageC1EP12GuiImageData
 6154              	.LEHE203:
 6155              	.L693:
 6156 3378 93DF0164 		stw 30,356(31)
 6157              		.loc 1 50 0
 6158 337c 7FC3F378 		mr 3,30
 6159 3380 7FE4FB78 		mr 4,31
 6160              	.LEHB204:
 6161 3384 48000001 		bl _ZN10GuiElement9SetParentEPS_
 6162              		.loc 1 51 0
 6163 3388 807F0164 		lwz 3,356(31)
 6164 338c 38800001 		li 4,1
 6165 3390 38A00003 		li 5,3
 6166 3394 81230000 		lwz 9,0(3)
 6167 3398 81290014 		lwz 9,20(9)
 6168 339c 7D2903A6 		mtctr 9
 6169 33a0 4E800421 		bctrl
 6170              		.loc 1 52 0
 6171 33a4 807F0164 		lwz 3,356(31)
 6172 33a8 38800000 		li 4,0
 6173 33ac 38A00004 		li 5,4
 6174 33b0 48000001 		bl _ZN10GuiElement11SetPositionEii
 6175              		.loc 1 54 0
 6176 33b4 3860000C 		li 3,12
 6177 33b8 48000001 		bl _Znwj
 6178              	.LEHE204:
 6179 33bc 3D200000 		lis 9,scrollbar_arrowdown_png@ha
 6180 33c0 7C7E1B78 		mr 30,3
 6181 33c4 3BA90000 		la 29,scrollbar_arrowdown_png@l(9)
 6182 33c8 38A00000 		li 5,0
 6183 33cc 7FA4EB78 		mr 4,29
 6184              	.LEHB205:
 6185 33d0 48000001 		bl _ZN12GuiImageDataC1EPKhb
 6186              	.LEHE205:
 6187              	.L695:
 6188 33d4 93DF0190 		stw 30,400(31)
 6189              		.loc 1 55 0
 6190 33d8 386000A8 		li 3,168
 6191              	.LEHB206:
 6192 33dc 48000001 		bl _Znwj
 6193              	.LEHE206:
 6194 33e0 7C7E1B78 		mr 30,3
 6195 33e4 809F0190 		lwz 4,400(31)
 6196              	.LEHB207:
 6197 33e8 48000001 		bl _ZN8GuiImageC1EP12GuiImageData
 6198              	.LEHE207:
 6199              	.L697:
 6200 33ec 93DF0168 		stw 30,360(31)
 6201              		.loc 1 56 0
 6202 33f0 3860000C 		li 3,12
 6203              	.LEHB208:
 6204 33f4 48000001 		bl _Znwj
 6205              	.LEHE208:
 6206 33f8 7C7E1B78 		mr 30,3
 6207 33fc 7FA4EB78 		mr 4,29
 6208 3400 38A00000 		li 5,0
 6209              	.LEHB209:
 6210 3404 48000001 		bl _ZN12GuiImageDataC1EPKhb
 6211              	.LEHE209:
 6212              	.L699:
 6213 3408 93DF0194 		stw 30,404(31)
 6214              		.loc 1 57 0
 6215 340c 386000A8 		li 3,168
 6216              	.LEHB210:
 6217 3410 48000001 		bl _Znwj
 6218              	.LEHE210:
 6219 3414 7C7E1B78 		mr 30,3
 6220 3418 809F0194 		lwz 4,404(31)
 6221              	.LEHB211:
 6222 341c 48000001 		bl _ZN8GuiImageC1EP12GuiImageData
 6223              	.LEHE211:
 6224              	.L701:
 6225 3420 93DF016C 		stw 30,364(31)
 6226              		.loc 1 58 0
 6227 3424 3860000C 		li 3,12
 6228              	.LEHB212:
 6229 3428 48000001 		bl _Znwj
 6230              	.LEHE212:
 6231 342c 3D200000 		lis 9,scrollbar_arrowup_png@ha
 6232 3430 7C7E1B78 		mr 30,3
 6233 3434 3BA90000 		la 29,scrollbar_arrowup_png@l(9)
 6234 3438 38A00000 		li 5,0
 6235 343c 7FA4EB78 		mr 4,29
 6236              	.LEHB213:
 6237 3440 48000001 		bl _ZN12GuiImageDataC1EPKhb
 6238              	.LEHE213:
 6239              	.L703:
 6240 3444 93DF0198 		stw 30,408(31)
 6241              		.loc 1 59 0
 6242 3448 386000A8 		li 3,168
 6243              	.LEHB214:
 6244 344c 48000001 		bl _Znwj
 6245              	.LEHE214:
 6246 3450 7C7E1B78 		mr 30,3
 6247 3454 809F0198 		lwz 4,408(31)
 6248              	.LEHB215:
 6249 3458 48000001 		bl _ZN8GuiImageC1EP12GuiImageData
 6250              	.LEHE215:
 6251              	.L705:
 6252 345c 93DF0170 		stw 30,368(31)
 6253              		.loc 1 60 0
 6254 3460 3860000C 		li 3,12
 6255              	.LEHB216:
 6256 3464 48000001 		bl _Znwj
 6257              	.LEHE216:
 6258 3468 7C7E1B78 		mr 30,3
 6259 346c 7FA4EB78 		mr 4,29
 6260 3470 38A00000 		li 5,0
 6261              	.LEHB217:
 6262 3474 48000001 		bl _ZN12GuiImageDataC1EPKhb
 6263              	.LEHE217:
 6264              	.L707:
 6265 3478 93DF019C 		stw 30,412(31)
 6266              		.loc 1 61 0
 6267 347c 386000A8 		li 3,168
 6268              	.LEHB218:
 6269 3480 48000001 		bl _Znwj
 6270              	.LEHE218:
 6271 3484 7C7E1B78 		mr 30,3
 6272 3488 809F019C 		lwz 4,412(31)
 6273              	.LEHB219:
 6274 348c 48000001 		bl _ZN8GuiImageC1EP12GuiImageData
 6275              	.LEHE219:
 6276              	.L709:
 6277 3490 93DF0174 		stw 30,372(31)
 6278              		.loc 1 62 0
 6279 3494 3860000C 		li 3,12
 6280              	.LEHB220:
 6281 3498 48000001 		bl _Znwj
 6282              	.LEHE220:
 6283 349c 3D200000 		lis 9,scrollbar_box_png@ha
 6284 34a0 7C7E1B78 		mr 30,3
 6285 34a4 3BA90000 		la 29,scrollbar_box_png@l(9)
 6286 34a8 38A00000 		li 5,0
 6287 34ac 7FA4EB78 		mr 4,29
 6288              	.LEHB221:
 6289 34b0 48000001 		bl _ZN12GuiImageDataC1EPKhb
 6290              	.LEHE221:
 6291              	.L711:
 6292 34b4 93DF01A0 		stw 30,416(31)
 6293              		.loc 1 63 0
 6294 34b8 386000A8 		li 3,168
 6295              	.LEHB222:
 6296 34bc 48000001 		bl _Znwj
 6297              	.LEHE222:
 6298 34c0 7C7E1B78 		mr 30,3
 6299 34c4 809F01A0 		lwz 4,416(31)
 6300              	.LEHB223:
 6301 34c8 48000001 		bl _ZN8GuiImageC1EP12GuiImageData
 6302              	.LEHE223:
 6303              	.L713:
 6304 34cc 93DF0178 		stw 30,376(31)
 6305              		.loc 1 64 0
 6306 34d0 3860000C 		li 3,12
 6307              	.LEHB224:
 6308 34d4 48000001 		bl _Znwj
 6309              	.LEHE224:
 6310 34d8 7C7E1B78 		mr 30,3
 6311 34dc 7FA4EB78 		mr 4,29
 6312 34e0 38A00000 		li 5,0
 6313              	.LEHB225:
 6314 34e4 48000001 		bl _ZN12GuiImageDataC1EPKhb
 6315              	.LEHE225:
 6316              	.L715:
 6317 34e8 93DF01A4 		stw 30,420(31)
 6318              		.loc 1 65 0
 6319 34ec 386000A8 		li 3,168
 6320              	.LEHB226:
 6321 34f0 48000001 		bl _Znwj
 6322              	.LEHE226:
 6323 34f4 7C7E1B78 		mr 30,3
 6324 34f8 809F01A4 		lwz 4,420(31)
 6325              	.LEHB227:
 6326 34fc 48000001 		bl _ZN8GuiImageC1EP12GuiImageData
 6327              	.LEHE227:
 6328              	.L717:
 6329 3500 93DF017C 		stw 30,380(31)
 6330              		.loc 1 67 0
 6331 3504 807F0170 		lwz 3,368(31)
 6332              	.LEHB228:
 6333 3508 48000001 		bl _ZN10GuiElement8GetWidthEv
 6334 350c 7C7C1B78 		mr 28,3
 6335 3510 807F0170 		lwz 3,368(31)
 6336 3514 48000001 		bl _ZN10GuiElement9GetHeightEv
 6337 3518 7C7D1B78 		mr 29,3
 6338 351c 386000FC 		li 3,252
 6339 3520 48000001 		bl _Znwj
 6340              	.LEHE228:
 6341 3524 7C7E1B78 		mr 30,3
 6342 3528 7F84E378 		mr 4,28
 6343 352c 7FA5EB78 		mr 5,29
 6344              	.LEHB229:
 6345 3530 48000001 		bl _ZN9GuiButtonC1Eii
 6346              	.LEHE229:
 6347 3534 93DF0150 		stw 30,336(31)
 6348              		.loc 1 68 0
 6349 3538 7FC3F378 		mr 3,30
 6350 353c 7FE4FB78 		mr 4,31
 6351              	.LEHB230:
 6352 3540 48000001 		bl _ZN10GuiElement9SetParentEPS_
 6353              		.loc 1 69 0
 6354 3544 807F0150 		lwz 3,336(31)
 6355 3548 809F0170 		lwz 4,368(31)
 6356 354c 48000001 		bl _ZN9GuiButton8SetImageEP8GuiImage
 6357              		.loc 1 70 0
 6358 3550 807F0150 		lwz 3,336(31)
 6359 3554 809F0174 		lwz 4,372(31)
 6360 3558 48000001 		bl _ZN9GuiButton12SetImageOverEP8GuiImage
 6361              		.loc 1 71 0
 6362 355c 807F0150 		lwz 3,336(31)
 6363 3560 809F0174 		lwz 4,372(31)
 6364 3564 48000001 		bl _ZN9GuiButton12SetImageHoldEP8GuiImage
 6365              		.loc 1 72 0
 6366 3568 807F0150 		lwz 3,336(31)
 6367 356c 38800002 		li 4,2
 6368 3570 38A00003 		li 5,3
 6369 3574 81230000 		lwz 9,0(3)
 6370 3578 81290014 		lwz 9,20(9)
 6371 357c 7D2903A6 		mtctr 9
 6372 3580 4E800421 		bctrl
 6373              		.loc 1 73 0
 6374 3584 809F000C 		lwz 4,12(31)
 6375 3588 38A0FFEE 		li 5,-18
 6376 358c 807F0150 		lwz 3,336(31)
 6377 3590 7C840E70 		srawi 4,4,1
 6378 3594 7C840194 		addze 4,4
 6379 3598 3884FFF5 		addi 4,4,-11
 6380 359c 48000001 		bl _ZN10GuiElement11SetPositionEii
 6381              		.loc 1 74 0
 6382 35a0 807F0150 		lwz 3,336(31)
 6383 35a4 38800000 		li 4,0
 6384 35a8 48000001 		bl _ZN10GuiElement13SetSelectableEb
 6385              		.loc 1 75 0
 6386 35ac 807F0150 		lwz 3,336(31)
 6387 35b0 809F01B0 		lwz 4,432(31)
 6388 35b4 48000001 		bl _ZN10GuiElement10SetTriggerEP10GuiTrigger
 6389              		.loc 1 76 0
 6390 35b8 807F0150 		lwz 3,336(31)
 6391 35bc 38800080 		li 4,128
 6392 35c0 38A00032 		li 5,50
 6393 35c4 38C00082 		li 6,130
 6394 35c8 48000001 		bl _ZN10GuiElement15SetEffectOnOverEiii
 6395              		.loc 1 77 0
 6396 35cc 807F0150 		lwz 3,336(31)
 6397 35d0 809F01AC 		lwz 4,428(31)
 6398 35d4 48000001 		bl _ZN9GuiButton13SetSoundClickEP8GuiSound
 6399              		.loc 1 79 0
 6400 35d8 807F0168 		lwz 3,360(31)
 6401 35dc 48000001 		bl _ZN10GuiElement8GetWidthEv
 6402 35e0 7C7C1B78 		mr 28,3
 6403 35e4 807F0168 		lwz 3,360(31)
 6404 35e8 48000001 		bl _ZN10GuiElement9GetHeightEv
 6405 35ec 7C7D1B78 		mr 29,3
 6406 35f0 386000FC 		li 3,252
 6407 35f4 48000001 		bl _Znwj
 6408              	.LEHE230:
 6409 35f8 7C7E1B78 		mr 30,3
 6410 35fc 7F84E378 		mr 4,28
 6411 3600 7FA5EB78 		mr 5,29
 6412              	.LEHB231:
 6413 3604 48000001 		bl _ZN9GuiButtonC1Eii
 6414              	.LEHE231:
 6415              	.L721:
 6416 3608 93DF0154 		stw 30,340(31)
 6417              		.loc 1 80 0
 6418 360c 7FC3F378 		mr 3,30
 6419 3610 7FE4FB78 		mr 4,31
 6420              	.LEHB232:
 6421 3614 48000001 		bl _ZN10GuiElement9SetParentEPS_
 6422              		.loc 1 81 0
 6423 3618 807F0154 		lwz 3,340(31)
 6424 361c 809F0168 		lwz 4,360(31)
 6425 3620 48000001 		bl _ZN9GuiButton8SetImageEP8GuiImage
 6426              		.loc 1 82 0
 6427 3624 807F0154 		lwz 3,340(31)
 6428 3628 809F016C 		lwz 4,364(31)
 6429 362c 48000001 		bl _ZN9GuiButton12SetImageOverEP8GuiImage
 6430              		.loc 1 83 0
 6431 3630 807F0154 		lwz 3,340(31)
 6432 3634 809F016C 		lwz 4,364(31)
 6433 3638 48000001 		bl _ZN9GuiButton12SetImageHoldEP8GuiImage
 6434              		.loc 1 84 0
 6435 363c 807F0154 		lwz 3,340(31)
 6436 3640 38800002 		li 4,2
 6437 3644 38A00004 		li 5,4
 6438 3648 81230000 		lwz 9,0(3)
 6439 364c 81290014 		lwz 9,20(9)
 6440 3650 7D2903A6 		mtctr 9
 6441 3654 4E800421 		bctrl
 6442              		.loc 1 85 0
 6443 3658 809F000C 		lwz 4,12(31)
 6444 365c 38A00012 		li 5,18
 6445 3660 807F0154 		lwz 3,340(31)
 6446 3664 7C840E70 		srawi 4,4,1
 6447 3668 7C840194 		addze 4,4
 6448 366c 3884FFF5 		addi 4,4,-11
 6449 3670 48000001 		bl _ZN10GuiElement11SetPositionEii
 6450              		.loc 1 86 0
 6451 3674 807F0154 		lwz 3,340(31)
 6452 3678 38800000 		li 4,0
 6453 367c 48000001 		bl _ZN10GuiElement13SetSelectableEb
 6454              		.loc 1 87 0
 6455 3680 807F0154 		lwz 3,340(31)
 6456 3684 809F01B0 		lwz 4,432(31)
 6457 3688 48000001 		bl _ZN10GuiElement10SetTriggerEP10GuiTrigger
 6458              		.loc 1 88 0
 6459 368c 807F0154 		lwz 3,340(31)
 6460 3690 38800080 		li 4,128
 6461 3694 38A00032 		li 5,50
 6462 3698 38C00082 		li 6,130
 6463 369c 48000001 		bl _ZN10GuiElement15SetEffectOnOverEiii
 6464              		.loc 1 89 0
 6465 36a0 807F0154 		lwz 3,340(31)
 6466 36a4 809F01AC 		lwz 4,428(31)
 6467 36a8 48000001 		bl _ZN9GuiButton13SetSoundClickEP8GuiSound
 6468              		.loc 1 91 0
 6469 36ac 807F0178 		lwz 3,376(31)
 6470 36b0 48000001 		bl _ZN10GuiElement8GetWidthEv
 6471 36b4 7C7C1B78 		mr 28,3
 6472 36b8 807F0178 		lwz 3,376(31)
 6473 36bc 48000001 		bl _ZN10GuiElement9GetHeightEv
 6474 36c0 7C7D1B78 		mr 29,3
 6475 36c4 386000FC 		li 3,252
 6476 36c8 48000001 		bl _Znwj
 6477              	.LEHE232:
 6478 36cc 7C7E1B78 		mr 30,3
 6479 36d0 7F84E378 		mr 4,28
 6480 36d4 7FA5EB78 		mr 5,29
 6481              	.LEHB233:
 6482 36d8 48000001 		bl _ZN9GuiButtonC1Eii
 6483              	.LEHE233:
 6484              	.L723:
 6485 36dc 93DF0158 		stw 30,344(31)
 6486              		.loc 1 92 0
 6487 36e0 7FC3F378 		mr 3,30
 6488 36e4 7FE4FB78 		mr 4,31
 6489              	.LEHB234:
 6490 36e8 48000001 		bl _ZN10GuiElement9SetParentEPS_
 6491              		.loc 1 93 0
 6492 36ec 807F0158 		lwz 3,344(31)
 6493 36f0 809F0178 		lwz 4,376(31)
 6494 36f4 48000001 		bl _ZN9GuiButton8SetImageEP8GuiImage
 6495              		.loc 1 94 0
 6496 36f8 807F0158 		lwz 3,344(31)
 6497 36fc 809F017C 		lwz 4,380(31)
 6498 3700 48000001 		bl _ZN9GuiButton12SetImageOverEP8GuiImage
 6499              		.loc 1 95 0
 6500 3704 807F0158 		lwz 3,344(31)
 6501 3708 809F017C 		lwz 4,380(31)
 6502 370c 48000001 		bl _ZN9GuiButton12SetImageHoldEP8GuiImage
 6503              		.loc 1 96 0
 6504 3710 807F0158 		lwz 3,344(31)
 6505 3714 38800002 		li 4,2
 6506 3718 38A00003 		li 5,3
 6507 371c 81230000 		lwz 9,0(3)
 6508 3720 81290014 		lwz 9,20(9)
 6509 3724 7D2903A6 		mtctr 9
 6510 3728 4E800421 		bctrl
 6511              		.loc 1 97 0
 6512 372c 807F0158 		lwz 3,344(31)
 6513 3730 38800000 		li 4,0
 6514 3734 48000001 		bl _ZN10GuiElement13SetSelectableEb
 6515              		.loc 1 98 0
 6516 3738 807F0158 		lwz 3,344(31)
 6517 373c 38800080 		li 4,128
 6518 3740 38A00032 		li 5,50
 6519 3744 38C00078 		li 6,120
 6520 3748 48000001 		bl _ZN10GuiElement15SetEffectOnOverEiii
 6521              		.loc 1 99 0
 6522 374c 807F0158 		lwz 3,344(31)
 6523 3750 38800000 		li 4,0
 6524 3754 48000001 		bl _ZN10GuiElement7SetMinYEi
 6525              		.loc 1 100 0
 6526 3758 807F0158 		lwz 3,344(31)
 6527 375c 809F0010 		lwz 4,16(31)
 6528 3760 48000001 		bl _ZN10GuiElement7SetMaxYEi
 6529              		.loc 1 101 0
 6530 3764 807F0158 		lwz 3,344(31)
 6531 3768 38800001 		li 4,1
 6532 376c 48000001 		bl _ZN10GuiElement11SetHoldableEb
 6533              		.loc 1 102 0
 6534 3770 807F0158 		lwz 3,344(31)
 6535 3774 809F01B8 		lwz 4,440(31)
 6536 3778 48000001 		bl _ZN10GuiElement10SetTriggerEP10GuiTrigger
 6537              	.LEHE234:
 6538 377c 4BFFF9F4 		b .L688
 6539              	.L756:
 6540              	.L794:
 6541              	.L719:
 6542 3780 7C7C1B78 		mr 28,3
 6543              		.loc 1 67 0
 6544 3784 7FC3F378 		mr 3,30
 6545 3788 48000001 		bl _ZdlPv
 6546              	.LVL232:
 6547              	.L734:
 6548              		.loc 1 128 0
 6549 378c 7FE3FB78 		mr 3,31
 6550 3790 48000001 		bl _ZN10GuiElementD2Ev
 6551 3794 7F83E378 		mr 3,28
 6552              	.LEHB235:
 6553 3798 48000001 		bl _Unwind_Resume
 6554              	.LEHE235:
 6555              	.LVL233:
 6556              	.L757:
 6557 379c 4BFFFFE4 		b .L794
 6558              	.L758:
 6559              	.LVL234:
 6560              	.L793:
 6561              	.L679:
 6562 37a0 7C7C1B78 		mr 28,3
 6563              		.loc 1 36 0
 6564 37a4 7FA3EB78 		mr 3,29
 6565 37a8 48000001 		bl _ZdlPv
 6566 37ac 4BFFFFE0 		b .L734
 6567              	.LVL235:
 6568              	.L759:
 6569 37b0 4BFFFFD0 		b .L794
 6570              	.L760:
 6571 37b4 4BFFFFCC 		b .L794
 6572              	.L761:
 6573 37b8 4BFFFFE8 		b .L793
 6574              	.L762:
 6575 37bc 4BFFFFE4 		b .L793
 6576              	.LVL236:
 6577              	.L763:
 6578 37c0 7C7C1B78 		mr 28,3
 6579 37c4 4BFFFFC8 		b .L734
 6580              	.LVL237:
 6581              	.L736:
 6582 37c8 4BFFFFD8 		b .L793
 6583              	.L737:
 6584 37cc 4BFFFFD4 		b .L793
 6585              	.L738:
 6586 37d0 4BFFFFD0 		b .L793
 6587              	.L739:
 6588 37d4 4BFFFFCC 		b .L793
 6589              	.LVL238:
 6590              	.L740:
 6591 37d8 4BFFFFA8 		b .L794
 6592              	.L741:
 6593 37dc 4BFFFFA4 		b .L794
 6594              	.L742:
 6595 37e0 4BFFFFA0 		b .L794
 6596              	.L743:
 6597 37e4 4BFFFF9C 		b .L794
 6598              	.L744:
 6599 37e8 4BFFFF98 		b .L794
 6600              	.L745:
 6601 37ec 4BFFFF94 		b .L794
 6602              	.L746:
 6603 37f0 4BFFFF90 		b .L794
 6604              	.L747:
 6605 37f4 4BFFFF8C 		b .L794
 6606              	.L748:
 6607 37f8 4BFFFF88 		b .L794
 6608              	.L749:
 6609 37fc 4BFFFF84 		b .L794
 6610              	.L750:
 6611 3800 4BFFFF80 		b .L794
 6612              	.L751:
 6613 3804 4BFFFF7C 		b .L794
 6614              	.L752:
 6615 3808 4BFFFF78 		b .L794
 6616              	.L753:
 6617 380c 4BFFFF74 		b .L794
 6618              	.L754:
 6619 3810 4BFFFF70 		b .L794
 6620              	.L755:
 6621 3814 4BFFFF6C 		b .L794
 6622              	.LBE81:
 6623              	.LFE792:
 6624              		.size	_ZN16GuiOptionBrowserC2EiiP11_optionlistPKhi, .-_ZN16GuiOptionBrowserC2EiiP11_optionlistPKhi
 6625              		.section	.gcc_except_table
 6626              	.LLSDA792:
 6627 044a FF       		.byte	0xff
 6628 044b FF       		.byte	0xff
 6629 044c 01       		.byte	0x1
 6630 044d D702     		.uleb128 .LLSDACSE792-.LLSDACSB792
 6631              	.LLSDACSB792:
 6632 044f 48       		.uleb128 .LEHB179-.LFB792
 6633 0450 04       		.uleb128 .LEHE179-.LEHB179
 6634 0451 00       		.uleb128 0x0
 6635 0452 00       		.uleb128 0x0
 6636 0453 A401     		.uleb128 .LEHB180-.LFB792
 6637 0455 04       		.uleb128 .LEHE180-.LEHB180
 6638 0456 F40F     		.uleb128 .L763-.LFB792
 6639 0458 00       		.uleb128 0x0
 6640 0459 AC01     		.uleb128 .LEHB181-.LFB792
 6641 045b 04       		.uleb128 .LEHE181-.LEHB181
 6642 045c F00F     		.uleb128 .L762-.LFB792
 6643 045e 00       		.uleb128 0x0
 6644 045f C801     		.uleb128 .LEHB182-.LFB792
 6645 0461 0C       		.uleb128 .LEHE182-.LEHB182
 6646 0462 F40F     		.uleb128 .L763-.LFB792
 6647 0464 00       		.uleb128 0x0
 6648 0465 D801     		.uleb128 .LEHB183-.LFB792
 6649 0467 04       		.uleb128 .LEHE183-.LEHB183
 6650 0468 EC0F     		.uleb128 .L761-.LFB792
 6651 046a 00       		.uleb128 0x0
 6652 046b F001     		.uleb128 .LEHB184-.LFB792
 6653 046d 0C       		.uleb128 .LEHE184-.LEHB184
 6654 046e F40F     		.uleb128 .L763-.LFB792
 6655 0470 00       		.uleb128 0x0
 6656 0471 9402     		.uleb128 .LEHB185-.LFB792
 6657 0473 04       		.uleb128 .LEHE185-.LEHB185
 6658 0474 E80F     		.uleb128 .L760-.LFB792
 6659 0476 00       		.uleb128 0x0
 6660 0477 A002     		.uleb128 .LEHB186-.LFB792
 6661 0479 04       		.uleb128 .LEHE186-.LEHB186
 6662 047a F40F     		.uleb128 .L763-.LFB792
 6663 047c 00       		.uleb128 0x0
 6664 047d B002     		.uleb128 .LEHB187-.LFB792
 6665 047f 04       		.uleb128 .LEHE187-.LEHB187
 6666 0480 E40F     		.uleb128 .L759-.LFB792
 6667 0482 00       		.uleb128 0x0
 6668 0483 BC02     		.uleb128 .LEHB188-.LFB792
 6669 0485 04       		.uleb128 .LEHE188-.LEHB188
 6670 0486 F40F     		.uleb128 .L763-.LFB792
 6671 0488 00       		.uleb128 0x0
 6672 0489 C802     		.uleb128 .LEHB189-.LFB792
 6673 048b 04       		.uleb128 .LEHE189-.LEHB189
 6674 048c D40F     		.uleb128 .L758-.LFB792
 6675 048e 00       		.uleb128 0x0
 6676 048f D802     		.uleb128 .LEHB190-.LFB792
 6677 0491 28       		.uleb128 .LEHE190-.LEHB190
 6678 0492 F40F     		.uleb128 .L763-.LFB792
 6679 0494 00       		.uleb128 0x0
 6680 0495 9003     		.uleb128 .LEHB191-.LFB792
 6681 0497 04       		.uleb128 .LEHE191-.LEHB191
 6682 0498 D00F     		.uleb128 .L757-.LFB792
 6683 049a 00       		.uleb128 0x0
 6684 049b D003     		.uleb128 .LEHB192-.LFB792
 6685 049d 04       		.uleb128 .LEHE192-.LEHB192
 6686 049e F40F     		.uleb128 .L763-.LFB792
 6687 04a0 00       		.uleb128 0x0
 6688 04a1 F403     		.uleb128 .LEHB193-.LFB792
 6689 04a3 04       		.uleb128 .LEHE193-.LEHB193
 6690 04a4 8810     		.uleb128 .L739-.LFB792
 6691 04a6 00       		.uleb128 0x0
 6692 04a7 9404     		.uleb128 .LEHB194-.LFB792
 6693 04a9 1C       		.uleb128 .LEHE194-.LEHB194
 6694 04aa F40F     		.uleb128 .L763-.LFB792
 6695 04ac 00       		.uleb128 0x0
 6696 04ad B804     		.uleb128 .LEHB195-.LFB792
 6697 04af 04       		.uleb128 .LEHE195-.LEHB195
 6698 04b0 8410     		.uleb128 .L738-.LFB792
 6699 04b2 00       		.uleb128 0x0
 6700 04b3 DC04     		.uleb128 .LEHB196-.LFB792
 6701 04b5 04       		.uleb128 .LEHE196-.LEHB196
 6702 04b6 F40F     		.uleb128 .L763-.LFB792
 6703 04b8 00       		.uleb128 0x0
 6704 04b9 F404     		.uleb128 .LEHB197-.LFB792
 6705 04bb 04       		.uleb128 .LEHE197-.LEHB197
 6706 04bc 8010     		.uleb128 .L737-.LFB792
 6707 04be 00       		.uleb128 0x0
 6708 04bf 9405     		.uleb128 .LEHB198-.LFB792
 6709 04c1 1C       		.uleb128 .LEHE198-.LEHB198
 6710 04c2 F40F     		.uleb128 .L763-.LFB792
 6711 04c4 00       		.uleb128 0x0
 6712 04c5 C005     		.uleb128 .LEHB199-.LFB792
 6713 04c7 04       		.uleb128 .LEHE199-.LEHB199
 6714 04c8 FC0F     		.uleb128 .L736-.LFB792
 6715 04ca 00       		.uleb128 0x0
 6716 04cb D005     		.uleb128 .LEHB200-.LFB792
 6717 04cd B001     		.uleb128 .LEHE200-.LEHB200
 6718 04cf F40F     		.uleb128 .L763-.LFB792
 6719 04d1 00       		.uleb128 0x0
 6720 04d2 9007     		.uleb128 .LEHB201-.LFB792
 6721 04d4 04       		.uleb128 .LEHE201-.LEHB201
 6722 04d5 B40F     		.uleb128 .L756-.LFB792
 6723 04d7 00       		.uleb128 0x0
 6724 04d8 9C07     		.uleb128 .LEHB202-.LFB792
 6725 04da 04       		.uleb128 .LEHE202-.LEHB202
 6726 04db F40F     		.uleb128 .L763-.LFB792
 6727 04dd 00       		.uleb128 0x0
 6728 04de A807     		.uleb128 .LEHB203-.LFB792
 6729 04e0 04       		.uleb128 .LEHE203-.LEHB203
 6730 04e1 C810     		.uleb128 .L755-.LFB792
 6731 04e3 00       		.uleb128 0x0
 6732 04e4 B807     		.uleb128 .LEHB204-.LFB792
 6733 04e6 38       		.uleb128 .LEHE204-.LEHB204
 6734 04e7 F40F     		.uleb128 .L763-.LFB792
 6735 04e9 00       		.uleb128 0x0
 6736 04ea 8408     		.uleb128 .LEHB205-.LFB792
 6737 04ec 04       		.uleb128 .LEHE205-.LEHB205
 6738 04ed C410     		.uleb128 .L754-.LFB792
 6739 04ef 00       		.uleb128 0x0
 6740 04f0 9008     		.uleb128 .LEHB206-.LFB792
 6741 04f2 04       		.uleb128 .LEHE206-.LEHB206
 6742 04f3 F40F     		.uleb128 .L763-.LFB792
 6743 04f5 00       		.uleb128 0x0
 6744 04f6 9C08     		.uleb128 .LEHB207-.LFB792
 6745 04f8 04       		.uleb128 .LEHE207-.LEHB207
 6746 04f9 C010     		.uleb128 .L753-.LFB792
 6747 04fb 00       		.uleb128 0x0
 6748 04fc A808     		.uleb128 .LEHB208-.LFB792
 6749 04fe 04       		.uleb128 .LEHE208-.LEHB208
 6750 04ff F40F     		.uleb128 .L763-.LFB792
 6751 0501 00       		.uleb128 0x0
 6752 0502 B808     		.uleb128 .LEHB209-.LFB792
 6753 0504 04       		.uleb128 .LEHE209-.LEHB209
 6754 0505 BC10     		.uleb128 .L752-.LFB792
 6755 0507 00       		.uleb128 0x0
 6756 0508 C408     		.uleb128 .LEHB210-.LFB792
 6757 050a 04       		.uleb128 .LEHE210-.LEHB210
 6758 050b F40F     		.uleb128 .L763-.LFB792
 6759 050d 00       		.uleb128 0x0
 6760 050e D008     		.uleb128 .LEHB211-.LFB792
 6761 0510 04       		.uleb128 .LEHE211-.LEHB211
 6762 0511 B810     		.uleb128 .L751-.LFB792
 6763 0513 00       		.uleb128 0x0
 6764 0514 DC08     		.uleb128 .LEHB212-.LFB792
 6765 0516 04       		.uleb128 .LEHE212-.LEHB212
 6766 0517 F40F     		.uleb128 .L763-.LFB792
 6767 0519 00       		.uleb128 0x0
 6768 051a F408     		.uleb128 .LEHB213-.LFB792
 6769 051c 04       		.uleb128 .LEHE213-.LEHB213
 6770 051d B410     		.uleb128 .L750-.LFB792
 6771 051f 00       		.uleb128 0x0
 6772 0520 8009     		.uleb128 .LEHB214-.LFB792
 6773 0522 04       		.uleb128 .LEHE214-.LEHB214
 6774 0523 F40F     		.uleb128 .L763-.LFB792
 6775 0525 00       		.uleb128 0x0
 6776 0526 8C09     		.uleb128 .LEHB215-.LFB792
 6777 0528 04       		.uleb128 .LEHE215-.LEHB215
 6778 0529 B010     		.uleb128 .L749-.LFB792
 6779 052b 00       		.uleb128 0x0
 6780 052c 9809     		.uleb128 .LEHB216-.LFB792
 6781 052e 04       		.uleb128 .LEHE216-.LEHB216
 6782 052f F40F     		.uleb128 .L763-.LFB792
 6783 0531 00       		.uleb128 0x0
 6784 0532 A809     		.uleb128 .LEHB217-.LFB792
 6785 0534 04       		.uleb128 .LEHE217-.LEHB217
 6786 0535 AC10     		.uleb128 .L748-.LFB792
 6787 0537 00       		.uleb128 0x0
 6788 0538 B409     		.uleb128 .LEHB218-.LFB792
 6789 053a 04       		.uleb128 .LEHE218-.LEHB218
 6790 053b F40F     		.uleb128 .L763-.LFB792
 6791 053d 00       		.uleb128 0x0
 6792 053e C009     		.uleb128 .LEHB219-.LFB792
 6793 0540 04       		.uleb128 .LEHE219-.LEHB219
 6794 0541 A810     		.uleb128 .L747-.LFB792
 6795 0543 00       		.uleb128 0x0
 6796 0544 CC09     		.uleb128 .LEHB220-.LFB792
 6797 0546 04       		.uleb128 .LEHE220-.LEHB220
 6798 0547 F40F     		.uleb128 .L763-.LFB792
 6799 0549 00       		.uleb128 0x0
 6800 054a E409     		.uleb128 .LEHB221-.LFB792
 6801 054c 04       		.uleb128 .LEHE221-.LEHB221
 6802 054d A410     		.uleb128 .L746-.LFB792
 6803 054f 00       		.uleb128 0x0
 6804 0550 F009     		.uleb128 .LEHB222-.LFB792
 6805 0552 04       		.uleb128 .LEHE222-.LEHB222
 6806 0553 F40F     		.uleb128 .L763-.LFB792
 6807 0555 00       		.uleb128 0x0
 6808 0556 FC09     		.uleb128 .LEHB223-.LFB792
 6809 0558 04       		.uleb128 .LEHE223-.LEHB223
 6810 0559 A010     		.uleb128 .L745-.LFB792
 6811 055b 00       		.uleb128 0x0
 6812 055c 880A     		.uleb128 .LEHB224-.LFB792
 6813 055e 04       		.uleb128 .LEHE224-.LEHB224
 6814 055f F40F     		.uleb128 .L763-.LFB792
 6815 0561 00       		.uleb128 0x0
 6816 0562 980A     		.uleb128 .LEHB225-.LFB792
 6817 0564 04       		.uleb128 .LEHE225-.LEHB225
 6818 0565 9C10     		.uleb128 .L744-.LFB792
 6819 0567 00       		.uleb128 0x0
 6820 0568 A40A     		.uleb128 .LEHB226-.LFB792
 6821 056a 04       		.uleb128 .LEHE226-.LEHB226
 6822 056b F40F     		.uleb128 .L763-.LFB792
 6823 056d 00       		.uleb128 0x0
 6824 056e B00A     		.uleb128 .LEHB227-.LFB792
 6825 0570 04       		.uleb128 .LEHE227-.LEHB227
 6826 0571 9810     		.uleb128 .L743-.LFB792
 6827 0573 00       		.uleb128 0x0
 6828 0574 BC0A     		.uleb128 .LEHB228-.LFB792
 6829 0576 1C       		.uleb128 .LEHE228-.LEHB228
 6830 0577 F40F     		.uleb128 .L763-.LFB792
 6831 0579 00       		.uleb128 0x0
 6832 057a E40A     		.uleb128 .LEHB229-.LFB792
 6833 057c 04       		.uleb128 .LEHE229-.LEHB229
 6834 057d 9410     		.uleb128 .L742-.LFB792
 6835 057f 00       		.uleb128 0x0
 6836 0580 F40A     		.uleb128 .LEHB230-.LFB792
 6837 0582 B801     		.uleb128 .LEHE230-.LEHB230
 6838 0584 F40F     		.uleb128 .L763-.LFB792
 6839 0586 00       		.uleb128 0x0
 6840 0587 B80C     		.uleb128 .LEHB231-.LFB792
 6841 0589 04       		.uleb128 .LEHE231-.LEHB231
 6842 058a 9010     		.uleb128 .L741-.LFB792
 6843 058c 00       		.uleb128 0x0
 6844 058d C80C     		.uleb128 .LEHB232-.LFB792
 6845 058f B801     		.uleb128 .LEHE232-.LEHB232
 6846 0591 F40F     		.uleb128 .L763-.LFB792
 6847 0593 00       		.uleb128 0x0
 6848 0594 8C0E     		.uleb128 .LEHB233-.LFB792
 6849 0596 04       		.uleb128 .LEHE233-.LEHB233
 6850 0597 8C10     		.uleb128 .L740-.LFB792
 6851 0599 00       		.uleb128 0x0
 6852 059a 9C0E     		.uleb128 .LEHB234-.LFB792
 6853 059c 9401     		.uleb128 .LEHE234-.LEHB234
 6854 059e F40F     		.uleb128 .L763-.LFB792
 6855 05a0 00       		.uleb128 0x0
 6856 05a1 CC0F     		.uleb128 .LEHB235-.LFB792
 6857 05a3 04       		.uleb128 .LEHE235-.LEHB235
 6858 05a4 00       		.uleb128 0x0
 6859 05a5 00       		.uleb128 0x0
 6860              	.LLSDACSE792:
 6861              		.section	".text"
 6862              		.weak	_ZTV16GuiOptionBrowser
 6863              		.section	.rodata._ZTV16GuiOptionBrowser,"aG",@progbits,_ZTV16GuiOptionBrowser,comdat
 6864              		.align 3
 6865              		.type	_ZTV16GuiOptionBrowser, @object
 6866              		.size	_ZTV16GuiOptionBrowser, 40
 6867              	_ZTV16GuiOptionBrowser:
 6868 0000 00000000 		.long	0
 6869 0004 00000000 		.long	_ZTI16GuiOptionBrowser
 6870 0008 00000000 		.long	_ZN10GuiElement10SetVisibleEb
 6871 000c 00000000 		.long	_ZN16GuiOptionBrowser8SetFocusEi
 6872 0010 00000000 		.long	_ZN10GuiElement8SetStateEii
 6873 0014 00000000 		.long	_ZN16GuiOptionBrowser10ResetStateEv
 6874 0018 00000000 		.long	_ZN10GuiElement11GetSelectedEv
 6875 001c 00000000 		.long	_ZN10GuiElement12SetAlignmentEii
 6876 0020 00000000 		.long	_ZN16GuiOptionBrowser6UpdateEP10GuiTrigger
 6877 0024 00000000 		.long	_ZN16GuiOptionBrowser4DrawEv
 6878              		.weak	_ZTS16GuiOptionBrowser
 6879              		.section	.rodata._ZTS16GuiOptionBrowser,"aG",@progbits,_ZTS16GuiOptionBrowser,comdat
 6880              		.align 2
 6881              		.type	_ZTS16GuiOptionBrowser, @object
 6882              		.size	_ZTS16GuiOptionBrowser, 19
 6883              	_ZTS16GuiOptionBrowser:
 6884 0000 31364775 		.string	"16GuiOptionBrowser"
 6884      694F7074 
 6884      696F6E42 
 6884      726F7773 
 6884      657200
 6885              		.weak	_ZTI16GuiOptionBrowser
 6886              		.section	.rodata._ZTI16GuiOptionBrowser,"aG",@progbits,_ZTI16GuiOptionBrowser,comdat
 6887              		.align 2
 6888              		.type	_ZTI16GuiOptionBrowser, @object
 6889              		.size	_ZTI16GuiOptionBrowser, 12
 6890              	_ZTI16GuiOptionBrowser:
 6891 0000 00000008 		.long	_ZTVN10__cxxabiv120__si_class_type_infoE+8
 6892 0004 00000000 		.long	_ZTS16GuiOptionBrowser
 6893 0008 00000000 		.long	_ZTI10GuiElement
 6894              		.section	.rodata
 6895              		.set	.LANCHOR1,. + 0
 6896              		.type	._69, @object
 6897              		.size	._69, 4
 6898              	._69:
 6899 0000 FF       		.byte	-1
 6900 0001 FF       		.byte	-1
 6901 0002 FF       		.byte	-1
 6902 0003 FF       		.byte	-1
 6903              		.section	.rodata.cst4,"aM",@progbits,4
 6904              		.align 2
 6905              	.LC0:
 6906 0000 42480000 		.4byte	1112014848
 6907              	.LC2:
 6908 0004 59800004 		.4byte	1501560836
 6909              		.section	.rodata.str1.4,"aMS",@progbits,1
 6910              		.align 2
 6911              	.LC5:
 6912 0000 25736267 		.string	"%sbg_options.png"
 6912      5F6F7074 
 6912      696F6E73 
 6912      2E706E67 
 6912      00
 6913 0011 000000   		.zero	3
 6914              	.LC6:
 6915 0014 25736267 		.string	"%sbg_options_entry.png"
 6915      5F6F7074 
 6915      696F6E73 
 6915      5F656E74 
 6915      72792E70 
 6916 002b 00       		.zero	1
 6917              	.LC7:
 6918 002c 25737363 		.string	"%sscrollbar.png"
 6918      726F6C6C 
 6918      6261722E 
 6918      706E6700 
 6919              	.LC8:
 6920 003c 25737363 		.string	"%sscrollbar_arrowdown.png"
 6920      726F6C6C 
 6920      6261725F 
 6920      6172726F 
 6920      77646F77 
 6921 0056 0000     		.zero	2
 6922              	.LC9:
 6923 0058 25737363 		.string	"%sscrollbar_arrowup.png"
 6923      726F6C6C 
 6923      6261725F 
 6923      6172726F 
 6923      7775702E 
 6924              	.LC10:
 6925 0070 25737363 		.string	"%sscrollbar_box.png"
 6925      726F6C6C 
 6925      6261725F 
 6925      626F782E 
 6925      706E6700 
 6926              		.section	".bss"
 6927              		.align 2
 6928              		.set	.LANCHOR0,. + 0
 6929              		.type	ftgxWhite, @object
 6930              		.size	ftgxWhite, 4
 6931              	ftgxWhite:
 6932 0000 00000000 		.zero	4
 6933              		.type	loaded, @object
 6934              		.size	loaded, 4
 6935              	loaded:
 6936 0004 00000000 		.zero	4
 6937              		.type	startat, @object
 6938              		.size	startat, 4
 6939              	startat:
 6940 0008 00000000 		.zero	4
 6941              		.type	scrollbaron, @object
 6942              		.size	scrollbaron, 4
 6943              	scrollbaron:
 6944 000c 00000000 		.zero	4
 6945              		.section	.debug_frame,"",@progbits
 6946              	.Lframe0:
 6947 0000 0000000C 		.4byte	.LECIE0-.LSCIE0
 6948              	.LSCIE0:
 6949 0004 FFFFFFFF 		.4byte	0xffffffff
 6950 0008 01       		.byte	0x1
 6951 0009 00       		.string	""
 6952 000a 01       		.uleb128 0x1
 6953 000b 7C       		.sleb128 -4
 6954 000c 41       		.byte	0x41
 6955 000d 0C       		.byte	0xc
 6956 000e 01       		.uleb128 0x1
 6957 000f 00       		.uleb128 0x0
 6958              		.align 2
 6959              	.LECIE0:
 6960              	.LSFDE0:
 6961 0010 00000020 		.4byte	.LEFDE0-.LASFDE0
 6962              	.LASFDE0:
 6963 0014 00000000 		.4byte	.Lframe0
 6964 0018 00000000 		.4byte	.LFB801
 6965 001c 000000C8 		.4byte	.LFE801-.LFB801
 6966 0020 48       		.byte	0x4
 6967              		.4byte	.LCFI1-.LFB801
 6968 0021 0E       		.byte	0xe
 6969 0022 18       		.uleb128 0x18
 6970 0023 44       		.byte	0x4
 6971              		.4byte	.LCFI2-.LCFI1
 6972 0024 9E       		.byte	0x9e
 6973 0025 02       		.uleb128 0x2
 6974 0026 09       		.byte	0x9
 6975 0027 41       		.uleb128 0x41
 6976 0028 00       		.uleb128 0x0
 6977 0029 4C       		.byte	0x4
 6978              		.4byte	.LCFI4-.LCFI2
 6979 002a 9D       		.byte	0x9d
 6980 002b 03       		.uleb128 0x3
 6981 002c 11       		.byte	0x11
 6982 002d 41       		.uleb128 0x41
 6983 002e 7F       		.sleb128 -1
 6984 002f 4C       		.byte	0x4
 6985              		.4byte	.LCFI5-.LCFI4
 6986 0030 9F       		.byte	0x9f
 6987 0031 01       		.uleb128 0x1
 6988 0032 0000     		.align 2
 6989              	.LEFDE0:
 6990              	.LSFDE2:
 6991 0034 0000001C 		.4byte	.LEFDE2-.LASFDE2
 6992              	.LASFDE2:
 6993 0038 00000000 		.4byte	.Lframe0
 6994 003c 000000C8 		.4byte	.LFB802
 6995 0040 00000088 		.4byte	.LFE802-.LFB802
 6996 0044 48       		.byte	0x4
 6997              		.4byte	.LCFI7-.LFB802
 6998 0045 0E       		.byte	0xe
 6999 0046 10       		.uleb128 0x10
 7000 0047 44       		.byte	0x4
 7001              		.4byte	.LCFI8-.LCFI7
 7002 0048 9E       		.byte	0x9e
 7003 0049 02       		.uleb128 0x2
 7004 004a 09       		.byte	0x9
 7005 004b 41       		.uleb128 0x41
 7006 004c 00       		.uleb128 0x0
 7007 004d 4C       		.byte	0x4
 7008              		.4byte	.LCFI10-.LCFI8
 7009 004e 9F       		.byte	0x9f
 7010 004f 01       		.uleb128 0x1
 7011 0050 11       		.byte	0x11
 7012 0051 41       		.uleb128 0x41
 7013 0052 7F       		.sleb128 -1
 7014 0053 00       		.align 2
 7015              	.LEFDE2:
 7016              	.LSFDE4:
 7017 0054 0000000C 		.4byte	.LEFDE4-.LASFDE4
 7018              	.LASFDE4:
 7019 0058 00000000 		.4byte	.Lframe0
 7020 005c 00000150 		.4byte	.LFB805
 7021 0060 00000048 		.4byte	.LFE805-.LFB805
 7022              		.align 2
 7023              	.LEFDE4:
 7024              	.LSFDE6:
 7025 0064 0000000C 		.4byte	.LEFDE6-.LASFDE6
 7026              	.LASFDE6:
 7027 0068 00000000 		.4byte	.Lframe0
 7028 006c 00000198 		.4byte	.LFB811
 7029 0070 00000028 		.4byte	.LFE811-.LFB811
 7030              		.align 2
 7031              	.LEFDE6:
 7032              	.LSFDE8:
 7033 0074 0000000C 		.4byte	.LEFDE8-.LASFDE8
 7034              	.LASFDE8:
 7035 0078 00000000 		.4byte	.Lframe0
 7036 007c 000001C0 		.4byte	.LFB812
 7037 0080 00000010 		.4byte	.LFE812-.LFB812
 7038              		.align 2
 7039              	.LEFDE8:
 7040              	.LSFDE10:
 7041 0084 00000020 		.4byte	.LEFDE10-.LASFDE10
 7042              	.LASFDE10:
 7043 0088 00000000 		.4byte	.Lframe0
 7044 008c 000001D0 		.4byte	.LFB804
 7045 0090 000000A8 		.4byte	.LFE804-.LFB804
 7046 0094 48       		.byte	0x4
 7047              		.4byte	.LCFI12-.LFB804
 7048 0095 0E       		.byte	0xe
 7049 0096 18       		.uleb128 0x18
 7050 0097 44       		.byte	0x4
 7051              		.4byte	.LCFI13-.LCFI12
 7052 0098 9D       		.byte	0x9d
 7053 0099 03       		.uleb128 0x3
 7054 009a 09       		.byte	0x9
 7055 009b 41       		.uleb128 0x41
 7056 009c 00       		.uleb128 0x0
 7057 009d 4C       		.byte	0x4
 7058              		.4byte	.LCFI15-.LCFI13
 7059 009e 9E       		.byte	0x9e
 7060 009f 02       		.uleb128 0x2
 7061 00a0 11       		.byte	0x11
 7062 00a1 41       		.uleb128 0x41
 7063 00a2 7F       		.sleb128 -1
 7064 00a3 48       		.byte	0x4
 7065              		.4byte	.LCFI16-.LCFI15
 7066 00a4 9F       		.byte	0x9f
 7067 00a5 01       		.uleb128 0x1
 7068 00a6 0000     		.align 2
 7069              	.LEFDE10:
 7070              	.LSFDE12:
 7071 00a8 00000020 		.4byte	.LEFDE12-.LASFDE12
 7072              	.LASFDE12:
 7073 00ac 00000000 		.4byte	.Lframe0
 7074 00b0 00000278 		.4byte	.LFB803
 7075 00b4 000000A8 		.4byte	.LFE803-.LFB803
 7076 00b8 48       		.byte	0x4
 7077              		.4byte	.LCFI18-.LFB803
 7078 00b9 0E       		.byte	0xe
 7079 00ba 18       		.uleb128 0x18
 7080 00bb 44       		.byte	0x4
 7081              		.4byte	.LCFI19-.LCFI18
 7082 00bc 9D       		.byte	0x9d
 7083 00bd 03       		.uleb128 0x3
 7084 00be 09       		.byte	0x9
 7085 00bf 41       		.uleb128 0x41
 7086 00c0 00       		.uleb128 0x0
 7087 00c1 4C       		.byte	0x4
 7088              		.4byte	.LCFI21-.LCFI19
 7089 00c2 9E       		.byte	0x9e
 7090 00c3 02       		.uleb128 0x2
 7091 00c4 11       		.byte	0x11
 7092 00c5 41       		.uleb128 0x41
 7093 00c6 7F       		.sleb128 -1
 7094 00c7 48       		.byte	0x4
 7095              		.4byte	.LCFI22-.LCFI21
 7096 00c8 9F       		.byte	0x9f
 7097 00c9 01       		.uleb128 0x1
 7098 00ca 0000     		.align 2
 7099              	.LEFDE12:
 7100              	.LSFDE14:
 7101 00cc 00000020 		.4byte	.LEFDE14-.LASFDE14
 7102              	.LASFDE14:
 7103 00d0 00000000 		.4byte	.Lframe0
 7104 00d4 00000320 		.4byte	.LFB800
 7105 00d8 0000006C 		.4byte	.LFE800-.LFB800
 7106 00dc 48       		.byte	0x4
 7107              		.4byte	.LCFI24-.LFB800
 7108 00dd 0E       		.byte	0xe
 7109 00de 18       		.uleb128 0x18
 7110 00df 48       		.byte	0x4
 7111              		.4byte	.LCFI25-.LCFI24
 7112 00e0 9D       		.byte	0x9d
 7113 00e1 03       		.uleb128 0x3
 7114 00e2 09       		.byte	0x9
 7115 00e3 41       		.uleb128 0x41
 7116 00e4 00       		.uleb128 0x0
 7117 00e5 4C       		.byte	0x4
 7118              		.4byte	.LCFI27-.LCFI25
 7119 00e6 9E       		.byte	0x9e
 7120 00e7 02       		.uleb128 0x2
 7121 00e8 11       		.byte	0x11
 7122 00e9 41       		.uleb128 0x41
 7123 00ea 7F       		.sleb128 -1
 7124 00eb 4C       		.byte	0x4
 7125              		.4byte	.LCFI28-.LCFI27
 7126 00ec 9F       		.byte	0x9f
 7127 00ed 01       		.uleb128 0x1
 7128 00ee 0000     		.align 2
 7129              	.LEFDE14:
 7130              	.LSFDE16:
 7131 00f0 0000002C 		.4byte	.LEFDE16-.LASFDE16
 7132              	.LASFDE16:
 7133 00f4 00000000 		.4byte	.Lframe0
 7134 00f8 0000038C 		.4byte	.LFB807
 7135 00fc 0000096C 		.4byte	.LFE807-.LFB807
 7136 0100 44       		.byte	0x4
 7137              		.4byte	.LCFI29-.LFB807
 7138 0101 0E       		.byte	0xe
 7139 0102 40       		.uleb128 0x40
 7140 0103 4C       		.byte	0x4
 7141              		.4byte	.LCFI31-.LCFI29
 7142 0104 9A       		.byte	0x9a
 7143 0105 08       		.uleb128 0x8
 7144 0106 09       		.byte	0x9
 7145 0107 41       		.uleb128 0x41
 7146 0108 00       		.uleb128 0x0
 7147 0109 48       		.byte	0x4
 7148              		.4byte	.LCFI32-.LCFI31
 7149 010a 11       		.byte	0x11
 7150 010b 41       		.uleb128 0x41
 7151 010c 7F       		.sleb128 -1
 7152 010d 54       		.byte	0x4
 7153              		.4byte	.LCFI34-.LCFI32
 7154 010e 9B       		.byte	0x9b
 7155 010f 07       		.uleb128 0x7
 7156 0110 99       		.byte	0x99
 7157 0111 09       		.uleb128 0x9
 7158 0112 48       		.byte	0x4
 7159              		.4byte	.LCFI35-.LCFI34
 7160 0113 9D       		.byte	0x9d
 7161 0114 05       		.uleb128 0x5
 7162 0115 54       		.byte	0x4
 7163              		.4byte	.LCFI39-.LCFI35
 7164 0116 9F       		.byte	0x9f
 7165 0117 03       		.uleb128 0x3
 7166 0118 9E       		.byte	0x9e
 7167 0119 04       		.uleb128 0x4
 7168 011a 9C       		.byte	0x9c
 7169 011b 06       		.uleb128 0x6
 7170 011c BF       		.byte	0xbf
 7171 011d 02       		.uleb128 0x2
 7172 011e 0000     		.align 2
 7173              	.LEFDE16:
 7174              	.LSFDE18:
 7175 0120 00000020 		.4byte	.LEFDE18-.LASFDE18
 7176              	.LASFDE18:
 7177 0124 00000000 		.4byte	.Lframe0
 7178 0128 00000CF8 		.4byte	.LFB806
 7179 012c 00000158 		.4byte	.LFE806-.LFB806
 7180 0130 48       		.byte	0x4
 7181              		.4byte	.LCFI41-.LFB806
 7182 0131 0E       		.byte	0xe
 7183 0132 18       		.uleb128 0x18
 7184 0133 44       		.byte	0x4
 7185              		.4byte	.LCFI42-.LCFI41
 7186 0134 9D       		.byte	0x9d
 7187 0135 03       		.uleb128 0x3
 7188 0136 09       		.byte	0x9
 7189 0137 41       		.uleb128 0x41
 7190 0138 00       		.uleb128 0x0
 7191 0139 50       		.byte	0x4
 7192              		.4byte	.LCFI45-.LCFI42
 7193 013a 11       		.byte	0x11
 7194 013b 41       		.uleb128 0x41
 7195 013c 7F       		.sleb128 -1
 7196 013d 9F       		.byte	0x9f
 7197 013e 01       		.uleb128 0x1
 7198 013f 9E       		.byte	0x9e
 7199 0140 02       		.uleb128 0x2
 7200 0141 000000   		.align 2
 7201              	.LEFDE18:
 7202              	.LSFDE20:
 7203 0144 00000020 		.4byte	.LEFDE20-.LASFDE20
 7204              	.LASFDE20:
 7205 0148 00000000 		.4byte	.Lframe0
 7206 014c 00000E50 		.4byte	.LFB799
 7207 0150 00000378 		.4byte	.LFE799-.LFB799
 7208 0154 48       		.byte	0x4
 7209              		.4byte	.LCFI47-.LFB799
 7210 0155 0E       		.byte	0xe
 7211 0156 18       		.uleb128 0x18
 7212 0157 48       		.byte	0x4
 7213              		.4byte	.LCFI48-.LCFI47
 7214 0158 9E       		.byte	0x9e
 7215 0159 02       		.uleb128 0x2
 7216 015a 09       		.byte	0x9
 7217 015b 41       		.uleb128 0x41
 7218 015c 00       		.uleb128 0x0
 7219 015d 54       		.byte	0x4
 7220              		.4byte	.LCFI50-.LCFI48
 7221 015e 9C       		.byte	0x9c
 7222 015f 04       		.uleb128 0x4
 7223 0160 11       		.byte	0x11
 7224 0161 41       		.uleb128 0x41
 7225 0162 7F       		.sleb128 -1
 7226 0163 54       		.byte	0x4
 7227              		.4byte	.LCFI52-.LCFI50
 7228 0164 9F       		.byte	0x9f
 7229 0165 01       		.uleb128 0x1
 7230 0166 9D       		.byte	0x9d
 7231 0167 03       		.uleb128 0x3
 7232              		.align 2
 7233              	.LEFDE20:
 7234              	.LSFDE22:
 7235 0168 00000020 		.4byte	.LEFDE22-.LASFDE22
 7236              	.LASFDE22:
 7237 016c 00000000 		.4byte	.Lframe0
 7238 0170 000011C8 		.4byte	.LFB798
 7239 0174 00000378 		.4byte	.LFE798-.LFB798
 7240 0178 48       		.byte	0x4
 7241              		.4byte	.LCFI54-.LFB798
 7242 0179 0E       		.byte	0xe
 7243 017a 18       		.uleb128 0x18
 7244 017b 48       		.byte	0x4
 7245              		.4byte	.LCFI55-.LCFI54
 7246 017c 9E       		.byte	0x9e
 7247 017d 02       		.uleb128 0x2
 7248 017e 09       		.byte	0x9
 7249 017f 41       		.uleb128 0x41
 7250 0180 00       		.uleb128 0x0
 7251 0181 54       		.byte	0x4
 7252              		.4byte	.LCFI57-.LCFI55
 7253 0182 9C       		.byte	0x9c
 7254 0183 04       		.uleb128 0x4
 7255 0184 11       		.byte	0x11
 7256 0185 41       		.uleb128 0x41
 7257 0186 7F       		.sleb128 -1
 7258 0187 54       		.byte	0x4
 7259              		.4byte	.LCFI59-.LCFI57
 7260 0188 9F       		.byte	0x9f
 7261 0189 01       		.uleb128 0x1
 7262 018a 9D       		.byte	0x9d
 7263 018b 03       		.uleb128 0x3
 7264              		.align 2
 7265              	.LEFDE22:
 7266              	.LSFDE24:
 7267 018c 00000034 		.4byte	.LEFDE24-.LASFDE24
 7268              	.LASFDE24:
 7269 0190 00000000 		.4byte	.Lframe0
 7270 0194 00001540 		.4byte	.LFB796
 7271 0198 00000920 		.4byte	.LFE796-.LFB796
 7272 019c 48       		.byte	0x4
 7273              		.4byte	.LCFI61-.LFB796
 7274 019d 0E       		.byte	0xe
 7275 019e A801     		.uleb128 0xa8
 7276 01a0 44       		.byte	0x4
 7277              		.4byte	.LCFI62-.LCFI61
 7278 01a1 97       		.byte	0x97
 7279 01a2 09       		.uleb128 0x9
 7280 01a3 09       		.byte	0x9
 7281 01a4 41       		.uleb128 0x41
 7282 01a5 00       		.uleb128 0x0
 7283 01a6 48       		.byte	0x4
 7284              		.4byte	.LCFI63-.LCFI62
 7285 01a7 98       		.byte	0x98
 7286 01a8 08       		.uleb128 0x8
 7287 01a9 48       		.byte	0x4
 7288              		.4byte	.LCFI64-.LCFI63
 7289 01aa 99       		.byte	0x99
 7290 01ab 07       		.uleb128 0x7
 7291 01ac 48       		.byte	0x4
 7292              		.4byte	.LCFI65-.LCFI64
 7293 01ad 9A       		.byte	0x9a
 7294 01ae 06       		.uleb128 0x6
 7295 01af 48       		.byte	0x4
 7296              		.4byte	.LCFI66-.LCFI65
 7297 01b0 9B       		.byte	0x9b
 7298 01b1 05       		.uleb128 0x5
 7299 01b2 48       		.byte	0x4
 7300              		.4byte	.LCFI67-.LCFI66
 7301 01b3 9C       		.byte	0x9c
 7302 01b4 04       		.uleb128 0x4
 7303 01b5 48       		.byte	0x4
 7304              		.4byte	.LCFI68-.LCFI67
 7305 01b6 9D       		.byte	0x9d
 7306 01b7 03       		.uleb128 0x3
 7307 01b8 48       		.byte	0x4
 7308              		.4byte	.LCFI69-.LCFI68
 7309 01b9 9E       		.byte	0x9e
 7310 01ba 02       		.uleb128 0x2
 7311 01bb 48       		.byte	0x4
 7312              		.4byte	.LCFI70-.LCFI69
 7313 01bc 9F       		.byte	0x9f
 7314 01bd 01       		.uleb128 0x1
 7315 01be 48       		.byte	0x4
 7316              		.4byte	.LCFI71-.LCFI70
 7317 01bf 11       		.byte	0x11
 7318 01c0 41       		.uleb128 0x41
 7319 01c1 7F       		.sleb128 -1
 7320 01c2 0000     		.align 2
 7321              	.LEFDE24:
 7322              	.LSFDE26:
 7323 01c4 00000034 		.4byte	.LEFDE26-.LASFDE26
 7324              	.LASFDE26:
 7325 01c8 00000000 		.4byte	.Lframe0
 7326 01cc 00001E60 		.4byte	.LFB795
 7327 01d0 00000920 		.4byte	.LFE795-.LFB795
 7328 01d4 48       		.byte	0x4
 7329              		.4byte	.LCFI73-.LFB795
 7330 01d5 0E       		.byte	0xe
 7331 01d6 A801     		.uleb128 0xa8
 7332 01d8 44       		.byte	0x4
 7333              		.4byte	.LCFI74-.LCFI73
 7334 01d9 97       		.byte	0x97
 7335 01da 09       		.uleb128 0x9
 7336 01db 09       		.byte	0x9
 7337 01dc 41       		.uleb128 0x41
 7338 01dd 00       		.uleb128 0x0
 7339 01de 48       		.byte	0x4
 7340              		.4byte	.LCFI75-.LCFI74
 7341 01df 98       		.byte	0x98
 7342 01e0 08       		.uleb128 0x8
 7343 01e1 48       		.byte	0x4
 7344              		.4byte	.LCFI76-.LCFI75
 7345 01e2 99       		.byte	0x99
 7346 01e3 07       		.uleb128 0x7
 7347 01e4 48       		.byte	0x4
 7348              		.4byte	.LCFI77-.LCFI76
 7349 01e5 9A       		.byte	0x9a
 7350 01e6 06       		.uleb128 0x6
 7351 01e7 48       		.byte	0x4
 7352              		.4byte	.LCFI78-.LCFI77
 7353 01e8 9B       		.byte	0x9b
 7354 01e9 05       		.uleb128 0x5
 7355 01ea 48       		.byte	0x4
 7356              		.4byte	.LCFI79-.LCFI78
 7357 01eb 9C       		.byte	0x9c
 7358 01ec 04       		.uleb128 0x4
 7359 01ed 48       		.byte	0x4
 7360              		.4byte	.LCFI80-.LCFI79
 7361 01ee 9D       		.byte	0x9d
 7362 01ef 03       		.uleb128 0x3
 7363 01f0 48       		.byte	0x4
 7364              		.4byte	.LCFI81-.LCFI80
 7365 01f1 9E       		.byte	0x9e
 7366 01f2 02       		.uleb128 0x2
 7367 01f3 48       		.byte	0x4
 7368              		.4byte	.LCFI82-.LCFI81
 7369 01f4 9F       		.byte	0x9f
 7370 01f5 01       		.uleb128 0x1
 7371 01f6 48       		.byte	0x4
 7372              		.4byte	.LCFI83-.LCFI82
 7373 01f7 11       		.byte	0x11
 7374 01f8 41       		.uleb128 0x41
 7375 01f9 7F       		.sleb128 -1
 7376 01fa 0000     		.align 2
 7377              	.LEFDE26:
 7378              	.LSFDE28:
 7379 01fc 00000030 		.4byte	.LEFDE28-.LASFDE28
 7380              	.LASFDE28:
 7381 0200 00000000 		.4byte	.Lframe0
 7382 0204 00002780 		.4byte	.LFB793
 7383 0208 0000084C 		.4byte	.LFE793-.LFB793
 7384 020c 48       		.byte	0x4
 7385              		.4byte	.LCFI85-.LFB793
 7386 020d 0E       		.byte	0xe
 7387 020e 30       		.uleb128 0x30
 7388 020f 44       		.byte	0x4
 7389              		.4byte	.LCFI86-.LCFI85
 7390 0210 98       		.byte	0x98
 7391 0211 08       		.uleb128 0x8
 7392 0212 09       		.byte	0x9
 7393 0213 41       		.uleb128 0x41
 7394 0214 00       		.uleb128 0x0
 7395 0215 48       		.byte	0x4
 7396              		.4byte	.LCFI87-.LCFI86
 7397 0216 99       		.byte	0x99
 7398 0217 07       		.uleb128 0x7
 7399 0218 48       		.byte	0x4
 7400              		.4byte	.LCFI88-.LCFI87
 7401 0219 9A       		.byte	0x9a
 7402 021a 06       		.uleb128 0x6
 7403 021b 48       		.byte	0x4
 7404              		.4byte	.LCFI89-.LCFI88
 7405 021c 9B       		.byte	0x9b
 7406 021d 05       		.uleb128 0x5
 7407 021e 48       		.byte	0x4
 7408              		.4byte	.LCFI90-.LCFI89
 7409 021f 9C       		.byte	0x9c
 7410 0220 04       		.uleb128 0x4
 7411 0221 48       		.byte	0x4
 7412              		.4byte	.LCFI91-.LCFI90
 7413 0222 9D       		.byte	0x9d
 7414 0223 03       		.uleb128 0x3
 7415 0224 48       		.byte	0x4
 7416              		.4byte	.LCFI92-.LCFI91
 7417 0225 9F       		.byte	0x9f
 7418 0226 01       		.uleb128 0x1
 7419 0227 4C       		.byte	0x4
 7420              		.4byte	.LCFI94-.LCFI92
 7421 0228 9E       		.byte	0x9e
 7422 0229 02       		.uleb128 0x2
 7423 022a 11       		.byte	0x11
 7424 022b 41       		.uleb128 0x41
 7425 022c 7F       		.sleb128 -1
 7426 022d 000000   		.align 2
 7427              	.LEFDE28:
 7428              	.LSFDE30:
 7429 0230 00000030 		.4byte	.LEFDE30-.LASFDE30
 7430              	.LASFDE30:
 7431 0234 00000000 		.4byte	.Lframe0
 7432 0238 00002FCC 		.4byte	.LFB792
 7433 023c 0000084C 		.4byte	.LFE792-.LFB792
 7434 0240 48       		.byte	0x4
 7435              		.4byte	.LCFI96-.LFB792
 7436 0241 0E       		.byte	0xe
 7437 0242 30       		.uleb128 0x30
 7438 0243 44       		.byte	0x4
 7439              		.4byte	.LCFI97-.LCFI96
 7440 0244 98       		.byte	0x98
 7441 0245 08       		.uleb128 0x8
 7442 0246 09       		.byte	0x9
 7443 0247 41       		.uleb128 0x41
 7444 0248 00       		.uleb128 0x0
 7445 0249 48       		.byte	0x4
 7446              		.4byte	.LCFI98-.LCFI97
 7447 024a 99       		.byte	0x99
 7448 024b 07       		.uleb128 0x7
 7449 024c 48       		.byte	0x4
 7450              		.4byte	.LCFI99-.LCFI98
 7451 024d 9A       		.byte	0x9a
 7452 024e 06       		.uleb128 0x6
 7453 024f 48       		.byte	0x4
 7454              		.4byte	.LCFI100-.LCFI99
 7455 0250 9B       		.byte	0x9b
 7456 0251 05       		.uleb128 0x5
 7457 0252 48       		.byte	0x4
 7458              		.4byte	.LCFI101-.LCFI100
 7459 0253 9C       		.byte	0x9c
 7460 0254 04       		.uleb128 0x4
 7461 0255 48       		.byte	0x4
 7462              		.4byte	.LCFI102-.LCFI101
 7463 0256 9D       		.byte	0x9d
 7464 0257 03       		.uleb128 0x3
 7465 0258 48       		.byte	0x4
 7466              		.4byte	.LCFI103-.LCFI102
 7467 0259 9F       		.byte	0x9f
 7468 025a 01       		.uleb128 0x1
 7469 025b 4C       		.byte	0x4
 7470              		.4byte	.LCFI105-.LCFI103
 7471 025c 9E       		.byte	0x9e
 7472 025d 02       		.uleb128 0x2
 7473 025e 11       		.byte	0x11
 7474 025f 41       		.uleb128 0x41
 7475 0260 7F       		.sleb128 -1
 7476 0261 000000   		.align 2
 7477              	.LEFDE30:
 7478              		.section	.eh_frame,"a",@progbits
 7479              	.Lframe1:
 7480 0000 00000018 		.4byte	.LECIE1-.LSCIE1
 7481              	.LSCIE1:
 7482 0004 00000000 		.4byte	0x0
 7483 0008 01       		.byte	0x1
 7484 0009 7A504C00 		.string	"zPL"
 7485 000d 01       		.uleb128 0x1
 7486 000e 7C       		.sleb128 -4
 7487 000f 41       		.byte	0x41
 7488 0010 06       		.uleb128 0x6
 7489 0011 00       		.byte	0x0
 7490 0012 00000000 		.4byte	__gxx_personality_v0
 7491 0016 00       		.byte	0x0
 7492 0017 0C       		.byte	0xc
 7493 0018 01       		.uleb128 0x1
 7494 0019 00       		.uleb128 0x0
 7495 001a 0000     		.align 2
 7496              	.LECIE1:
 7497              	.LSFDE1:
 7498 001c 00000024 		.4byte	.LEFDE1-.LASFDE1
 7499              	.LASFDE1:
 7500 0020 00000020 		.4byte	.LASFDE1-.Lframe1
 7501 0024 00000000 		.4byte	.LFB801
 7502 0028 000000C8 		.4byte	.LFE801-.LFB801
 7503 002c 04       		.uleb128 0x4
 7504 002d 00000000 		.4byte	0x0
 7505 0031 48       		.byte	0x4
 7506              		.4byte	.LCFI1-.LFB801
 7507 0032 0E       		.byte	0xe
 7508 0033 18       		.uleb128 0x18
 7509 0034 44       		.byte	0x4
 7510              		.4byte	.LCFI2-.LCFI1
 7511 0035 9E       		.byte	0x9e
 7512 0036 02       		.uleb128 0x2
 7513 0037 09       		.byte	0x9
 7514 0038 41       		.uleb128 0x41
 7515 0039 00       		.uleb128 0x0
 7516 003a 4C       		.byte	0x4
 7517              		.4byte	.LCFI4-.LCFI2
 7518 003b 9D       		.byte	0x9d
 7519 003c 03       		.uleb128 0x3
 7520 003d 11       		.byte	0x11
 7521 003e 41       		.uleb128 0x41
 7522 003f 7F       		.sleb128 -1
 7523 0040 4C       		.byte	0x4
 7524              		.4byte	.LCFI5-.LCFI4
 7525 0041 9F       		.byte	0x9f
 7526 0042 01       		.uleb128 0x1
 7527 0043 00       		.align 2
 7528              	.LEFDE1:
 7529              	.LSFDE3:
 7530 0044 00000020 		.4byte	.LEFDE3-.LASFDE3
 7531              	.LASFDE3:
 7532 0048 00000048 		.4byte	.LASFDE3-.Lframe1
 7533 004c 000000C8 		.4byte	.LFB802
 7534 0050 00000088 		.4byte	.LFE802-.LFB802
 7535 0054 04       		.uleb128 0x4
 7536 0055 00000000 		.4byte	0x0
 7537 0059 48       		.byte	0x4
 7538              		.4byte	.LCFI7-.LFB802
 7539 005a 0E       		.byte	0xe
 7540 005b 10       		.uleb128 0x10
 7541 005c 44       		.byte	0x4
 7542              		.4byte	.LCFI8-.LCFI7
 7543 005d 9E       		.byte	0x9e
 7544 005e 02       		.uleb128 0x2
 7545 005f 09       		.byte	0x9
 7546 0060 41       		.uleb128 0x41
 7547 0061 00       		.uleb128 0x0
 7548 0062 4C       		.byte	0x4
 7549              		.4byte	.LCFI10-.LCFI8
 7550 0063 9F       		.byte	0x9f
 7551 0064 01       		.uleb128 0x1
 7552 0065 11       		.byte	0x11
 7553 0066 41       		.uleb128 0x41
 7554 0067 7F       		.sleb128 -1
 7555              		.align 2
 7556              	.LEFDE3:
 7557              	.LSFDE11:
 7558 0068 00000024 		.4byte	.LEFDE11-.LASFDE11
 7559              	.LASFDE11:
 7560 006c 0000006C 		.4byte	.LASFDE11-.Lframe1
 7561 0070 000001D0 		.4byte	.LFB804
 7562 0074 000000A8 		.4byte	.LFE804-.LFB804
 7563 0078 04       		.uleb128 0x4
 7564 0079 00000000 		.4byte	0x0
 7565 007d 48       		.byte	0x4
 7566              		.4byte	.LCFI12-.LFB804
 7567 007e 0E       		.byte	0xe
 7568 007f 18       		.uleb128 0x18
 7569 0080 44       		.byte	0x4
 7570              		.4byte	.LCFI13-.LCFI12
 7571 0081 9D       		.byte	0x9d
 7572 0082 03       		.uleb128 0x3
 7573 0083 09       		.byte	0x9
 7574 0084 41       		.uleb128 0x41
 7575 0085 00       		.uleb128 0x0
 7576 0086 4C       		.byte	0x4
 7577              		.4byte	.LCFI15-.LCFI13
 7578 0087 9E       		.byte	0x9e
 7579 0088 02       		.uleb128 0x2
 7580 0089 11       		.byte	0x11
 7581 008a 41       		.uleb128 0x41
 7582 008b 7F       		.sleb128 -1
 7583 008c 48       		.byte	0x4
 7584              		.4byte	.LCFI16-.LCFI15
 7585 008d 9F       		.byte	0x9f
 7586 008e 01       		.uleb128 0x1
 7587 008f 00       		.align 2
 7588              	.LEFDE11:
 7589              	.LSFDE13:
 7590 0090 00000024 		.4byte	.LEFDE13-.LASFDE13
 7591              	.LASFDE13:
 7592 0094 00000094 		.4byte	.LASFDE13-.Lframe1
 7593 0098 00000278 		.4byte	.LFB803
 7594 009c 000000A8 		.4byte	.LFE803-.LFB803
 7595 00a0 04       		.uleb128 0x4
 7596 00a1 00000000 		.4byte	0x0
 7597 00a5 48       		.byte	0x4
 7598              		.4byte	.LCFI18-.LFB803
 7599 00a6 0E       		.byte	0xe
 7600 00a7 18       		.uleb128 0x18
 7601 00a8 44       		.byte	0x4
 7602              		.4byte	.LCFI19-.LCFI18
 7603 00a9 9D       		.byte	0x9d
 7604 00aa 03       		.uleb128 0x3
 7605 00ab 09       		.byte	0x9
 7606 00ac 41       		.uleb128 0x41
 7607 00ad 00       		.uleb128 0x0
 7608 00ae 4C       		.byte	0x4
 7609              		.4byte	.LCFI21-.LCFI19
 7610 00af 9E       		.byte	0x9e
 7611 00b0 02       		.uleb128 0x2
 7612 00b1 11       		.byte	0x11
 7613 00b2 41       		.uleb128 0x41
 7614 00b3 7F       		.sleb128 -1
 7615 00b4 48       		.byte	0x4
 7616              		.4byte	.LCFI22-.LCFI21
 7617 00b5 9F       		.byte	0x9f
 7618 00b6 01       		.uleb128 0x1
 7619 00b7 00       		.align 2
 7620              	.LEFDE13:
 7621              	.LSFDE15:
 7622 00b8 00000024 		.4byte	.LEFDE15-.LASFDE15
 7623              	.LASFDE15:
 7624 00bc 000000BC 		.4byte	.LASFDE15-.Lframe1
 7625 00c0 00000320 		.4byte	.LFB800
 7626 00c4 0000006C 		.4byte	.LFE800-.LFB800
 7627 00c8 04       		.uleb128 0x4
 7628 00c9 00000000 		.4byte	0x0
 7629 00cd 48       		.byte	0x4
 7630              		.4byte	.LCFI24-.LFB800
 7631 00ce 0E       		.byte	0xe
 7632 00cf 18       		.uleb128 0x18
 7633 00d0 48       		.byte	0x4
 7634              		.4byte	.LCFI25-.LCFI24
 7635 00d1 9D       		.byte	0x9d
 7636 00d2 03       		.uleb128 0x3
 7637 00d3 09       		.byte	0x9
 7638 00d4 41       		.uleb128 0x41
 7639 00d5 00       		.uleb128 0x0
 7640 00d6 4C       		.byte	0x4
 7641              		.4byte	.LCFI27-.LCFI25
 7642 00d7 9E       		.byte	0x9e
 7643 00d8 02       		.uleb128 0x2
 7644 00d9 11       		.byte	0x11
 7645 00da 41       		.uleb128 0x41
 7646 00db 7F       		.sleb128 -1
 7647 00dc 4C       		.byte	0x4
 7648              		.4byte	.LCFI28-.LCFI27
 7649 00dd 9F       		.byte	0x9f
 7650 00de 01       		.uleb128 0x1
 7651 00df 00       		.align 2
 7652              	.LEFDE15:
 7653              	.LSFDE17:
 7654 00e0 00000030 		.4byte	.LEFDE17-.LASFDE17
 7655              	.LASFDE17:
 7656 00e4 000000E4 		.4byte	.LASFDE17-.Lframe1
 7657 00e8 0000038C 		.4byte	.LFB807
 7658 00ec 0000096C 		.4byte	.LFE807-.LFB807
 7659 00f0 04       		.uleb128 0x4
 7660 00f1 00000000 		.4byte	0x0
 7661 00f5 44       		.byte	0x4
 7662              		.4byte	.LCFI29-.LFB807
 7663 00f6 0E       		.byte	0xe
 7664 00f7 40       		.uleb128 0x40
 7665 00f8 4C       		.byte	0x4
 7666              		.4byte	.LCFI31-.LCFI29
 7667 00f9 9A       		.byte	0x9a
 7668 00fa 08       		.uleb128 0x8
 7669 00fb 09       		.byte	0x9
 7670 00fc 41       		.uleb128 0x41
 7671 00fd 00       		.uleb128 0x0
 7672 00fe 48       		.byte	0x4
 7673              		.4byte	.LCFI32-.LCFI31
 7674 00ff 11       		.byte	0x11
 7675 0100 41       		.uleb128 0x41
 7676 0101 7F       		.sleb128 -1
 7677 0102 54       		.byte	0x4
 7678              		.4byte	.LCFI34-.LCFI32
 7679 0103 9B       		.byte	0x9b
 7680 0104 07       		.uleb128 0x7
 7681 0105 99       		.byte	0x99
 7682 0106 09       		.uleb128 0x9
 7683 0107 48       		.byte	0x4
 7684              		.4byte	.LCFI35-.LCFI34
 7685 0108 9D       		.byte	0x9d
 7686 0109 05       		.uleb128 0x5
 7687 010a 54       		.byte	0x4
 7688              		.4byte	.LCFI39-.LCFI35
 7689 010b 9F       		.byte	0x9f
 7690 010c 03       		.uleb128 0x3
 7691 010d 9E       		.byte	0x9e
 7692 010e 04       		.uleb128 0x4
 7693 010f 9C       		.byte	0x9c
 7694 0110 06       		.uleb128 0x6
 7695 0111 BF       		.byte	0xbf
 7696 0112 02       		.uleb128 0x2
 7697 0113 00       		.align 2
 7698              	.LEFDE17:
 7699              	.LSFDE19:
 7700 0114 00000024 		.4byte	.LEFDE19-.LASFDE19
 7701              	.LASFDE19:
 7702 0118 00000118 		.4byte	.LASFDE19-.Lframe1
 7703 011c 00000CF8 		.4byte	.LFB806
 7704 0120 00000158 		.4byte	.LFE806-.LFB806
 7705 0124 04       		.uleb128 0x4
 7706 0125 00000000 		.4byte	0x0
 7707 0129 48       		.byte	0x4
 7708              		.4byte	.LCFI41-.LFB806
 7709 012a 0E       		.byte	0xe
 7710 012b 18       		.uleb128 0x18
 7711 012c 44       		.byte	0x4
 7712              		.4byte	.LCFI42-.LCFI41
 7713 012d 9D       		.byte	0x9d
 7714 012e 03       		.uleb128 0x3
 7715 012f 09       		.byte	0x9
 7716 0130 41       		.uleb128 0x41
 7717 0131 00       		.uleb128 0x0
 7718 0132 50       		.byte	0x4
 7719              		.4byte	.LCFI45-.LCFI42
 7720 0133 11       		.byte	0x11
 7721 0134 41       		.uleb128 0x41
 7722 0135 7F       		.sleb128 -1
 7723 0136 9F       		.byte	0x9f
 7724 0137 01       		.uleb128 0x1
 7725 0138 9E       		.byte	0x9e
 7726 0139 02       		.uleb128 0x2
 7727 013a 0000     		.align 2
 7728              	.LEFDE19:
 7729              	.LSFDE21:
 7730 013c 00000028 		.4byte	.LEFDE21-.LASFDE21
 7731              	.LASFDE21:
 7732 0140 00000140 		.4byte	.LASFDE21-.Lframe1
 7733 0144 00000E50 		.4byte	.LFB799
 7734 0148 00000378 		.4byte	.LFE799-.LFB799
 7735 014c 04       		.uleb128 0x4
 7736 014d 00000000 		.4byte	.LLSDA799
 7737 0151 48       		.byte	0x4
 7738              		.4byte	.LCFI47-.LFB799
 7739 0152 0E       		.byte	0xe
 7740 0153 18       		.uleb128 0x18
 7741 0154 48       		.byte	0x4
 7742              		.4byte	.LCFI48-.LCFI47
 7743 0155 9E       		.byte	0x9e
 7744 0156 02       		.uleb128 0x2
 7745 0157 09       		.byte	0x9
 7746 0158 41       		.uleb128 0x41
 7747 0159 00       		.uleb128 0x0
 7748 015a 54       		.byte	0x4
 7749              		.4byte	.LCFI50-.LCFI48
 7750 015b 9C       		.byte	0x9c
 7751 015c 04       		.uleb128 0x4
 7752 015d 11       		.byte	0x11
 7753 015e 41       		.uleb128 0x41
 7754 015f 7F       		.sleb128 -1
 7755 0160 54       		.byte	0x4
 7756              		.4byte	.LCFI52-.LCFI50
 7757 0161 9F       		.byte	0x9f
 7758 0162 01       		.uleb128 0x1
 7759 0163 9D       		.byte	0x9d
 7760 0164 03       		.uleb128 0x3
 7761 0165 000000   		.align 2
 7762              	.LEFDE21:
 7763              	.LSFDE23:
 7764 0168 00000028 		.4byte	.LEFDE23-.LASFDE23
 7765              	.LASFDE23:
 7766 016c 0000016C 		.4byte	.LASFDE23-.Lframe1
 7767 0170 000011C8 		.4byte	.LFB798
 7768 0174 00000378 		.4byte	.LFE798-.LFB798
 7769 0178 04       		.uleb128 0x4
 7770 0179 0000001B 		.4byte	.LLSDA798
 7771 017d 48       		.byte	0x4
 7772              		.4byte	.LCFI54-.LFB798
 7773 017e 0E       		.byte	0xe
 7774 017f 18       		.uleb128 0x18
 7775 0180 48       		.byte	0x4
 7776              		.4byte	.LCFI55-.LCFI54
 7777 0181 9E       		.byte	0x9e
 7778 0182 02       		.uleb128 0x2
 7779 0183 09       		.byte	0x9
 7780 0184 41       		.uleb128 0x41
 7781 0185 00       		.uleb128 0x0
 7782 0186 54       		.byte	0x4
 7783              		.4byte	.LCFI57-.LCFI55
 7784 0187 9C       		.byte	0x9c
 7785 0188 04       		.uleb128 0x4
 7786 0189 11       		.byte	0x11
 7787 018a 41       		.uleb128 0x41
 7788 018b 7F       		.sleb128 -1
 7789 018c 54       		.byte	0x4
 7790              		.4byte	.LCFI59-.LCFI57
 7791 018d 9F       		.byte	0x9f
 7792 018e 01       		.uleb128 0x1
 7793 018f 9D       		.byte	0x9d
 7794 0190 03       		.uleb128 0x3
 7795 0191 000000   		.align 2
 7796              	.LEFDE23:
 7797              	.LSFDE25:
 7798 0194 00000038 		.4byte	.LEFDE25-.LASFDE25
 7799              	.LASFDE25:
 7800 0198 00000198 		.4byte	.LASFDE25-.Lframe1
 7801 019c 00001540 		.4byte	.LFB796
 7802 01a0 00000920 		.4byte	.LFE796-.LFB796
 7803 01a4 04       		.uleb128 0x4
 7804 01a5 00000036 		.4byte	.LLSDA796
 7805 01a9 48       		.byte	0x4
 7806              		.4byte	.LCFI61-.LFB796
 7807 01aa 0E       		.byte	0xe
 7808 01ab A801     		.uleb128 0xa8
 7809 01ad 44       		.byte	0x4
 7810              		.4byte	.LCFI62-.LCFI61
 7811 01ae 97       		.byte	0x97
 7812 01af 09       		.uleb128 0x9
 7813 01b0 09       		.byte	0x9
 7814 01b1 41       		.uleb128 0x41
 7815 01b2 00       		.uleb128 0x0
 7816 01b3 48       		.byte	0x4
 7817              		.4byte	.LCFI63-.LCFI62
 7818 01b4 98       		.byte	0x98
 7819 01b5 08       		.uleb128 0x8
 7820 01b6 48       		.byte	0x4
 7821              		.4byte	.LCFI64-.LCFI63
 7822 01b7 99       		.byte	0x99
 7823 01b8 07       		.uleb128 0x7
 7824 01b9 48       		.byte	0x4
 7825              		.4byte	.LCFI65-.LCFI64
 7826 01ba 9A       		.byte	0x9a
 7827 01bb 06       		.uleb128 0x6
 7828 01bc 48       		.byte	0x4
 7829              		.4byte	.LCFI66-.LCFI65
 7830 01bd 9B       		.byte	0x9b
 7831 01be 05       		.uleb128 0x5
 7832 01bf 48       		.byte	0x4
 7833              		.4byte	.LCFI67-.LCFI66
 7834 01c0 9C       		.byte	0x9c
 7835 01c1 04       		.uleb128 0x4
 7836 01c2 48       		.byte	0x4
 7837              		.4byte	.LCFI68-.LCFI67
 7838 01c3 9D       		.byte	0x9d
 7839 01c4 03       		.uleb128 0x3
 7840 01c5 48       		.byte	0x4
 7841              		.4byte	.LCFI69-.LCFI68
 7842 01c6 9E       		.byte	0x9e
 7843 01c7 02       		.uleb128 0x2
 7844 01c8 48       		.byte	0x4
 7845              		.4byte	.LCFI70-.LCFI69
 7846 01c9 9F       		.byte	0x9f
 7847 01ca 01       		.uleb128 0x1
 7848 01cb 48       		.byte	0x4
 7849              		.4byte	.LCFI71-.LCFI70
 7850 01cc 11       		.byte	0x11
 7851 01cd 41       		.uleb128 0x41
 7852 01ce 7F       		.sleb128 -1
 7853 01cf 00       		.align 2
 7854              	.LEFDE25:
 7855              	.LSFDE27:
 7856 01d0 00000038 		.4byte	.LEFDE27-.LASFDE27
 7857              	.LASFDE27:
 7858 01d4 000001D4 		.4byte	.LASFDE27-.Lframe1
 7859 01d8 00001E60 		.4byte	.LFB795
 7860 01dc 00000920 		.4byte	.LFE795-.LFB795
 7861 01e0 04       		.uleb128 0x4
 7862 01e1 00000192 		.4byte	.LLSDA795
 7863 01e5 48       		.byte	0x4
 7864              		.4byte	.LCFI73-.LFB795
 7865 01e6 0E       		.byte	0xe
 7866 01e7 A801     		.uleb128 0xa8
 7867 01e9 44       		.byte	0x4
 7868              		.4byte	.LCFI74-.LCFI73
 7869 01ea 97       		.byte	0x97
 7870 01eb 09       		.uleb128 0x9
 7871 01ec 09       		.byte	0x9
 7872 01ed 41       		.uleb128 0x41
 7873 01ee 00       		.uleb128 0x0
 7874 01ef 48       		.byte	0x4
 7875              		.4byte	.LCFI75-.LCFI74
 7876 01f0 98       		.byte	0x98
 7877 01f1 08       		.uleb128 0x8
 7878 01f2 48       		.byte	0x4
 7879              		.4byte	.LCFI76-.LCFI75
 7880 01f3 99       		.byte	0x99
 7881 01f4 07       		.uleb128 0x7
 7882 01f5 48       		.byte	0x4
 7883              		.4byte	.LCFI77-.LCFI76
 7884 01f6 9A       		.byte	0x9a
 7885 01f7 06       		.uleb128 0x6
 7886 01f8 48       		.byte	0x4
 7887              		.4byte	.LCFI78-.LCFI77
 7888 01f9 9B       		.byte	0x9b
 7889 01fa 05       		.uleb128 0x5
 7890 01fb 48       		.byte	0x4
 7891              		.4byte	.LCFI79-.LCFI78
 7892 01fc 9C       		.byte	0x9c
 7893 01fd 04       		.uleb128 0x4
 7894 01fe 48       		.byte	0x4
 7895              		.4byte	.LCFI80-.LCFI79
 7896 01ff 9D       		.byte	0x9d
 7897 0200 03       		.uleb128 0x3
 7898 0201 48       		.byte	0x4
 7899              		.4byte	.LCFI81-.LCFI80
 7900 0202 9E       		.byte	0x9e
 7901 0203 02       		.uleb128 0x2
 7902 0204 48       		.byte	0x4
 7903              		.4byte	.LCFI82-.LCFI81
 7904 0205 9F       		.byte	0x9f
 7905 0206 01       		.uleb128 0x1
 7906 0207 48       		.byte	0x4
 7907              		.4byte	.LCFI83-.LCFI82
 7908 0208 11       		.byte	0x11
 7909 0209 41       		.uleb128 0x41
 7910 020a 7F       		.sleb128 -1
 7911 020b 00       		.align 2
 7912              	.LEFDE27:
 7913              	.LSFDE29:
 7914 020c 00000034 		.4byte	.LEFDE29-.LASFDE29
 7915              	.LASFDE29:
 7916 0210 00000210 		.4byte	.LASFDE29-.Lframe1
 7917 0214 00002780 		.4byte	.LFB793
 7918 0218 0000084C 		.4byte	.LFE793-.LFB793
 7919 021c 04       		.uleb128 0x4
 7920 021d 000002EE 		.4byte	.LLSDA793
 7921 0221 48       		.byte	0x4
 7922              		.4byte	.LCFI85-.LFB793
 7923 0222 0E       		.byte	0xe
 7924 0223 30       		.uleb128 0x30
 7925 0224 44       		.byte	0x4
 7926              		.4byte	.LCFI86-.LCFI85
 7927 0225 98       		.byte	0x98
 7928 0226 08       		.uleb128 0x8
 7929 0227 09       		.byte	0x9
 7930 0228 41       		.uleb128 0x41
 7931 0229 00       		.uleb128 0x0
 7932 022a 48       		.byte	0x4
 7933              		.4byte	.LCFI87-.LCFI86
 7934 022b 99       		.byte	0x99
 7935 022c 07       		.uleb128 0x7
 7936 022d 48       		.byte	0x4
 7937              		.4byte	.LCFI88-.LCFI87
 7938 022e 9A       		.byte	0x9a
 7939 022f 06       		.uleb128 0x6
 7940 0230 48       		.byte	0x4
 7941              		.4byte	.LCFI89-.LCFI88
 7942 0231 9B       		.byte	0x9b
 7943 0232 05       		.uleb128 0x5
 7944 0233 48       		.byte	0x4
 7945              		.4byte	.LCFI90-.LCFI89
 7946 0234 9C       		.byte	0x9c
 7947 0235 04       		.uleb128 0x4
 7948 0236 48       		.byte	0x4
 7949              		.4byte	.LCFI91-.LCFI90
 7950 0237 9D       		.byte	0x9d
 7951 0238 03       		.uleb128 0x3
 7952 0239 48       		.byte	0x4
 7953              		.4byte	.LCFI92-.LCFI91
 7954 023a 9F       		.byte	0x9f
 7955 023b 01       		.uleb128 0x1
 7956 023c 4C       		.byte	0x4
 7957              		.4byte	.LCFI94-.LCFI92
 7958 023d 9E       		.byte	0x9e
 7959 023e 02       		.uleb128 0x2
 7960 023f 11       		.byte	0x11
 7961 0240 41       		.uleb128 0x41
 7962 0241 7F       		.sleb128 -1
 7963 0242 0000     		.align 2
 7964              	.LEFDE29:
 7965              	.LSFDE31:
 7966 0244 00000034 		.4byte	.LEFDE31-.LASFDE31
 7967              	.LASFDE31:
 7968 0248 00000248 		.4byte	.LASFDE31-.Lframe1
 7969 024c 00002FCC 		.4byte	.LFB792
 7970 0250 0000084C 		.4byte	.LFE792-.LFB792
 7971 0254 04       		.uleb128 0x4
 7972 0255 0000044A 		.4byte	.LLSDA792
 7973 0259 48       		.byte	0x4
 7974              		.4byte	.LCFI96-.LFB792
 7975 025a 0E       		.byte	0xe
 7976 025b 30       		.uleb128 0x30
 7977 025c 44       		.byte	0x4
 7978              		.4byte	.LCFI97-.LCFI96
 7979 025d 98       		.byte	0x98
 7980 025e 08       		.uleb128 0x8
 7981 025f 09       		.byte	0x9
 7982 0260 41       		.uleb128 0x41
 7983 0261 00       		.uleb128 0x0
 7984 0262 48       		.byte	0x4
 7985              		.4byte	.LCFI98-.LCFI97
 7986 0263 99       		.byte	0x99
 7987 0264 07       		.uleb128 0x7
 7988 0265 48       		.byte	0x4
 7989              		.4byte	.LCFI99-.LCFI98
 7990 0266 9A       		.byte	0x9a
 7991 0267 06       		.uleb128 0x6
 7992 0268 48       		.byte	0x4
 7993              		.4byte	.LCFI100-.LCFI99
 7994 0269 9B       		.byte	0x9b
 7995 026a 05       		.uleb128 0x5
 7996 026b 48       		.byte	0x4
 7997              		.4byte	.LCFI101-.LCFI100
 7998 026c 9C       		.byte	0x9c
 7999 026d 04       		.uleb128 0x4
 8000 026e 48       		.byte	0x4
 8001              		.4byte	.LCFI102-.LCFI101
 8002 026f 9D       		.byte	0x9d
 8003 0270 03       		.uleb128 0x3
 8004 0271 48       		.byte	0x4
 8005              		.4byte	.LCFI103-.LCFI102
 8006 0272 9F       		.byte	0x9f
 8007 0273 01       		.uleb128 0x1
 8008 0274 4C       		.byte	0x4
 8009              		.4byte	.LCFI105-.LCFI103
 8010 0275 9E       		.byte	0x9e
 8011 0276 02       		.uleb128 0x2
 8012 0277 11       		.byte	0x11
 8013 0278 41       		.uleb128 0x41
 8014 0279 7F       		.sleb128 -1
 8015 027a 0000     		.align 2
 8016              	.LEFDE31:
 8017              		.section	".text"
 8018              	.Letext0:
 8019              		.section	.debug_loc,"",@progbits
 8020              	.Ldebug_loc0:
 8021              	.LLST0:
 8022 0000 00000000 		.4byte	.LFB801-.Ltext0
 8023 0004 00000008 		.4byte	.LCFI1-.Ltext0
 8024 0008 0001     		.2byte	0x1
 8025 000a 51       		.byte	0x51
 8026 000b 00000008 		.4byte	.LCFI1-.Ltext0
 8027 000f 000000C8 		.4byte	.LFE801-.Ltext0
 8028 0013 0002     		.2byte	0x2
 8029 0015 71       		.byte	0x71
 8030 0016 18       		.sleb128 24
 8031 0017 00000000 		.4byte	0x0
 8032 001b 00000000 		.4byte	0x0
 8033              	.LLST1:
 8034 001f 00000000 		.4byte	.LVL0-.Ltext0
 8035 0023 00000020 		.4byte	.LVL1-.Ltext0
 8036 0027 0001     		.2byte	0x1
 8037 0029 53       		.byte	0x53
 8038 002a 00000020 		.4byte	.LVL1-.Ltext0
 8039 002e 00000074 		.4byte	.LVL4-.Ltext0
 8040 0032 0001     		.2byte	0x1
 8041 0034 6E       		.byte	0x6e
 8042 0035 00000084 		.4byte	.LVL5-.Ltext0
 8043 0039 000000B8 		.4byte	.LVL7-.Ltext0
 8044 003d 0001     		.2byte	0x1
 8045 003f 6E       		.byte	0x6e
 8046 0040 00000000 		.4byte	0x0
 8047 0044 00000000 		.4byte	0x0
 8048              	.LLST2:
 8049 0048 00000000 		.4byte	.LVL0-.Ltext0
 8050 004c 0000003C 		.4byte	.LVL2-.Ltext0
 8051 0050 0001     		.2byte	0x1
 8052 0052 54       		.byte	0x54
 8053 0053 0000003C 		.4byte	.LVL2-.Ltext0
 8054 0057 00000070 		.4byte	.LVL3-.Ltext0
 8055 005b 0001     		.2byte	0x1
 8056 005d 6D       		.byte	0x6d
 8057 005e 00000084 		.4byte	.LVL5-.Ltext0
 8058 0062 000000B4 		.4byte	.LVL6-.Ltext0
 8059 0066 0001     		.2byte	0x1
 8060 0068 6D       		.byte	0x6d
 8061 0069 00000000 		.4byte	0x0
 8062 006d 00000000 		.4byte	0x0
 8063              	.LLST3:
 8064 0071 000000C8 		.4byte	.LFB802-.Ltext0
 8065 0075 000000D0 		.4byte	.LCFI7-.Ltext0
 8066 0079 0001     		.2byte	0x1
 8067 007b 51       		.byte	0x51
 8068 007c 000000D0 		.4byte	.LCFI7-.Ltext0
 8069 0080 00000150 		.4byte	.LFE802-.Ltext0
 8070 0084 0002     		.2byte	0x2
 8071 0086 71       		.byte	0x71
 8072 0087 10       		.sleb128 16
 8073 0088 00000000 		.4byte	0x0
 8074 008c 00000000 		.4byte	0x0
 8075              	.LLST4:
 8076 0090 000000C8 		.4byte	.LVL8-.Ltext0
 8077 0094 00000100 		.4byte	.LVL9-.Ltext0
 8078 0098 0001     		.2byte	0x1
 8079 009a 53       		.byte	0x53
 8080 009b 00000100 		.4byte	.LVL9-.Ltext0
 8081 009f 00000140 		.4byte	.LVL10-.Ltext0
 8082 00a3 0001     		.2byte	0x1
 8083 00a5 6E       		.byte	0x6e
 8084 00a6 00000000 		.4byte	0x0
 8085 00aa 00000000 		.4byte	0x0
 8086              	.LLST6:
 8087 00ae 00000150 		.4byte	.LVL11-.Ltext0
 8088 00b2 0000015C 		.4byte	.LVL13-.Ltext0
 8089 00b6 0001     		.2byte	0x1
 8090 00b8 53       		.byte	0x53
 8091 00b9 0000015C 		.4byte	.LVL13-.Ltext0
 8092 00bd 00000198 		.4byte	.LFE805-.Ltext0
 8093 00c1 0001     		.2byte	0x1
 8094 00c3 58       		.byte	0x58
 8095 00c4 00000000 		.4byte	0x0
 8096 00c8 00000000 		.4byte	0x0
 8097              	.LLST7:
 8098 00cc 00000150 		.4byte	.LVL11-.Ltext0
 8099 00d0 00000158 		.4byte	.LVL12-.Ltext0
 8100 00d4 0001     		.2byte	0x1
 8101 00d6 55       		.byte	0x55
 8102 00d7 00000000 		.4byte	0x0
 8103 00db 00000000 		.4byte	0x0
 8104              	.LLST8:
 8105 00df 0000015C 		.4byte	.LVL13-.Ltext0
 8106 00e3 00000194 		.4byte	.LVL15-.Ltext0
 8107 00e7 0001     		.2byte	0x1
 8108 00e9 53       		.byte	0x53
 8109 00ea 00000000 		.4byte	0x0
 8110 00ee 00000000 		.4byte	0x0
 8111              	.LLST11:
 8112 00f2 000001D0 		.4byte	.LFB804-.Ltext0
 8113 00f6 000001D8 		.4byte	.LCFI12-.Ltext0
 8114 00fa 0001     		.2byte	0x1
 8115 00fc 51       		.byte	0x51
 8116 00fd 000001D8 		.4byte	.LCFI12-.Ltext0
 8117 0101 00000278 		.4byte	.LFE804-.Ltext0
 8118 0105 0002     		.2byte	0x2
 8119 0107 71       		.byte	0x71
 8120 0108 18       		.sleb128 24
 8121 0109 00000000 		.4byte	0x0
 8122 010d 00000000 		.4byte	0x0
 8123              	.LLST12:
 8124 0111 000001D0 		.4byte	.LVL17-.Ltext0
 8125 0115 000001EC 		.4byte	.LVL19-.Ltext0
 8126 0119 0001     		.2byte	0x1
 8127 011b 53       		.byte	0x53
 8128 011c 000001EC 		.4byte	.LVL19-.Ltext0
 8129 0120 00000224 		.4byte	.LVL23-.Ltext0
 8130 0124 0001     		.2byte	0x1
 8131 0126 6E       		.byte	0x6e
 8132 0127 00000234 		.4byte	.LVL24-.Ltext0
 8133 012b 0000026C 		.4byte	.LVL28-.Ltext0
 8134 012f 0001     		.2byte	0x1
 8135 0131 6E       		.byte	0x6e
 8136 0132 00000000 		.4byte	0x0
 8137 0136 00000000 		.4byte	0x0
 8138              	.LLST13:
 8139 013a 0000021C 		.4byte	.LVL20-.Ltext0
 8140 013e 00000220 		.4byte	.LVL22-.Ltext0
 8141 0142 0001     		.2byte	0x1
 8142 0144 53       		.byte	0x53
 8143 0145 00000260 		.4byte	.LVL26-.Ltext0
 8144 0149 00000260 		.4byte	.LVL27-.Ltext0
 8145 014d 0001     		.2byte	0x1
 8146 014f 53       		.byte	0x53
 8147 0150 00000000 		.4byte	0x0
 8148 0154 00000000 		.4byte	0x0
 8149              	.LLST14:
 8150 0158 000001E0 		.4byte	.LVL18-.Ltext0
 8151 015c 00000220 		.4byte	.LVL21-.Ltext0
 8152 0160 0001     		.2byte	0x1
 8153 0162 6D       		.byte	0x6d
 8154 0163 00000234 		.4byte	.LVL24-.Ltext0
 8155 0167 00000238 		.4byte	.LVL25-.Ltext0
 8156 016b 0001     		.2byte	0x1
 8157 016d 6D       		.byte	0x6d
 8158 016e 00000000 		.4byte	0x0
 8159 0172 00000000 		.4byte	0x0
 8160              	.LLST15:
 8161 0176 00000278 		.4byte	.LFB803-.Ltext0
 8162 017a 00000280 		.4byte	.LCFI18-.Ltext0
 8163 017e 0001     		.2byte	0x1
 8164 0180 51       		.byte	0x51
 8165 0181 00000280 		.4byte	.LCFI18-.Ltext0
 8166 0185 00000320 		.4byte	.LFE803-.Ltext0
 8167 0189 0002     		.2byte	0x2
 8168 018b 71       		.byte	0x71
 8169 018c 18       		.sleb128 24
 8170 018d 00000000 		.4byte	0x0
 8171 0191 00000000 		.4byte	0x0
 8172              	.LLST16:
 8173 0195 00000278 		.4byte	.LVL29-.Ltext0
 8174 0199 00000294 		.4byte	.LVL31-.Ltext0
 8175 019d 0001     		.2byte	0x1
 8176 019f 53       		.byte	0x53
 8177 01a0 00000294 		.4byte	.LVL31-.Ltext0
 8178 01a4 000002CC 		.4byte	.LVL35-.Ltext0
 8179 01a8 0001     		.2byte	0x1
 8180 01aa 6E       		.byte	0x6e
 8181 01ab 000002DC 		.4byte	.LVL36-.Ltext0
 8182 01af 00000314 		.4byte	.LVL40-.Ltext0
 8183 01b3 0001     		.2byte	0x1
 8184 01b5 6E       		.byte	0x6e
 8185 01b6 00000000 		.4byte	0x0
 8186 01ba 00000000 		.4byte	0x0
 8187              	.LLST17:
 8188 01be 000002C4 		.4byte	.LVL32-.Ltext0
 8189 01c2 000002C8 		.4byte	.LVL34-.Ltext0
 8190 01c6 0001     		.2byte	0x1
 8191 01c8 53       		.byte	0x53
 8192 01c9 00000308 		.4byte	.LVL38-.Ltext0
 8193 01cd 00000308 		.4byte	.LVL39-.Ltext0
 8194 01d1 0001     		.2byte	0x1
 8195 01d3 53       		.byte	0x53
 8196 01d4 00000000 		.4byte	0x0
 8197 01d8 00000000 		.4byte	0x0
 8198              	.LLST18:
 8199 01dc 00000288 		.4byte	.LVL30-.Ltext0
 8200 01e0 000002C8 		.4byte	.LVL33-.Ltext0
 8201 01e4 0001     		.2byte	0x1
 8202 01e6 6D       		.byte	0x6d
 8203 01e7 000002DC 		.4byte	.LVL36-.Ltext0
 8204 01eb 000002E0 		.4byte	.LVL37-.Ltext0
 8205 01ef 0001     		.2byte	0x1
 8206 01f1 6D       		.byte	0x6d
 8207 01f2 00000000 		.4byte	0x0
 8208 01f6 00000000 		.4byte	0x0
 8209              	.LLST19:
 8210 01fa 00000320 		.4byte	.LFB800-.Ltext0
 8211 01fe 00000328 		.4byte	.LCFI24-.Ltext0
 8212 0202 0001     		.2byte	0x1
 8213 0204 51       		.byte	0x51
 8214 0205 00000328 		.4byte	.LCFI24-.Ltext0
 8215 0209 0000038C 		.4byte	.LFE800-.Ltext0
 8216 020d 0002     		.2byte	0x2
 8217 020f 71       		.byte	0x71
 8218 0210 18       		.sleb128 24
 8219 0211 00000000 		.4byte	0x0
 8220 0215 00000000 		.4byte	0x0
 8221              	.LLST20:
 8222 0219 00000320 		.4byte	.LVL41-.Ltext0
 8223 021d 00000344 		.4byte	.LVL42-.Ltext0
 8224 0221 0001     		.2byte	0x1
 8225 0223 53       		.byte	0x53
 8226 0224 00000344 		.4byte	.LVL42-.Ltext0
 8227 0228 00000378 		.4byte	.LVL44-.Ltext0
 8228 022c 0001     		.2byte	0x1
 8229 022e 6D       		.byte	0x6d
 8230 022f 00000000 		.4byte	0x0
 8231 0233 00000000 		.4byte	0x0
 8232              	.LLST21:
 8233 0237 00000320 		.4byte	.LVL41-.Ltext0
 8234 023b 00000350 		.4byte	.LVL43-.Ltext0
 8235 023f 0001     		.2byte	0x1
 8236 0241 54       		.byte	0x54
 8237 0242 00000350 		.4byte	.LVL43-.Ltext0
 8238 0246 0000037C 		.4byte	.LVL45-.Ltext0
 8239 024a 0001     		.2byte	0x1
 8240 024c 6E       		.byte	0x6e
 8241 024d 00000000 		.4byte	0x0
 8242 0251 00000000 		.4byte	0x0
 8243              	.LLST22:
 8244 0255 0000038C 		.4byte	.LFB807-.Ltext0
 8245 0259 00000390 		.4byte	.LCFI29-.Ltext0
 8246 025d 0001     		.2byte	0x1
 8247 025f 51       		.byte	0x51
 8248 0260 00000390 		.4byte	.LCFI29-.Ltext0
 8249 0264 00000CF8 		.4byte	.LFE807-.Ltext0
 8250 0268 0003     		.2byte	0x3
 8251 026a 71       		.byte	0x71
 8252 026b C000     		.sleb128 64
 8253 026d 00000000 		.4byte	0x0
 8254 0271 00000000 		.4byte	0x0
 8255              	.LLST23:
 8256 0275 0000038C 		.4byte	.LVL46-.Ltext0
 8257 0279 000003DC 		.4byte	.LVL48-.Ltext0
 8258 027d 0001     		.2byte	0x1
 8259 027f 53       		.byte	0x53
 8260 0280 000003DC 		.4byte	.LVL48-.Ltext0
 8261 0284 000006B4 		.4byte	.LVL64-.Ltext0
 8262 0288 0001     		.2byte	0x1
 8263 028a 6D       		.byte	0x6d
 8264 028b 000006B4 		.4byte	.LVL64-.Ltext0
 8265 028f 000006C8 		.4byte	.LVL66-.Ltext0
 8266 0293 0001     		.2byte	0x1
 8267 0295 53       		.byte	0x53
 8268 0296 000006C8 		.4byte	.LVL66-.Ltext0
 8269 029a 00000CF8 		.4byte	.LFE807-.Ltext0
 8270 029e 0001     		.2byte	0x1
 8271 02a0 6D       		.byte	0x6d
 8272 02a1 00000000 		.4byte	0x0
 8273 02a5 00000000 		.4byte	0x0
 8274              	.LLST24:
 8275 02a9 0000038C 		.4byte	.LVL46-.Ltext0
 8276 02ad 000003DC 		.4byte	.LVL48-.Ltext0
 8277 02b1 0001     		.2byte	0x1
 8278 02b3 54       		.byte	0x54
 8279 02b4 000003DC 		.4byte	.LVL48-.Ltext0
 8280 02b8 000006AC 		.4byte	.LVL62-.Ltext0
 8281 02bc 0001     		.2byte	0x1
 8282 02be 6B       		.byte	0x6b
 8283 02bf 000006AC 		.4byte	.LVL62-.Ltext0
 8284 02c3 000006C8 		.4byte	.LVL66-.Ltext0
 8285 02c7 0001     		.2byte	0x1
 8286 02c9 54       		.byte	0x54
 8287 02ca 000006C8 		.4byte	.LVL66-.Ltext0
 8288 02ce 00000CF8 		.4byte	.LFE807-.Ltext0
 8289 02d2 0001     		.2byte	0x1
 8290 02d4 6B       		.byte	0x6b
 8291 02d5 00000000 		.4byte	0x0
 8292 02d9 00000000 		.4byte	0x0
 8293              	.LLST25:
 8294 02dd 0000046C 		.4byte	.LVL50-.Ltext0
 8295 02e1 000006B8 		.4byte	.LVL65-.Ltext0
 8296 02e5 0001     		.2byte	0x1
 8297 02e7 6E       		.byte	0x6e
 8298 02e8 000006C8 		.4byte	.LVL66-.Ltext0
 8299 02ec 00000814 		.4byte	.LVL71-.Ltext0
 8300 02f0 0001     		.2byte	0x1
 8301 02f2 6E       		.byte	0x6e
 8302 02f3 000008AC 		.4byte	.LVL74-.Ltext0
 8303 02f7 00000928 		.4byte	.LVL75-.Ltext0
 8304 02fb 0001     		.2byte	0x1
 8305 02fd 6E       		.byte	0x6e
 8306 02fe 00000964 		.4byte	.LVL77-.Ltext0
 8307 0302 000009F4 		.4byte	.LVL81-.Ltext0
 8308 0306 0001     		.2byte	0x1
 8309 0308 6E       		.byte	0x6e
 8310 0309 00000A54 		.4byte	.LVL83-.Ltext0
 8311 030d 00000CF8 		.4byte	.LFE807-.Ltext0
 8312 0311 0001     		.2byte	0x1
 8313 0313 6E       		.byte	0x6e
 8314 0314 00000000 		.4byte	0x0
 8315 0318 00000000 		.4byte	0x0
 8316              	.LLST26:
 8317 031c 00000680 		.4byte	.LVL58-.Ltext0
 8318 0320 00000690 		.4byte	.LVL59-.Ltext0
 8319 0324 0001     		.2byte	0x1
 8320 0326 53       		.byte	0x53
 8321 0327 00000698 		.4byte	.LVL60-.Ltext0
 8322 032b 000006C8 		.4byte	.LVL66-.Ltext0
 8323 032f 0001     		.2byte	0x1
 8324 0331 53       		.byte	0x53
 8325 0332 000007D0 		.4byte	.LVL67-.Ltext0
 8326 0336 000007E8 		.4byte	.LVL68-.Ltext0
 8327 033a 0001     		.2byte	0x1
 8328 033c 53       		.byte	0x53
 8329 033d 00000804 		.4byte	.LVL69-.Ltext0
 8330 0341 00000808 		.4byte	.LVL70-.Ltext0
 8331 0345 0001     		.2byte	0x1
 8332 0347 53       		.byte	0x53
 8333 0348 00000A74 		.4byte	.LVL84-.Ltext0
 8334 034c 00000A8C 		.4byte	.LVL85-.Ltext0
 8335 0350 0001     		.2byte	0x1
 8336 0352 53       		.byte	0x53
 8337 0353 00000C3C 		.4byte	.LVL87-.Ltext0
 8338 0357 00000C48 		.4byte	.LVL88-.Ltext0
 8339 035b 0001     		.2byte	0x1
 8340 035d 53       		.byte	0x53
 8341 035e 00000C90 		.4byte	.LVL89-.Ltext0
 8342 0362 00000C9C 		.4byte	.LVL90-.Ltext0
 8343 0366 0001     		.2byte	0x1
 8344 0368 53       		.byte	0x53
 8345 0369 00000000 		.4byte	0x0
 8346 036d 00000000 		.4byte	0x0
 8347              	.LLST27:
 8348 0371 000003D8 		.4byte	.LVL47-.Ltext0
 8349 0375 000006A0 		.4byte	.LVL61-.Ltext0
 8350 0379 0001     		.2byte	0x1
 8351 037b 69       		.byte	0x69
 8352 037c 000006C8 		.4byte	.LVL66-.Ltext0
 8353 0380 00000CF8 		.4byte	.LFE807-.Ltext0
 8354 0384 0001     		.2byte	0x1
 8355 0386 69       		.byte	0x69
 8356 0387 00000000 		.4byte	0x0
 8357 038b 00000000 		.4byte	0x0
 8358              	.LLST28:
 8359 038f 00000474 		.4byte	.LVL51-.Ltext0
 8360 0393 00000514 		.4byte	.LVL54-.Ltext0
 8361 0397 0001     		.2byte	0x1
 8362 0399 6C       		.byte	0x6c
 8363 039a 00000514 		.4byte	.LVL54-.Ltext0
 8364 039e 0000051C 		.4byte	.LVL55-.Ltext0
 8365 03a2 0001     		.2byte	0x1
 8366 03a4 59       		.byte	0x59
 8367 03a5 0000051C 		.4byte	.LVL55-.Ltext0
 8368 03a9 0000062C 		.4byte	.LVL56-.Ltext0
 8369 03ad 0001     		.2byte	0x1
 8370 03af 6C       		.byte	0x6c
 8371 03b0 0000062C 		.4byte	.LVL56-.Ltext0
 8372 03b4 00000630 		.4byte	.LVL57-.Ltext0
 8373 03b8 0001     		.2byte	0x1
 8374 03ba 59       		.byte	0x59
 8375 03bb 00000630 		.4byte	.LVL57-.Ltext0
 8376 03bf 000006B0 		.4byte	.LVL63-.Ltext0
 8377 03c3 0001     		.2byte	0x1
 8378 03c5 6C       		.byte	0x6c
 8379 03c6 000006C8 		.4byte	.LVL66-.Ltext0
 8380 03ca 00000854 		.4byte	.LVL73-.Ltext0
 8381 03ce 0001     		.2byte	0x1
 8382 03d0 6C       		.byte	0x6c
 8383 03d1 000008AC 		.4byte	.LVL74-.Ltext0
 8384 03d5 000009F4 		.4byte	.LVL81-.Ltext0
 8385 03d9 0001     		.2byte	0x1
 8386 03db 6C       		.byte	0x6c
 8387 03dc 00000A54 		.4byte	.LVL83-.Ltext0
 8388 03e0 00000CF8 		.4byte	.LFE807-.Ltext0
 8389 03e4 0001     		.2byte	0x1
 8390 03e6 6C       		.byte	0x6c
 8391 03e7 00000000 		.4byte	0x0
 8392 03eb 00000000 		.4byte	0x0
 8393              	.LLST29:
 8394 03ef 0000099C 		.4byte	.LVL78-.Ltext0
 8395 03f3 000009AC 		.4byte	.LVL79-.Ltext0
 8396 03f7 0001     		.2byte	0x1
 8397 03f9 55       		.byte	0x55
 8398 03fa 00000000 		.4byte	0x0
 8399 03fe 00000000 		.4byte	0x0
 8400              	.LLST30:
 8401 0402 0000092C 		.4byte	.LVL76-.Ltext0
 8402 0406 000009BC 		.4byte	.LVL80-.Ltext0
 8403 040a 0001     		.2byte	0x1
 8404 040c 6F       		.byte	0x6f
 8405 040d 00000A8C 		.4byte	.LVL85-.Ltext0
 8406 0411 00000B7C 		.4byte	.LVL86-.Ltext0
 8407 0415 0001     		.2byte	0x1
 8408 0417 6F       		.byte	0x6f
 8409 0418 00000CE4 		.4byte	.LVL91-.Ltext0
 8410 041c 00000CF8 		.4byte	.LFE807-.Ltext0
 8411 0420 0001     		.2byte	0x1
 8412 0422 6F       		.byte	0x6f
 8413 0423 00000000 		.4byte	0x0
 8414 0427 00000000 		.4byte	0x0
 8415              	.LLST31:
 8416 042b 00000818 		.4byte	.LVL72-.Ltext0
 8417 042f 00000854 		.4byte	.LVL73-.Ltext0
 8418 0433 0001     		.2byte	0x1
 8419 0435 6F       		.byte	0x6f
 8420 0436 00000964 		.4byte	.LVL77-.Ltext0
 8421 043a 000009BC 		.4byte	.LVL80-.Ltext0
 8422 043e 0001     		.2byte	0x1
 8423 0440 6F       		.byte	0x6f
 8424 0441 00000A8C 		.4byte	.LVL85-.Ltext0
 8425 0445 00000B7C 		.4byte	.LVL86-.Ltext0
 8426 0449 0001     		.2byte	0x1
 8427 044b 6F       		.byte	0x6f
 8428 044c 00000CE4 		.4byte	.LVL91-.Ltext0
 8429 0450 00000CF8 		.4byte	.LFE807-.Ltext0
 8430 0454 0001     		.2byte	0x1
 8431 0456 6F       		.byte	0x6f
 8432 0457 00000000 		.4byte	0x0
 8433 045b 00000000 		.4byte	0x0
 8434              	.LLST32:
 8435 045f 00000CF8 		.4byte	.LFB806-.Ltext0
 8436 0463 00000D00 		.4byte	.LCFI41-.Ltext0
 8437 0467 0001     		.2byte	0x1
 8438 0469 51       		.byte	0x51
 8439 046a 00000D00 		.4byte	.LCFI41-.Ltext0
 8440 046e 00000E50 		.4byte	.LFE806-.Ltext0
 8441 0472 0002     		.2byte	0x2
 8442 0474 71       		.byte	0x71
 8443 0475 18       		.sleb128 24
 8444 0476 00000000 		.4byte	0x0
 8445 047a 00000000 		.4byte	0x0
 8446              	.LLST33:
 8447 047e 00000CF8 		.4byte	.LVL92-.Ltext0
 8448 0482 00000D18 		.4byte	.LVL93-.Ltext0
 8449 0486 0001     		.2byte	0x1
 8450 0488 53       		.byte	0x53
 8451 0489 00000D18 		.4byte	.LVL93-.Ltext0
 8452 048d 00000D28 		.4byte	.LVL94-.Ltext0
 8453 0491 0001     		.2byte	0x1
 8454 0493 6D       		.byte	0x6d
 8455 0494 00000D3C 		.4byte	.LVL95-.Ltext0
 8456 0498 00000DE8 		.4byte	.LVL98-.Ltext0
 8457 049c 0001     		.2byte	0x1
 8458 049e 6D       		.byte	0x6d
 8459 049f 00000DFC 		.4byte	.LVL100-.Ltext0
 8460 04a3 00000E50 		.4byte	.LFE806-.Ltext0
 8461 04a7 0001     		.2byte	0x1
 8462 04a9 6D       		.byte	0x6d
 8463 04aa 00000000 		.4byte	0x0
 8464 04ae 00000000 		.4byte	0x0
 8465              	.LLST34:
 8466 04b2 00000D54 		.4byte	.LVL96-.Ltext0
 8467 04b6 00000DF4 		.4byte	.LVL99-.Ltext0
 8468 04ba 0001     		.2byte	0x1
 8469 04bc 6F       		.byte	0x6f
 8470 04bd 00000DFC 		.4byte	.LVL100-.Ltext0
 8471 04c1 00000E50 		.4byte	.LFE806-.Ltext0
 8472 04c5 0001     		.2byte	0x1
 8473 04c7 6F       		.byte	0x6f
 8474 04c8 00000000 		.4byte	0x0
 8475 04cc 00000000 		.4byte	0x0
 8476              	.LLST35:
 8477 04d0 00000E50 		.4byte	.LFB799-.Ltext0
 8478 04d4 00000E58 		.4byte	.LCFI47-.Ltext0
 8479 04d8 0001     		.2byte	0x1
 8480 04da 51       		.byte	0x51
 8481 04db 00000E58 		.4byte	.LCFI47-.Ltext0
 8482 04df 000011C8 		.4byte	.LFE799-.Ltext0
 8483 04e3 0002     		.2byte	0x2
 8484 04e5 71       		.byte	0x71
 8485 04e6 18       		.sleb128 24
 8486 04e7 00000000 		.4byte	0x0
 8487 04eb 00000000 		.4byte	0x0
 8488              	.LLST36:
 8489 04ef 00000E50 		.4byte	.LVL101-.Ltext0
 8490 04f3 00000E90 		.4byte	.LVL102-.Ltext0
 8491 04f7 0001     		.2byte	0x1
 8492 04f9 53       		.byte	0x53
 8493 04fa 00000E90 		.4byte	.LVL102-.Ltext0
 8494 04fe 00000FBC 		.4byte	.LVL113-.Ltext0
 8495 0502 0001     		.2byte	0x1
 8496 0504 6C       		.byte	0x6c
 8497 0505 00000FD4 		.4byte	.LVL115-.Ltext0
 8498 0509 00000FE4 		.4byte	.LVL116-.Ltext0
 8499 050d 0001     		.2byte	0x1
 8500 050f 53       		.byte	0x53
 8501 0510 00000FE4 		.4byte	.LVL116-.Ltext0
 8502 0514 000011C8 		.4byte	.LFE799-.Ltext0
 8503 0518 0001     		.2byte	0x1
 8504 051a 6C       		.byte	0x6c
 8505 051b 00000000 		.4byte	0x0
 8506 051f 00000000 		.4byte	0x0
 8507              	.LLST37:
 8508 0523 00000F2C 		.4byte	.LVL108-.Ltext0
 8509 0527 00000FC8 		.4byte	.LVL114-.Ltext0
 8510 052b 0001     		.2byte	0x1
 8511 052d 6E       		.byte	0x6e
 8512 052e 000011B4 		.4byte	.LVL133-.Ltext0
 8513 0532 000011C8 		.4byte	.LFE799-.Ltext0
 8514 0536 0001     		.2byte	0x1
 8515 0538 6E       		.byte	0x6e
 8516 0539 00000000 		.4byte	0x0
 8517 053d 00000000 		.4byte	0x0
 8518              	.LLST38:
 8519 0541 000011C8 		.4byte	.LFB798-.Ltext0
 8520 0545 000011D0 		.4byte	.LCFI54-.Ltext0
 8521 0549 0001     		.2byte	0x1
 8522 054b 51       		.byte	0x51
 8523 054c 000011D0 		.4byte	.LCFI54-.Ltext0
 8524 0550 00001540 		.4byte	.LFE798-.Ltext0
 8525 0554 0002     		.2byte	0x2
 8526 0556 71       		.byte	0x71
 8527 0557 18       		.sleb128 24
 8528 0558 00000000 		.4byte	0x0
 8529 055c 00000000 		.4byte	0x0
 8530              	.LLST39:
 8531 0560 000011C8 		.4byte	.LVL134-.Ltext0
 8532 0564 00001208 		.4byte	.LVL135-.Ltext0
 8533 0568 0001     		.2byte	0x1
 8534 056a 53       		.byte	0x53
 8535 056b 00001208 		.4byte	.LVL135-.Ltext0
 8536 056f 00001334 		.4byte	.LVL146-.Ltext0
 8537 0573 0001     		.2byte	0x1
 8538 0575 6C       		.byte	0x6c
 8539 0576 0000134C 		.4byte	.LVL148-.Ltext0
 8540 057a 0000135C 		.4byte	.LVL149-.Ltext0
 8541 057e 0001     		.2byte	0x1
 8542 0580 53       		.byte	0x53
 8543 0581 0000135C 		.4byte	.LVL149-.Ltext0
 8544 0585 00001540 		.4byte	.LFE798-.Ltext0
 8545 0589 0001     		.2byte	0x1
 8546 058b 6C       		.byte	0x6c
 8547 058c 00000000 		.4byte	0x0
 8548 0590 00000000 		.4byte	0x0
 8549              	.LLST40:
 8550 0594 000012A4 		.4byte	.LVL141-.Ltext0
 8551 0598 00001340 		.4byte	.LVL147-.Ltext0
 8552 059c 0001     		.2byte	0x1
 8553 059e 6E       		.byte	0x6e
 8554 059f 0000152C 		.4byte	.LVL166-.Ltext0
 8555 05a3 00001540 		.4byte	.LFE798-.Ltext0
 8556 05a7 0001     		.2byte	0x1
 8557 05a9 6E       		.byte	0x6e
 8558 05aa 00000000 		.4byte	0x0
 8559 05ae 00000000 		.4byte	0x0
 8560              	.LLST41:
 8561 05b2 00001540 		.4byte	.LFB796-.Ltext0
 8562 05b6 00001548 		.4byte	.LCFI61-.Ltext0
 8563 05ba 0001     		.2byte	0x1
 8564 05bc 51       		.byte	0x51
 8565 05bd 00001548 		.4byte	.LCFI61-.Ltext0
 8566 05c1 00001E60 		.4byte	.LFE796-.Ltext0
 8567 05c5 0003     		.2byte	0x3
 8568 05c7 71       		.byte	0x71
 8569 05c8 A801     		.sleb128 168
 8570 05ca 00000000 		.4byte	0x0
 8571 05ce 00000000 		.4byte	0x0
 8572              	.LLST42:
 8573 05d2 00001540 		.4byte	.LVL167-.Ltext0
 8574 05d6 00001598 		.4byte	.LVL168-.Ltext0
 8575 05da 0001     		.2byte	0x1
 8576 05dc 53       		.byte	0x53
 8577 05dd 00001598 		.4byte	.LVL168-.Ltext0
 8578 05e1 00001900 		.4byte	.LVL178-.Ltext0
 8579 05e5 0001     		.2byte	0x1
 8580 05e7 6F       		.byte	0x6f
 8581 05e8 00001908 		.4byte	.LVL179-.Ltext0
 8582 05ec 00001E60 		.4byte	.LFE796-.Ltext0
 8583 05f0 0001     		.2byte	0x1
 8584 05f2 6F       		.byte	0x6f
 8585 05f3 00000000 		.4byte	0x0
 8586 05f7 00000000 		.4byte	0x0
 8587              	.LLST43:
 8588 05fb 00001540 		.4byte	.LVL167-.Ltext0
 8589 05ff 00001598 		.4byte	.LVL168-.Ltext0
 8590 0603 0001     		.2byte	0x1
 8591 0605 54       		.byte	0x54
 8592 0606 00001598 		.4byte	.LVL168-.Ltext0
 8593 060a 000015B8 		.4byte	.LVL169-.Ltext0
 8594 060e 0001     		.2byte	0x1
 8595 0610 6D       		.byte	0x6d
 8596 0611 00000000 		.4byte	0x0
 8597 0615 00000000 		.4byte	0x0
 8598              	.LLST44:
 8599 0619 00001540 		.4byte	.LVL167-.Ltext0
 8600 061d 00001598 		.4byte	.LVL168-.Ltext0
 8601 0621 0001     		.2byte	0x1
 8602 0623 55       		.byte	0x55
 8603 0624 00001598 		.4byte	.LVL168-.Ltext0
 8604 0628 00001674 		.4byte	.LVL172-.Ltext0
 8605 062c 0001     		.2byte	0x1
 8606 062e 6C       		.byte	0x6c
 8607 062f 00001DD4 		.4byte	.LVL180-.Ltext0
 8608 0633 00001DF0 		.4byte	.LVL181-.Ltext0
 8609 0637 0001     		.2byte	0x1
 8610 0639 6C       		.byte	0x6c
 8611 063a 00001DFC 		.4byte	.LVL182-.Ltext0
 8612 063e 00001E10 		.4byte	.LVL184-.Ltext0
 8613 0642 0001     		.2byte	0x1
 8614 0644 6C       		.byte	0x6c
 8615 0645 00000000 		.4byte	0x0
 8616 0649 00000000 		.4byte	0x0
 8617              	.LLST45:
 8618 064d 00001540 		.4byte	.LVL167-.Ltext0
 8619 0651 00001598 		.4byte	.LVL168-.Ltext0
 8620 0655 0001     		.2byte	0x1
 8621 0657 56       		.byte	0x56
 8622 0658 00001598 		.4byte	.LVL168-.Ltext0
 8623 065c 000015BC 		.4byte	.LVL170-.Ltext0
 8624 0660 0001     		.2byte	0x1
 8625 0662 6B       		.byte	0x6b
 8626 0663 00000000 		.4byte	0x0
 8627 0667 00000000 		.4byte	0x0
 8628              	.LLST46:
 8629 066b 00001540 		.4byte	.LVL167-.Ltext0
 8630 066f 00001598 		.4byte	.LVL168-.Ltext0
 8631 0673 0001     		.2byte	0x1
 8632 0675 57       		.byte	0x57
 8633 0676 00001598 		.4byte	.LVL168-.Ltext0
 8634 067a 0000174C 		.4byte	.LVL175-.Ltext0
 8635 067e 0001     		.2byte	0x1
 8636 0680 68       		.byte	0x68
 8637 0681 00001908 		.4byte	.LVL179-.Ltext0
 8638 0685 00001E10 		.4byte	.LVL184-.Ltext0
 8639 0689 0001     		.2byte	0x1
 8640 068b 68       		.byte	0x68
 8641 068c 00001E20 		.4byte	.LVL185-.Ltext0
 8642 0690 00001E60 		.4byte	.LFE796-.Ltext0
 8643 0694 0001     		.2byte	0x1
 8644 0696 68       		.byte	0x68
 8645 0697 00000000 		.4byte	0x0
 8646 069b 00000000 		.4byte	0x0
 8647              	.LLST47:
 8648 069f 00001540 		.4byte	.LVL167-.Ltext0
 8649 06a3 00001598 		.4byte	.LVL168-.Ltext0
 8650 06a7 0001     		.2byte	0x1
 8651 06a9 58       		.byte	0x58
 8652 06aa 00001598 		.4byte	.LVL168-.Ltext0
 8653 06ae 000018DC 		.4byte	.LVL176-.Ltext0
 8654 06b2 0001     		.2byte	0x1
 8655 06b4 67       		.byte	0x67
 8656 06b5 00001908 		.4byte	.LVL179-.Ltext0
 8657 06b9 00001E60 		.4byte	.LFE796-.Ltext0
 8658 06bd 0001     		.2byte	0x1
 8659 06bf 67       		.byte	0x67
 8660 06c0 00000000 		.4byte	0x0
 8661 06c4 00000000 		.4byte	0x0
 8662              	.LLST48:
 8663 06c8 00001540 		.4byte	.LVL167-.Ltext0
 8664 06cc 00001598 		.4byte	.LVL168-.Ltext0
 8665 06d0 0001     		.2byte	0x1
 8666 06d2 59       		.byte	0x59
 8667 06d3 00001598 		.4byte	.LVL168-.Ltext0
 8668 06d7 000015E0 		.4byte	.LVL171-.Ltext0
 8669 06db 0001     		.2byte	0x1
 8670 06dd 69       		.byte	0x69
 8671 06de 00000000 		.4byte	0x0
 8672 06e2 00000000 		.4byte	0x0
 8673              	.LLST49:
 8674 06e6 00001540 		.4byte	.LVL167-.Ltext0
 8675 06ea 00001598 		.4byte	.LVL168-.Ltext0
 8676 06ee 0001     		.2byte	0x1
 8677 06f0 5A       		.byte	0x5a
 8678 06f1 00001598 		.4byte	.LVL168-.Ltext0
 8679 06f5 00001748 		.4byte	.LVL174-.Ltext0
 8680 06f9 0001     		.2byte	0x1
 8681 06fb 6A       		.byte	0x6a
 8682 06fc 00001908 		.4byte	.LVL179-.Ltext0
 8683 0700 00001E10 		.4byte	.LVL184-.Ltext0
 8684 0704 0001     		.2byte	0x1
 8685 0706 6A       		.byte	0x6a
 8686 0707 00001E20 		.4byte	.LVL185-.Ltext0
 8687 070b 00001E60 		.4byte	.LFE796-.Ltext0
 8688 070f 0001     		.2byte	0x1
 8689 0711 6A       		.byte	0x6a
 8690 0712 00000000 		.4byte	0x0
 8691 0716 00000000 		.4byte	0x0
 8692              	.LLST50:
 8693 071a 00001744 		.4byte	.LVL173-.Ltext0
 8694 071e 000018F0 		.4byte	.LVL177-.Ltext0
 8695 0722 0001     		.2byte	0x1
 8696 0724 6B       		.byte	0x6b
 8697 0725 00001DD4 		.4byte	.LVL180-.Ltext0
 8698 0729 00001DF0 		.4byte	.LVL181-.Ltext0
 8699 072d 0001     		.2byte	0x1
 8700 072f 6B       		.byte	0x6b
 8701 0730 00001E08 		.4byte	.LVL183-.Ltext0
 8702 0734 00001E20 		.4byte	.LVL185-.Ltext0
 8703 0738 0001     		.2byte	0x1
 8704 073a 6B       		.byte	0x6b
 8705 073b 00000000 		.4byte	0x0
 8706 073f 00000000 		.4byte	0x0
 8707              	.LLST51:
 8708 0743 00001E60 		.4byte	.LFB795-.Ltext0
 8709 0747 00001E68 		.4byte	.LCFI73-.Ltext0
 8710 074b 0001     		.2byte	0x1
 8711 074d 51       		.byte	0x51
 8712 074e 00001E68 		.4byte	.LCFI73-.Ltext0
 8713 0752 00002780 		.4byte	.LFE795-.Ltext0
 8714 0756 0003     		.2byte	0x3
 8715 0758 71       		.byte	0x71
 8716 0759 A801     		.sleb128 168
 8717 075b 00000000 		.4byte	0x0
 8718 075f 00000000 		.4byte	0x0
 8719              	.LLST52:
 8720 0763 00001E60 		.4byte	.LVL186-.Ltext0
 8721 0767 00001EB8 		.4byte	.LVL187-.Ltext0
 8722 076b 0001     		.2byte	0x1
 8723 076d 53       		.byte	0x53
 8724 076e 00001EB8 		.4byte	.LVL187-.Ltext0
 8725 0772 00002220 		.4byte	.LVL197-.Ltext0
 8726 0776 0001     		.2byte	0x1
 8727 0778 6F       		.byte	0x6f
 8728 0779 00002228 		.4byte	.LVL198-.Ltext0
 8729 077d 00002780 		.4byte	.LFE795-.Ltext0
 8730 0781 0001     		.2byte	0x1
 8731 0783 6F       		.byte	0x6f
 8732 0784 00000000 		.4byte	0x0
 8733 0788 00000000 		.4byte	0x0
 8734              	.LLST53:
 8735 078c 00001E60 		.4byte	.LVL186-.Ltext0
 8736 0790 00001EB8 		.4byte	.LVL187-.Ltext0
 8737 0794 0001     		.2byte	0x1
 8738 0796 54       		.byte	0x54
 8739 0797 00001EB8 		.4byte	.LVL187-.Ltext0
 8740 079b 00001ED8 		.4byte	.LVL188-.Ltext0
 8741 079f 0001     		.2byte	0x1
 8742 07a1 6D       		.byte	0x6d
 8743 07a2 00000000 		.4byte	0x0
 8744 07a6 00000000 		.4byte	0x0
 8745              	.LLST54:
 8746 07aa 00001E60 		.4byte	.LVL186-.Ltext0
 8747 07ae 00001EB8 		.4byte	.LVL187-.Ltext0
 8748 07b2 0001     		.2byte	0x1
 8749 07b4 55       		.byte	0x55
 8750 07b5 00001EB8 		.4byte	.LVL187-.Ltext0
 8751 07b9 00001F94 		.4byte	.LVL191-.Ltext0
 8752 07bd 0001     		.2byte	0x1
 8753 07bf 6C       		.byte	0x6c
 8754 07c0 000026F4 		.4byte	.LVL199-.Ltext0
 8755 07c4 00002710 		.4byte	.LVL200-.Ltext0
 8756 07c8 0001     		.2byte	0x1
 8757 07ca 6C       		.byte	0x6c
 8758 07cb 0000271C 		.4byte	.LVL201-.Ltext0
 8759 07cf 00002730 		.4byte	.LVL203-.Ltext0
 8760 07d3 0001     		.2byte	0x1
 8761 07d5 6C       		.byte	0x6c
 8762 07d6 00000000 		.4byte	0x0
 8763 07da 00000000 		.4byte	0x0
 8764              	.LLST55:
 8765 07de 00001E60 		.4byte	.LVL186-.Ltext0
 8766 07e2 00001EB8 		.4byte	.LVL187-.Ltext0
 8767 07e6 0001     		.2byte	0x1
 8768 07e8 56       		.byte	0x56
 8769 07e9 00001EB8 		.4byte	.LVL187-.Ltext0
 8770 07ed 00001EDC 		.4byte	.LVL189-.Ltext0
 8771 07f1 0001     		.2byte	0x1
 8772 07f3 6B       		.byte	0x6b
 8773 07f4 00000000 		.4byte	0x0
 8774 07f8 00000000 		.4byte	0x0
 8775              	.LLST56:
 8776 07fc 00001E60 		.4byte	.LVL186-.Ltext0
 8777 0800 00001EB8 		.4byte	.LVL187-.Ltext0
 8778 0804 0001     		.2byte	0x1
 8779 0806 57       		.byte	0x57
 8780 0807 00001EB8 		.4byte	.LVL187-.Ltext0
 8781 080b 0000206C 		.4byte	.LVL194-.Ltext0
 8782 080f 0001     		.2byte	0x1
 8783 0811 68       		.byte	0x68
 8784 0812 00002228 		.4byte	.LVL198-.Ltext0
 8785 0816 00002730 		.4byte	.LVL203-.Ltext0
 8786 081a 0001     		.2byte	0x1
 8787 081c 68       		.byte	0x68
 8788 081d 00002740 		.4byte	.LVL204-.Ltext0
 8789 0821 00002780 		.4byte	.LFE795-.Ltext0
 8790 0825 0001     		.2byte	0x1
 8791 0827 68       		.byte	0x68
 8792 0828 00000000 		.4byte	0x0
 8793 082c 00000000 		.4byte	0x0
 8794              	.LLST57:
 8795 0830 00001E60 		.4byte	.LVL186-.Ltext0
 8796 0834 00001EB8 		.4byte	.LVL187-.Ltext0
 8797 0838 0001     		.2byte	0x1
 8798 083a 58       		.byte	0x58
 8799 083b 00001EB8 		.4byte	.LVL187-.Ltext0
 8800 083f 000021FC 		.4byte	.LVL195-.Ltext0
 8801 0843 0001     		.2byte	0x1
 8802 0845 67       		.byte	0x67
 8803 0846 00002228 		.4byte	.LVL198-.Ltext0
 8804 084a 00002780 		.4byte	.LFE795-.Ltext0
 8805 084e 0001     		.2byte	0x1
 8806 0850 67       		.byte	0x67
 8807 0851 00000000 		.4byte	0x0
 8808 0855 00000000 		.4byte	0x0
 8809              	.LLST58:
 8810 0859 00001E60 		.4byte	.LVL186-.Ltext0
 8811 085d 00001EB8 		.4byte	.LVL187-.Ltext0
 8812 0861 0001     		.2byte	0x1
 8813 0863 59       		.byte	0x59
 8814 0864 00001EB8 		.4byte	.LVL187-.Ltext0
 8815 0868 00001F00 		.4byte	.LVL190-.Ltext0
 8816 086c 0001     		.2byte	0x1
 8817 086e 69       		.byte	0x69
 8818 086f 00000000 		.4byte	0x0
 8819 0873 00000000 		.4byte	0x0
 8820              	.LLST59:
 8821 0877 00001E60 		.4byte	.LVL186-.Ltext0
 8822 087b 00001EB8 		.4byte	.LVL187-.Ltext0
 8823 087f 0001     		.2byte	0x1
 8824 0881 5A       		.byte	0x5a
 8825 0882 00001EB8 		.4byte	.LVL187-.Ltext0
 8826 0886 00002068 		.4byte	.LVL193-.Ltext0
 8827 088a 0001     		.2byte	0x1
 8828 088c 6A       		.byte	0x6a
 8829 088d 00002228 		.4byte	.LVL198-.Ltext0
 8830 0891 00002730 		.4byte	.LVL203-.Ltext0
 8831 0895 0001     		.2byte	0x1
 8832 0897 6A       		.byte	0x6a
 8833 0898 00002740 		.4byte	.LVL204-.Ltext0
 8834 089c 00002780 		.4byte	.LFE795-.Ltext0
 8835 08a0 0001     		.2byte	0x1
 8836 08a2 6A       		.byte	0x6a
 8837 08a3 00000000 		.4byte	0x0
 8838 08a7 00000000 		.4byte	0x0
 8839              	.LLST60:
 8840 08ab 00002064 		.4byte	.LVL192-.Ltext0
 8841 08af 00002210 		.4byte	.LVL196-.Ltext0
 8842 08b3 0001     		.2byte	0x1
 8843 08b5 6B       		.byte	0x6b
 8844 08b6 000026F4 		.4byte	.LVL199-.Ltext0
 8845 08ba 00002710 		.4byte	.LVL200-.Ltext0
 8846 08be 0001     		.2byte	0x1
 8847 08c0 6B       		.byte	0x6b
 8848 08c1 00002728 		.4byte	.LVL202-.Ltext0
 8849 08c5 00002740 		.4byte	.LVL204-.Ltext0
 8850 08c9 0001     		.2byte	0x1
 8851 08cb 6B       		.byte	0x6b
 8852 08cc 00000000 		.4byte	0x0
 8853 08d0 00000000 		.4byte	0x0
 8854              	.LLST61:
 8855 08d4 00002780 		.4byte	.LFB793-.Ltext0
 8856 08d8 00002788 		.4byte	.LCFI85-.Ltext0
 8857 08dc 0001     		.2byte	0x1
 8858 08de 51       		.byte	0x51
 8859 08df 00002788 		.4byte	.LCFI85-.Ltext0
 8860 08e3 00002FCC 		.4byte	.LFE793-.Ltext0
 8861 08e7 0002     		.2byte	0x2
 8862 08e9 71       		.byte	0x71
 8863 08ea 30       		.sleb128 48
 8864 08eb 00000000 		.4byte	0x0
 8865 08ef 00000000 		.4byte	0x0
 8866              	.LLST62:
 8867 08f3 00002780 		.4byte	.LVL205-.Ltext0
 8868 08f7 000027CC 		.4byte	.LVL206-.Ltext0
 8869 08fb 0001     		.2byte	0x1
 8870 08fd 53       		.byte	0x53
 8871 08fe 000027CC 		.4byte	.LVL206-.Ltext0
 8872 0902 00002AF0 		.4byte	.LVL213-.Ltext0
 8873 0906 0001     		.2byte	0x1
 8874 0908 6F       		.byte	0x6f
 8875 0909 00002AF8 		.4byte	.LVL214-.Ltext0
 8876 090d 00002FCC 		.4byte	.LFE793-.Ltext0
 8877 0911 0001     		.2byte	0x1
 8878 0913 6F       		.byte	0x6f
 8879 0914 00000000 		.4byte	0x0
 8880 0918 00000000 		.4byte	0x0
 8881              	.LLST63:
 8882 091c 00002780 		.4byte	.LVL205-.Ltext0
 8883 0920 000027CC 		.4byte	.LVL206-.Ltext0
 8884 0924 0001     		.2byte	0x1
 8885 0926 54       		.byte	0x54
 8886 0927 000027CC 		.4byte	.LVL206-.Ltext0
 8887 092b 0000282C 		.4byte	.LVL209-.Ltext0
 8888 092f 0001     		.2byte	0x1
 8889 0931 6D       		.byte	0x6d
 8890 0932 00002F40 		.4byte	.LVL215-.Ltext0
 8891 0936 00002F50 		.4byte	.LVL216-.Ltext0
 8892 093a 0001     		.2byte	0x1
 8893 093c 6D       		.byte	0x6d
 8894 093d 00002F74 		.4byte	.LVL219-.Ltext0
 8895 0941 00002F7C 		.4byte	.LVL220-.Ltext0
 8896 0945 0001     		.2byte	0x1
 8897 0947 6D       		.byte	0x6d
 8898 0948 00000000 		.4byte	0x0
 8899 094c 00000000 		.4byte	0x0
 8900              	.LLST64:
 8901 0950 00002780 		.4byte	.LVL205-.Ltext0
 8902 0954 000027CC 		.4byte	.LVL206-.Ltext0
 8903 0958 0001     		.2byte	0x1
 8904 095a 55       		.byte	0x55
 8905 095b 000027CC 		.4byte	.LVL206-.Ltext0
 8906 095f 000027E8 		.4byte	.LVL207-.Ltext0
 8907 0963 0001     		.2byte	0x1
 8908 0965 6C       		.byte	0x6c
 8909 0966 00000000 		.4byte	0x0
 8910 096a 00000000 		.4byte	0x0
 8911              	.LLST65:
 8912 096e 00002780 		.4byte	.LVL205-.Ltext0
 8913 0972 000027CC 		.4byte	.LVL206-.Ltext0
 8914 0976 0001     		.2byte	0x1
 8915 0978 56       		.byte	0x56
 8916 0979 000027CC 		.4byte	.LVL206-.Ltext0
 8917 097d 0000292C 		.4byte	.LVL210-.Ltext0
 8918 0981 0001     		.2byte	0x1
 8919 0983 6B       		.byte	0x6b
 8920 0984 00002AF8 		.4byte	.LVL214-.Ltext0
 8921 0988 00002F7C 		.4byte	.LVL220-.Ltext0
 8922 098c 0001     		.2byte	0x1
 8923 098e 6B       		.byte	0x6b
 8924 098f 00002F8C 		.4byte	.LVL221-.Ltext0
 8925 0993 00002FCC 		.4byte	.LFE793-.Ltext0
 8926 0997 0001     		.2byte	0x1
 8927 0999 6B       		.byte	0x6b
 8928 099a 00000000 		.4byte	0x0
 8929 099e 00000000 		.4byte	0x0
 8930              	.LLST66:
 8931 09a2 00002780 		.4byte	.LVL205-.Ltext0
 8932 09a6 000027CC 		.4byte	.LVL206-.Ltext0
 8933 09aa 0001     		.2byte	0x1
 8934 09ac 57       		.byte	0x57
 8935 09ad 000027CC 		.4byte	.LVL206-.Ltext0
 8936 09b1 00002934 		.4byte	.LVL211-.Ltext0
 8937 09b5 0001     		.2byte	0x1
 8938 09b7 68       		.byte	0x68
 8939 09b8 00002AF8 		.4byte	.LVL214-.Ltext0
 8940 09bc 00002F7C 		.4byte	.LVL220-.Ltext0
 8941 09c0 0001     		.2byte	0x1
 8942 09c2 68       		.byte	0x68
 8943 09c3 00002F8C 		.4byte	.LVL221-.Ltext0
 8944 09c7 00002FCC 		.4byte	.LFE793-.Ltext0
 8945 09cb 0001     		.2byte	0x1
 8946 09cd 68       		.byte	0x68
 8947 09ce 00000000 		.4byte	0x0
 8948 09d2 00000000 		.4byte	0x0
 8949              	.LLST67:
 8950 09d6 00002780 		.4byte	.LVL205-.Ltext0
 8951 09da 000027CC 		.4byte	.LVL206-.Ltext0
 8952 09de 0001     		.2byte	0x1
 8953 09e0 58       		.byte	0x58
 8954 09e1 000027CC 		.4byte	.LVL206-.Ltext0
 8955 09e5 00002808 		.4byte	.LVL208-.Ltext0
 8956 09e9 0001     		.2byte	0x1
 8957 09eb 6A       		.byte	0x6a
 8958 09ec 00000000 		.4byte	0x0
 8959 09f0 00000000 		.4byte	0x0
 8960              	.LLST68:
 8961 09f4 0000292C 		.4byte	.LVL210-.Ltext0
 8962 09f8 00002AE0 		.4byte	.LVL212-.Ltext0
 8963 09fc 0001     		.2byte	0x1
 8964 09fe 6B       		.byte	0x6b
 8965 09ff 00002F40 		.4byte	.LVL215-.Ltext0
 8966 0a03 00002F50 		.4byte	.LVL216-.Ltext0
 8967 0a07 0001     		.2byte	0x1
 8968 0a09 6B       		.byte	0x6b
 8969 0a0a 00002F54 		.4byte	.LVL217-.Ltext0
 8970 0a0e 00002F64 		.4byte	.LVL218-.Ltext0
 8971 0a12 0001     		.2byte	0x1
 8972 0a14 6B       		.byte	0x6b
 8973 0a15 00002F74 		.4byte	.LVL219-.Ltext0
 8974 0a19 00002F8C 		.4byte	.LVL221-.Ltext0
 8975 0a1d 0001     		.2byte	0x1
 8976 0a1f 6B       		.byte	0x6b
 8977 0a20 00000000 		.4byte	0x0
 8978 0a24 00000000 		.4byte	0x0
 8979              	.LLST69:
 8980 0a28 00002FCC 		.4byte	.LFB792-.Ltext0
 8981 0a2c 00002FD4 		.4byte	.LCFI96-.Ltext0
 8982 0a30 0001     		.2byte	0x1
 8983 0a32 51       		.byte	0x51
 8984 0a33 00002FD4 		.4byte	.LCFI96-.Ltext0
 8985 0a37 00003818 		.4byte	.LFE792-.Ltext0
 8986 0a3b 0002     		.2byte	0x2
 8987 0a3d 71       		.byte	0x71
 8988 0a3e 30       		.sleb128 48
 8989 0a3f 00000000 		.4byte	0x0
 8990 0a43 00000000 		.4byte	0x0
 8991              	.LLST70:
 8992 0a47 00002FCC 		.4byte	.LVL222-.Ltext0
 8993 0a4b 00003018 		.4byte	.LVL223-.Ltext0
 8994 0a4f 0001     		.2byte	0x1
 8995 0a51 53       		.byte	0x53
 8996 0a52 00003018 		.4byte	.LVL223-.Ltext0
 8997 0a56 0000333C 		.4byte	.LVL230-.Ltext0
 8998 0a5a 0001     		.2byte	0x1
 8999 0a5c 6F       		.byte	0x6f
 9000 0a5d 00003344 		.4byte	.LVL231-.Ltext0
 9001 0a61 00003818 		.4byte	.LFE792-.Ltext0
 9002 0a65 0001     		.2byte	0x1
 9003 0a67 6F       		.byte	0x6f
 9004 0a68 00000000 		.4byte	0x0
 9005 0a6c 00000000 		.4byte	0x0
 9006              	.LLST71:
 9007 0a70 00002FCC 		.4byte	.LVL222-.Ltext0
 9008 0a74 00003018 		.4byte	.LVL223-.Ltext0
 9009 0a78 0001     		.2byte	0x1
 9010 0a7a 54       		.byte	0x54
 9011 0a7b 00003018 		.4byte	.LVL223-.Ltext0
 9012 0a7f 00003078 		.4byte	.LVL226-.Ltext0
 9013 0a83 0001     		.2byte	0x1
 9014 0a85 6D       		.byte	0x6d
 9015 0a86 0000378C 		.4byte	.LVL232-.Ltext0
 9016 0a8a 0000379C 		.4byte	.LVL233-.Ltext0
 9017 0a8e 0001     		.2byte	0x1
 9018 0a90 6D       		.byte	0x6d
 9019 0a91 000037C0 		.4byte	.LVL236-.Ltext0
 9020 0a95 000037C8 		.4byte	.LVL237-.Ltext0
 9021 0a99 0001     		.2byte	0x1
 9022 0a9b 6D       		.byte	0x6d
 9023 0a9c 00000000 		.4byte	0x0
 9024 0aa0 00000000 		.4byte	0x0
 9025              	.LLST72:
 9026 0aa4 00002FCC 		.4byte	.LVL222-.Ltext0
 9027 0aa8 00003018 		.4byte	.LVL223-.Ltext0
 9028 0aac 0001     		.2byte	0x1
 9029 0aae 55       		.byte	0x55
 9030 0aaf 00003018 		.4byte	.LVL223-.Ltext0
 9031 0ab3 00003034 		.4byte	.LVL224-.Ltext0
 9032 0ab7 0001     		.2byte	0x1
 9033 0ab9 6C       		.byte	0x6c
 9034 0aba 00000000 		.4byte	0x0
 9035 0abe 00000000 		.4byte	0x0
 9036              	.LLST73:
 9037 0ac2 00002FCC 		.4byte	.LVL222-.Ltext0
 9038 0ac6 00003018 		.4byte	.LVL223-.Ltext0
 9039 0aca 0001     		.2byte	0x1
 9040 0acc 56       		.byte	0x56
 9041 0acd 00003018 		.4byte	.LVL223-.Ltext0
 9042 0ad1 00003178 		.4byte	.LVL227-.Ltext0
 9043 0ad5 0001     		.2byte	0x1
 9044 0ad7 6B       		.byte	0x6b
 9045 0ad8 00003344 		.4byte	.LVL231-.Ltext0
 9046 0adc 000037C8 		.4byte	.LVL237-.Ltext0
 9047 0ae0 0001     		.2byte	0x1
 9048 0ae2 6B       		.byte	0x6b
 9049 0ae3 000037D8 		.4byte	.LVL238-.Ltext0
 9050 0ae7 00003818 		.4byte	.LFE792-.Ltext0
 9051 0aeb 0001     		.2byte	0x1
 9052 0aed 6B       		.byte	0x6b
 9053 0aee 00000000 		.4byte	0x0
 9054 0af2 00000000 		.4byte	0x0
 9055              	.LLST74:
 9056 0af6 00002FCC 		.4byte	.LVL222-.Ltext0
 9057 0afa 00003018 		.4byte	.LVL223-.Ltext0
 9058 0afe 0001     		.2byte	0x1
 9059 0b00 57       		.byte	0x57
 9060 0b01 00003018 		.4byte	.LVL223-.Ltext0
 9061 0b05 00003180 		.4byte	.LVL228-.Ltext0
 9062 0b09 0001     		.2byte	0x1
 9063 0b0b 68       		.byte	0x68
 9064 0b0c 00003344 		.4byte	.LVL231-.Ltext0
 9065 0b10 000037C8 		.4byte	.LVL237-.Ltext0
 9066 0b14 0001     		.2byte	0x1
 9067 0b16 68       		.byte	0x68
 9068 0b17 000037D8 		.4byte	.LVL238-.Ltext0
 9069 0b1b 00003818 		.4byte	.LFE792-.Ltext0
 9070 0b1f 0001     		.2byte	0x1
 9071 0b21 68       		.byte	0x68
 9072 0b22 00000000 		.4byte	0x0
 9073 0b26 00000000 		.4byte	0x0
 9074              	.LLST75:
 9075 0b2a 00002FCC 		.4byte	.LVL222-.Ltext0
 9076 0b2e 00003018 		.4byte	.LVL223-.Ltext0
 9077 0b32 0001     		.2byte	0x1
 9078 0b34 58       		.byte	0x58
 9079 0b35 00003018 		.4byte	.LVL223-.Ltext0
 9080 0b39 00003054 		.4byte	.LVL225-.Ltext0
 9081 0b3d 0001     		.2byte	0x1
 9082 0b3f 6A       		.byte	0x6a
 9083 0b40 00000000 		.4byte	0x0
 9084 0b44 00000000 		.4byte	0x0
 9085              	.LLST76:
 9086 0b48 00003178 		.4byte	.LVL227-.Ltext0
 9087 0b4c 0000332C 		.4byte	.LVL229-.Ltext0
 9088 0b50 0001     		.2byte	0x1
 9089 0b52 6B       		.byte	0x6b
 9090 0b53 0000378C 		.4byte	.LVL232-.Ltext0
 9091 0b57 0000379C 		.4byte	.LVL233-.Ltext0
 9092 0b5b 0001     		.2byte	0x1
 9093 0b5d 6B       		.byte	0x6b
 9094 0b5e 000037A0 		.4byte	.LVL234-.Ltext0
 9095 0b62 000037B0 		.4byte	.LVL235-.Ltext0
 9096 0b66 0001     		.2byte	0x1
 9097 0b68 6B       		.byte	0x6b
 9098 0b69 000037C0 		.4byte	.LVL236-.Ltext0
 9099 0b6d 000037D8 		.4byte	.LVL238-.Ltext0
 9100 0b71 0001     		.2byte	0x1
 9101 0b73 6B       		.byte	0x6b
 9102 0b74 00000000 		.4byte	0x0
 9103 0b78 00000000 		.4byte	0x0
 9104              		.file 3 "c:/Programme/devkitPro/libogc/include/gctypes.h"
 9105              		.file 4 "c:/Programme/devkitPro/libogc/include/ogc/gx.h"
 9106              		.file 5 "c:\\programme\\devkitpro\\devkitppc\\bin\\../lib/gcc/powerpc-gekko/4.2.4/../../../../powe
 9107              		.file 6 "c:\\programme\\devkitpro\\devkitppc\\bin\\../lib/gcc/powerpc-gekko/4.2.4/../../../../powe
 9108              		.file 7 "c:\\programme\\devkitpro\\devkitppc\\bin\\../lib/gcc/powerpc-gekko/4.2.4/include/stddef.h
 9109              		.file 8 "c:\\programme\\devkitpro\\devkitppc\\bin\\../lib/gcc/powerpc-gekko/4.2.4/../../../../powe
 9110              		.file 9 "c:\\programme\\devkitpro\\devkitppc\\bin\\../lib/gcc/powerpc-gekko/4.2.4/../../../../powe
 9111              		.file 10 "c:\\programme\\devkitpro\\devkitppc\\bin\\../lib/gcc/powerpc-gekko/4.2.4/../../../../pow
 9112              		.file 11 "c:\\programme\\devkitpro\\devkitppc\\bin\\../lib/gcc/powerpc-gekko/4.2.4/../../../../pow
 9113              		.file 12 "c:\\programme\\devkitpro\\devkitppc\\bin\\../lib/gcc/powerpc-gekko/4.2.4/../../../../pow
 9114              		.file 13 "c:\\programme\\devkitpro\\devkitppc\\bin\\../lib/gcc/powerpc-gekko/4.2.4/../../../../pow
 9115              		.file 14 "c:\\programme\\devkitpro\\devkitppc\\bin\\../lib/gcc/powerpc-gekko/4.2.4/../../../../pow
 9116              		.file 15 "c:\\programme\\devkitpro\\devkitppc\\bin\\../lib/gcc/powerpc-gekko/4.2.4/../../../../pow
 9117              		.file 16 "c:\\programme\\devkitpro\\devkitppc\\bin\\../lib/gcc/powerpc-gekko/4.2.4/../../../../pow
 9118              		.file 17 "c:\\programme\\devkitpro\\devkitppc\\bin\\../lib/gcc/powerpc-gekko/4.2.4/../../../../pow
 9119              		.file 18 "c:\\programme\\devkitpro\\devkitppc\\bin\\../lib/gcc/powerpc-gekko/4.2.4/../../../../pow
 9120              		.file 19 "c:\\programme\\devkitpro\\devkitppc\\bin\\../lib/gcc/powerpc-gekko/4.2.4/../../../../pow
 9121              		.file 20 "c:\\programme\\devkitpro\\devkitppc\\bin\\../lib/gcc/powerpc-gekko/4.2.4/../../../../pow
 9122              		.file 21 "c:\\programme\\devkitpro\\devkitppc\\bin\\../lib/gcc/powerpc-gekko/4.2.4/../../../../pow
 9123              		.file 22 "c:\\programme\\devkitpro\\devkitppc\\bin\\../lib/gcc/powerpc-gekko/4.2.4/../../../../pow
 9124              		.file 23 "c:\\programme\\devkitpro\\devkitppc\\bin\\../lib/gcc/powerpc-gekko/4.2.4/include/stdarg.
 9125              		.file 24 "<built-in>"
 9126              		.file 25 "c:\\programme\\devkitpro\\devkitppc\\bin\\../lib/gcc/powerpc-gekko/4.2.4/../../../../pow
 9127              		.file 26 "c:\\programme\\devkitpro\\devkitppc\\bin\\../lib/gcc/powerpc-gekko/4.2.4/../../../../pow
 9128              		.file 27 "c:\\programme\\devkitpro\\devkitppc\\bin\\../lib/gcc/powerpc-gekko/4.2.4/../../../../pow
 9129              		.file 28 "c:\\programme\\devkitpro\\devkitppc\\bin\\../lib/gcc/powerpc-gekko/4.2.4/../../../../pow
 9130              		.file 29 "c:\\programme\\devkitpro\\devkitppc\\bin\\../lib/gcc/powerpc-gekko/4.2.4/../../../../pow
 9131              		.file 30 "c:/Programme/devkitPro/libogc/include/wiiuse/wiiuse.h"
 9132              		.file 31 "c:/Programme/devkitPro/libogc/include/wiiuse/wpad.h"
 9133              		.file 32 "d:/code/dasdd/source/libwiigui/gui.h"
 9134              		.file 33 "d:/code/dasdd/source/filelist.h"
 9135              		.section	.debug_info
 9136 0000 00002E82 		.4byte	0x2e82
 9137 0004 0002     		.2byte	0x2
 9138 0006 00000000 		.4byte	.Ldebug_abbrev0
 9139 000a 04       		.byte	0x4
 9140 000b 01       		.uleb128 0x1
 9141 000c 00000955 		.4byte	.LASF460
 9142 0010 04       		.byte	0x4
 9143 0011 000013F3 		.4byte	.LASF461
 9144 0015 00000285 		.4byte	.LASF462
 9145 0019 00000000 		.4byte	.Ltext0
 9146 001d 00003818 		.4byte	.Letext0
 9147 0021 00000000 		.4byte	.Ldebug_line0
 9148 0025 02       		.uleb128 0x2
 9149 0026 753800   		.string	"u8"
 9150 0029 03       		.byte	0x3
 9151 002a 0F       		.byte	0xf
 9152 002b 0000002F 		.4byte	0x2f
 9153 002f 03       		.uleb128 0x3
 9154 0030 01       		.byte	0x1
 9155 0031 08       		.byte	0x8
 9156 0032 00000589 		.4byte	.LASF0
 9157 0036 02       		.uleb128 0x2
 9158 0037 75313600 		.string	"u16"
 9159 003b 03       		.byte	0x3
 9160 003c 10       		.byte	0x10
 9161 003d 00000041 		.4byte	0x41
 9162 0041 03       		.uleb128 0x3
 9163 0042 02       		.byte	0x2
 9164 0043 07       		.byte	0x7
 9165 0044 00000BC5 		.4byte	.LASF1
 9166 0048 02       		.uleb128 0x2
 9167 0049 75333200 		.string	"u32"
 9168 004d 03       		.byte	0x3
 9169 004e 11       		.byte	0x11
 9170 004f 00000053 		.4byte	0x53
 9171 0053 03       		.uleb128 0x3
 9172 0054 04       		.byte	0x4
 9173 0055 07       		.byte	0x7
 9174 0056 000013DB 		.4byte	.LASF2
 9175 005a 03       		.uleb128 0x3
 9176 005b 08       		.byte	0x8
 9177 005c 07       		.byte	0x7
 9178 005d 00001192 		.4byte	.LASF3
 9179 0061 02       		.uleb128 0x2
 9180 0062 733800   		.string	"s8"
 9181 0065 03       		.byte	0x3
 9182 0066 14       		.byte	0x14
 9183 0067 0000006B 		.4byte	0x6b
 9184 006b 03       		.uleb128 0x3
 9185 006c 01       		.byte	0x1
 9186 006d 06       		.byte	0x6
 9187 006e 00000BE4 		.4byte	.LASF4
 9188 0072 02       		.uleb128 0x2
 9189 0073 73313600 		.string	"s16"
 9190 0077 03       		.byte	0x3
 9191 0078 15       		.byte	0x15
 9192 0079 0000007D 		.4byte	0x7d
 9193 007d 03       		.uleb128 0x3
 9194 007e 02       		.byte	0x2
 9195 007f 05       		.byte	0x5
 9196 0080 00001449 		.4byte	.LASF5
 9197 0084 02       		.uleb128 0x2
 9198 0085 73333200 		.string	"s32"
 9199 0089 03       		.byte	0x3
 9200 008a 16       		.byte	0x16
 9201 008b 0000008F 		.4byte	0x8f
 9202 008f 04       		.uleb128 0x4
 9203 0090 04       		.byte	0x4
 9204 0091 05       		.byte	0x5
 9205 0092 696E7400 		.string	"int"
 9206 0096 03       		.uleb128 0x3
 9207 0097 08       		.byte	0x8
 9208 0098 05       		.byte	0x5
 9209 0099 0000130E 		.4byte	.LASF6
 9210 009d 03       		.uleb128 0x3
 9211 009e 04       		.byte	0x4
 9212 009f 04       		.byte	0x4
 9213 00a0 000005C7 		.4byte	.LASF7
 9214 00a4 03       		.uleb128 0x3
 9215 00a5 08       		.byte	0x8
 9216 00a6 04       		.byte	0x4
 9217 00a7 00001096 		.4byte	.LASF8
 9218 00ab 05       		.uleb128 0x5
 9219 00ac 04       		.byte	0x4
 9220 00ad 000000B1 		.4byte	0xb1
 9221 00b1 03       		.uleb128 0x3
 9222 00b2 01       		.byte	0x1
 9223 00b3 08       		.byte	0x8
 9224 00b4 00000EFA 		.4byte	.LASF9
 9225 00b8 05       		.uleb128 0x5
 9226 00b9 04       		.byte	0x4
 9227 00ba 000000AB 		.4byte	0xab
 9228 00be 05       		.uleb128 0x5
 9229 00bf 04       		.byte	0x4
 9230 00c0 000000C4 		.4byte	0xc4
 9231 00c4 06       		.uleb128 0x6
 9232 00c5 07       		.uleb128 0x7
 9233 00c6 04       		.byte	0x4
 9234 00c7 07       		.byte	0x7
 9235 00c8 03       		.uleb128 0x3
 9236 00c9 01       		.byte	0x1
 9237 00ca 02       		.byte	0x2
 9238 00cb 000001F9 		.4byte	.LASF10
 9239 00cf 08       		.uleb128 0x8
 9240 00d0 04       		.byte	0x4
 9241 00d1 09       		.uleb128 0x9
 9242 00d2 00000C44 		.4byte	.LASF15
 9243 00d6 04       		.byte	0x4
 9244 00d7 04       		.byte	0x4
 9245 00d8 03B8     		.2byte	0x3b8
 9246 00da 00000113 		.4byte	0x113
 9247 00de 0A       		.uleb128 0xa
 9248 00df 7200     		.string	"r"
 9249 00e1 04       		.byte	0x4
 9250 00e2 03B9     		.2byte	0x3b9
 9251 00e4 00000025 		.4byte	0x25
 9252 00e8 02       		.byte	0x2
 9253 00e9 23       		.byte	0x23
 9254 00ea 00       		.uleb128 0x0
 9255 00eb 0A       		.uleb128 0xa
 9256 00ec 6700     		.string	"g"
 9257 00ee 04       		.byte	0x4
 9258 00ef 03BA     		.2byte	0x3ba
 9259 00f1 00000025 		.4byte	0x25
 9260 00f5 02       		.byte	0x2
 9261 00f6 23       		.byte	0x23
 9262 00f7 01       		.uleb128 0x1
 9263 00f8 0A       		.uleb128 0xa
 9264 00f9 6200     		.string	"b"
 9265 00fb 04       		.byte	0x4
 9266 00fc 03BB     		.2byte	0x3bb
 9267 00fe 00000025 		.4byte	0x25
 9268 0102 02       		.byte	0x2
 9269 0103 23       		.byte	0x23
 9270 0104 02       		.uleb128 0x2
 9271 0105 0A       		.uleb128 0xa
 9272 0106 6100     		.string	"a"
 9273 0108 04       		.byte	0x4
 9274 0109 03BC     		.2byte	0x3bc
 9275 010b 00000025 		.4byte	0x25
 9276 010f 02       		.byte	0x2
 9277 0110 23       		.byte	0x23
 9278 0111 03       		.uleb128 0x3
 9279 0112 00       		.byte	0x0
 9280 0113 0B       		.uleb128 0xb
 9281 0114 00000F90 		.4byte	.LASF11
 9282 0118 04       		.byte	0x4
 9283 0119 03BD     		.2byte	0x3bd
 9284 011b 000000D1 		.4byte	0xd1
 9285 011f 0C       		.uleb128 0xc
 9286 0120 0000106B 		.4byte	.LASF12
 9287 0124 05       		.byte	0x5
 9288 0125 0A       		.byte	0xa
 9289 0126 00000096 		.4byte	0x96
 9290 012a 0C       		.uleb128 0xc
 9291 012b 00000D58 		.4byte	.LASF13
 9292 012f 06       		.byte	0x6
 9293 0130 07       		.byte	0x7
 9294 0131 0000008F 		.4byte	0x8f
 9295 0135 0B       		.uleb128 0xb
 9296 0136 000008E5 		.4byte	.LASF14
 9297 013a 07       		.byte	0x7
 9298 013b 0163     		.2byte	0x163
 9299 013d 00000053 		.4byte	0x53
 9300 0141 0D       		.uleb128 0xd
 9301 0142 2E5F3600 		.string	"._6"
 9302 0146 08       		.byte	0x8
 9303 0147 08       		.byte	0x8
 9304 0148 44       		.byte	0x44
 9305 0149 0000018D 		.4byte	0x18d
 9306 014d 0E       		.uleb128 0xe
 9307 014e 2E5F3700 		.string	"._7"
 9308 0152 04       		.byte	0x4
 9309 0153 08       		.byte	0x8
 9310 0154 47       		.byte	0x47
 9311 0155 00000170 		.4byte	0x170
 9312 0159 0F       		.uleb128 0xf
 9313 015a 00000D05 		.4byte	.LASF16
 9314 015e 08       		.byte	0x8
 9315 015f 48       		.byte	0x48
 9316 0160 00000135 		.4byte	0x135
 9317 0164 0F       		.uleb128 0xf
 9318 0165 0000089E 		.4byte	.LASF17
 9319 0169 08       		.byte	0x8
 9320 016a 49       		.byte	0x49
 9321 016b 0000018D 		.4byte	0x18d
 9322 016f 00       		.byte	0x0
 9323 0170 10       		.uleb128 0x10
 9324 0171 000007AD 		.4byte	.LASF18
 9325 0175 08       		.byte	0x8
 9326 0176 45       		.byte	0x45
 9327 0177 0000008F 		.4byte	0x8f
 9328 017b 02       		.byte	0x2
 9329 017c 23       		.byte	0x23
 9330 017d 00       		.uleb128 0x0
 9331 017e 10       		.uleb128 0x10
 9332 017f 000010E6 		.4byte	.LASF19
 9333 0183 08       		.byte	0x8
 9334 0184 4A       		.byte	0x4a
 9335 0185 0000014D 		.4byte	0x14d
 9336 0189 02       		.byte	0x2
 9337 018a 23       		.byte	0x23
 9338 018b 04       		.uleb128 0x4
 9339 018c 00       		.byte	0x0
 9340 018d 11       		.uleb128 0x11
 9341 018e 0000002F 		.4byte	0x2f
 9342 0192 0000019D 		.4byte	0x19d
 9343 0196 12       		.uleb128 0x12
 9344 0197 000000C5 		.4byte	0xc5
 9345 019b 03       		.byte	0x3
 9346 019c 00       		.byte	0x0
 9347 019d 0C       		.uleb128 0xc
 9348 019e 00001290 		.4byte	.LASF20
 9349 01a2 08       		.byte	0x8
 9350 01a3 4F       		.byte	0x4f
 9351 01a4 0000012A 		.4byte	0x12a
 9352 01a8 0C       		.uleb128 0xc
 9353 01a9 00000AF9 		.4byte	.LASF21
 9354 01ad 09       		.byte	0x9
 9355 01ae 15       		.byte	0x15
 9356 01af 000001B3 		.4byte	0x1b3
 9357 01b3 03       		.uleb128 0x3
 9358 01b4 04       		.byte	0x4
 9359 01b5 07       		.byte	0x7
 9360 01b6 00000EA0 		.4byte	.LASF22
 9361 01ba 13       		.uleb128 0x13
 9362 01bb 00000F64 		.4byte	.LASF23
 9363 01bf 18       		.byte	0x18
 9364 01c0 09       		.byte	0x9
 9365 01c1 2D       		.byte	0x2d
 9366 01c2 00000219 		.4byte	0x219
 9367 01c6 10       		.uleb128 0x10
 9368 01c7 0000097A 		.4byte	.LASF24
 9369 01cb 09       		.byte	0x9
 9370 01cc 2E       		.byte	0x2e
 9371 01cd 00000219 		.4byte	0x219
 9372 01d1 02       		.byte	0x2
 9373 01d2 23       		.byte	0x23
 9374 01d3 00       		.uleb128 0x0
 9375 01d4 14       		.uleb128 0x14
 9376 01d5 5F6B00   		.string	"_k"
 9377 01d8 09       		.byte	0x9
 9378 01d9 2F       		.byte	0x2f
 9379 01da 0000008F 		.4byte	0x8f
 9380 01de 02       		.byte	0x2
 9381 01df 23       		.byte	0x23
 9382 01e0 04       		.uleb128 0x4
 9383 01e1 10       		.uleb128 0x10
 9384 01e2 00000DF4 		.4byte	.LASF25
 9385 01e6 09       		.byte	0x9
 9386 01e7 2F       		.byte	0x2f
 9387 01e8 0000008F 		.4byte	0x8f
 9388 01ec 02       		.byte	0x2
 9389 01ed 23       		.byte	0x23
 9390 01ee 08       		.uleb128 0x8
 9391 01ef 10       		.uleb128 0x10
 9392 01f0 000013CC 		.4byte	.LASF26
 9393 01f4 09       		.byte	0x9
 9394 01f5 2F       		.byte	0x2f
 9395 01f6 0000008F 		.4byte	0x8f
 9396 01fa 02       		.byte	0x2
 9397 01fb 23       		.byte	0x23
 9398 01fc 0C       		.uleb128 0xc
 9399 01fd 10       		.uleb128 0x10
 9400 01fe 000005C2 		.4byte	.LASF27
 9401 0202 09       		.byte	0x9
 9402 0203 2F       		.byte	0x2f
 9403 0204 0000008F 		.4byte	0x8f
 9404 0208 02       		.byte	0x2
 9405 0209 23       		.byte	0x23
 9406 020a 10       		.uleb128 0x10
 9407 020b 14       		.uleb128 0x14
 9408 020c 5F7800   		.string	"_x"
 9409 020f 09       		.byte	0x9
 9410 0210 30       		.byte	0x30
 9411 0211 0000021F 		.4byte	0x21f
 9412 0215 02       		.byte	0x2
 9413 0216 23       		.byte	0x23
 9414 0217 14       		.uleb128 0x14
 9415 0218 00       		.byte	0x0
 9416 0219 05       		.uleb128 0x5
 9417 021a 04       		.byte	0x4
 9418 021b 000001BA 		.4byte	0x1ba
 9419 021f 11       		.uleb128 0x11
 9420 0220 000001A8 		.4byte	0x1a8
 9421 0224 0000022F 		.4byte	0x22f
 9422 0228 12       		.uleb128 0x12
 9423 0229 000000C5 		.4byte	0xc5
 9424 022d 00       		.byte	0x0
 9425 022e 00       		.byte	0x0
 9426 022f 13       		.uleb128 0x13
 9427 0230 0000041D 		.4byte	.LASF28
 9428 0234 24       		.byte	0x24
 9429 0235 09       		.byte	0x9
 9430 0236 35       		.byte	0x35
 9431 0237 000002BA 		.4byte	0x2ba
 9432 023b 10       		.uleb128 0x10
 9433 023c 000009FE 		.4byte	.LASF29
 9434 0240 09       		.byte	0x9
 9435 0241 36       		.byte	0x36
 9436 0242 0000008F 		.4byte	0x8f
 9437 0246 02       		.byte	0x2
 9438 0247 23       		.byte	0x23
 9439 0248 00       		.uleb128 0x0
 9440 0249 10       		.uleb128 0x10
 9441 024a 000013D2 		.4byte	.LASF30
 9442 024e 09       		.byte	0x9
 9443 024f 37       		.byte	0x37
 9444 0250 0000008F 		.4byte	0x8f
 9445 0254 02       		.byte	0x2
 9446 0255 23       		.byte	0x23
 9447 0256 04       		.uleb128 0x4
 9448 0257 10       		.uleb128 0x10
 9449 0258 000008B4 		.4byte	.LASF31
 9450 025c 09       		.byte	0x9
 9451 025d 38       		.byte	0x38
 9452 025e 0000008F 		.4byte	0x8f
 9453 0262 02       		.byte	0x2
 9454 0263 23       		.byte	0x23
 9455 0264 08       		.uleb128 0x8
 9456 0265 10       		.uleb128 0x10
 9457 0266 0000090C 		.4byte	.LASF32
 9458 026a 09       		.byte	0x9
 9459 026b 39       		.byte	0x39
 9460 026c 0000008F 		.4byte	0x8f
 9461 0270 02       		.byte	0x2
 9462 0271 23       		.byte	0x23
 9463 0272 0C       		.uleb128 0xc
 9464 0273 10       		.uleb128 0x10
 9465 0274 00000A78 		.4byte	.LASF33
 9466 0278 09       		.byte	0x9
 9467 0279 3A       		.byte	0x3a
 9468 027a 0000008F 		.4byte	0x8f
 9469 027e 02       		.byte	0x2
 9470 027f 23       		.byte	0x23
 9471 0280 10       		.uleb128 0x10
 9472 0281 10       		.uleb128 0x10
 9473 0282 00000675 		.4byte	.LASF34
 9474 0286 09       		.byte	0x9
 9475 0287 3B       		.byte	0x3b
 9476 0288 0000008F 		.4byte	0x8f
 9477 028c 02       		.byte	0x2
 9478 028d 23       		.byte	0x23
 9479 028e 14       		.uleb128 0x14
 9480 028f 10       		.uleb128 0x10
 9481 0290 00000557 		.4byte	.LASF35
 9482 0294 09       		.byte	0x9
 9483 0295 3C       		.byte	0x3c
 9484 0296 0000008F 		.4byte	0x8f
 9485 029a 02       		.byte	0x2
 9486 029b 23       		.byte	0x23
 9487 029c 18       		.uleb128 0x18
 9488 029d 10       		.uleb128 0x10
 9489 029e 0000045E 		.4byte	.LASF36
 9490 02a2 09       		.byte	0x9
 9491 02a3 3D       		.byte	0x3d
 9492 02a4 0000008F 		.4byte	0x8f
 9493 02a8 02       		.byte	0x2
 9494 02a9 23       		.byte	0x23
 9495 02aa 1C       		.uleb128 0x1c
 9496 02ab 10       		.uleb128 0x10
 9497 02ac 00000561 		.4byte	.LASF37
 9498 02b0 09       		.byte	0x9
 9499 02b1 3E       		.byte	0x3e
 9500 02b2 0000008F 		.4byte	0x8f
 9501 02b6 02       		.byte	0x2
 9502 02b7 23       		.byte	0x23
 9503 02b8 20       		.uleb128 0x20
 9504 02b9 00       		.byte	0x0
 9505 02ba 15       		.uleb128 0x15
 9506 02bb 00000A11 		.4byte	.LASF38
 9507 02bf 0108     		.2byte	0x108
 9508 02c1 09       		.byte	0x9
 9509 02c2 47       		.byte	0x47
 9510 02c3 00000303 		.4byte	0x303
 9511 02c7 10       		.uleb128 0x10
 9512 02c8 0000092B 		.4byte	.LASF39
 9513 02cc 09       		.byte	0x9
 9514 02cd 48       		.byte	0x48
 9515 02ce 00000303 		.4byte	0x303
 9516 02d2 02       		.byte	0x2
 9517 02d3 23       		.byte	0x23
 9518 02d4 00       		.uleb128 0x0
 9519 02d5 10       		.uleb128 0x10
 9520 02d6 00000536 		.4byte	.LASF40
 9521 02da 09       		.byte	0x9
 9522 02db 49       		.byte	0x49
 9523 02dc 00000303 		.4byte	0x303
 9524 02e0 03       		.byte	0x3
 9525 02e1 23       		.byte	0x23
 9526 02e2 8001     		.uleb128 0x80
 9527 02e4 10       		.uleb128 0x10
 9528 02e5 00000077 		.4byte	.LASF41
 9529 02e9 09       		.byte	0x9
 9530 02ea 4B       		.byte	0x4b
 9531 02eb 000001A8 		.4byte	0x1a8
 9532 02ef 03       		.byte	0x3
 9533 02f0 23       		.byte	0x23
 9534 02f1 8002     		.uleb128 0x100
 9535 02f3 10       		.uleb128 0x10
 9536 02f4 000010F8 		.4byte	.LASF42
 9537 02f8 09       		.byte	0x9
 9538 02f9 4E       		.byte	0x4e
 9539 02fa 000001A8 		.4byte	0x1a8
 9540 02fe 03       		.byte	0x3
 9541 02ff 23       		.byte	0x23
 9542 0300 8402     		.uleb128 0x104
 9543 0302 00       		.byte	0x0
 9544 0303 11       		.uleb128 0x11
 9545 0304 000000CF 		.4byte	0xcf
 9546 0308 00000313 		.4byte	0x313
 9547 030c 12       		.uleb128 0x12
 9548 030d 000000C5 		.4byte	0xc5
 9549 0311 1F       		.byte	0x1f
 9550 0312 00       		.byte	0x0
 9551 0313 15       		.uleb128 0x15
 9552 0314 0000005A 		.4byte	.LASF43
 9553 0318 0190     		.2byte	0x190
 9554 031a 09       		.byte	0x9
 9555 031b 59       		.byte	0x59
 9556 031c 0000035A 		.4byte	0x35a
 9557 0320 10       		.uleb128 0x10
 9558 0321 0000097A 		.4byte	.LASF24
 9559 0325 09       		.byte	0x9
 9560 0326 5A       		.byte	0x5a
 9561 0327 0000035A 		.4byte	0x35a
 9562 032b 02       		.byte	0x2
 9563 032c 23       		.byte	0x23
 9564 032d 00       		.uleb128 0x0
 9565 032e 10       		.uleb128 0x10
 9566 032f 000000B6 		.4byte	.LASF44
 9567 0333 09       		.byte	0x9
 9568 0334 5B       		.byte	0x5b
 9569 0335 0000008F 		.4byte	0x8f
 9570 0339 02       		.byte	0x2
 9571 033a 23       		.byte	0x23
 9572 033b 04       		.uleb128 0x4
 9573 033c 10       		.uleb128 0x10
 9574 033d 0000109D 		.4byte	.LASF45
 9575 0341 09       		.byte	0x9
 9576 0342 5D       		.byte	0x5d
 9577 0343 00000360 		.4byte	0x360
 9578 0347 02       		.byte	0x2
 9579 0348 23       		.byte	0x23
 9580 0349 08       		.uleb128 0x8
 9581 034a 10       		.uleb128 0x10
 9582 034b 00000A11 		.4byte	.LASF38
 9583 034f 09       		.byte	0x9
 9584 0350 5E       		.byte	0x5e
 9585 0351 000002BA 		.4byte	0x2ba
 9586 0355 03       		.byte	0x3
 9587 0356 23       		.byte	0x23
 9588 0357 8801     		.uleb128 0x88
 9589 0359 00       		.byte	0x0
 9590 035a 05       		.uleb128 0x5
 9591 035b 04       		.byte	0x4
 9592 035c 00000313 		.4byte	0x313
 9593 0360 11       		.uleb128 0x11
 9594 0361 000000BE 		.4byte	0xbe
 9595 0365 00000370 		.4byte	0x370
 9596 0369 12       		.uleb128 0x12
 9597 036a 000000C5 		.4byte	0xc5
 9598 036e 1F       		.byte	0x1f
 9599 036f 00       		.byte	0x0
 9600 0370 13       		.uleb128 0x13
 9601 0371 00000C92 		.4byte	.LASF46
 9602 0375 08       		.byte	0x8
 9603 0376 09       		.byte	0x9
 9604 0377 69       		.byte	0x69
 9605 0378 00000399 		.4byte	0x399
 9606 037c 10       		.uleb128 0x10
 9607 037d 0000037C 		.4byte	.LASF47
 9608 0381 09       		.byte	0x9
 9609 0382 6A       		.byte	0x6a
 9610 0383 00000399 		.4byte	0x399
 9611 0387 02       		.byte	0x2
 9612 0388 23       		.byte	0x23
 9613 0389 00       		.uleb128 0x0
 9614 038a 10       		.uleb128 0x10
 9615 038b 00000618 		.4byte	.LASF48
 9616 038f 09       		.byte	0x9
 9617 0390 6B       		.byte	0x6b
 9618 0391 0000008F 		.4byte	0x8f
 9619 0395 02       		.byte	0x2
 9620 0396 23       		.byte	0x23
 9621 0397 04       		.uleb128 0x4
 9622 0398 00       		.byte	0x0
 9623 0399 05       		.uleb128 0x5
 9624 039a 04       		.byte	0x4
 9625 039b 0000002F 		.4byte	0x2f
 9626 039f 13       		.uleb128 0x13
 9627 03a0 00001087 		.4byte	.LASF49
 9628 03a4 5C       		.byte	0x5c
 9629 03a5 09       		.byte	0x9
 9630 03a6 9E       		.byte	0x9e
 9631 03a7 000004DD 		.4byte	0x4dd
 9632 03ab 14       		.uleb128 0x14
 9633 03ac 5F7000   		.string	"_p"
 9634 03af 09       		.byte	0x9
 9635 03b0 9F       		.byte	0x9f
 9636 03b1 00000399 		.4byte	0x399
 9637 03b5 02       		.byte	0x2
 9638 03b6 23       		.byte	0x23
 9639 03b7 00       		.uleb128 0x0
 9640 03b8 14       		.uleb128 0x14
 9641 03b9 5F7200   		.string	"_r"
 9642 03bc 09       		.byte	0x9
 9643 03bd A0       		.byte	0xa0
 9644 03be 0000008F 		.4byte	0x8f
 9645 03c2 02       		.byte	0x2
 9646 03c3 23       		.byte	0x23
 9647 03c4 04       		.uleb128 0x4
 9648 03c5 14       		.uleb128 0x14
 9649 03c6 5F7700   		.string	"_w"
 9650 03c9 09       		.byte	0x9
 9651 03ca A1       		.byte	0xa1
 9652 03cb 0000008F 		.4byte	0x8f
 9653 03cf 02       		.byte	0x2
 9654 03d0 23       		.byte	0x23
 9655 03d1 08       		.uleb128 0x8
 9656 03d2 10       		.uleb128 0x10
 9657 03d3 00000158 		.4byte	.LASF50
 9658 03d7 09       		.byte	0x9
 9659 03d8 A2       		.byte	0xa2
 9660 03d9 0000007D 		.4byte	0x7d
 9661 03dd 02       		.byte	0x2
 9662 03de 23       		.byte	0x23
 9663 03df 0C       		.uleb128 0xc
 9664 03e0 10       		.uleb128 0x10
 9665 03e1 00001073 		.4byte	.LASF51
 9666 03e5 09       		.byte	0x9
 9667 03e6 A3       		.byte	0xa3
 9668 03e7 0000007D 		.4byte	0x7d
 9669 03eb 02       		.byte	0x2
 9670 03ec 23       		.byte	0x23
 9671 03ed 0E       		.uleb128 0xe
 9672 03ee 14       		.uleb128 0x14
 9673 03ef 5F626600 		.string	"_bf"
 9674 03f3 09       		.byte	0x9
 9675 03f4 A4       		.byte	0xa4
 9676 03f5 00000370 		.4byte	0x370
 9677 03f9 02       		.byte	0x2
 9678 03fa 23       		.byte	0x23
 9679 03fb 10       		.uleb128 0x10
 9680 03fc 10       		.uleb128 0x10
 9681 03fd 000002E5 		.4byte	.LASF52
 9682 0401 09       		.byte	0x9
 9683 0402 A5       		.byte	0xa5
 9684 0403 0000008F 		.4byte	0x8f
 9685 0407 02       		.byte	0x2
 9686 0408 23       		.byte	0x23
 9687 0409 18       		.uleb128 0x18
 9688 040a 10       		.uleb128 0x10
 9689 040b 0000099A 		.4byte	.LASF53
 9690 040f 09       		.byte	0x9
 9691 0410 AC       		.byte	0xac
 9692 0411 000000CF 		.4byte	0xcf
 9693 0415 02       		.byte	0x2
 9694 0416 23       		.byte	0x23
 9695 0417 1C       		.uleb128 0x1c
 9696 0418 10       		.uleb128 0x10
 9697 0419 00001468 		.4byte	.LASF54
 9698 041d 09       		.byte	0x9
 9699 041e AE       		.byte	0xae
 9700 041f 000007D5 		.4byte	0x7d5
 9701 0423 02       		.byte	0x2
 9702 0424 23       		.byte	0x23
 9703 0425 20       		.uleb128 0x20
 9704 0426 10       		.uleb128 0x10
 9705 0427 00000629 		.4byte	.LASF55
 9706 042b 09       		.byte	0x9
 9707 042c B0       		.byte	0xb0
 9708 042d 00000804 		.4byte	0x804
 9709 0431 02       		.byte	0x2
 9710 0432 23       		.byte	0x23
 9711 0433 24       		.uleb128 0x24
 9712 0434 10       		.uleb128 0x10
 9713 0435 00000B89 		.4byte	.LASF56
 9714 0439 09       		.byte	0x9
 9715 043a B2       		.byte	0xb2
 9716 043b 00000828 		.4byte	0x828
 9717 043f 02       		.byte	0x2
 9718 0440 23       		.byte	0x23
 9719 0441 28       		.uleb128 0x28
 9720 0442 10       		.uleb128 0x10
 9721 0443 00000EEE 		.4byte	.LASF57
 9722 0447 09       		.byte	0x9
 9723 0448 B3       		.byte	0xb3
 9724 0449 00000842 		.4byte	0x842
 9725 044d 02       		.byte	0x2
 9726 044e 23       		.byte	0x23
 9727 044f 2C       		.uleb128 0x2c
 9728 0450 14       		.uleb128 0x14
 9729 0451 5F756200 		.string	"_ub"
 9730 0455 09       		.byte	0x9
 9731 0456 B6       		.byte	0xb6
 9732 0457 00000370 		.4byte	0x370
 9733 045b 02       		.byte	0x2
 9734 045c 23       		.byte	0x23
 9735 045d 30       		.uleb128 0x30
 9736 045e 14       		.uleb128 0x14
 9737 045f 5F757000 		.string	"_up"
 9738 0463 09       		.byte	0x9
 9739 0464 B7       		.byte	0xb7
 9740 0465 00000399 		.4byte	0x399
 9741 0469 02       		.byte	0x2
 9742 046a 23       		.byte	0x23
 9743 046b 38       		.uleb128 0x38
 9744 046c 14       		.uleb128 0x14
 9745 046d 5F757200 		.string	"_ur"
 9746 0471 09       		.byte	0x9
 9747 0472 B8       		.byte	0xb8
 9748 0473 0000008F 		.4byte	0x8f
 9749 0477 02       		.byte	0x2
 9750 0478 23       		.byte	0x23
 9751 0479 3C       		.uleb128 0x3c
 9752 047a 10       		.uleb128 0x10
 9753 047b 00001028 		.4byte	.LASF58
 9754 047f 09       		.byte	0x9
 9755 0480 BB       		.byte	0xbb
 9756 0481 00000848 		.4byte	0x848
 9757 0485 02       		.byte	0x2
 9758 0486 23       		.byte	0x23
 9759 0487 40       		.uleb128 0x40
 9760 0488 10       		.uleb128 0x10
 9761 0489 000001E2 		.4byte	.LASF59
 9762 048d 09       		.byte	0x9
 9763 048e BC       		.byte	0xbc
 9764 048f 00000858 		.4byte	0x858
 9765 0493 02       		.byte	0x2
 9766 0494 23       		.byte	0x23
 9767 0495 43       		.uleb128 0x43
 9768 0496 14       		.uleb128 0x14
 9769 0497 5F6C6200 		.string	"_lb"
 9770 049b 09       		.byte	0x9
 9771 049c BF       		.byte	0xbf
 9772 049d 00000370 		.4byte	0x370
 9773 04a1 02       		.byte	0x2
 9774 04a2 23       		.byte	0x23
 9775 04a3 44       		.uleb128 0x44
 9776 04a4 10       		.uleb128 0x10
 9777 04a5 0000101F 		.4byte	.LASF60
 9778 04a9 09       		.byte	0x9
 9779 04aa C2       		.byte	0xc2
 9780 04ab 0000008F 		.4byte	0x8f
 9781 04af 02       		.byte	0x2
 9782 04b0 23       		.byte	0x23
 9783 04b1 4C       		.uleb128 0x4c
 9784 04b2 10       		.uleb128 0x10
 9785 04b3 00000C7F 		.4byte	.LASF61
 9786 04b7 09       		.byte	0x9
 9787 04b8 C3       		.byte	0xc3
 9788 04b9 0000008F 		.4byte	0x8f
 9789 04bd 02       		.byte	0x2
 9790 04be 23       		.byte	0x23
 9791 04bf 50       		.uleb128 0x50
 9792 04c0 10       		.uleb128 0x10
 9793 04c1 00000301 		.4byte	.LASF62
 9794 04c5 09       		.byte	0x9
 9795 04c6 C6       		.byte	0xc6
 9796 04c7 000004FB 		.4byte	0x4fb
 9797 04cb 02       		.byte	0x2
 9798 04cc 23       		.byte	0x23
 9799 04cd 54       		.uleb128 0x54
 9800 04ce 10       		.uleb128 0x10
 9801 04cf 000001DC 		.4byte	.LASF63
 9802 04d3 09       		.byte	0x9
 9803 04d4 CA       		.byte	0xca
 9804 04d5 0000019D 		.4byte	0x19d
 9805 04d9 02       		.byte	0x2
 9806 04da 23       		.byte	0x23
 9807 04db 58       		.uleb128 0x58
 9808 04dc 00       		.byte	0x0
 9809 04dd 16       		.uleb128 0x16
 9810 04de 0000008F 		.4byte	0x8f
 9811 04e2 000004FB 		.4byte	0x4fb
 9812 04e6 17       		.uleb128 0x17
 9813 04e7 000004FB 		.4byte	0x4fb
 9814 04eb 17       		.uleb128 0x17
 9815 04ec 000000CF 		.4byte	0xcf
 9816 04f0 17       		.uleb128 0x17
 9817 04f1 000000AB 		.4byte	0xab
 9818 04f5 17       		.uleb128 0x17
 9819 04f6 0000008F 		.4byte	0x8f
 9820 04fa 00       		.byte	0x0
 9821 04fb 05       		.uleb128 0x5
 9822 04fc 04       		.byte	0x4
 9823 04fd 00000501 		.4byte	0x501
 9824 0501 18       		.uleb128 0x18
 9825 0502 00000344 		.4byte	.LASF64
 9826 0506 0400     		.2byte	0x400
 9827 0508 09       		.byte	0x9
 9828 0509 0235     		.2byte	0x235
 9829 050b 000007D5 		.4byte	0x7d5
 9830 050f 19       		.uleb128 0x19
 9831 0510 2E5F3800 		.string	"._8"
 9832 0514 F0       		.byte	0xf0
 9833 0515 09       		.byte	0x9
 9834 0516 0252     		.2byte	0x252
 9835 0518 00000685 		.4byte	0x685
 9836 051c 1A       		.uleb128 0x1a
 9837 051d 2E5F3900 		.string	"._9"
 9838 0521 D0       		.byte	0xd0
 9839 0522 09       		.byte	0x9
 9840 0523 0254     		.2byte	0x254
 9841 0525 00000640 		.4byte	0x640
 9842 0529 1B       		.uleb128 0x1b
 9843 052a 000004A1 		.4byte	.LASF65
 9844 052e 09       		.byte	0x9
 9845 052f 0255     		.2byte	0x255
 9846 0531 00000053 		.4byte	0x53
 9847 0535 02       		.byte	0x2
 9848 0536 23       		.byte	0x23
 9849 0537 00       		.uleb128 0x0
 9850 0538 1B       		.uleb128 0x1b
 9851 0539 00000B69 		.4byte	.LASF66
 9852 053d 09       		.byte	0x9
 9853 053e 0256     		.2byte	0x256
 9854 0540 000000AB 		.4byte	0xab
 9855 0544 02       		.byte	0x2
 9856 0545 23       		.byte	0x23
 9857 0546 04       		.uleb128 0x4
 9858 0547 1B       		.uleb128 0x1b
 9859 0548 00000CF8 		.4byte	.LASF67
 9860 054c 09       		.byte	0x9
 9861 054d 0257     		.2byte	0x257
 9862 054f 00000906 		.4byte	0x906
 9863 0553 02       		.byte	0x2
 9864 0554 23       		.byte	0x23
 9865 0555 08       		.uleb128 0x8
 9866 0556 1B       		.uleb128 0x1b
 9867 0557 00000783 		.4byte	.LASF68
 9868 055b 09       		.byte	0x9
 9869 055c 0258     		.2byte	0x258
 9870 055e 0000022F 		.4byte	0x22f
 9871 0562 02       		.byte	0x2
 9872 0563 23       		.byte	0x23
 9873 0564 24       		.uleb128 0x24
 9874 0565 1B       		.uleb128 0x1b
 9875 0566 000011C0 		.4byte	.LASF69
 9876 056a 09       		.byte	0x9
 9877 056b 0259     		.2byte	0x259
 9878 056d 0000008F 		.4byte	0x8f
 9879 0571 02       		.byte	0x2
 9880 0572 23       		.byte	0x23
 9881 0573 48       		.uleb128 0x48
 9882 0574 1B       		.uleb128 0x1b
 9883 0575 00000DCB 		.4byte	.LASF70
 9884 0579 09       		.byte	0x9
 9885 057a 025A     		.2byte	0x25a
 9886 057c 0000005A 		.4byte	0x5a
 9887 0580 02       		.byte	0x2
 9888 0581 23       		.byte	0x23
 9889 0582 50       		.uleb128 0x50
 9890 0583 1B       		.uleb128 0x1b
 9891 0584 000013E8 		.4byte	.LASF71
 9892 0588 09       		.byte	0x9
 9893 0589 025B     		.2byte	0x25b
 9894 058b 000008BB 		.4byte	0x8bb
 9895 058f 02       		.byte	0x2
 9896 0590 23       		.byte	0x23
 9897 0591 58       		.uleb128 0x58
 9898 0592 1B       		.uleb128 0x1b
 9899 0593 0000102E 		.4byte	.LASF72
 9900 0597 09       		.byte	0x9
 9901 0598 025C     		.2byte	0x25c
 9902 059a 00000141 		.4byte	0x141
 9903 059e 02       		.byte	0x2
 9904 059f 23       		.byte	0x23
 9905 05a0 68       		.uleb128 0x68
 9906 05a1 1B       		.uleb128 0x1b
 9907 05a2 000003B5 		.4byte	.LASF73
 9908 05a6 09       		.byte	0x9
 9909 05a7 025D     		.2byte	0x25d
 9910 05a9 00000141 		.4byte	0x141
 9911 05ad 02       		.byte	0x2
 9912 05ae 23       		.byte	0x23
 9913 05af 70       		.uleb128 0x70
 9914 05b0 1B       		.uleb128 0x1b
 9915 05b1 00000D88 		.4byte	.LASF74
 9916 05b5 09       		.byte	0x9
 9917 05b6 025E     		.2byte	0x25e
 9918 05b8 00000141 		.4byte	0x141
 9919 05bc 02       		.byte	0x2
 9920 05bd 23       		.byte	0x23
 9921 05be 78       		.uleb128 0x78
 9922 05bf 1B       		.uleb128 0x1b
 9923 05c0 00000CA2 		.4byte	.LASF75
 9924 05c4 09       		.byte	0x9
 9925 05c5 025F     		.2byte	0x25f
 9926 05c7 00000916 		.4byte	0x916
 9927 05cb 03       		.byte	0x3
 9928 05cc 23       		.byte	0x23
 9929 05cd 8001     		.uleb128 0x80
 9930 05cf 1B       		.uleb128 0x1b
 9931 05d0 00000980 		.4byte	.LASF76
 9932 05d4 09       		.byte	0x9
 9933 05d5 0260     		.2byte	0x260
 9934 05d7 00000926 		.4byte	0x926
 9935 05db 03       		.byte	0x3
 9936 05dc 23       		.byte	0x23
 9937 05dd 8801     		.uleb128 0x88
 9938 05df 1B       		.uleb128 0x1b
 9939 05e0 00000FA0 		.4byte	.LASF77
 9940 05e4 09       		.byte	0x9
 9941 05e5 0261     		.2byte	0x261
 9942 05e7 0000008F 		.4byte	0x8f
 9943 05eb 03       		.byte	0x3
 9944 05ec 23       		.byte	0x23
 9945 05ed A001     		.uleb128 0xa0
 9946 05ef 1B       		.uleb128 0x1b
 9947 05f0 000006B3 		.4byte	.LASF78
 9948 05f4 09       		.byte	0x9
 9949 05f5 0262     		.2byte	0x262
 9950 05f7 00000141 		.4byte	0x141
 9951 05fb 03       		.byte	0x3
 9952 05fc 23       		.byte	0x23
 9953 05fd A401     		.uleb128 0xa4
 9954 05ff 1B       		.uleb128 0x1b
 9955 0600 000008A5 		.4byte	.LASF79
 9956 0604 09       		.byte	0x9
 9957 0605 0263     		.2byte	0x263
 9958 0607 00000141 		.4byte	0x141
 9959 060b 03       		.byte	0x3
 9960 060c 23       		.byte	0x23
 9961 060d AC01     		.uleb128 0xac
 9962 060f 1B       		.uleb128 0x1b
 9963 0610 000005B1 		.4byte	.LASF80
 9964 0614 09       		.byte	0x9
 9965 0615 0264     		.2byte	0x264
 9966 0617 00000141 		.4byte	0x141
 9967 061b 03       		.byte	0x3
 9968 061c 23       		.byte	0x23
 9969 061d B401     		.uleb128 0xb4
 9970 061f 1B       		.uleb128 0x1b
 9971 0620 00000A69 		.4byte	.LASF81
 9972 0624 09       		.byte	0x9
 9973 0625 0265     		.2byte	0x265
 9974 0627 00000141 		.4byte	0x141
 9975 062b 03       		.byte	0x3
 9976 062c 23       		.byte	0x23
 9977 062d BC01     		.uleb128 0xbc
 9978 062f 1B       		.uleb128 0x1b
 9979 0630 00000D1F 		.4byte	.LASF82
 9980 0634 09       		.byte	0x9
 9981 0635 0266     		.2byte	0x266
 9982 0637 00000141 		.4byte	0x141
 9983 063b 03       		.byte	0x3
 9984 063c 23       		.byte	0x23
 9985 063d C401     		.uleb128 0xc4
 9986 063f 00       		.byte	0x0
 9987 0640 09       		.uleb128 0x9
 9988 0641 000009AF 		.4byte	.LASF83
 9989 0645 F0       		.byte	0xf0
 9990 0646 09       		.byte	0x9
 9991 0647 026C     		.2byte	0x26c
 9992 0649 0000066C 		.4byte	0x66c
 9993 064d 1B       		.uleb128 0x1b
 9994 064e 00000DC4 		.4byte	.LASF84
 9995 0652 09       		.byte	0x9
 9996 0653 026E     		.2byte	0x26e
 9997 0655 00000936 		.4byte	0x936
 9998 0659 02       		.byte	0x2
 9999 065a 23       		.byte	0x23
 10000 065b 00       		.uleb128 0x0
 10001 065c 1B       		.uleb128 0x1b
 10002 065d 0000072B 		.4byte	.LASF85
 10003 0661 09       		.byte	0x9
 10004 0662 026F     		.2byte	0x26f
 10005 0664 00000946 		.4byte	0x946
 10006 0668 02       		.byte	0x2
 10007 0669 23       		.byte	0x23
 10008 066a 78       		.uleb128 0x78
 10009 066b 00       		.byte	0x0
 10010 066c 1C       		.uleb128 0x1c
 10011 066d 00000344 		.4byte	.LASF64
 10012 0671 09       		.byte	0x9
 10013 0672 0267     		.2byte	0x267
 10014 0674 0000051C 		.4byte	0x51c
 10015 0678 1C       		.uleb128 0x1c
 10016 0679 000001E8 		.4byte	.LASF86
 10017 067d 09       		.byte	0x9
 10018 067e 0270     		.2byte	0x270
 10019 0680 00000640 		.4byte	0x640
 10020 0684 00       		.byte	0x0
 10021 0685 1B       		.uleb128 0x1b
 10022 0686 00000905 		.4byte	.LASF87
 10023 068a 09       		.byte	0x9
 10024 068b 0236     		.2byte	0x236
 10025 068d 0000008F 		.4byte	0x8f
 10026 0691 02       		.byte	0x2
 10027 0692 23       		.byte	0x23
 10028 0693 00       		.uleb128 0x0
 10029 0694 1B       		.uleb128 0x1b
 10030 0695 00000707 		.4byte	.LASF88
 10031 0699 09       		.byte	0x9
 10032 069a 023B     		.2byte	0x23b
 10033 069c 000008B5 		.4byte	0x8b5
 10034 06a0 02       		.byte	0x2
 10035 06a1 23       		.byte	0x23
 10036 06a2 04       		.uleb128 0x4
 10037 06a3 1B       		.uleb128 0x1b
 10038 06a4 00000597 		.4byte	.LASF89
 10039 06a8 09       		.byte	0x9
 10040 06a9 023B     		.2byte	0x23b
 10041 06ab 000008B5 		.4byte	0x8b5
 10042 06af 02       		.byte	0x2
 10043 06b0 23       		.byte	0x23
 10044 06b1 08       		.uleb128 0x8
 10045 06b2 1B       		.uleb128 0x1b
 10046 06b3 000004EE 		.4byte	.LASF90
 10047 06b7 09       		.byte	0x9
 10048 06b8 023B     		.2byte	0x23b
 10049 06ba 000008B5 		.4byte	0x8b5
 10050 06be 02       		.byte	0x2
 10051 06bf 23       		.byte	0x23
 10052 06c0 0C       		.uleb128 0xc
 10053 06c1 1B       		.uleb128 0x1b
 10054 06c2 000000B1 		.4byte	.LASF91
 10055 06c6 09       		.byte	0x9
 10056 06c7 023D     		.2byte	0x23d
 10057 06c9 0000008F 		.4byte	0x8f
 10058 06cd 02       		.byte	0x2
 10059 06ce 23       		.byte	0x23
 10060 06cf 10       		.uleb128 0x10
 10061 06d0 1B       		.uleb128 0x1b
 10062 06d1 00000DB4 		.4byte	.LASF92
 10063 06d5 09       		.byte	0x9
 10064 06d6 023E     		.2byte	0x23e
 10065 06d8 00000956 		.4byte	0x956
 10066 06dc 02       		.byte	0x2
 10067 06dd 23       		.byte	0x23
 10068 06de 14       		.uleb128 0x14
 10069 06df 1B       		.uleb128 0x1b
 10070 06e0 000011D6 		.4byte	.LASF93
 10071 06e4 09       		.byte	0x9
 10072 06e5 0240     		.2byte	0x240
 10073 06e7 0000008F 		.4byte	0x8f
 10074 06eb 02       		.byte	0x2
 10075 06ec 23       		.byte	0x23
 10076 06ed 30       		.uleb128 0x30
 10077 06ee 1B       		.uleb128 0x1b
 10078 06ef 0000021D 		.4byte	.LASF94
 10079 06f3 09       		.byte	0x9
 10080 06f4 0241     		.2byte	0x241
 10081 06f6 000007F9 		.4byte	0x7f9
 10082 06fa 02       		.byte	0x2
 10083 06fb 23       		.byte	0x23
 10084 06fc 34       		.uleb128 0x34
 10085 06fd 1B       		.uleb128 0x1b
 10086 06fe 00001234 		.4byte	.LASF95
 10087 0702 09       		.byte	0x9
 10088 0703 0243     		.2byte	0x243
 10089 0705 0000008F 		.4byte	0x8f
 10090 0709 02       		.byte	0x2
 10091 070a 23       		.byte	0x23
 10092 070b 38       		.uleb128 0x38
 10093 070c 1B       		.uleb128 0x1b
 10094 070d 0000104B 		.4byte	.LASF96
 10095 0711 09       		.byte	0x9
 10096 0712 0245     		.2byte	0x245
 10097 0714 00000971 		.4byte	0x971
 10098 0718 02       		.byte	0x2
 10099 0719 23       		.byte	0x23
 10100 071a 3C       		.uleb128 0x3c
 10101 071b 1B       		.uleb128 0x1b
 10102 071c 000004F6 		.4byte	.LASF97
 10103 0720 09       		.byte	0x9
 10104 0721 0248     		.2byte	0x248
 10105 0723 00000219 		.4byte	0x219
 10106 0727 02       		.byte	0x2
 10107 0728 23       		.byte	0x23
 10108 0729 40       		.uleb128 0x40
 10109 072a 1B       		.uleb128 0x1b
 10110 072b 000004E4 		.4byte	.LASF98
 10111 072f 09       		.byte	0x9
 10112 0730 0249     		.2byte	0x249
 10113 0732 0000008F 		.4byte	0x8f
 10114 0736 02       		.byte	0x2
 10115 0737 23       		.byte	0x23
 10116 0738 44       		.uleb128 0x44
 10117 0739 1B       		.uleb128 0x1b
 10118 073a 00001109 		.4byte	.LASF99
 10119 073e 09       		.byte	0x9
 10120 073f 024A     		.2byte	0x24a
 10121 0741 00000219 		.4byte	0x219
 10122 0745 02       		.byte	0x2
 10123 0746 23       		.byte	0x23
 10124 0747 48       		.uleb128 0x48
 10125 0748 1B       		.uleb128 0x1b
 10126 0749 00000C4E 		.4byte	.LASF100
 10127 074d 09       		.byte	0x9
 10128 074e 024B     		.2byte	0x24b
 10129 0750 00000977 		.4byte	0x977
 10130 0754 02       		.byte	0x2
 10131 0755 23       		.byte	0x23
 10132 0756 4C       		.uleb128 0x4c
 10133 0757 1B       		.uleb128 0x1b
 10134 0758 000001A3 		.4byte	.LASF101
 10135 075c 09       		.byte	0x9
 10136 075d 024E     		.2byte	0x24e
 10137 075f 0000008F 		.4byte	0x8f
 10138 0763 02       		.byte	0x2
 10139 0764 23       		.byte	0x23
 10140 0765 50       		.uleb128 0x50
 10141 0766 1B       		.uleb128 0x1b
 10142 0767 00000818 		.4byte	.LASF102
 10143 076b 09       		.byte	0x9
 10144 076c 024F     		.2byte	0x24f
 10145 076e 000000AB 		.4byte	0xab
 10146 0772 02       		.byte	0x2
 10147 0773 23       		.byte	0x23
 10148 0774 54       		.uleb128 0x54
 10149 0775 1B       		.uleb128 0x1b
 10150 0776 000008F2 		.4byte	.LASF103
 10151 077a 09       		.byte	0x9
 10152 077b 0271     		.2byte	0x271
 10153 077d 0000050F 		.4byte	0x50f
 10154 0781 02       		.byte	0x2
 10155 0782 23       		.byte	0x23
 10156 0783 58       		.uleb128 0x58
 10157 0784 1B       		.uleb128 0x1b
 10158 0785 0000005A 		.4byte	.LASF43
 10159 0789 09       		.byte	0x9
 10160 078a 0274     		.2byte	0x274
 10161 078c 0000035A 		.4byte	0x35a
 10162 0790 03       		.byte	0x3
 10163 0791 23       		.byte	0x23
 10164 0792 C802     		.uleb128 0x148
 10165 0794 1B       		.uleb128 0x1b
 10166 0795 00000F87 		.4byte	.LASF104
 10167 0799 09       		.byte	0x9
 10168 079a 0275     		.2byte	0x275
 10169 079c 00000313 		.4byte	0x313
 10170 07a0 03       		.byte	0x3
 10171 07a1 23       		.byte	0x23
 10172 07a2 CC02     		.uleb128 0x14c
 10173 07a4 1B       		.uleb128 0x1b
 10174 07a5 000001B9 		.4byte	.LASF105
 10175 07a9 09       		.byte	0x9
 10176 07aa 0278     		.2byte	0x278
 10177 07ac 00000988 		.4byte	0x988
 10178 07b0 03       		.byte	0x3
 10179 07b1 23       		.byte	0x23
 10180 07b2 DC05     		.uleb128 0x2dc
 10181 07b4 1B       		.uleb128 0x1b
 10182 07b5 0000103B 		.4byte	.LASF106
 10183 07b9 09       		.byte	0x9
 10184 07ba 027D     		.2byte	0x27d
 10185 07bc 00000874 		.4byte	0x874
 10186 07c0 03       		.byte	0x3
 10187 07c1 23       		.byte	0x23
 10188 07c2 E005     		.uleb128 0x2e0
 10189 07c4 1B       		.uleb128 0x1b
 10190 07c5 0000036A 		.4byte	.LASF107
 10191 07c9 09       		.byte	0x9
 10192 07ca 027E     		.2byte	0x27e
 10193 07cc 00000994 		.4byte	0x994
 10194 07d0 03       		.byte	0x3
 10195 07d1 23       		.byte	0x23
 10196 07d2 EC05     		.uleb128 0x2ec
 10197 07d4 00       		.byte	0x0
 10198 07d5 05       		.uleb128 0x5
 10199 07d6 04       		.byte	0x4
 10200 07d7 000004DD 		.4byte	0x4dd
 10201 07db 16       		.uleb128 0x16
 10202 07dc 0000008F 		.4byte	0x8f
 10203 07e0 000007F9 		.4byte	0x7f9
 10204 07e4 17       		.uleb128 0x17
 10205 07e5 000004FB 		.4byte	0x4fb
 10206 07e9 17       		.uleb128 0x17
 10207 07ea 000000CF 		.4byte	0xcf
 10208 07ee 17       		.uleb128 0x17
 10209 07ef 000007F9 		.4byte	0x7f9
 10210 07f3 17       		.uleb128 0x17
 10211 07f4 0000008F 		.4byte	0x8f
 10212 07f8 00       		.byte	0x0
 10213 07f9 05       		.uleb128 0x5
 10214 07fa 04       		.byte	0x4
 10215 07fb 000007FF 		.4byte	0x7ff
 10216 07ff 1D       		.uleb128 0x1d
 10217 0800 000000B1 		.4byte	0xb1
 10218 0804 05       		.uleb128 0x5
 10219 0805 04       		.byte	0x4
 10220 0806 000007DB 		.4byte	0x7db
 10221 080a 16       		.uleb128 0x16
 10222 080b 0000011F 		.4byte	0x11f
 10223 080f 00000828 		.4byte	0x828
 10224 0813 17       		.uleb128 0x17
 10225 0814 000004FB 		.4byte	0x4fb
 10226 0818 17       		.uleb128 0x17
 10227 0819 000000CF 		.4byte	0xcf
 10228 081d 17       		.uleb128 0x17
 10229 081e 0000011F 		.4byte	0x11f
 10230 0822 17       		.uleb128 0x17
 10231 0823 0000008F 		.4byte	0x8f
 10232 0827 00       		.byte	0x0
 10233 0828 05       		.uleb128 0x5
 10234 0829 04       		.byte	0x4
 10235 082a 0000080A 		.4byte	0x80a
 10236 082e 16       		.uleb128 0x16
 10237 082f 0000008F 		.4byte	0x8f
 10238 0833 00000842 		.4byte	0x842
 10239 0837 17       		.uleb128 0x17
 10240 0838 000004FB 		.4byte	0x4fb
 10241 083c 17       		.uleb128 0x17
 10242 083d 000000CF 		.4byte	0xcf
 10243 0841 00       		.byte	0x0
 10244 0842 05       		.uleb128 0x5
 10245 0843 04       		.byte	0x4
 10246 0844 0000082E 		.4byte	0x82e
 10247 0848 11       		.uleb128 0x11
 10248 0849 0000002F 		.4byte	0x2f
 10249 084d 00000858 		.4byte	0x858
 10250 0851 12       		.uleb128 0x12
 10251 0852 000000C5 		.4byte	0xc5
 10252 0856 02       		.byte	0x2
 10253 0857 00       		.byte	0x0
 10254 0858 11       		.uleb128 0x11
 10255 0859 0000002F 		.4byte	0x2f
 10256 085d 00000868 		.4byte	0x868
 10257 0861 12       		.uleb128 0x12
 10258 0862 000000C5 		.4byte	0xc5
 10259 0866 00       		.byte	0x0
 10260 0867 00       		.byte	0x0
 10261 0868 0B       		.uleb128 0xb
 10262 0869 000010A2 		.4byte	.LASF108
 10263 086d 09       		.byte	0x9
 10264 086e 0103     		.2byte	0x103
 10265 0870 0000039F 		.4byte	0x39f
 10266 0874 09       		.uleb128 0x9
 10267 0875 00000F05 		.4byte	.LASF109
 10268 0879 0C       		.byte	0xc
 10269 087a 09       		.byte	0x9
 10270 087b 0108     		.2byte	0x108
 10271 087d 000008AF 		.4byte	0x8af
 10272 0881 1B       		.uleb128 0x1b
 10273 0882 0000097A 		.4byte	.LASF24
 10274 0886 09       		.byte	0x9
 10275 0887 0109     		.2byte	0x109
 10276 0889 000008AF 		.4byte	0x8af
 10277 088d 02       		.byte	0x2
 10278 088e 23       		.byte	0x23
 10279 088f 00       		.uleb128 0x0
 10280 0890 1B       		.uleb128 0x1b
 10281 0891 000008FE 		.4byte	.LASF110
 10282 0895 09       		.byte	0x9
 10283 0896 010A     		.2byte	0x10a
 10284 0898 0000008F 		.4byte	0x8f
 10285 089c 02       		.byte	0x2
 10286 089d 23       		.byte	0x23
 10287 089e 04       		.uleb128 0x4
 10288 089f 1B       		.uleb128 0x1b
 10289 08a0 00000DAE 		.4byte	.LASF111
 10290 08a4 09       		.byte	0x9
 10291 08a5 010B     		.2byte	0x10b
 10292 08a7 000008B5 		.4byte	0x8b5
 10293 08ab 02       		.byte	0x2
 10294 08ac 23       		.byte	0x23
 10295 08ad 08       		.uleb128 0x8
 10296 08ae 00       		.byte	0x0
 10297 08af 05       		.uleb128 0x5
 10298 08b0 04       		.byte	0x4
 10299 08b1 00000874 		.4byte	0x874
 10300 08b5 05       		.uleb128 0x5
 10301 08b6 04       		.byte	0x4
 10302 08b7 00000868 		.4byte	0x868
 10303 08bb 09       		.uleb128 0x9
 10304 08bc 00001473 		.4byte	.LASF112
 10305 08c0 0E       		.byte	0xe
 10306 08c1 09       		.byte	0x9
 10307 08c2 0123     		.2byte	0x123
 10308 08c4 000008F6 		.4byte	0x8f6
 10309 08c8 1B       		.uleb128 0x1b
 10310 08c9 00000B83 		.4byte	.LASF113
 10311 08cd 09       		.byte	0x9
 10312 08ce 0124     		.2byte	0x124
 10313 08d0 000008F6 		.4byte	0x8f6
 10314 08d4 02       		.byte	0x2
 10315 08d5 23       		.byte	0x23
 10316 08d6 00       		.uleb128 0x0
 10317 08d7 1B       		.uleb128 0x1b
 10318 08d8 0000068E 		.4byte	.LASF114
 10319 08dc 09       		.byte	0x9
 10320 08dd 0125     		.2byte	0x125
 10321 08df 000008F6 		.4byte	0x8f6
 10322 08e3 02       		.byte	0x2
 10323 08e4 23       		.byte	0x23
 10324 08e5 06       		.uleb128 0x6
 10325 08e6 1B       		.uleb128 0x1b
 10326 08e7 00000266 		.4byte	.LASF115
 10327 08eb 09       		.byte	0x9
 10328 08ec 0126     		.2byte	0x126
 10329 08ee 00000041 		.4byte	0x41
 10330 08f2 02       		.byte	0x2
 10331 08f3 23       		.byte	0x23
 10332 08f4 0C       		.uleb128 0xc
 10333 08f5 00       		.byte	0x0
 10334 08f6 11       		.uleb128 0x11
 10335 08f7 00000041 		.4byte	0x41
 10336 08fb 00000906 		.4byte	0x906
 10337 08ff 12       		.uleb128 0x12
 10338 0900 000000C5 		.4byte	0xc5
 10339 0904 02       		.byte	0x2
 10340 0905 00       		.byte	0x0
 10341 0906 11       		.uleb128 0x11
 10342 0907 000000B1 		.4byte	0xb1
 10343 090b 00000916 		.4byte	0x916
 10344 090f 12       		.uleb128 0x12
 10345 0910 000000C5 		.4byte	0xc5
 10346 0914 19       		.byte	0x19
 10347 0915 00       		.byte	0x0
 10348 0916 11       		.uleb128 0x11
 10349 0917 000000B1 		.4byte	0xb1
 10350 091b 00000926 		.4byte	0x926
 10351 091f 12       		.uleb128 0x12
 10352 0920 000000C5 		.4byte	0xc5
 10353 0924 07       		.byte	0x7
 10354 0925 00       		.byte	0x0
 10355 0926 11       		.uleb128 0x11
 10356 0927 000000B1 		.4byte	0xb1
 10357 092b 00000936 		.4byte	0x936
 10358 092f 12       		.uleb128 0x12
 10359 0930 000000C5 		.4byte	0xc5
 10360 0934 17       		.byte	0x17
 10361 0935 00       		.byte	0x0
 10362 0936 11       		.uleb128 0x11
 10363 0937 00000399 		.4byte	0x399
 10364 093b 00000946 		.4byte	0x946
 10365 093f 12       		.uleb128 0x12
 10366 0940 000000C5 		.4byte	0xc5
 10367 0944 1D       		.byte	0x1d
 10368 0945 00       		.byte	0x0
 10369 0946 11       		.uleb128 0x11
 10370 0947 00000053 		.4byte	0x53
 10371 094b 00000956 		.4byte	0x956
 10372 094f 12       		.uleb128 0x12
 10373 0950 000000C5 		.4byte	0xc5
 10374 0954 1D       		.byte	0x1d
 10375 0955 00       		.byte	0x0
 10376 0956 11       		.uleb128 0x11
 10377 0957 000000B1 		.4byte	0xb1
 10378 095b 00000966 		.4byte	0x966
 10379 095f 12       		.uleb128 0x12
 10380 0960 000000C5 		.4byte	0xc5
 10381 0964 18       		.byte	0x18
 10382 0965 00       		.byte	0x0
 10383 0966 1E       		.uleb128 0x1e
 10384 0967 00000971 		.4byte	0x971
 10385 096b 17       		.uleb128 0x17
 10386 096c 000004FB 		.4byte	0x4fb
 10387 0970 00       		.byte	0x0
 10388 0971 05       		.uleb128 0x5
 10389 0972 04       		.byte	0x4
 10390 0973 00000966 		.4byte	0x966
 10391 0977 05       		.uleb128 0x5
 10392 0978 04       		.byte	0x4
 10393 0979 00000219 		.4byte	0x219
 10394 097d 1E       		.uleb128 0x1e
 10395 097e 00000988 		.4byte	0x988
 10396 0982 17       		.uleb128 0x17
 10397 0983 0000008F 		.4byte	0x8f
 10398 0987 00       		.byte	0x0
 10399 0988 05       		.uleb128 0x5
 10400 0989 04       		.byte	0x4
 10401 098a 0000098E 		.4byte	0x98e
 10402 098e 05       		.uleb128 0x5
 10403 098f 04       		.byte	0x4
 10404 0990 0000097D 		.4byte	0x97d
 10405 0994 11       		.uleb128 0x11
 10406 0995 00000868 		.4byte	0x868
 10407 0999 000009A4 		.4byte	0x9a4
 10408 099d 12       		.uleb128 0x12
 10409 099e 000000C5 		.4byte	0xc5
 10410 09a2 02       		.byte	0x2
 10411 09a3 00       		.byte	0x0
 10412 09a4 0C       		.uleb128 0xc
 10413 09a5 0000077C 		.4byte	.LASF116
 10414 09a9 07       		.byte	0x7
 10415 09aa D6       		.byte	0xd6
 10416 09ab 00000053 		.4byte	0x53
 10417 09af 03       		.uleb128 0x3
 10418 09b0 04       		.byte	0x4
 10419 09b1 05       		.byte	0x5
 10420 09b2 00000D77 		.4byte	.LASF117
 10421 09b6 0C       		.uleb128 0xc
 10422 09b7 00000B76 		.4byte	.LASF118
 10423 09bb 0A       		.byte	0xa
 10424 09bc 68       		.byte	0x68
 10425 09bd 000001B3 		.4byte	0x1b3
 10426 09c1 0C       		.uleb128 0xc
 10427 09c2 00000122 		.4byte	.LASF119
 10428 09c6 0A       		.byte	0xa
 10429 09c7 6D       		.byte	0x6d
 10430 09c8 000009AF 		.4byte	0x9af
 10431 09cc 0D       		.uleb128 0xd
 10432 09cd 746D00   		.string	"tm"
 10433 09d0 24       		.byte	0x24
 10434 09d1 0B       		.byte	0xb
 10435 09d2 22       		.byte	0x22
 10436 09d3 00000A56 		.4byte	0xa56
 10437 09d7 10       		.uleb128 0x10
 10438 09d8 0000000F 		.4byte	.LASF120
 10439 09dc 0B       		.byte	0xb
 10440 09dd 23       		.byte	0x23
 10441 09de 0000008F 		.4byte	0x8f
 10442 09e2 02       		.byte	0x2
 10443 09e3 23       		.byte	0x23
 10444 09e4 00       		.uleb128 0x0
 10445 09e5 10       		.uleb128 0x10
 10446 09e6 00000AF2 		.4byte	.LASF121
 10447 09ea 0B       		.byte	0xb
 10448 09eb 24       		.byte	0x24
 10449 09ec 0000008F 		.4byte	0x8f
 10450 09f0 02       		.byte	0x2
 10451 09f1 23       		.byte	0x23
 10452 09f2 04       		.uleb128 0x4
 10453 09f3 10       		.uleb128 0x10
 10454 09f4 00000F98 		.4byte	.LASF122
 10455 09f8 0B       		.byte	0xb
 10456 09f9 25       		.byte	0x25
 10457 09fa 0000008F 		.4byte	0x8f
 10458 09fe 02       		.byte	0x2
 10459 09ff 23       		.byte	0x23
 10460 0a00 08       		.uleb128 0x8
 10461 0a01 10       		.uleb128 0x10
 10462 0a02 00001017 		.4byte	.LASF123
 10463 0a06 0B       		.byte	0xb
 10464 0a07 26       		.byte	0x26
 10465 0a08 0000008F 		.4byte	0x8f
 10466 0a0c 02       		.byte	0x2
 10467 0a0d 23       		.byte	0x23
 10468 0a0e 0C       		.uleb128 0xc
 10469 0a0f 10       		.uleb128 0x10
 10470 0a10 00000D51 		.4byte	.LASF124
 10471 0a14 0B       		.byte	0xb
 10472 0a15 27       		.byte	0x27
 10473 0a16 0000008F 		.4byte	0x8f
 10474 0a1a 02       		.byte	0x2
 10475 0a1b 23       		.byte	0x23
 10476 0a1c 10       		.uleb128 0x10
 10477 0a1d 10       		.uleb128 0x10
 10478 0a1e 00000DA1 		.4byte	.LASF125
 10479 0a22 0B       		.byte	0xb
 10480 0a23 28       		.byte	0x28
 10481 0a24 0000008F 		.4byte	0x8f
 10482 0a28 02       		.byte	0x2
 10483 0a29 23       		.byte	0x23
 10484 0a2a 14       		.uleb128 0x14
 10485 0a2b 10       		.uleb128 0x10
 10486 0a2c 00000C62 		.4byte	.LASF126
 10487 0a30 0B       		.byte	0xb
 10488 0a31 29       		.byte	0x29
 10489 0a32 0000008F 		.4byte	0x8f
 10490 0a36 02       		.byte	0x2
 10491 0a37 23       		.byte	0x23
 10492 0a38 18       		.uleb128 0x18
 10493 0a39 10       		.uleb128 0x10
 10494 0a3a 00000CE6 		.4byte	.LASF127
 10495 0a3e 0B       		.byte	0xb
 10496 0a3f 2A       		.byte	0x2a
 10497 0a40 0000008F 		.4byte	0x8f
 10498 0a44 02       		.byte	0x2
 10499 0a45 23       		.byte	0x23
 10500 0a46 1C       		.uleb128 0x1c
 10501 0a47 10       		.uleb128 0x10
 10502 0a48 000001C3 		.4byte	.LASF128
 10503 0a4c 0B       		.byte	0xb
 10504 0a4d 2B       		.byte	0x2b
 10505 0a4e 0000008F 		.4byte	0x8f
 10506 0a52 02       		.byte	0x2
 10507 0a53 23       		.byte	0x23
 10508 0a54 20       		.uleb128 0x20
 10509 0a55 00       		.byte	0x0
 10510 0a56 05       		.uleb128 0x5
 10511 0a57 04       		.byte	0x4
 10512 0a58 00000025 		.4byte	0x25
 10513 0a5c 05       		.uleb128 0x5
 10514 0a5d 04       		.byte	0x4
 10515 0a5e 00000A62 		.4byte	0xa62
 10516 0a62 1F       		.uleb128 0x1f
 10517 0a63 13       		.uleb128 0x13
 10518 0a64 000009F4 		.4byte	.LASF129
 10519 0a68 08       		.byte	0x8
 10520 0a69 0C       		.byte	0xc
 10521 0a6a 1D       		.byte	0x1d
 10522 0a6b 00000A8C 		.4byte	0xa8c
 10523 0a6f 10       		.uleb128 0x10
 10524 0a70 000007BE 		.4byte	.LASF130
 10525 0a74 0C       		.byte	0xc
 10526 0a75 1E       		.byte	0x1e
 10527 0a76 0000008F 		.4byte	0x8f
 10528 0a7a 02       		.byte	0x2
 10529 0a7b 23       		.byte	0x23
 10530 0a7c 00       		.uleb128 0x0
 10531 0a7d 14       		.uleb128 0x14
 10532 0a7e 72656D00 		.string	"rem"
 10533 0a82 0C       		.byte	0xc
 10534 0a83 1F       		.byte	0x1f
 10535 0a84 0000008F 		.4byte	0x8f
 10536 0a88 02       		.byte	0x2
 10537 0a89 23       		.byte	0x23
 10538 0a8a 04       		.uleb128 0x4
 10539 0a8b 00       		.byte	0x0
 10540 0a8c 13       		.uleb128 0x13
 10541 0a8d 000009F9 		.4byte	.LASF131
 10542 0a91 08       		.byte	0x8
 10543 0a92 0C       		.byte	0xc
 10544 0a93 23       		.byte	0x23
 10545 0a94 00000AB5 		.4byte	0xab5
 10546 0a98 10       		.uleb128 0x10
 10547 0a99 000007BE 		.4byte	.LASF130
 10548 0a9d 0C       		.byte	0xc
 10549 0a9e 24       		.byte	0x24
 10550 0a9f 000009AF 		.4byte	0x9af
 10551 0aa3 02       		.byte	0x2
 10552 0aa4 23       		.byte	0x23
 10553 0aa5 00       		.uleb128 0x0
 10554 0aa6 14       		.uleb128 0x14
 10555 0aa7 72656D00 		.string	"rem"
 10556 0aab 0C       		.byte	0xc
 10557 0aac 25       		.byte	0x25
 10558 0aad 000009AF 		.4byte	0x9af
 10559 0ab1 02       		.byte	0x2
 10560 0ab2 23       		.byte	0x23
 10561 0ab3 04       		.uleb128 0x4
 10562 0ab4 00       		.byte	0x0
 10563 0ab5 20       		.uleb128 0x20
 10564 0ab6 73746400 		.string	"std"
 10565 0aba 18       		.byte	0x18
 10566 0abb 00       		.byte	0x0
 10567 0abc 00000CCE 		.4byte	0xcce
 10568 0ac0 21       		.uleb128 0x21
 10569 0ac1 0D       		.byte	0xd
 10570 0ac2 37       		.byte	0x37
 10571 0ac3 00000CCE 		.4byte	0xcce
 10572 0ac7 21       		.uleb128 0x21
 10573 0ac8 0D       		.byte	0xd
 10574 0ac9 38       		.byte	0x38
 10575 0aca 00000CD1 		.4byte	0xcd1
 10576 0ace 21       		.uleb128 0x21
 10577 0acf 0E       		.byte	0xe
 10578 0ad0 58       		.byte	0x58
 10579 0ad1 00000CD4 		.4byte	0xcd4
 10580 0ad5 21       		.uleb128 0x21
 10581 0ad6 0E       		.byte	0xe
 10582 0ad7 5A       		.byte	0x5a
 10583 0ad8 00000CF0 		.4byte	0xcf0
 10584 0adc 21       		.uleb128 0x21
 10585 0add 0E       		.byte	0xe
 10586 0ade 5D       		.byte	0x5d
 10587 0adf 00000D11 		.4byte	0xd11
 10588 0ae3 21       		.uleb128 0x21
 10589 0ae4 0E       		.byte	0xe
 10590 0ae5 5F       		.byte	0x5f
 10591 0ae6 00000D2D 		.4byte	0xd2d
 10592 0aea 21       		.uleb128 0x21
 10593 0aeb 0E       		.byte	0xe
 10594 0aec 62       		.byte	0x62
 10595 0aed 00000D44 		.4byte	0xd44
 10596 0af1 21       		.uleb128 0x21
 10597 0af2 0F       		.byte	0xf
 10598 0af3 6A       		.byte	0x6a
 10599 0af4 00000A63 		.4byte	0xa63
 10600 0af8 21       		.uleb128 0x21
 10601 0af9 0F       		.byte	0xf
 10602 0afa 6B       		.byte	0x6b
 10603 0afb 00000A8C 		.4byte	0xa8c
 10604 0aff 21       		.uleb128 0x21
 10605 0b00 0F       		.byte	0xf
 10606 0b01 6F       		.byte	0x6f
 10607 0b02 00000D65 		.4byte	0xd65
 10608 0b06 21       		.uleb128 0x21
 10609 0b07 0F       		.byte	0xf
 10610 0b08 70       		.byte	0x70
 10611 0b09 00000D7C 		.4byte	0xd7c
 10612 0b0d 21       		.uleb128 0x21
 10613 0b0e 0F       		.byte	0xf
 10614 0b0f 71       		.byte	0x71
 10615 0b10 00000D93 		.4byte	0xd93
 10616 0b14 21       		.uleb128 0x21
 10617 0b15 0F       		.byte	0xf
 10618 0b16 72       		.byte	0x72
 10619 0b17 00000DAA 		.4byte	0xdaa
 10620 0b1b 21       		.uleb128 0x21
 10621 0b1c 0F       		.byte	0xf
 10622 0b1d 73       		.byte	0x73
 10623 0b1e 00000DC1 		.4byte	0xdc1
 10624 0b22 21       		.uleb128 0x21
 10625 0b23 0F       		.byte	0xf
 10626 0b24 75       		.byte	0x75
 10627 0b25 00000E06 		.4byte	0xe06
 10628 0b29 21       		.uleb128 0x21
 10629 0b2a 0F       		.byte	0xf
 10630 0b2b 77       		.byte	0x77
 10631 0b2c 00000E22 		.4byte	0xe22
 10632 0b30 21       		.uleb128 0x21
 10633 0b31 0F       		.byte	0xf
 10634 0b32 78       		.byte	0x78
 10635 0b33 00000E35 		.4byte	0xe35
 10636 0b37 21       		.uleb128 0x21
 10637 0b38 0F       		.byte	0xf
 10638 0b39 7A       		.byte	0x7a
 10639 0b3a 00000E4C 		.4byte	0xe4c
 10640 0b3e 21       		.uleb128 0x21
 10641 0b3f 0F       		.byte	0xf
 10642 0b40 7D       		.byte	0x7d
 10643 0b41 00000E68 		.4byte	0xe68
 10644 0b45 21       		.uleb128 0x21
 10645 0b46 0F       		.byte	0xf
 10646 0b47 7E       		.byte	0x7e
 10647 0b48 00000E84 		.4byte	0xe84
 10648 0b4c 21       		.uleb128 0x21
 10649 0b4d 0F       		.byte	0xf
 10650 0b4e 7F       		.byte	0x7f
 10651 0b4f 00000EB2 		.4byte	0xeb2
 10652 0b53 21       		.uleb128 0x21
 10653 0b54 0F       		.byte	0xf
 10654 0b55 81       		.byte	0x81
 10655 0b56 00000ED3 		.4byte	0xed3
 10656 0b5a 21       		.uleb128 0x21
 10657 0b5b 0F       		.byte	0xf
 10658 0b5c 82       		.byte	0x82
 10659 0b5d 00000EF5 		.4byte	0xef5
 10660 0b61 21       		.uleb128 0x21
 10661 0b62 0F       		.byte	0xf
 10662 0b63 83       		.byte	0x83
 10663 0b64 00000F02 		.4byte	0xf02
 10664 0b68 21       		.uleb128 0x21
 10665 0b69 0F       		.byte	0xf
 10666 0b6a 84       		.byte	0x84
 10667 0b6b 00000F1E 		.4byte	0xf1e
 10668 0b6f 21       		.uleb128 0x21
 10669 0b70 0F       		.byte	0xf
 10670 0b71 85       		.byte	0x85
 10671 0b72 00000F31 		.4byte	0xf31
 10672 0b76 21       		.uleb128 0x21
 10673 0b77 0F       		.byte	0xf
 10674 0b78 86       		.byte	0x86
 10675 0b79 00000F4D 		.4byte	0xf4d
 10676 0b7d 21       		.uleb128 0x21
 10677 0b7e 0F       		.byte	0xf
 10678 0b7f 87       		.byte	0x87
 10679 0b80 00000F6E 		.4byte	0xf6e
 10680 0b84 21       		.uleb128 0x21
 10681 0b85 0F       		.byte	0xf
 10682 0b86 88       		.byte	0x88
 10683 0b87 00000F8F 		.4byte	0xf8f
 10684 0b8b 21       		.uleb128 0x21
 10685 0b8c 10       		.byte	0x10
 10686 0b8d 3B       		.byte	0x3b
 10687 0b8e 00000FA6 		.4byte	0xfa6
 10688 0b92 21       		.uleb128 0x21
 10689 0b93 10       		.byte	0x10
 10690 0b94 3C       		.byte	0x3c
 10691 0b95 000010AF 		.4byte	0x10af
 10692 0b99 21       		.uleb128 0x21
 10693 0b9a 10       		.byte	0x10
 10694 0b9b 3D       		.byte	0x3d
 10695 0b9c 000010CB 		.4byte	0x10cb
 10696 0ba0 21       		.uleb128 0x21
 10697 0ba1 11       		.byte	0x11
 10698 0ba2 64       		.byte	0x64
 10699 0ba3 0000114C 		.4byte	0x114c
 10700 0ba7 21       		.uleb128 0x21
 10701 0ba8 11       		.byte	0x11
 10702 0ba9 65       		.byte	0x65
 10703 0baa 00001162 		.4byte	0x1162
 10704 0bae 21       		.uleb128 0x21
 10705 0baf 11       		.byte	0x11
 10706 0bb0 67       		.byte	0x67
 10707 0bb1 00001165 		.4byte	0x1165
 10708 0bb5 21       		.uleb128 0x21
 10709 0bb6 11       		.byte	0x11
 10710 0bb7 68       		.byte	0x68
 10711 0bb8 0000117E 		.4byte	0x117e
 10712 0bbc 21       		.uleb128 0x21
 10713 0bbd 11       		.byte	0x11
 10714 0bbe 69       		.byte	0x69
 10715 0bbf 00001195 		.4byte	0x1195
 10716 0bc3 21       		.uleb128 0x21
 10717 0bc4 11       		.byte	0x11
 10718 0bc5 6A       		.byte	0x6a
 10719 0bc6 000011AC 		.4byte	0x11ac
 10720 0bca 21       		.uleb128 0x21
 10721 0bcb 11       		.byte	0x11
 10722 0bcc 6B       		.byte	0x6b
 10723 0bcd 000011C3 		.4byte	0x11c3
 10724 0bd1 21       		.uleb128 0x21
 10725 0bd2 11       		.byte	0x11
 10726 0bd3 6C       		.byte	0x6c
 10727 0bd4 000011DA 		.4byte	0x11da
 10728 0bd8 21       		.uleb128 0x21
 10729 0bd9 11       		.byte	0x11
 10730 0bda 6D       		.byte	0x6d
 10731 0bdb 000011F1 		.4byte	0x11f1
 10732 0bdf 21       		.uleb128 0x21
 10733 0be0 11       		.byte	0x11
 10734 0be1 6E       		.byte	0x6e
 10735 0be2 00001213 		.4byte	0x1213
 10736 0be6 21       		.uleb128 0x21
 10737 0be7 11       		.byte	0x11
 10738 0be8 6F       		.byte	0x6f
 10739 0be9 00001234 		.4byte	0x1234
 10740 0bed 21       		.uleb128 0x21
 10741 0bee 11       		.byte	0x11
 10742 0bef 73       		.byte	0x73
 10743 0bf0 00001250 		.4byte	0x1250
 10744 0bf4 21       		.uleb128 0x21
 10745 0bf5 11       		.byte	0x11
 10746 0bf6 74       		.byte	0x74
 10747 0bf7 00001276 		.4byte	0x1276
 10748 0bfb 21       		.uleb128 0x21
 10749 0bfc 11       		.byte	0x11
 10750 0bfd 76       		.byte	0x76
 10751 0bfe 00001297 		.4byte	0x1297
 10752 0c02 21       		.uleb128 0x21
 10753 0c03 11       		.byte	0x11
 10754 0c04 77       		.byte	0x77
 10755 0c05 000012B8 		.4byte	0x12b8
 10756 0c09 21       		.uleb128 0x21
 10757 0c0a 11       		.byte	0x11
 10758 0c0b 78       		.byte	0x78
 10759 0c0c 000012DF 		.4byte	0x12df
 10760 0c10 21       		.uleb128 0x21
 10761 0c11 11       		.byte	0x11
 10762 0c12 7A       		.byte	0x7a
 10763 0c13 000012F6 		.4byte	0x12f6
 10764 0c17 21       		.uleb128 0x21
 10765 0c18 11       		.byte	0x11
 10766 0c19 7B       		.byte	0x7b
 10767 0c1a 0000130D 		.4byte	0x130d
 10768 0c1e 21       		.uleb128 0x21
 10769 0c1f 11       		.byte	0x11
 10770 0c20 7C       		.byte	0x7c
 10771 0c21 0000131A 		.4byte	0x131a
 10772 0c25 21       		.uleb128 0x21
 10773 0c26 11       		.byte	0x11
 10774 0c27 7D       		.byte	0x7d
 10775 0c28 00001331 		.4byte	0x1331
 10776 0c2c 21       		.uleb128 0x21
 10777 0c2d 11       		.byte	0x11
 10778 0c2e 82       		.byte	0x82
 10779 0c2f 00001344 		.4byte	0x1344
 10780 0c33 21       		.uleb128 0x21
 10781 0c34 11       		.byte	0x11
 10782 0c35 83       		.byte	0x83
 10783 0c36 0000135B 		.4byte	0x135b
 10784 0c3a 21       		.uleb128 0x21
 10785 0c3b 11       		.byte	0x11
 10786 0c3c 84       		.byte	0x84
 10787 0c3d 00001377 		.4byte	0x1377
 10788 0c41 21       		.uleb128 0x21
 10789 0c42 11       		.byte	0x11
 10790 0c43 86       		.byte	0x86
 10791 0c44 0000138A 		.4byte	0x138a
 10792 0c48 21       		.uleb128 0x21
 10793 0c49 11       		.byte	0x11
 10794 0c4a 87       		.byte	0x87
 10795 0c4b 000013A2 		.4byte	0x13a2
 10796 0c4f 21       		.uleb128 0x21
 10797 0c50 11       		.byte	0x11
 10798 0c51 8A       		.byte	0x8a
 10799 0c52 000013C8 		.4byte	0x13c8
 10800 0c56 21       		.uleb128 0x21
 10801 0c57 11       		.byte	0x11
 10802 0c58 8B       		.byte	0x8b
 10803 0c59 000013D5 		.4byte	0x13d5
 10804 0c5d 21       		.uleb128 0x21
 10805 0c5e 11       		.byte	0x11
 10806 0c5f 8C       		.byte	0x8c
 10807 0c60 000013EC 		.4byte	0x13ec
 10808 0c64 21       		.uleb128 0x21
 10809 0c65 12       		.byte	0x12
 10810 0c66 3C       		.byte	0x3c
 10811 0c67 00001408 		.4byte	0x1408
 10812 0c6b 21       		.uleb128 0x21
 10813 0c6c 13       		.byte	0x13
 10814 0c6d 42       		.byte	0x42
 10815 0c6e 00001413 		.4byte	0x1413
 10816 0c72 21       		.uleb128 0x21
 10817 0c73 13       		.byte	0x13
 10818 0c74 43       		.byte	0x43
 10819 0c75 00001416 		.4byte	0x1416
 10820 0c79 21       		.uleb128 0x21
 10821 0c7a 13       		.byte	0x13
 10822 0c7b 44       		.byte	0x44
 10823 0c7c 000009CC 		.4byte	0x9cc
 10824 0c80 21       		.uleb128 0x21
 10825 0c81 13       		.byte	0x13
 10826 0c82 46       		.byte	0x46
 10827 0c83 00001419 		.4byte	0x1419
 10828 0c87 21       		.uleb128 0x21
 10829 0c88 13       		.byte	0x13
 10830 0c89 47       		.byte	0x47
 10831 0c8a 00001426 		.4byte	0x1426
 10832 0c8e 21       		.uleb128 0x21
 10833 0c8f 13       		.byte	0x13
 10834 0c90 48       		.byte	0x48
 10835 0c91 00001442 		.4byte	0x1442
 10836 0c95 21       		.uleb128 0x21
 10837 0c96 13       		.byte	0x13
 10838 0c97 49       		.byte	0x49
 10839 0c98 0000145F 		.4byte	0x145f
 10840 0c9c 21       		.uleb128 0x21
 10841 0c9d 13       		.byte	0x13
 10842 0c9e 4A       		.byte	0x4a
 10843 0c9f 0000147C 		.4byte	0x147c
 10844 0ca3 21       		.uleb128 0x21
 10845 0ca4 13       		.byte	0x13
 10846 0ca5 4B       		.byte	0x4b
 10847 0ca6 0000149E 		.4byte	0x149e
 10848 0caa 21       		.uleb128 0x21
 10849 0cab 13       		.byte	0x13
 10850 0cac 4C       		.byte	0x4c
 10851 0cad 000014C0 		.4byte	0x14c0
 10852 0cb1 21       		.uleb128 0x21
 10853 0cb2 13       		.byte	0x13
 10854 0cb3 4D       		.byte	0x4d
 10855 0cb4 000014D7 		.4byte	0x14d7
 10856 0cb8 21       		.uleb128 0x21
 10857 0cb9 13       		.byte	0x13
 10858 0cba 4E       		.byte	0x4e
 10859 0cbb 000014EE 		.4byte	0x14ee
 10860 0cbf 21       		.uleb128 0x21
 10861 0cc0 14       		.byte	0x14
 10862 0cc1 48       		.byte	0x48
 10863 0cc2 00001514 		.4byte	0x1514
 10864 0cc6 22       		.uleb128 0x22
 10865 0cc7 0000025E 		.4byte	.LASF223
 10866 0ccb 1B       		.byte	0x1b
 10867 0ccc 31       		.byte	0x31
 10868 0ccd 00       		.byte	0x0
 10869 0cce 07       		.uleb128 0x7
 10870 0ccf 04       		.byte	0x4
 10871 0cd0 05       		.byte	0x5
 10872 0cd1 07       		.uleb128 0x7
 10873 0cd2 04       		.byte	0x4
 10874 0cd3 07       		.byte	0x7
 10875 0cd4 23       		.uleb128 0x23
 10876 0cd5 01       		.byte	0x1
 10877 0cd6 00000210 		.4byte	.LASF132
 10878 0cda 15       		.byte	0x15
 10879 0cdb 1E       		.byte	0x1e
 10880 0cdc 0000008F 		.4byte	0x8f
 10881 0ce0 01       		.byte	0x1
 10882 0ce1 00000CF0 		.4byte	0xcf0
 10883 0ce5 17       		.uleb128 0x17
 10884 0ce6 000007F9 		.4byte	0x7f9
 10885 0cea 17       		.uleb128 0x17
 10886 0ceb 000007F9 		.4byte	0x7f9
 10887 0cef 00       		.byte	0x0
 10888 0cf0 23       		.uleb128 0x23
 10889 0cf1 01       		.byte	0x1
 10890 0cf2 000009EC 		.4byte	.LASF133
 10891 0cf6 15       		.byte	0x15
 10892 0cf7 2F       		.byte	0x2f
 10893 0cf8 000009A4 		.4byte	0x9a4
 10894 0cfc 01       		.byte	0x1
 10895 0cfd 00000D11 		.4byte	0xd11
 10896 0d01 17       		.uleb128 0x17
 10897 0d02 000000AB 		.4byte	0xab
 10898 0d06 17       		.uleb128 0x17
 10899 0d07 000007F9 		.4byte	0x7f9
 10900 0d0b 17       		.uleb128 0x17
 10901 0d0c 000009A4 		.4byte	0x9a4
 10902 0d10 00       		.byte	0x0
 10903 0d11 23       		.uleb128 0x23
 10904 0d12 01       		.byte	0x1
 10905 0d13 00000E35 		.4byte	.LASF134
 10906 0d17 15       		.byte	0x15
 10907 0d18 2C       		.byte	0x2c
 10908 0d19 000000AB 		.4byte	0xab
 10909 0d1d 01       		.byte	0x1
 10910 0d1e 00000D2D 		.4byte	0xd2d
 10911 0d22 17       		.uleb128 0x17
 10912 0d23 000000AB 		.4byte	0xab
 10913 0d27 17       		.uleb128 0x17
 10914 0d28 000007F9 		.4byte	0x7f9
 10915 0d2c 00       		.byte	0x0
 10916 0d2d 23       		.uleb128 0x23
 10917 0d2e 01       		.byte	0x1
 10918 0d2f 000009E3 		.4byte	.LASF135
 10919 0d33 15       		.byte	0x15
 10920 0d34 21       		.byte	0x21
 10921 0d35 000000AB 		.4byte	0xab
 10922 0d39 01       		.byte	0x1
 10923 0d3a 00000D44 		.4byte	0xd44
 10924 0d3e 17       		.uleb128 0x17
 10925 0d3f 0000008F 		.4byte	0x8f
 10926 0d43 00       		.byte	0x0
 10927 0d44 23       		.uleb128 0x23
 10928 0d45 01       		.byte	0x1
 10929 0d46 00001493 		.4byte	.LASF136
 10930 0d4a 15       		.byte	0x15
 10931 0d4b 16       		.byte	0x16
 10932 0d4c 000000CF 		.4byte	0xcf
 10933 0d50 01       		.byte	0x1
 10934 0d51 00000D65 		.4byte	0xd65
 10935 0d55 17       		.uleb128 0x17
 10936 0d56 00000A5C 		.4byte	0xa5c
 10937 0d5a 17       		.uleb128 0x17
 10938 0d5b 0000008F 		.4byte	0x8f
 10939 0d5f 17       		.uleb128 0x17
 10940 0d60 000009A4 		.4byte	0x9a4
 10941 0d64 00       		.byte	0x0
 10942 0d65 23       		.uleb128 0x23
 10943 0d66 01       		.byte	0x1
 10944 0d67 000006AC 		.4byte	.LASF137
 10945 0d6b 0C       		.byte	0xc
 10946 0d6c 3F       		.byte	0x3f
 10947 0d6d 0000008F 		.4byte	0x8f
 10948 0d71 01       		.byte	0x1
 10949 0d72 00000D7C 		.4byte	0xd7c
 10950 0d76 17       		.uleb128 0x17
 10951 0d77 000000BE 		.4byte	0xbe
 10952 0d7b 00       		.byte	0x0
 10953 0d7c 23       		.uleb128 0x23
 10954 0d7d 01       		.byte	0x1
 10955 0d7e 00000DBF 		.4byte	.LASF138
 10956 0d82 0C       		.byte	0xc
 10957 0d83 40       		.byte	0x40
 10958 0d84 000000A4 		.4byte	0xa4
 10959 0d88 01       		.byte	0x1
 10960 0d89 00000D93 		.4byte	0xd93
 10961 0d8d 17       		.uleb128 0x17
 10962 0d8e 000007F9 		.4byte	0x7f9
 10963 0d92 00       		.byte	0x0
 10964 0d93 23       		.uleb128 0x23
 10965 0d94 01       		.byte	0x1
 10966 0d95 00000206 		.4byte	.LASF139
 10967 0d99 0C       		.byte	0xc
 10968 0d9a 44       		.byte	0x44
 10969 0d9b 0000008F 		.4byte	0x8f
 10970 0d9f 01       		.byte	0x1
 10971 0da0 00000DAA 		.4byte	0xdaa
 10972 0da4 17       		.uleb128 0x17
 10973 0da5 000007F9 		.4byte	0x7f9
 10974 0da9 00       		.byte	0x0
 10975 0daa 23       		.uleb128 0x23
 10976 0dab 01       		.byte	0x1
 10977 0dac 0000020B 		.4byte	.LASF140
 10978 0db0 0C       		.byte	0xc
 10979 0db1 46       		.byte	0x46
 10980 0db2 000009AF 		.4byte	0x9af
 10981 0db6 01       		.byte	0x1
 10982 0db7 00000DC1 		.4byte	0xdc1
 10983 0dbb 17       		.uleb128 0x17
 10984 0dbc 000007F9 		.4byte	0x7f9
 10985 0dc0 00       		.byte	0x0
 10986 0dc1 23       		.uleb128 0x23
 10987 0dc2 01       		.byte	0x1
 10988 0dc3 00000FBC 		.4byte	.LASF141
 10989 0dc7 0C       		.byte	0xc
 10990 0dc8 48       		.byte	0x48
 10991 0dc9 000000CF 		.4byte	0xcf
 10992 0dcd 01       		.byte	0x1
 10993 0dce 00000DEC 		.4byte	0xdec
 10994 0dd2 17       		.uleb128 0x17
 10995 0dd3 00000A5C 		.4byte	0xa5c
 10996 0dd7 17       		.uleb128 0x17
 10997 0dd8 00000A5C 		.4byte	0xa5c
 10998 0ddc 17       		.uleb128 0x17
 10999 0ddd 000009A4 		.4byte	0x9a4
 11000 0de1 17       		.uleb128 0x17
 11001 0de2 000009A4 		.4byte	0x9a4
 11002 0de6 17       		.uleb128 0x17
 11003 0de7 00000DEC 		.4byte	0xdec
 11004 0deb 00       		.byte	0x0
 11005 0dec 05       		.uleb128 0x5
 11006 0ded 04       		.byte	0x4
 11007 0dee 00000DF2 		.4byte	0xdf2
 11008 0df2 16       		.uleb128 0x16
 11009 0df3 0000008F 		.4byte	0x8f
 11010 0df7 00000E06 		.4byte	0xe06
 11011 0dfb 17       		.uleb128 0x17
 11012 0dfc 00000A5C 		.4byte	0xa5c
 11013 0e00 17       		.uleb128 0x17
 11014 0e01 00000A5C 		.4byte	0xa5c
 11015 0e05 00       		.byte	0x0
 11016 0e06 24       		.uleb128 0x24
 11017 0e07 01       		.byte	0x1
 11018 0e08 64697600 		.string	"div"
 11019 0e0c 0C       		.byte	0xc
 11020 0e0d 4E       		.byte	0x4e
 11021 0e0e 00000A63 		.4byte	0xa63
 11022 0e12 01       		.byte	0x1
 11023 0e13 00000E22 		.4byte	0xe22
 11024 0e17 17       		.uleb128 0x17
 11025 0e18 0000008F 		.4byte	0x8f
 11026 0e1c 17       		.uleb128 0x17
 11027 0e1d 0000008F 		.4byte	0x8f
 11028 0e21 00       		.byte	0x0
 11029 0e22 25       		.uleb128 0x25
 11030 0e23 01       		.byte	0x1
 11031 0e24 00000307 		.4byte	.LASF148
 11032 0e28 0C       		.byte	0xc
 11033 0e29 50       		.byte	0x50
 11034 0e2a 01       		.byte	0x1
 11035 0e2b 00000E35 		.4byte	0xe35
 11036 0e2f 17       		.uleb128 0x17
 11037 0e30 000000CF 		.4byte	0xcf
 11038 0e34 00       		.byte	0x0
 11039 0e35 23       		.uleb128 0x23
 11040 0e36 01       		.byte	0x1
 11041 0e37 0000122D 		.4byte	.LASF142
 11042 0e3b 0C       		.byte	0xc
 11043 0e3c 51       		.byte	0x51
 11044 0e3d 000000AB 		.4byte	0xab
 11045 0e41 01       		.byte	0x1
 11046 0e42 00000E4C 		.4byte	0xe4c
 11047 0e46 17       		.uleb128 0x17
 11048 0e47 000007F9 		.4byte	0x7f9
 11049 0e4b 00       		.byte	0x0
 11050 0e4c 23       		.uleb128 0x23
 11051 0e4d 01       		.byte	0x1
 11052 0e4e 00001082 		.4byte	.LASF143
 11053 0e52 0C       		.byte	0xc
 11054 0e53 56       		.byte	0x56
 11055 0e54 00000A8C 		.4byte	0xa8c
 11056 0e58 01       		.byte	0x1
 11057 0e59 00000E68 		.4byte	0xe68
 11058 0e5d 17       		.uleb128 0x17
 11059 0e5e 000009AF 		.4byte	0x9af
 11060 0e62 17       		.uleb128 0x17
 11061 0e63 000009AF 		.4byte	0x9af
 11062 0e67 00       		.byte	0x0
 11063 0e68 23       		.uleb128 0x23
 11064 0e69 01       		.byte	0x1
 11065 0e6a 000008EC 		.4byte	.LASF144
 11066 0e6e 0C       		.byte	0xc
 11067 0e6f 58       		.byte	0x58
 11068 0e70 0000008F 		.4byte	0x8f
 11069 0e74 01       		.byte	0x1
 11070 0e75 00000E84 		.4byte	0xe84
 11071 0e79 17       		.uleb128 0x17
 11072 0e7a 000007F9 		.4byte	0x7f9
 11073 0e7e 17       		.uleb128 0x17
 11074 0e7f 000009A4 		.4byte	0x9a4
 11075 0e83 00       		.byte	0x0
 11076 0e84 23       		.uleb128 0x23
 11077 0e85 01       		.byte	0x1
 11078 0e86 00000C99 		.4byte	.LASF145
 11079 0e8a 0C       		.byte	0xc
 11080 0e8b 5E       		.byte	0x5e
 11081 0e8c 000009A4 		.4byte	0x9a4
 11082 0e90 01       		.byte	0x1
 11083 0e91 00000EA5 		.4byte	0xea5
 11084 0e95 17       		.uleb128 0x17
 11085 0e96 00000EA5 		.4byte	0xea5
 11086 0e9a 17       		.uleb128 0x17
 11087 0e9b 000007F9 		.4byte	0x7f9
 11088 0e9f 17       		.uleb128 0x17
 11089 0ea0 000009A4 		.4byte	0x9a4
 11090 0ea4 00       		.byte	0x0
 11091 0ea5 05       		.uleb128 0x5
 11092 0ea6 04       		.byte	0x4
 11093 0ea7 00000EAB 		.4byte	0xeab
 11094 0eab 03       		.uleb128 0x3
 11095 0eac 04       		.byte	0x4
 11096 0ead 05       		.byte	0x5
 11097 0eae 00000C77 		.4byte	.LASF146
 11098 0eb2 23       		.uleb128 0x23
 11099 0eb3 01       		.byte	0x1
 11100 0eb4 00001184 		.4byte	.LASF147
 11101 0eb8 0C       		.byte	0xc
 11102 0eb9 5A       		.byte	0x5a
 11103 0eba 0000008F 		.4byte	0x8f
 11104 0ebe 01       		.byte	0x1
 11105 0ebf 00000ED3 		.4byte	0xed3
 11106 0ec3 17       		.uleb128 0x17
 11107 0ec4 00000EA5 		.4byte	0xea5
 11108 0ec8 17       		.uleb128 0x17
 11109 0ec9 000007F9 		.4byte	0x7f9
 11110 0ecd 17       		.uleb128 0x17
 11111 0ece 000009A4 		.4byte	0x9a4
 11112 0ed2 00       		.byte	0x0
 11113 0ed3 25       		.uleb128 0x25
 11114 0ed4 01       		.byte	0x1
 11115 0ed5 000010D8 		.4byte	.LASF149
 11116 0ed9 0C       		.byte	0xc
 11117 0eda 68       		.byte	0x68
 11118 0edb 01       		.byte	0x1
 11119 0edc 00000EF5 		.4byte	0xef5
 11120 0ee0 17       		.uleb128 0x17
 11121 0ee1 000000CF 		.4byte	0xcf
 11122 0ee5 17       		.uleb128 0x17
 11123 0ee6 000009A4 		.4byte	0x9a4
 11124 0eea 17       		.uleb128 0x17
 11125 0eeb 000009A4 		.4byte	0x9a4
 11126 0eef 17       		.uleb128 0x17
 11127 0ef0 00000DEC 		.4byte	0xdec
 11128 0ef4 00       		.byte	0x0
 11129 0ef5 26       		.uleb128 0x26
 11130 0ef6 01       		.byte	0x1
 11131 0ef7 0000125D 		.4byte	.LASF176
 11132 0efb 0C       		.byte	0xc
 11133 0efc 69       		.byte	0x69
 11134 0efd 0000008F 		.4byte	0x8f
 11135 0f01 01       		.byte	0x1
 11136 0f02 23       		.uleb128 0x23
 11137 0f03 01       		.byte	0x1
 11138 0f04 00000F57 		.4byte	.LASF150
 11139 0f08 0C       		.byte	0xc
 11140 0f09 6A       		.byte	0x6a
 11141 0f0a 000000CF 		.4byte	0xcf
 11142 0f0e 01       		.byte	0x1
 11143 0f0f 00000F1E 		.4byte	0xf1e
 11144 0f13 17       		.uleb128 0x17
 11145 0f14 000000CF 		.4byte	0xcf
 11146 0f18 17       		.uleb128 0x17
 11147 0f19 000009A4 		.4byte	0x9a4
 11148 0f1d 00       		.byte	0x0
 11149 0f1e 25       		.uleb128 0x25
 11150 0f1f 01       		.byte	0x1
 11151 0f20 00000B10 		.4byte	.LASF151
 11152 0f24 0C       		.byte	0xc
 11153 0f25 6B       		.byte	0x6b
 11154 0f26 01       		.byte	0x1
 11155 0f27 00000F31 		.4byte	0xf31
 11156 0f2b 17       		.uleb128 0x17
 11157 0f2c 00000053 		.4byte	0x53
 11158 0f30 00       		.byte	0x0
 11159 0f31 23       		.uleb128 0x23
 11160 0f32 01       		.byte	0x1
 11161 0f33 00000E03 		.4byte	.LASF152
 11162 0f37 0C       		.byte	0xc
 11163 0f38 6C       		.byte	0x6c
 11164 0f39 000000A4 		.4byte	0xa4
 11165 0f3d 01       		.byte	0x1
 11166 0f3e 00000F4D 		.4byte	0xf4d
 11167 0f42 17       		.uleb128 0x17
 11168 0f43 000007F9 		.4byte	0x7f9
 11169 0f47 17       		.uleb128 0x17
 11170 0f48 000000B8 		.4byte	0xb8
 11171 0f4c 00       		.byte	0x0
 11172 0f4d 23       		.uleb128 0x23
 11173 0f4e 01       		.byte	0x1
 11174 0f4f 00000E3C 		.4byte	.LASF153
 11175 0f53 0C       		.byte	0xc
 11176 0f54 75       		.byte	0x75
 11177 0f55 000009AF 		.4byte	0x9af
 11178 0f59 01       		.byte	0x1
 11179 0f5a 00000F6E 		.4byte	0xf6e
 11180 0f5e 17       		.uleb128 0x17
 11181 0f5f 000007F9 		.4byte	0x7f9
 11182 0f63 17       		.uleb128 0x17
 11183 0f64 000000B8 		.4byte	0xb8
 11184 0f68 17       		.uleb128 0x17
 11185 0f69 0000008F 		.4byte	0x8f
 11186 0f6d 00       		.byte	0x0
 11187 0f6e 23       		.uleb128 0x23
 11188 0f6f 01       		.byte	0x1
 11189 0f70 000009C6 		.4byte	.LASF154
 11190 0f74 0C       		.byte	0xc
 11191 0f75 77       		.byte	0x77
 11192 0f76 000001B3 		.4byte	0x1b3
 11193 0f7a 01       		.byte	0x1
 11194 0f7b 00000F8F 		.4byte	0xf8f
 11195 0f7f 17       		.uleb128 0x17
 11196 0f80 000007F9 		.4byte	0x7f9
 11197 0f84 17       		.uleb128 0x17
 11198 0f85 000000B8 		.4byte	0xb8
 11199 0f89 17       		.uleb128 0x17
 11200 0f8a 0000008F 		.4byte	0x8f
 11201 0f8e 00       		.byte	0x0
 11202 0f8f 23       		.uleb128 0x23
 11203 0f90 01       		.byte	0x1
 11204 0f91 00000BA7 		.4byte	.LASF155
 11205 0f95 0C       		.byte	0xc
 11206 0f96 7A       		.byte	0x7a
 11207 0f97 0000008F 		.4byte	0x8f
 11208 0f9b 01       		.byte	0x1
 11209 0f9c 00000FA6 		.4byte	0xfa6
 11210 0fa0 17       		.uleb128 0x17
 11211 0fa1 000007F9 		.4byte	0x7f9
 11212 0fa5 00       		.byte	0x0
 11213 0fa6 13       		.uleb128 0x13
 11214 0fa7 00000000 		.4byte	.LASF156
 11215 0fab 30       		.byte	0x30
 11216 0fac 16       		.byte	0x16
 11217 0fad 1B       		.byte	0x1b
 11218 0fae 000010AF 		.4byte	0x10af
 11219 0fb2 10       		.uleb128 0x10
 11220 0fb3 0000098C 		.4byte	.LASF157
 11221 0fb7 16       		.byte	0x16
 11222 0fb8 1C       		.byte	0x1c
 11223 0fb9 000000AB 		.4byte	0xab
 11224 0fbd 02       		.byte	0x2
 11225 0fbe 23       		.byte	0x23
 11226 0fbf 00       		.uleb128 0x0
 11227 0fc0 10       		.uleb128 0x10
 11228 0fc1 000003CA 		.4byte	.LASF158
 11229 0fc5 16       		.byte	0x16
 11230 0fc6 1D       		.byte	0x1d
 11231 0fc7 000000AB 		.4byte	0xab
 11232 0fcb 02       		.byte	0x2
 11233 0fcc 23       		.byte	0x23
 11234 0fcd 04       		.uleb128 0x4
 11235 0fce 10       		.uleb128 0x10
 11236 0fcf 000001D3 		.4byte	.LASF159
 11237 0fd3 16       		.byte	0x16
 11238 0fd4 1E       		.byte	0x1e
 11239 0fd5 000000AB 		.4byte	0xab
 11240 0fd9 02       		.byte	0x2
 11241 0fda 23       		.byte	0x23
 11242 0fdb 08       		.uleb128 0x8
 11243 0fdc 10       		.uleb128 0x10
 11244 0fdd 0000026B 		.4byte	.LASF160
 11245 0fe1 16       		.byte	0x16
 11246 0fe2 1F       		.byte	0x1f
 11247 0fe3 000000AB 		.4byte	0xab
 11248 0fe7 02       		.byte	0x2
 11249 0fe8 23       		.byte	0x23
 11250 0fe9 0C       		.uleb128 0xc
 11251 0fea 10       		.uleb128 0x10
 11252 0feb 000004D4 		.4byte	.LASF161
 11253 0fef 16       		.byte	0x16
 11254 0ff0 20       		.byte	0x20
 11255 0ff1 000000AB 		.4byte	0xab
 11256 0ff5 02       		.byte	0x2
 11257 0ff6 23       		.byte	0x23
 11258 0ff7 10       		.uleb128 0x10
 11259 0ff8 10       		.uleb128 0x10
 11260 0ff9 00000DD6 		.4byte	.LASF162
 11261 0ffd 16       		.byte	0x16
 11262 0ffe 21       		.byte	0x21
 11263 0fff 000000AB 		.4byte	0xab
 11264 1003 02       		.byte	0x2
 11265 1004 23       		.byte	0x23
 11266 1005 14       		.uleb128 0x14
 11267 1006 10       		.uleb128 0x10
 11268 1007 0000085B 		.4byte	.LASF163
 11269 100b 16       		.byte	0x16
 11270 100c 22       		.byte	0x22
 11271 100d 000000AB 		.4byte	0xab
 11272 1011 02       		.byte	0x2
 11273 1012 23       		.byte	0x23
 11274 1013 18       		.uleb128 0x18
 11275 1014 10       		.uleb128 0x10
 11276 1015 00000B56 		.4byte	.LASF164
 11277 1019 16       		.byte	0x16
 11278 101a 23       		.byte	0x23
 11279 101b 000000AB 		.4byte	0xab
 11280 101f 02       		.byte	0x2
 11281 1020 23       		.byte	0x23
 11282 1021 1C       		.uleb128 0x1c
 11283 1022 10       		.uleb128 0x10
 11284 1023 0000113C 		.4byte	.LASF165
 11285 1027 16       		.byte	0x16
 11286 1028 24       		.byte	0x24
 11287 1029 000000AB 		.4byte	0xab
 11288 102d 02       		.byte	0x2
 11289 102e 23       		.byte	0x23
 11290 102f 20       		.uleb128 0x20
 11291 1030 10       		.uleb128 0x10
 11292 1031 000006C1 		.4byte	.LASF166
 11293 1035 16       		.byte	0x16
 11294 1036 25       		.byte	0x25
 11295 1037 000000AB 		.4byte	0xab
 11296 103b 02       		.byte	0x2
 11297 103c 23       		.byte	0x23
 11298 103d 24       		.uleb128 0x24
 11299 103e 10       		.uleb128 0x10
 11300 103f 000003A5 		.4byte	.LASF167
 11301 1043 16       		.byte	0x16
 11302 1044 26       		.byte	0x26
 11303 1045 000000B1 		.4byte	0xb1
 11304 1049 02       		.byte	0x2
 11305 104a 23       		.byte	0x23
 11306 104b 28       		.uleb128 0x28
 11307 104c 10       		.uleb128 0x10
 11308 104d 000009D7 		.4byte	.LASF168
 11309 1051 16       		.byte	0x16
 11310 1052 27       		.byte	0x27
 11311 1053 000000B1 		.4byte	0xb1
 11312 1057 02       		.byte	0x2
 11313 1058 23       		.byte	0x23
 11314 1059 29       		.uleb128 0x29
 11315 105a 10       		.uleb128 0x10
 11316 105b 00000B16 		.4byte	.LASF169
 11317 105f 16       		.byte	0x16
 11318 1060 28       		.byte	0x28
 11319 1061 000000B1 		.4byte	0xb1
 11320 1065 02       		.byte	0x2
 11321 1066 23       		.byte	0x23
 11322 1067 2A       		.uleb128 0x2a
 11323 1068 10       		.uleb128 0x10
 11324 1069 00000E91 		.4byte	.LASF170
 11325 106d 16       		.byte	0x16
 11326 106e 29       		.byte	0x29
 11327 106f 000000B1 		.4byte	0xb1
 11328 1073 02       		.byte	0x2
 11329 1074 23       		.byte	0x23
 11330 1075 2B       		.uleb128 0x2b
 11331 1076 10       		.uleb128 0x10
 11332 1077 00001387 		.4byte	.LASF171
 11333 107b 16       		.byte	0x16
 11334 107c 2A       		.byte	0x2a
 11335 107d 000000B1 		.4byte	0xb1
 11336 1081 02       		.byte	0x2
 11337 1082 23       		.byte	0x23
 11338 1083 2C       		.uleb128 0x2c
 11339 1084 10       		.uleb128 0x10
 11340 1085 00000AD3 		.4byte	.LASF172
 11341 1089 16       		.byte	0x16
 11342 108a 2B       		.byte	0x2b
 11343 108b 000000B1 		.4byte	0xb1
 11344 108f 02       		.byte	0x2
 11345 1090 23       		.byte	0x23
 11346 1091 2D       		.uleb128 0x2d
 11347 1092 10       		.uleb128 0x10
 11348 1093 000012E9 		.4byte	.LASF173
 11349 1097 16       		.byte	0x16
 11350 1098 2C       		.byte	0x2c
 11351 1099 000000B1 		.4byte	0xb1
 11352 109d 02       		.byte	0x2
 11353 109e 23       		.byte	0x23
 11354 109f 2E       		.uleb128 0x2e
 11355 10a0 10       		.uleb128 0x10
 11356 10a1 00000CBE 		.4byte	.LASF174
 11357 10a5 16       		.byte	0x16
 11358 10a6 2D       		.byte	0x2d
 11359 10a7 000000B1 		.4byte	0xb1
 11360 10ab 02       		.byte	0x2
 11361 10ac 23       		.byte	0x23
 11362 10ad 2F       		.uleb128 0x2f
 11363 10ae 00       		.byte	0x0
 11364 10af 23       		.uleb128 0x23
 11365 10b0 01       		.byte	0x1
 11366 10b1 0000027B 		.4byte	.LASF175
 11367 10b5 16       		.byte	0x16
 11368 10b6 31       		.byte	0x31
 11369 10b7 000000AB 		.4byte	0xab
 11370 10bb 01       		.byte	0x1
 11371 10bc 000010CB 		.4byte	0x10cb
 11372 10c0 17       		.uleb128 0x17
 11373 10c1 0000008F 		.4byte	0x8f
 11374 10c5 17       		.uleb128 0x17
 11375 10c6 000007F9 		.4byte	0x7f9
 11376 10ca 00       		.byte	0x0
 11377 10cb 26       		.uleb128 0x26
 11378 10cc 01       		.byte	0x1
 11379 10cd 000013B9 		.4byte	.LASF177
 11380 10d1 16       		.byte	0x16
 11381 10d2 32       		.byte	0x32
 11382 10d3 000010D8 		.4byte	0x10d8
 11383 10d7 01       		.byte	0x1
 11384 10d8 05       		.uleb128 0x5
 11385 10d9 04       		.byte	0x4
 11386 10da 00000FA6 		.4byte	0xfa6
 11387 10de 0C       		.uleb128 0xc
 11388 10df 00000542 		.4byte	.LASF178
 11389 10e3 17       		.byte	0x17
 11390 10e4 2B       		.byte	0x2b
 11391 10e5 000010E9 		.4byte	0x10e9
 11392 10e9 11       		.uleb128 0x11
 11393 10ea 000010F9 		.4byte	0x10f9
 11394 10ee 000010F9 		.4byte	0x10f9
 11395 10f2 12       		.uleb128 0x12
 11396 10f3 000000C5 		.4byte	0xc5
 11397 10f7 00       		.byte	0x0
 11398 10f8 00       		.byte	0x0
 11399 10f9 13       		.uleb128 0x13
 11400 10fa 000002EE 		.4byte	.LASF179
 11401 10fe 0C       		.byte	0xc
 11402 10ff 18       		.byte	0x18
 11403 1100 00       		.byte	0x0
 11404 1101 0000114C 		.4byte	0x114c
 11405 1105 14       		.uleb128 0x14
 11406 1106 67707200 		.string	"gpr"
 11407 110a 18       		.byte	0x18
 11408 110b 00       		.byte	0x0
 11409 110c 0000002F 		.4byte	0x2f
 11410 1110 02       		.byte	0x2
 11411 1111 23       		.byte	0x23
 11412 1112 00       		.uleb128 0x0
 11413 1113 14       		.uleb128 0x14
 11414 1114 66707200 		.string	"fpr"
 11415 1118 18       		.byte	0x18
 11416 1119 00       		.byte	0x0
 11417 111a 0000002F 		.4byte	0x2f
 11418 111e 02       		.byte	0x2
 11419 111f 23       		.byte	0x23
 11420 1120 01       		.uleb128 0x1
 11421 1121 10       		.uleb128 0x10
 11422 1122 00000006 		.4byte	.LASF180
 11423 1126 18       		.byte	0x18
 11424 1127 00       		.byte	0x0
 11425 1128 00000041 		.4byte	0x41
 11426 112c 02       		.byte	0x2
 11427 112d 23       		.byte	0x23
 11428 112e 02       		.uleb128 0x2
 11429 112f 10       		.uleb128 0x10
 11430 1130 00000110 		.4byte	.LASF181
 11431 1134 18       		.byte	0x18
 11432 1135 00       		.byte	0x0
 11433 1136 000000CF 		.4byte	0xcf
 11434 113a 02       		.byte	0x2
 11435 113b 23       		.byte	0x23
 11436 113c 04       		.uleb128 0x4
 11437 113d 10       		.uleb128 0x10
 11438 113e 00000195 		.4byte	.LASF182
 11439 1142 18       		.byte	0x18
 11440 1143 00       		.byte	0x0
 11441 1144 000000CF 		.4byte	0xcf
 11442 1148 02       		.byte	0x2
 11443 1149 23       		.byte	0x23
 11444 114a 08       		.uleb128 0x8
 11445 114b 00       		.byte	0x0
 11446 114c 0C       		.uleb128 0xc
 11447 114d 0000075F 		.4byte	.LASF183
 11448 1151 19       		.byte	0x19
 11449 1152 32       		.byte	0x32
 11450 1153 00000868 		.4byte	0x868
 11451 1157 0C       		.uleb128 0xc
 11452 1158 00000053 		.4byte	.LASF184
 11453 115c 19       		.byte	0x19
 11454 115d 3B       		.byte	0x3b
 11455 115e 0000011F 		.4byte	0x11f
 11456 1162 07       		.uleb128 0x7
 11457 1163 08       		.byte	0x8
 11458 1164 05       		.byte	0x5
 11459 1165 25       		.uleb128 0x25
 11460 1166 01       		.byte	0x1
 11461 1167 00000AB3 		.4byte	.LASF185
 11462 116b 19       		.byte	0x19
 11463 116c DB       		.byte	0xdb
 11464 116d 01       		.byte	0x1
 11465 116e 00001178 		.4byte	0x1178
 11466 1172 17       		.uleb128 0x17
 11467 1173 00001178 		.4byte	0x1178
 11468 1177 00       		.byte	0x0
 11469 1178 05       		.uleb128 0x5
 11470 1179 04       		.byte	0x4
 11471 117a 0000114C 		.4byte	0x114c
 11472 117e 23       		.uleb128 0x23
 11473 117f 01       		.byte	0x1
 11474 1180 000009B9 		.4byte	.LASF186
 11475 1184 19       		.byte	0x19
 11476 1185 AC       		.byte	0xac
 11477 1186 0000008F 		.4byte	0x8f
 11478 118a 01       		.byte	0x1
 11479 118b 00001195 		.4byte	0x1195
 11480 118f 17       		.uleb128 0x17
 11481 1190 00001178 		.4byte	0x1178
 11482 1194 00       		.byte	0x0
 11483 1195 23       		.uleb128 0x23
 11484 1196 01       		.byte	0x1
 11485 1197 000000FE 		.4byte	.LASF187
 11486 119b 19       		.byte	0x19
 11487 119c DC       		.byte	0xdc
 11488 119d 0000008F 		.4byte	0x8f
 11489 11a1 01       		.byte	0x1
 11490 11a2 000011AC 		.4byte	0x11ac
 11491 11a6 17       		.uleb128 0x17
 11492 11a7 00001178 		.4byte	0x1178
 11493 11ab 00       		.byte	0x0
 11494 11ac 23       		.uleb128 0x23
 11495 11ad 01       		.byte	0x1
 11496 11ae 00000ED2 		.4byte	.LASF188
 11497 11b2 19       		.byte	0x19
 11498 11b3 DD       		.byte	0xdd
 11499 11b4 0000008F 		.4byte	0x8f
 11500 11b8 01       		.byte	0x1
 11501 11b9 000011C3 		.4byte	0x11c3
 11502 11bd 17       		.uleb128 0x17
 11503 11be 00001178 		.4byte	0x1178
 11504 11c2 00       		.byte	0x0
 11505 11c3 23       		.uleb128 0x23
 11506 11c4 01       		.byte	0x1
 11507 11c5 00001428 		.4byte	.LASF189
 11508 11c9 19       		.byte	0x19
 11509 11ca AD       		.byte	0xad
 11510 11cb 0000008F 		.4byte	0x8f
 11511 11cf 01       		.byte	0x1
 11512 11d0 000011DA 		.4byte	0x11da
 11513 11d4 17       		.uleb128 0x17
 11514 11d5 00001178 		.4byte	0x1178
 11515 11d9 00       		.byte	0x0
 11516 11da 23       		.uleb128 0x23
 11517 11db 01       		.byte	0x1
 11518 11dc 00000B63 		.4byte	.LASF190
 11519 11e0 19       		.byte	0x19
 11520 11e1 C1       		.byte	0xc1
 11521 11e2 0000008F 		.4byte	0x8f
 11522 11e6 01       		.byte	0x1
 11523 11e7 000011F1 		.4byte	0x11f1
 11524 11eb 17       		.uleb128 0x17
 11525 11ec 00001178 		.4byte	0x1178
 11526 11f0 00       		.byte	0x0
 11527 11f1 23       		.uleb128 0x23
 11528 11f2 01       		.byte	0x1
 11529 11f3 00000D80 		.4byte	.LASF191
 11530 11f7 19       		.byte	0x19
 11531 11f8 D1       		.byte	0xd1
 11532 11f9 0000008F 		.4byte	0x8f
 11533 11fd 01       		.byte	0x1
 11534 11fe 0000120D 		.4byte	0x120d
 11535 1202 17       		.uleb128 0x17
 11536 1203 00001178 		.4byte	0x1178
 11537 1207 17       		.uleb128 0x17
 11538 1208 0000120D 		.4byte	0x120d
 11539 120c 00       		.byte	0x0
 11540 120d 05       		.uleb128 0x5
 11541 120e 04       		.byte	0x4
 11542 120f 00001157 		.4byte	0x1157
 11543 1213 23       		.uleb128 0x23
 11544 1214 01       		.byte	0x1
 11545 1215 000003E0 		.4byte	.LASF192
 11546 1219 19       		.byte	0x19
 11547 121a C2       		.byte	0xc2
 11548 121b 000000AB 		.4byte	0xab
 11549 121f 01       		.byte	0x1
 11550 1220 00001234 		.4byte	0x1234
 11551 1224 17       		.uleb128 0x17
 11552 1225 000000AB 		.4byte	0xab
 11553 1229 17       		.uleb128 0x17
 11554 122a 0000008F 		.4byte	0x8f
 11555 122e 17       		.uleb128 0x17
 11556 122f 00001178 		.4byte	0x1178
 11557 1233 00       		.byte	0x0
 11558 1234 23       		.uleb128 0x23
 11559 1235 01       		.byte	0x1
 11560 1236 000011E8 		.4byte	.LASF193
 11561 123a 19       		.byte	0x19
 11562 123b E0       		.byte	0xe0
 11563 123c 00001178 		.4byte	0x1178
 11564 1240 01       		.byte	0x1
 11565 1241 00001250 		.4byte	0x1250
 11566 1245 17       		.uleb128 0x17
 11567 1246 000007F9 		.4byte	0x7f9
 11568 124a 17       		.uleb128 0x17
 11569 124b 000007F9 		.4byte	0x7f9
 11570 124f 00       		.byte	0x0
 11571 1250 23       		.uleb128 0x23
 11572 1251 01       		.byte	0x1
 11573 1252 00000391 		.4byte	.LASF194
 11574 1256 19       		.byte	0x19
 11575 1257 CC       		.byte	0xcc
 11576 1258 000009A4 		.4byte	0x9a4
 11577 125c 01       		.byte	0x1
 11578 125d 00001276 		.4byte	0x1276
 11579 1261 17       		.uleb128 0x17
 11580 1262 000000CF 		.4byte	0xcf
 11581 1266 17       		.uleb128 0x17
 11582 1267 000009A4 		.4byte	0x9a4
 11583 126b 17       		.uleb128 0x17
 11584 126c 000009A4 		.4byte	0x9a4
 11585 1270 17       		.uleb128 0x17
 11586 1271 00001178 		.4byte	0x1178
 11587 1275 00       		.byte	0x0
 11588 1276 23       		.uleb128 0x23
 11589 1277 01       		.byte	0x1
 11590 1278 00000415 		.4byte	.LASF195
 11591 127c 19       		.byte	0x19
 11592 127d AE       		.byte	0xae
 11593 127e 00001178 		.4byte	0x1178
 11594 1282 01       		.byte	0x1
 11595 1283 00001297 		.4byte	0x1297
 11596 1287 17       		.uleb128 0x17
 11597 1288 000007F9 		.4byte	0x7f9
 11598 128c 17       		.uleb128 0x17
 11599 128d 000007F9 		.4byte	0x7f9
 11600 1291 17       		.uleb128 0x17
 11601 1292 00001178 		.4byte	0x1178
 11602 1296 00       		.byte	0x0
 11603 1297 23       		.uleb128 0x23
 11604 1298 01       		.byte	0x1
 11605 1299 00000FB6 		.4byte	.LASF196
 11606 129d 19       		.byte	0x19
 11607 129e D3       		.byte	0xd3
 11608 129f 0000008F 		.4byte	0x8f
 11609 12a3 01       		.byte	0x1
 11610 12a4 000012B8 		.4byte	0x12b8
 11611 12a8 17       		.uleb128 0x17
 11612 12a9 00001178 		.4byte	0x1178
 11613 12ad 17       		.uleb128 0x17
 11614 12ae 000009AF 		.4byte	0x9af
 11615 12b2 17       		.uleb128 0x17
 11616 12b3 0000008F 		.4byte	0x8f
 11617 12b7 00       		.byte	0x0
 11618 12b8 23       		.uleb128 0x23
 11619 12b9 01       		.byte	0x1
 11620 12ba 00001043 		.4byte	.LASF197
 11621 12be 19       		.byte	0x19
 11622 12bf D7       		.byte	0xd7
 11623 12c0 0000008F 		.4byte	0x8f
 11624 12c4 01       		.byte	0x1
 11625 12c5 000012D4 		.4byte	0x12d4
 11626 12c9 17       		.uleb128 0x17
 11627 12ca 00001178 		.4byte	0x1178
 11628 12ce 17       		.uleb128 0x17
 11629 12cf 000012D4 		.4byte	0x12d4
 11630 12d3 00       		.byte	0x0
 11631 12d4 05       		.uleb128 0x5
 11632 12d5 04       		.byte	0x4
 11633 12d6 000012DA 		.4byte	0x12da
 11634 12da 1D       		.uleb128 0x1d
 11635 12db 00001157 		.4byte	0x1157
 11636 12df 23       		.uleb128 0x23
 11637 12e0 01       		.byte	0x1
 11638 12e1 000006F9 		.4byte	.LASF198
 11639 12e5 19       		.byte	0x19
 11640 12e6 D9       		.byte	0xd9
 11641 12e7 000009AF 		.4byte	0x9af
 11642 12eb 01       		.byte	0x1
 11643 12ec 000012F6 		.4byte	0x12f6
 11644 12f0 17       		.uleb128 0x17
 11645 12f1 00001178 		.4byte	0x1178
 11646 12f5 00       		.byte	0x0
 11647 12f6 23       		.uleb128 0x23
 11648 12f7 01       		.byte	0x1
 11649 12f8 00000DA9 		.4byte	.LASF199
 11650 12fc 19       		.byte	0x19
 11651 12fd C5       		.byte	0xc5
 11652 12fe 0000008F 		.4byte	0x8f
 11653 1302 01       		.byte	0x1
 11654 1303 0000130D 		.4byte	0x130d
 11655 1307 17       		.uleb128 0x17
 11656 1308 00001178 		.4byte	0x1178
 11657 130c 00       		.byte	0x0
 11658 130d 26       		.uleb128 0x26
 11659 130e 01       		.byte	0x1
 11660 130f 00001334 		.4byte	.LASF200
 11661 1313 19       		.byte	0x19
 11662 1314 C6       		.byte	0xc6
 11663 1315 0000008F 		.4byte	0x8f
 11664 1319 01       		.byte	0x1
 11665 131a 23       		.uleb128 0x23
 11666 131b 01       		.byte	0x1
 11667 131c 000012AB 		.4byte	.LASF201
 11668 1320 19       		.byte	0x19
 11669 1321 C7       		.byte	0xc7
 11670 1322 000000AB 		.4byte	0xab
 11671 1326 01       		.byte	0x1
 11672 1327 00001331 		.4byte	0x1331
 11673 132b 17       		.uleb128 0x17
 11674 132c 000000AB 		.4byte	0xab
 11675 1330 00       		.byte	0x0
 11676 1331 25       		.uleb128 0x25
 11677 1332 01       		.byte	0x1
 11678 1333 00000811 		.4byte	.LASF202
 11679 1337 19       		.byte	0x19
 11680 1338 DE       		.byte	0xde
 11681 1339 01       		.byte	0x1
 11682 133a 00001344 		.4byte	0x1344
 11683 133e 17       		.uleb128 0x17
 11684 133f 000007F9 		.4byte	0x7f9
 11685 1343 00       		.byte	0x0
 11686 1344 23       		.uleb128 0x23
 11687 1345 01       		.byte	0x1
 11688 1346 00000D4A 		.4byte	.LASF203
 11689 134a 19       		.byte	0x19
 11690 134b E3       		.byte	0xe3
 11691 134c 0000008F 		.4byte	0x8f
 11692 1350 01       		.byte	0x1
 11693 1351 0000135B 		.4byte	0x135b
 11694 1355 17       		.uleb128 0x17
 11695 1356 000007F9 		.4byte	0x7f9
 11696 135a 00       		.byte	0x0
 11697 135b 23       		.uleb128 0x23
 11698 135c 01       		.byte	0x1
 11699 135d 0000033D 		.4byte	.LASF204
 11700 1361 19       		.byte	0x19
 11701 1362 E4       		.byte	0xe4
 11702 1363 0000008F 		.4byte	0x8f
 11703 1367 01       		.byte	0x1
 11704 1368 00001377 		.4byte	0x1377
 11705 136c 17       		.uleb128 0x17
 11706 136d 000007F9 		.4byte	0x7f9
 11707 1371 17       		.uleb128 0x17
 11708 1372 000007F9 		.4byte	0x7f9
 11709 1376 00       		.byte	0x0
 11710 1377 25       		.uleb128 0x25
 11711 1378 01       		.byte	0x1
 11712 1379 0000067F 		.4byte	.LASF205
 11713 137d 19       		.byte	0x19
 11714 137e DA       		.byte	0xda
 11715 137f 01       		.byte	0x1
 11716 1380 0000138A 		.4byte	0x138a
 11717 1384 17       		.uleb128 0x17
 11718 1385 00001178 		.4byte	0x1178
 11719 1389 00       		.byte	0x0
 11720 138a 25       		.uleb128 0x25
 11721 138b 01       		.byte	0x1
 11722 138c 00000630 		.4byte	.LASF206
 11723 1390 19       		.byte	0x19
 11724 1391 AF       		.byte	0xaf
 11725 1392 01       		.byte	0x1
 11726 1393 000013A2 		.4byte	0x13a2
 11727 1397 17       		.uleb128 0x17
 11728 1398 00001178 		.4byte	0x1178
 11729 139c 17       		.uleb128 0x17
 11730 139d 000000AB 		.4byte	0xab
 11731 13a1 00       		.byte	0x0
 11732 13a2 23       		.uleb128 0x23
 11733 13a3 01       		.byte	0x1
 11734 13a4 0000114A 		.4byte	.LASF207
 11735 13a8 19       		.byte	0x19
 11736 13a9 B0       		.byte	0xb0
 11737 13aa 0000008F 		.4byte	0x8f
 11738 13ae 01       		.byte	0x1
 11739 13af 000013C8 		.4byte	0x13c8
 11740 13b3 17       		.uleb128 0x17
 11741 13b4 00001178 		.4byte	0x1178
 11742 13b8 17       		.uleb128 0x17
 11743 13b9 000000AB 		.4byte	0xab
 11744 13bd 17       		.uleb128 0x17
 11745 13be 0000008F 		.4byte	0x8f
 11746 13c2 17       		.uleb128 0x17
 11747 13c3 000009A4 		.4byte	0x9a4
 11748 13c7 00       		.byte	0x0
 11749 13c8 26       		.uleb128 0x26
 11750 13c9 01       		.byte	0x1
 11751 13ca 00000CAC 		.4byte	.LASF208
 11752 13ce 19       		.byte	0x19
 11753 13cf AA       		.byte	0xaa
 11754 13d0 00001178 		.4byte	0x1178
 11755 13d4 01       		.byte	0x1
 11756 13d5 23       		.uleb128 0x23
 11757 13d6 01       		.byte	0x1
 11758 13d7 00000ECB 		.4byte	.LASF209
 11759 13db 19       		.byte	0x19
 11760 13dc AB       		.byte	0xab
 11761 13dd 000000AB 		.4byte	0xab
 11762 13e1 01       		.byte	0x1
 11763 13e2 000013EC 		.4byte	0x13ec
 11764 13e6 17       		.uleb128 0x17
 11765 13e7 000000AB 		.4byte	0xab
 11766 13eb 00       		.byte	0x0
 11767 13ec 23       		.uleb128 0x23
 11768 13ed 01       		.byte	0x1
 11769 13ee 00000AEB 		.4byte	.LASF210
 11770 13f2 19       		.byte	0x19
 11771 13f3 CB       		.byte	0xcb
 11772 13f4 0000008F 		.4byte	0x8f
 11773 13f8 01       		.byte	0x1
 11774 13f9 00001408 		.4byte	0x1408
 11775 13fd 17       		.uleb128 0x17
 11776 13fe 0000008F 		.4byte	0x8f
 11777 1402 17       		.uleb128 0x17
 11778 1403 00001178 		.4byte	0x1178
 11779 1407 00       		.byte	0x0
 11780 1408 0C       		.uleb128 0xc
 11781 1409 000006FF 		.4byte	.LASF211
 11782 140d 17       		.byte	0x17
 11783 140e 55       		.byte	0x55
 11784 140f 000010DE 		.4byte	0x10de
 11785 1413 07       		.uleb128 0x7
 11786 1414 04       		.byte	0x4
 11787 1415 07       		.byte	0x7
 11788 1416 07       		.uleb128 0x7
 11789 1417 04       		.byte	0x4
 11790 1418 05       		.byte	0x5
 11791 1419 26       		.uleb128 0x26
 11792 141a 01       		.byte	0x1
 11793 141b 00000764 		.4byte	.LASF212
 11794 141f 0B       		.byte	0xb
 11795 1420 2E       		.byte	0x2e
 11796 1421 000009B6 		.4byte	0x9b6
 11797 1425 01       		.byte	0x1
 11798 1426 23       		.uleb128 0x23
 11799 1427 01       		.byte	0x1
 11800 1428 00000F6C 		.4byte	.LASF213
 11801 142c 0B       		.byte	0xb
 11802 142d 2F       		.byte	0x2f
 11803 142e 000000A4 		.4byte	0xa4
 11804 1432 01       		.byte	0x1
 11805 1433 00001442 		.4byte	0x1442
 11806 1437 17       		.uleb128 0x17
 11807 1438 000009C1 		.4byte	0x9c1
 11808 143c 17       		.uleb128 0x17
 11809 143d 000009C1 		.4byte	0x9c1
 11810 1441 00       		.byte	0x0
 11811 1442 23       		.uleb128 0x23
 11812 1443 01       		.byte	0x1
 11813 1444 00001328 		.4byte	.LASF214
 11814 1448 0B       		.byte	0xb
 11815 1449 30       		.byte	0x30
 11816 144a 000009C1 		.4byte	0x9c1
 11817 144e 01       		.byte	0x1
 11818 144f 00001459 		.4byte	0x1459
 11819 1453 17       		.uleb128 0x17
 11820 1454 00001459 		.4byte	0x1459
 11821 1458 00       		.byte	0x0
 11822 1459 05       		.uleb128 0x5
 11823 145a 04       		.byte	0x4
 11824 145b 000009CC 		.4byte	0x9cc
 11825 145f 23       		.uleb128 0x23
 11826 1460 01       		.byte	0x1
 11827 1461 00000D6A 		.4byte	.LASF215
 11828 1465 0B       		.byte	0xb
 11829 1466 31       		.byte	0x31
 11830 1467 000009C1 		.4byte	0x9c1
 11831 146b 01       		.byte	0x1
 11832 146c 00001476 		.4byte	0x1476
 11833 1470 17       		.uleb128 0x17
 11834 1471 00001476 		.4byte	0x1476
 11835 1475 00       		.byte	0x0
 11836 1476 05       		.uleb128 0x5
 11837 1477 04       		.byte	0x4
 11838 1478 000009C1 		.4byte	0x9c1
 11839 147c 23       		.uleb128 0x23
 11840 147d 01       		.byte	0x1
 11841 147e 0000076A 		.4byte	.LASF216
 11842 1482 0B       		.byte	0xb
 11843 1483 33       		.byte	0x33
 11844 1484 000000AB 		.4byte	0xab
 11845 1488 01       		.byte	0x1
 11846 1489 00001493 		.4byte	0x1493
 11847 148d 17       		.uleb128 0x17
 11848 148e 00001493 		.4byte	0x1493
 11849 1492 00       		.byte	0x0
 11850 1493 05       		.uleb128 0x5
 11851 1494 04       		.byte	0x4
 11852 1495 00001499 		.4byte	0x1499
 11853 1499 1D       		.uleb128 0x1d
 11854 149a 000009CC 		.4byte	0x9cc
 11855 149e 23       		.uleb128 0x23
 11856 149f 01       		.byte	0x1
 11857 14a0 000010D2 		.4byte	.LASF217
 11858 14a4 0B       		.byte	0xb
 11859 14a5 34       		.byte	0x34
 11860 14a6 000000AB 		.4byte	0xab
 11861 14aa 01       		.byte	0x1
 11862 14ab 000014B5 		.4byte	0x14b5
 11863 14af 17       		.uleb128 0x17
 11864 14b0 000014B5 		.4byte	0x14b5
 11865 14b4 00       		.byte	0x0
 11866 14b5 05       		.uleb128 0x5
 11867 14b6 04       		.byte	0x4
 11868 14b7 000014BB 		.4byte	0x14bb
 11869 14bb 1D       		.uleb128 0x1d
 11870 14bc 000009C1 		.4byte	0x9c1
 11871 14c0 23       		.uleb128 0x23
 11872 14c1 01       		.byte	0x1
 11873 14c2 000007A6 		.4byte	.LASF218
 11874 14c6 0B       		.byte	0xb
 11875 14c7 35       		.byte	0x35
 11876 14c8 00001459 		.4byte	0x1459
 11877 14cc 01       		.byte	0x1
 11878 14cd 000014D7 		.4byte	0x14d7
 11879 14d1 17       		.uleb128 0x17
 11880 14d2 000014B5 		.4byte	0x14b5
 11881 14d6 00       		.byte	0x0
 11882 14d7 23       		.uleb128 0x23
 11883 14d8 01       		.byte	0x1
 11884 14d9 00000360 		.4byte	.LASF219
 11885 14dd 0B       		.byte	0xb
 11886 14de 36       		.byte	0x36
 11887 14df 00001459 		.4byte	0x1459
 11888 14e3 01       		.byte	0x1
 11889 14e4 000014EE 		.4byte	0x14ee
 11890 14e8 17       		.uleb128 0x17
 11891 14e9 000014B5 		.4byte	0x14b5
 11892 14ed 00       		.byte	0x0
 11893 14ee 23       		.uleb128 0x23
 11894 14ef 01       		.byte	0x1
 11895 14f0 0000117B 		.4byte	.LASF220
 11896 14f4 0B       		.byte	0xb
 11897 14f5 38       		.byte	0x38
 11898 14f6 000009A4 		.4byte	0x9a4
 11899 14fa 01       		.byte	0x1
 11900 14fb 00001514 		.4byte	0x1514
 11901 14ff 17       		.uleb128 0x17
 11902 1500 000000AB 		.4byte	0xab
 11903 1504 17       		.uleb128 0x17
 11904 1505 000009A4 		.4byte	0x9a4
 11905 1509 17       		.uleb128 0x17
 11906 150a 000007F9 		.4byte	0x7f9
 11907 150e 17       		.uleb128 0x17
 11908 150f 00001493 		.4byte	0x1493
 11909 1513 00       		.byte	0x0
 11910 1514 0C       		.uleb128 0xc
 11911 1515 00000CB4 		.4byte	.LASF221
 11912 1519 1A       		.byte	0x1a
 11913 151a 28       		.byte	0x28
 11914 151b 00000141 		.4byte	0x141
 11915 151f 27       		.uleb128 0x27
 11916 1520 0000006D 		.4byte	.LASF222
 11917 1524 1D       		.byte	0x1d
 11918 1525 4A       		.byte	0x4a
 11919 1526 00001540 		.4byte	0x1540
 11920 152a 22       		.uleb128 0x22
 11921 152b 0000025E 		.4byte	.LASF223
 11922 152f 1B       		.byte	0x1b
 11923 1530 36       		.byte	0x36
 11924 1531 21       		.uleb128 0x21
 11925 1532 1C       		.byte	0x1c
 11926 1533 2A       		.byte	0x2a
 11927 1534 0000155A 		.4byte	0x155a
 11928 1538 21       		.uleb128 0x21
 11929 1539 1C       		.byte	0x1c
 11930 153a 2B       		.byte	0x2b
 11931 153b 0000155D 		.4byte	0x155d
 11932 153f 00       		.byte	0x0
 11933 1540 27       		.uleb128 0x27
 11934 1541 00000480 		.4byte	.LASF224
 11935 1545 1B       		.byte	0x1b
 11936 1546 3A       		.byte	0x3a
 11937 1547 0000155A 		.4byte	0x155a
 11938 154b 28       		.uleb128 0x28
 11939 154c 1B       		.byte	0x1b
 11940 154d 3B       		.byte	0x3b
 11941 154e 00000CC6 		.4byte	0xcc6
 11942 1552 28       		.uleb128 0x28
 11943 1553 1B       		.byte	0x1b
 11944 1554 3C       		.byte	0x3c
 11945 1555 0000152A 		.4byte	0x152a
 11946 1559 00       		.byte	0x0
 11947 155a 07       		.uleb128 0x7
 11948 155b 04       		.byte	0x4
 11949 155c 07       		.byte	0x7
 11950 155d 07       		.uleb128 0x7
 11951 155e 04       		.byte	0x4
 11952 155f 05       		.byte	0x5
 11953 1560 03       		.uleb128 0x3
 11954 1561 08       		.byte	0x8
 11955 1562 04       		.byte	0x4
 11956 1563 00000E68 		.4byte	.LASF225
 11957 1567 29       		.uleb128 0x29
 11958 1568 000001AB 		.4byte	.LASF255
 11959 156c 04       		.byte	0x4
 11960 156d 1E       		.byte	0x1e
 11961 156e 65       		.byte	0x65
 11962 156f 00001580 		.4byte	0x1580
 11963 1573 2A       		.uleb128 0x2a
 11964 1574 000002B8 		.4byte	.LASF226
 11965 1578 00       		.sleb128 0
 11966 1579 2A       		.uleb128 0x2a
 11967 157a 00000A8F 		.4byte	.LASF227
 11968 157e 01       		.sleb128 1
 11969 157f 00       		.byte	0x0
 11970 1580 0C       		.uleb128 0xc
 11971 1581 000011A9 		.4byte	.LASF228
 11972 1585 1E       		.byte	0x1e
 11973 1586 B3       		.byte	0xb3
 11974 1587 0000002F 		.4byte	0x2f
 11975 158b 0C       		.uleb128 0xc
 11976 158c 000013ED 		.4byte	.LASF229
 11977 1590 1E       		.byte	0x1e
 11978 1591 B5       		.byte	0xb5
 11979 1592 00000041 		.4byte	0x41
 11980 1596 09       		.uleb128 0x9
 11981 1597 0000142F 		.4byte	.LASF230
 11982 159b 02       		.byte	0x2
 11983 159c 1E       		.byte	0x1e
 11984 159d 0102     		.2byte	0x102
 11985 159f 000015BE 		.4byte	0x15be
 11986 15a3 0A       		.uleb128 0xa
 11987 15a4 7800     		.string	"x"
 11988 15a6 1E       		.byte	0x1e
 11989 15a7 0103     		.2byte	0x103
 11990 15a9 00001580 		.4byte	0x1580
 11991 15ad 02       		.byte	0x2
 11992 15ae 23       		.byte	0x23
 11993 15af 00       		.uleb128 0x0
 11994 15b0 0A       		.uleb128 0xa
 11995 15b1 7900     		.string	"y"
 11996 15b3 1E       		.byte	0x1e
 11997 15b4 0103     		.2byte	0x103
 11998 15b6 00001580 		.4byte	0x1580
 11999 15ba 02       		.byte	0x2
 12000 15bb 23       		.byte	0x23
 12001 15bc 01       		.uleb128 0x1
 12002 15bd 00       		.byte	0x0
 12003 15be 09       		.uleb128 0x9
 12004 15bf 00000A87 		.4byte	.LASF231
 12005 15c3 06       		.byte	0x6
 12006 15c4 1E       		.byte	0x1e
 12007 15c5 0113     		.2byte	0x113
 12008 15c7 000015F3 		.4byte	0x15f3
 12009 15cb 0A       		.uleb128 0xa
 12010 15cc 7800     		.string	"x"
 12011 15ce 1E       		.byte	0x1e
 12012 15cf 0114     		.2byte	0x114
 12013 15d1 0000158B 		.4byte	0x158b
 12014 15d5 02       		.byte	0x2
 12015 15d6 23       		.byte	0x23
 12016 15d7 00       		.uleb128 0x0
 12017 15d8 0A       		.uleb128 0xa
 12018 15d9 7900     		.string	"y"
 12019 15db 1E       		.byte	0x1e
 12020 15dc 0114     		.2byte	0x114
 12021 15de 0000158B 		.4byte	0x158b
 12022 15e2 02       		.byte	0x2
 12023 15e3 23       		.byte	0x23
 12024 15e4 02       		.uleb128 0x2
 12025 15e5 0A       		.uleb128 0xa
 12026 15e6 7A00     		.string	"z"
 12027 15e8 1E       		.byte	0x1e
 12028 15e9 0114     		.2byte	0x114
 12029 15eb 0000158B 		.4byte	0x158b
 12030 15ef 02       		.byte	0x2
 12031 15f0 23       		.byte	0x23
 12032 15f1 04       		.uleb128 0x4
 12033 15f2 00       		.byte	0x0
 12034 15f3 09       		.uleb128 0x9
 12035 15f4 00001079 		.4byte	.LASF232
 12036 15f8 14       		.byte	0x14
 12037 15f9 1E       		.byte	0x1e
 12038 15fa 0127     		.2byte	0x127
 12039 15fc 0000164C 		.4byte	0x164c
 12040 1600 1B       		.uleb128 0x1b
 12041 1601 0000047B 		.4byte	.LASF233
 12042 1605 1E       		.byte	0x1e
 12043 1606 0128     		.2byte	0x128
 12044 1608 0000009D 		.4byte	0x9d
 12045 160c 02       		.byte	0x2
 12046 160d 23       		.byte	0x23
 12047 160e 00       		.uleb128 0x0
 12048 160f 1B       		.uleb128 0x1b
 12049 1610 000009C0 		.4byte	.LASF234
 12050 1614 1E       		.byte	0x1e
 12051 1615 0129     		.2byte	0x129
 12052 1617 0000009D 		.4byte	0x9d
 12053 161b 02       		.byte	0x2
 12054 161c 23       		.byte	0x23
 12055 161d 04       		.uleb128 0x4
 12056 161e 0A       		.uleb128 0xa
 12057 161f 79617700 		.string	"yaw"
 12058 1623 1E       		.byte	0x1e
 12059 1624 012A     		.2byte	0x12a
 12060 1626 0000009D 		.4byte	0x9d
 12061 162a 02       		.byte	0x2
 12062 162b 23       		.byte	0x23
 12063 162c 08       		.uleb128 0x8
 12064 162d 1B       		.uleb128 0x1b
 12065 162e 000003C3 		.4byte	.LASF235
 12066 1632 1E       		.byte	0x1e
 12067 1633 012C     		.2byte	0x12c
 12068 1635 0000009D 		.4byte	0x9d
 12069 1639 02       		.byte	0x2
 12070 163a 23       		.byte	0x23
 12071 163b 0C       		.uleb128 0xc
 12072 163c 1B       		.uleb128 0x1b
 12073 163d 00000686 		.4byte	.LASF236
 12074 1641 1E       		.byte	0x1e
 12075 1642 012D     		.2byte	0x12d
 12076 1644 0000009D 		.4byte	0x9d
 12077 1648 02       		.byte	0x2
 12078 1649 23       		.byte	0x23
 12079 164a 10       		.uleb128 0x10
 12080 164b 00       		.byte	0x0
 12081 164c 09       		.uleb128 0x9
 12082 164d 000005F7 		.4byte	.LASF237
 12083 1651 0C       		.byte	0xc
 12084 1652 1E       		.byte	0x1e
 12085 1653 0135     		.2byte	0x135
 12086 1655 00001681 		.4byte	0x1681
 12087 1659 0A       		.uleb128 0xa
 12088 165a 7800     		.string	"x"
 12089 165c 1E       		.byte	0x1e
 12090 165d 0136     		.2byte	0x136
 12091 165f 0000009D 		.4byte	0x9d
 12092 1663 02       		.byte	0x2
 12093 1664 23       		.byte	0x23
 12094 1665 00       		.uleb128 0x0
 12095 1666 0A       		.uleb128 0xa
 12096 1667 7900     		.string	"y"
 12097 1669 1E       		.byte	0x1e
 12098 166a 0136     		.2byte	0x136
 12099 166c 0000009D 		.4byte	0x9d
 12100 1670 02       		.byte	0x2
 12101 1671 23       		.byte	0x23
 12102 1672 04       		.uleb128 0x4
 12103 1673 0A       		.uleb128 0xa
 12104 1674 7A00     		.string	"z"
 12105 1676 1E       		.byte	0x1e
 12106 1677 0136     		.2byte	0x136
 12107 1679 0000009D 		.4byte	0x9d
 12108 167d 02       		.byte	0x2
 12109 167e 23       		.byte	0x23
 12110 167f 08       		.uleb128 0x8
 12111 1680 00       		.byte	0x0
 12112 1681 09       		.uleb128 0x9
 12113 1682 000004CC 		.4byte	.LASF238
 12114 1686 18       		.byte	0x18
 12115 1687 1E       		.byte	0x1e
 12116 1688 013E     		.2byte	0x13e
 12117 168a 000016DA 		.4byte	0x16da
 12118 168e 1B       		.uleb128 0x1b
 12119 168f 00000FAD 		.4byte	.LASF239
 12120 1693 1E       		.byte	0x1e
 12121 1694 013F     		.2byte	0x13f
 12122 1696 000015BE 		.4byte	0x15be
 12123 169a 02       		.byte	0x2
 12124 169b 23       		.byte	0x23
 12125 169c 00       		.uleb128 0x0
 12126 169d 1B       		.uleb128 0x1b
 12127 169e 00000EFF 		.4byte	.LASF240
 12128 16a2 1E       		.byte	0x1e
 12129 16a3 0140     		.2byte	0x140
 12130 16a5 000015BE 		.4byte	0x15be
 12131 16a9 02       		.byte	0x2
 12132 16aa 23       		.byte	0x23
 12133 16ab 06       		.uleb128 0x6
 12134 16ac 1B       		.uleb128 0x1b
 12135 16ad 000013C4 		.4byte	.LASF241
 12136 16b1 1E       		.byte	0x1e
 12137 16b2 0142     		.2byte	0x142
 12138 16b4 0000009D 		.4byte	0x9d
 12139 16b8 02       		.byte	0x2
 12140 16b9 23       		.byte	0x23
 12141 16ba 0C       		.uleb128 0xc
 12142 16bb 1B       		.uleb128 0x1b
 12143 16bc 0000048C 		.4byte	.LASF242
 12144 16c0 1E       		.byte	0x1e
 12145 16c1 0143     		.2byte	0x143
 12146 16c3 0000009D 		.4byte	0x9d
 12147 16c7 02       		.byte	0x2
 12148 16c8 23       		.byte	0x23
 12149 16c9 10       		.uleb128 0x10
 12150 16ca 1B       		.uleb128 0x1b
 12151 16cb 00000E5F 		.4byte	.LASF243
 12152 16cf 1E       		.byte	0x1e
 12153 16d0 0144     		.2byte	0x144
 12154 16d2 0000009D 		.4byte	0x9d
 12155 16d6 02       		.byte	0x2
 12156 16d7 23       		.byte	0x23
 12157 16d8 14       		.uleb128 0x14
 12158 16d9 00       		.byte	0x0
 12159 16da 09       		.uleb128 0x9
 12160 16db 0000043A 		.4byte	.LASF244
 12161 16df 08       		.byte	0x8
 12162 16e0 1E       		.byte	0x1e
 12163 16e1 014C     		.2byte	0x14c
 12164 16e3 00001722 		.4byte	0x1722
 12165 16e7 1B       		.uleb128 0x1b
 12166 16e8 000001FE 		.4byte	.LASF245
 12167 16ec 1E       		.byte	0x1e
 12168 16ed 014D     		.2byte	0x14d
 12169 16ef 00001580 		.4byte	0x1580
 12170 16f3 02       		.byte	0x2
 12171 16f4 23       		.byte	0x23
 12172 16f5 00       		.uleb128 0x0
 12173 16f6 0A       		.uleb128 0xa
 12174 16f7 727800   		.string	"rx"
 12175 16fa 1E       		.byte	0x1e
 12176 16fb 014F     		.2byte	0x14f
 12177 16fd 0000007D 		.4byte	0x7d
 12178 1701 02       		.byte	0x2
 12179 1702 23       		.byte	0x23
 12180 1703 02       		.uleb128 0x2
 12181 1704 0A       		.uleb128 0xa
 12182 1705 727900   		.string	"ry"
 12183 1708 1E       		.byte	0x1e
 12184 1709 0150     		.2byte	0x150
 12185 170b 0000007D 		.4byte	0x7d
 12186 170f 02       		.byte	0x2
 12187 1710 23       		.byte	0x23
 12188 1711 04       		.uleb128 0x4
 12189 1712 1B       		.uleb128 0x1b
 12190 1713 00000740 		.4byte	.LASF246
 12191 1717 1E       		.byte	0x1e
 12192 1718 0152     		.2byte	0x152
 12193 171a 00001580 		.4byte	0x1580
 12194 171e 02       		.byte	0x2
 12195 171f 23       		.byte	0x23
 12196 1720 06       		.uleb128 0x6
 12197 1721 00       		.byte	0x0
 12198 1722 09       		.uleb128 0x9
 12199 1723 00000820 		.4byte	.LASF247
 12200 1727 08       		.byte	0x8
 12201 1728 1E       		.byte	0x1e
 12202 1729 0156     		.2byte	0x156
 12203 172b 0000174A 		.4byte	0x174a
 12204 172f 0A       		.uleb128 0xa
 12205 1730 7800     		.string	"x"
 12206 1732 1E       		.byte	0x1e
 12207 1733 0157     		.2byte	0x157
 12208 1735 0000009D 		.4byte	0x9d
 12209 1739 02       		.byte	0x2
 12210 173a 23       		.byte	0x23
 12211 173b 00       		.uleb128 0x0
 12212 173c 0A       		.uleb128 0xa
 12213 173d 7900     		.string	"y"
 12214 173f 1E       		.byte	0x1e
 12215 1740 0157     		.2byte	0x157
 12216 1742 0000009D 		.4byte	0x9d
 12217 1746 02       		.byte	0x2
 12218 1747 23       		.byte	0x23
 12219 1748 04       		.uleb128 0x4
 12220 1749 00       		.byte	0x0
 12221 174a 0B       		.uleb128 0xb
 12222 174b 00000820 		.4byte	.LASF247
 12223 174f 1E       		.byte	0x1e
 12224 1750 0158     		.2byte	0x158
 12225 1752 00001722 		.4byte	0x1722
 12226 1756 09       		.uleb128 0x9
 12227 1757 000004C7 		.4byte	.LASF248
 12228 175b 3C       		.byte	0x3c
 12229 175c 1E       		.byte	0x1e
 12230 175d 015A     		.2byte	0x15a
 12231 175f 000017BE 		.4byte	0x17be
 12232 1763 1B       		.uleb128 0x1b
 12233 1764 000002FC 		.4byte	.LASF249
 12234 1768 1E       		.byte	0x1e
 12235 1769 015B     		.2byte	0x15b
 12236 176b 000017BE 		.4byte	0x17be
 12237 176f 02       		.byte	0x2
 12238 1770 23       		.byte	0x23
 12239 1771 00       		.uleb128 0x0
 12240 1772 1B       		.uleb128 0x1b
 12241 1773 000006CF 		.4byte	.LASF250
 12242 1777 1E       		.byte	0x1e
 12243 1778 015C     		.2byte	0x15c
 12244 177a 000017BE 		.4byte	0x17be
 12245 177e 02       		.byte	0x2
 12246 177f 23       		.byte	0x23
 12247 1780 10       		.uleb128 0x10
 12248 1781 1B       		.uleb128 0x1b
 12249 1782 00000334 		.4byte	.LASF251
 12250 1786 1E       		.byte	0x1e
 12251 1787 015D     		.2byte	0x15d
 12252 1789 000017BE 		.4byte	0x17be
 12253 178d 02       		.byte	0x2
 12254 178e 23       		.byte	0x23
 12255 178f 20       		.uleb128 0x20
 12256 1790 1B       		.uleb128 0x1b
 12257 1791 00000080 		.4byte	.LASF252
 12258 1795 1E       		.byte	0x1e
 12259 1796 015E     		.2byte	0x15e
 12260 1798 0000009D 		.4byte	0x9d
 12261 179c 02       		.byte	0x2
 12262 179d 23       		.byte	0x23
 12263 179e 30       		.uleb128 0x30
 12264 179f 1B       		.uleb128 0x1b
 12265 17a0 00000E7E 		.4byte	.LASF253
 12266 17a4 1E       		.byte	0x1e
 12267 17a5 015F     		.2byte	0x15f
 12268 17a7 0000009D 		.4byte	0x9d
 12269 17ab 02       		.byte	0x2
 12270 17ac 23       		.byte	0x23
 12271 17ad 34       		.uleb128 0x34
 12272 17ae 1B       		.uleb128 0x1b
 12273 17af 00000F51 		.4byte	.LASF254
 12274 17b3 1E       		.byte	0x1e
 12275 17b4 0160     		.2byte	0x160
 12276 17b6 0000009D 		.4byte	0x9d
 12277 17ba 02       		.byte	0x2
 12278 17bb 23       		.byte	0x23
 12279 17bc 38       		.uleb128 0x38
 12280 17bd 00       		.byte	0x0
 12281 17be 11       		.uleb128 0x11
 12282 17bf 0000174A 		.4byte	0x174a
 12283 17c3 000017CE 		.4byte	0x17ce
 12284 17c7 12       		.uleb128 0x12
 12285 17c8 000000C5 		.4byte	0xc5
 12286 17cc 01       		.byte	0x1
 12287 17cd 00       		.byte	0x0
 12288 17ce 0B       		.uleb128 0xb
 12289 17cf 000004C7 		.4byte	.LASF248
 12290 17d3 1E       		.byte	0x1e
 12291 17d4 0161     		.2byte	0x161
 12292 17d6 00001756 		.4byte	0x1756
 12293 17da 2B       		.uleb128 0x2b
 12294 17db 000005EE 		.4byte	.LASF256
 12295 17df 04       		.byte	0x4
 12296 17e0 1E       		.byte	0x1e
 12297 17e1 0167     		.2byte	0x167
 12298 17e3 000017F4 		.4byte	0x17f4
 12299 17e7 2A       		.uleb128 0x2a
 12300 17e8 0000110E 		.4byte	.LASF257
 12301 17ec 00       		.sleb128 0
 12302 17ed 2A       		.uleb128 0x2a
 12303 17ee 000002D2 		.4byte	.LASF258
 12304 17f2 01       		.sleb128 1
 12305 17f3 00       		.byte	0x0
 12306 17f4 09       		.uleb128 0x9
 12307 17f5 00000B01 		.4byte	.LASF259
 12308 17f9 B4       		.byte	0xb4
 12309 17fa 1E       		.byte	0x1e
 12310 17fb 0171     		.2byte	0x171
 12311 17fd 0000194D 		.4byte	0x194d
 12312 1801 0A       		.uleb128 0xa
 12313 1802 646F7400 		.string	"dot"
 12314 1806 1E       		.byte	0x1e
 12315 1807 0172     		.2byte	0x172
 12316 1809 0000194D 		.4byte	0x194d
 12317 180d 02       		.byte	0x2
 12318 180e 23       		.byte	0x23
 12319 180f 00       		.uleb128 0x0
 12320 1810 1B       		.uleb128 0x1b
 12321 1811 00001346 		.4byte	.LASF260
 12322 1815 1E       		.byte	0x1e
 12323 1816 0173     		.2byte	0x173
 12324 1818 00001580 		.4byte	0x1580
 12325 181c 02       		.byte	0x2
 12326 181d 23       		.byte	0x23
 12327 181e 20       		.uleb128 0x20
 12328 181f 1B       		.uleb128 0x1b
 12329 1820 00000C8C 		.4byte	.LASF261
 12330 1824 1E       		.byte	0x1e
 12331 1825 0175     		.2byte	0x175
 12332 1827 0000008F 		.4byte	0x8f
 12333 182b 02       		.byte	0x2
 12334 182c 23       		.byte	0x23
 12335 182d 24       		.uleb128 0x24
 12336 182e 1B       		.uleb128 0x1b
 12337 182f 0000133C 		.4byte	.LASF262
 12338 1833 1E       		.byte	0x1e
 12339 1834 0177     		.2byte	0x177
 12340 1836 0000008F 		.4byte	0x8f
 12341 183a 02       		.byte	0x2
 12342 183b 23       		.byte	0x23
 12343 183c 28       		.uleb128 0x28
 12344 183d 1B       		.uleb128 0x1b
 12345 183e 00000755 		.4byte	.LASF263
 12346 1842 1E       		.byte	0x1e
 12347 1843 0178     		.2byte	0x178
 12348 1845 000017CE 		.4byte	0x17ce
 12349 1849 02       		.byte	0x2
 12350 184a 23       		.byte	0x23
 12351 184b 2C       		.uleb128 0x2c
 12352 184c 0A       		.uleb128 0xa
 12353 184d 617800   		.string	"ax"
 12354 1850 1E       		.byte	0x1e
 12355 1851 0179     		.2byte	0x179
 12356 1853 0000009D 		.4byte	0x9d
 12357 1857 02       		.byte	0x2
 12358 1858 23       		.byte	0x23
 12359 1859 68       		.uleb128 0x68
 12360 185a 0A       		.uleb128 0xa
 12361 185b 617900   		.string	"ay"
 12362 185e 1E       		.byte	0x1e
 12363 185f 017A     		.2byte	0x17a
 12364 1861 0000009D 		.4byte	0x9d
 12365 1865 02       		.byte	0x2
 12366 1866 23       		.byte	0x23
 12367 1867 6C       		.uleb128 0x6c
 12368 1868 1B       		.uleb128 0x1b
 12369 1869 00001100 		.4byte	.LASF264
 12370 186d 1E       		.byte	0x1e
 12371 186e 017B     		.2byte	0x17b
 12372 1870 0000009D 		.4byte	0x9d
 12373 1874 02       		.byte	0x2
 12374 1875 23       		.byte	0x23
 12375 1876 70       		.uleb128 0x70
 12376 1877 0A       		.uleb128 0xa
 12377 1878 7A00     		.string	"z"
 12378 187a 1E       		.byte	0x1e
 12379 187b 017C     		.2byte	0x17c
 12380 187d 0000009D 		.4byte	0x9d
 12381 1881 02       		.byte	0x2
 12382 1882 23       		.byte	0x23
 12383 1883 74       		.uleb128 0x74
 12384 1884 1B       		.uleb128 0x1b
 12385 1885 00000080 		.4byte	.LASF252
 12386 1889 1E       		.byte	0x1e
 12387 188a 017D     		.2byte	0x17d
 12388 188c 0000009D 		.4byte	0x9d
 12389 1890 02       		.byte	0x2
 12390 1891 23       		.byte	0x23
 12391 1892 78       		.uleb128 0x78
 12392 1893 1B       		.uleb128 0x1b
 12393 1894 00000C6A 		.4byte	.LASF265
 12394 1898 1E       		.byte	0x1e
 12395 1899 017F     		.2byte	0x17f
 12396 189b 0000008F 		.4byte	0x8f
 12397 189f 02       		.byte	0x2
 12398 18a0 23       		.byte	0x23
 12399 18a1 7C       		.uleb128 0x7c
 12400 18a2 0A       		.uleb128 0xa
 12401 18a3 737800   		.string	"sx"
 12402 18a6 1E       		.byte	0x1e
 12403 18a7 0180     		.2byte	0x180
 12404 18a9 0000009D 		.4byte	0x9d
 12405 18ad 03       		.byte	0x3
 12406 18ae 23       		.byte	0x23
 12407 18af 8001     		.uleb128 0x80
 12408 18b1 0A       		.uleb128 0xa
 12409 18b2 737900   		.string	"sy"
 12410 18b5 1E       		.byte	0x1e
 12411 18b6 0181     		.2byte	0x181
 12412 18b8 0000009D 		.4byte	0x9d
 12413 18bc 03       		.byte	0x3
 12414 18bd 23       		.byte	0x23
 12415 18be 8401     		.uleb128 0x84
 12416 18c0 1B       		.uleb128 0x1b
 12417 18c1 00000021 		.4byte	.LASF266
 12418 18c5 1E       		.byte	0x1e
 12419 18c6 0182     		.2byte	0x182
 12420 18c8 0000009D 		.4byte	0x9d
 12421 18cc 03       		.byte	0x3
 12422 18cd 23       		.byte	0x23
 12423 18ce 8801     		.uleb128 0x88
 12424 18d0 1B       		.uleb128 0x1b
 12425 18d1 00001060 		.4byte	.LASF267
 12426 18d5 1E       		.byte	0x1e
 12427 18d6 0183     		.2byte	0x183
 12428 18d8 0000009D 		.4byte	0x9d
 12429 18dc 03       		.byte	0x3
 12430 18dd 23       		.byte	0x23
 12431 18de 8C01     		.uleb128 0x8c
 12432 18e0 1B       		.uleb128 0x1b
 12433 18e1 00000551 		.4byte	.LASF268
 12434 18e5 1E       		.byte	0x1e
 12435 18e6 0185     		.2byte	0x185
 12436 18e8 0000008F 		.4byte	0x8f
 12437 18ec 03       		.byte	0x3
 12438 18ed 23       		.byte	0x23
 12439 18ee 9001     		.uleb128 0x90
 12440 18f0 0A       		.uleb128 0xa
 12441 18f1 7800     		.string	"x"
 12442 18f3 1E       		.byte	0x1e
 12443 18f4 0186     		.2byte	0x186
 12444 18f6 0000009D 		.4byte	0x9d
 12445 18fa 03       		.byte	0x3
 12446 18fb 23       		.byte	0x23
 12447 18fc 9401     		.uleb128 0x94
 12448 18fe 0A       		.uleb128 0xa
 12449 18ff 7900     		.string	"y"
 12450 1901 1E       		.byte	0x1e
 12451 1902 0187     		.2byte	0x187
 12452 1904 0000009D 		.4byte	0x9d
 12453 1908 03       		.byte	0x3
 12454 1909 23       		.byte	0x23
 12455 190a 9801     		.uleb128 0x98
 12456 190c 1B       		.uleb128 0x1b
 12457 190d 000007E0 		.4byte	.LASF269
 12458 1911 1E       		.byte	0x1e
 12459 1912 0188     		.2byte	0x188
 12460 1914 000017DA 		.4byte	0x17da
 12461 1918 03       		.byte	0x3
 12462 1919 23       		.byte	0x23
 12463 191a 9C01     		.uleb128 0x9c
 12464 191c 0A       		.uleb128 0xa
 12465 191d 706F7300 		.string	"pos"
 12466 1921 1E       		.byte	0x1e
 12467 1922 0189     		.2byte	0x189
 12468 1924 00001567 		.4byte	0x1567
 12469 1928 03       		.byte	0x3
 12470 1929 23       		.byte	0x23
 12471 192a A001     		.uleb128 0xa0
 12472 192c 1B       		.uleb128 0x1b
 12473 192d 000006D8 		.4byte	.LASF270
 12474 1931 1E       		.byte	0x1e
 12475 1932 018A     		.2byte	0x18a
 12476 1934 0000195D 		.4byte	0x195d
 12477 1938 03       		.byte	0x3
 12478 1939 23       		.byte	0x23
 12479 193a A401     		.uleb128 0xa4
 12480 193c 1B       		.uleb128 0x1b
 12481 193d 000011AF 		.4byte	.LASF271
 12482 1941 1E       		.byte	0x1e
 12483 1942 018B     		.2byte	0x18b
 12484 1944 0000196D 		.4byte	0x196d
 12485 1948 03       		.byte	0x3
 12486 1949 23       		.byte	0x23
 12487 194a AC01     		.uleb128 0xac
 12488 194c 00       		.byte	0x0
 12489 194d 11       		.uleb128 0x11
 12490 194e 000016DA 		.4byte	0x16da
 12491 1952 0000195D 		.4byte	0x195d
 12492 1956 12       		.uleb128 0x12
 12493 1957 000000C5 		.4byte	0xc5
 12494 195b 03       		.byte	0x3
 12495 195c 00       		.byte	0x0
 12496 195d 11       		.uleb128 0x11
 12497 195e 00000053 		.4byte	0x53
 12498 1962 0000196D 		.4byte	0x196d
 12499 1966 12       		.uleb128 0x12
 12500 1967 000000C5 		.4byte	0xc5
 12501 196b 01       		.byte	0x1
 12502 196c 00       		.byte	0x0
 12503 196d 11       		.uleb128 0x11
 12504 196e 0000008F 		.4byte	0x8f
 12505 1972 0000197D 		.4byte	0x197d
 12506 1976 12       		.uleb128 0x12
 12507 1977 000000C5 		.4byte	0xc5
 12508 197b 01       		.byte	0x1
 12509 197c 00       		.byte	0x0
 12510 197d 09       		.uleb128 0x9
 12511 197e 00000062 		.4byte	.LASF272
 12512 1982 10       		.byte	0x10
 12513 1983 1E       		.byte	0x1e
 12514 1984 019F     		.2byte	0x19f
 12515 1986 000019E5 		.4byte	0x19e5
 12516 198a 0A       		.uleb128 0xa
 12517 198b 6D617800 		.string	"max"
 12518 198f 1E       		.byte	0x1e
 12519 1990 01A0     		.2byte	0x1a0
 12520 1992 00001596 		.4byte	0x1596
 12521 1996 02       		.byte	0x2
 12522 1997 23       		.byte	0x23
 12523 1998 00       		.uleb128 0x0
 12524 1999 0A       		.uleb128 0xa
 12525 199a 6D696E00 		.string	"min"
 12526 199e 1E       		.byte	0x1e
 12527 199f 01A1     		.2byte	0x1a1
 12528 19a1 00001596 		.4byte	0x1596
 12529 19a5 02       		.byte	0x2
 12530 19a6 23       		.byte	0x23
 12531 19a7 02       		.uleb128 0x2
 12532 19a8 1B       		.uleb128 0x1b
 12533 19a9 00001321 		.4byte	.LASF273
 12534 19ad 1E       		.byte	0x1e
 12535 19ae 01A2     		.2byte	0x1a2
 12536 19b0 00001596 		.4byte	0x1596
 12537 19b4 02       		.byte	0x2
 12538 19b5 23       		.byte	0x23
 12539 19b6 04       		.uleb128 0x4
 12540 19b7 0A       		.uleb128 0xa
 12541 19b8 706F7300 		.string	"pos"
 12542 19bc 1E       		.byte	0x1e
 12543 19bd 01A3     		.2byte	0x1a3
 12544 19bf 00001596 		.4byte	0x1596
 12545 19c3 02       		.byte	0x2
 12546 19c4 23       		.byte	0x23
 12547 19c5 06       		.uleb128 0x6
 12548 19c6 0A       		.uleb128 0xa
 12549 19c7 616E6700 		.string	"ang"
 12550 19cb 1E       		.byte	0x1e
 12551 19cc 01A5     		.2byte	0x1a5
 12552 19ce 0000009D 		.4byte	0x9d
 12553 19d2 02       		.byte	0x2
 12554 19d3 23       		.byte	0x23
 12555 19d4 08       		.uleb128 0x8
 12556 19d5 0A       		.uleb128 0xa
 12557 19d6 6D616700 		.string	"mag"
 12558 19da 1E       		.byte	0x1e
 12559 19db 01A6     		.2byte	0x1a6
 12560 19dd 0000009D 		.4byte	0x9d
 12561 19e1 02       		.byte	0x2
 12562 19e2 23       		.byte	0x23
 12563 19e3 0C       		.uleb128 0xc
 12564 19e4 00       		.byte	0x0
 12565 19e5 09       		.uleb128 0x9
 12566 19e6 00000B06 		.4byte	.LASF274
 12567 19ea 58       		.byte	0x58
 12568 19eb 1E       		.byte	0x1e
 12569 19ec 01AE     		.2byte	0x1ae
 12570 19ee 00001A88 		.4byte	0x1a88
 12571 19f2 1B       		.uleb128 0x1b
 12572 19f3 00000734 		.4byte	.LASF275
 12573 19f7 1E       		.byte	0x1e
 12574 19f8 01AF     		.2byte	0x1af
 12575 19fa 00001681 		.4byte	0x1681
 12576 19fe 02       		.byte	0x2
 12577 19ff 23       		.byte	0x23
 12578 1a00 00       		.uleb128 0x0
 12579 1a01 0A       		.uleb128 0xa
 12580 1a02 6A7300   		.string	"js"
 12581 1a05 1E       		.byte	0x1e
 12582 1a06 01B0     		.2byte	0x1b0
 12583 1a08 0000197D 		.4byte	0x197d
 12584 1a0c 02       		.byte	0x2
 12585 1a0d 23       		.byte	0x23
 12586 1a0e 18       		.uleb128 0x18
 12587 1a0f 1B       		.uleb128 0x1b
 12588 1a10 0000149A 		.4byte	.LASF276
 12589 1a14 1E       		.byte	0x1e
 12590 1a15 01B2     		.2byte	0x1b2
 12591 1a17 00001A88 		.4byte	0x1a88
 12592 1a1b 02       		.byte	0x2
 12593 1a1c 23       		.byte	0x23
 12594 1a1d 28       		.uleb128 0x28
 12595 1a1e 1B       		.uleb128 0x1b
 12596 1a1f 00000C87 		.4byte	.LASF277
 12597 1a23 1E       		.byte	0x1e
 12598 1a24 01B4     		.2byte	0x1b4
 12599 1a26 00001580 		.4byte	0x1580
 12600 1a2a 02       		.byte	0x2
 12601 1a2b 23       		.byte	0x23
 12602 1a2c 2C       		.uleb128 0x2c
 12603 1a2d 1B       		.uleb128 0x1b
 12604 1a2e 000010EE 		.4byte	.LASF278
 12605 1a32 1E       		.byte	0x1e
 12606 1a33 01B5     		.2byte	0x1b5
 12607 1a35 00001580 		.4byte	0x1580
 12608 1a39 02       		.byte	0x2
 12609 1a3a 23       		.byte	0x23
 12610 1a3b 2D       		.uleb128 0x2d
 12611 1a3c 1B       		.uleb128 0x1b
 12612 1a3d 000002C8 		.4byte	.LASF279
 12613 1a41 1E       		.byte	0x1e
 12614 1a42 01B6     		.2byte	0x1b6
 12615 1a44 00001580 		.4byte	0x1580
 12616 1a48 02       		.byte	0x2
 12617 1a49 23       		.byte	0x23
 12618 1a4a 2E       		.uleb128 0x2e
 12619 1a4b 1B       		.uleb128 0x1b
 12620 1a4c 00000397 		.4byte	.LASF280
 12621 1a50 1E       		.byte	0x1e
 12622 1a51 01B7     		.2byte	0x1b7
 12623 1a53 00001580 		.4byte	0x1580
 12624 1a57 02       		.byte	0x2
 12625 1a58 23       		.byte	0x23
 12626 1a59 2F       		.uleb128 0x2f
 12627 1a5a 1B       		.uleb128 0x1b
 12628 1a5b 000005AB 		.4byte	.LASF281
 12629 1a5f 1E       		.byte	0x1e
 12630 1a60 01B9     		.2byte	0x1b9
 12631 1a62 000015BE 		.4byte	0x15be
 12632 1a66 02       		.byte	0x2
 12633 1a67 23       		.byte	0x23
 12634 1a68 30       		.uleb128 0x30
 12635 1a69 1B       		.uleb128 0x1b
 12636 1a6a 0000118B 		.4byte	.LASF282
 12637 1a6e 1E       		.byte	0x1e
 12638 1a6f 01BA     		.2byte	0x1ba
 12639 1a71 000015F3 		.4byte	0x15f3
 12640 1a75 02       		.byte	0x2
 12641 1a76 23       		.byte	0x23
 12642 1a77 38       		.uleb128 0x38
 12643 1a78 1B       		.uleb128 0x1b
 12644 1a79 000011CF 		.4byte	.LASF283
 12645 1a7d 1E       		.byte	0x1e
 12646 1a7e 01BB     		.2byte	0x1bb
 12647 1a80 0000164C 		.4byte	0x164c
 12648 1a84 02       		.byte	0x2
 12649 1a85 23       		.byte	0x23
 12650 1a86 4C       		.uleb128 0x4c
 12651 1a87 00       		.byte	0x0
 12652 1a88 05       		.uleb128 0x5
 12653 1a89 04       		.byte	0x4
 12654 1a8a 0000008F 		.4byte	0x8f
 12655 1a8e 09       		.uleb128 0x9
 12656 1a8f 00000B30 		.4byte	.LASF284
 12657 1a93 34       		.byte	0x34
 12658 1a94 1E       		.byte	0x1e
 12659 1a95 01C3     		.2byte	0x1c3
 12660 1a97 00001B32 		.4byte	0x1b32
 12661 1a9b 1B       		.uleb128 0x1b
 12662 1a9c 00000C87 		.4byte	.LASF277
 12663 1aa0 1E       		.byte	0x1e
 12664 1aa1 01C4     		.2byte	0x1c4
 12665 1aa3 0000007D 		.4byte	0x7d
 12666 1aa7 02       		.byte	0x2
 12667 1aa8 23       		.byte	0x23
 12668 1aa9 00       		.uleb128 0x0
 12669 1aaa 1B       		.uleb128 0x1b
 12670 1aab 000010EE 		.4byte	.LASF278
 12671 1aaf 1E       		.byte	0x1e
 12672 1ab0 01C5     		.2byte	0x1c5
 12673 1ab2 0000007D 		.4byte	0x7d
 12674 1ab6 02       		.byte	0x2
 12675 1ab7 23       		.byte	0x23
 12676 1ab8 02       		.uleb128 0x2
 12677 1ab9 1B       		.uleb128 0x1b
 12678 1aba 000002C8 		.4byte	.LASF279
 12679 1abe 1E       		.byte	0x1e
 12680 1abf 01C6     		.2byte	0x1c6
 12681 1ac1 0000007D 		.4byte	0x7d
 12682 1ac5 02       		.byte	0x2
 12683 1ac6 23       		.byte	0x23
 12684 1ac7 04       		.uleb128 0x4
 12685 1ac8 1B       		.uleb128 0x1b
 12686 1ac9 00000397 		.4byte	.LASF280
 12687 1acd 1E       		.byte	0x1e
 12688 1ace 01C7     		.2byte	0x1c7
 12689 1ad0 0000007D 		.4byte	0x7d
 12690 1ad4 02       		.byte	0x2
 12691 1ad5 23       		.byte	0x23
 12692 1ad6 06       		.uleb128 0x6
 12693 1ad7 1B       		.uleb128 0x1b
 12694 1ad8 0000108F 		.4byte	.LASF285
 12695 1adc 1E       		.byte	0x1e
 12696 1add 01C9     		.2byte	0x1c9
 12697 1adf 00001580 		.4byte	0x1580
 12698 1ae3 02       		.byte	0x2
 12699 1ae4 23       		.byte	0x23
 12700 1ae5 08       		.uleb128 0x8
 12701 1ae6 1B       		.uleb128 0x1b
 12702 1ae7 00001461 		.4byte	.LASF286
 12703 1aeb 1E       		.byte	0x1e
 12704 1aec 01CA     		.2byte	0x1ca
 12705 1aee 00001580 		.4byte	0x1580
 12706 1af2 02       		.byte	0x2
 12707 1af3 23       		.byte	0x23
 12708 1af4 09       		.uleb128 0x9
 12709 1af5 1B       		.uleb128 0x1b
 12710 1af6 00000574 		.4byte	.LASF287
 12711 1afa 1E       		.byte	0x1e
 12712 1afb 01CC     		.2byte	0x1cc
 12713 1afd 0000009D 		.4byte	0x9d
 12714 1b01 02       		.byte	0x2
 12715 1b02 23       		.byte	0x23
 12716 1b03 0C       		.uleb128 0xc
 12717 1b04 1B       		.uleb128 0x1b
 12718 1b05 0000030C 		.4byte	.LASF288
 12719 1b09 1E       		.byte	0x1e
 12720 1b0a 01CD     		.2byte	0x1cd
 12721 1b0c 0000009D 		.4byte	0x9d
 12722 1b10 02       		.byte	0x2
 12723 1b11 23       		.byte	0x23
 12724 1b12 10       		.uleb128 0x10
 12725 1b13 0A       		.uleb128 0xa
 12726 1b14 6C6A7300 		.string	"ljs"
 12727 1b18 1E       		.byte	0x1e
 12728 1b19 01CF     		.2byte	0x1cf
 12729 1b1b 0000197D 		.4byte	0x197d
 12730 1b1f 02       		.byte	0x2
 12731 1b20 23       		.byte	0x23
 12732 1b21 14       		.uleb128 0x14
 12733 1b22 0A       		.uleb128 0xa
 12734 1b23 726A7300 		.string	"rjs"
 12735 1b27 1E       		.byte	0x1e
 12736 1b28 01D0     		.2byte	0x1d0
 12737 1b2a 0000197D 		.4byte	0x197d
 12738 1b2e 02       		.byte	0x2
 12739 1b2f 23       		.byte	0x23
 12740 1b30 24       		.uleb128 0x24
 12741 1b31 00       		.byte	0x0
 12742 1b32 09       		.uleb128 0x9
 12743 1b33 00001483 		.4byte	.LASF289
 12744 1b37 20       		.byte	0x20
 12745 1b38 1E       		.byte	0x1e
 12746 1b39 01D8     		.2byte	0x1d8
 12747 1b3b 00001BA8 		.4byte	0x1ba8
 12748 1b3f 1B       		.uleb128 0x1b
 12749 1b40 00000C87 		.4byte	.LASF277
 12750 1b44 1E       		.byte	0x1e
 12751 1b45 01D9     		.2byte	0x1d9
 12752 1b47 0000007D 		.4byte	0x7d
 12753 1b4b 02       		.byte	0x2
 12754 1b4c 23       		.byte	0x23
 12755 1b4d 00       		.uleb128 0x0
 12756 1b4e 1B       		.uleb128 0x1b
 12757 1b4f 000010EE 		.4byte	.LASF278
 12758 1b53 1E       		.byte	0x1e
 12759 1b54 01DA     		.2byte	0x1da
 12760 1b56 0000007D 		.4byte	0x7d
 12761 1b5a 02       		.byte	0x2
 12762 1b5b 23       		.byte	0x23
 12763 1b5c 02       		.uleb128 0x2
 12764 1b5d 1B       		.uleb128 0x1b
 12765 1b5e 000002C8 		.4byte	.LASF279
 12766 1b62 1E       		.byte	0x1e
 12767 1b63 01DB     		.2byte	0x1db
 12768 1b65 0000007D 		.4byte	0x7d
 12769 1b69 02       		.byte	0x2
 12770 1b6a 23       		.byte	0x23
 12771 1b6b 04       		.uleb128 0x4
 12772 1b6c 1B       		.uleb128 0x1b
 12773 1b6d 00000397 		.4byte	.LASF280
 12774 1b71 1E       		.byte	0x1e
 12775 1b72 01DC     		.2byte	0x1dc
 12776 1b74 0000007D 		.4byte	0x7d
 12777 1b78 02       		.byte	0x2
 12778 1b79 23       		.byte	0x23
 12779 1b7a 06       		.uleb128 0x6
 12780 1b7b 1B       		.uleb128 0x1b
 12781 1b7c 0000112F 		.4byte	.LASF290
 12782 1b80 1E       		.byte	0x1e
 12783 1b81 01DE     		.2byte	0x1de
 12784 1b83 00001580 		.4byte	0x1580
 12785 1b87 02       		.byte	0x2
 12786 1b88 23       		.byte	0x23
 12787 1b89 08       		.uleb128 0x8
 12788 1b8a 1B       		.uleb128 0x1b
 12789 1b8b 0000061E 		.4byte	.LASF291
 12790 1b8f 1E       		.byte	0x1e
 12791 1b90 01DF     		.2byte	0x1df
 12792 1b92 0000009D 		.4byte	0x9d
 12793 1b96 02       		.byte	0x2
 12794 1b97 23       		.byte	0x23
 12795 1b98 0C       		.uleb128 0xc
 12796 1b99 0A       		.uleb128 0xa
 12797 1b9a 6A7300   		.string	"js"
 12798 1b9d 1E       		.byte	0x1e
 12799 1b9e 01E1     		.2byte	0x1e1
 12800 1ba0 0000197D 		.4byte	0x197d
 12801 1ba4 02       		.byte	0x2
 12802 1ba5 23       		.byte	0x23
 12803 1ba6 10       		.uleb128 0x10
 12804 1ba7 00       		.byte	0x0
 12805 1ba8 09       		.uleb128 0x9
 12806 1ba9 00000EB2 		.4byte	.LASF292
 12807 1bad 38       		.byte	0x38
 12808 1bae 1E       		.byte	0x1e
 12809 1baf 01E8     		.2byte	0x1e8
 12810 1bb1 00001C80 		.4byte	0x1c80
 12811 1bb5 0A       		.uleb128 0xa
 12812 1bb6 746C00   		.string	"tl"
 12813 1bb9 1E       		.byte	0x1e
 12814 1bba 01E9     		.2byte	0x1e9
 12815 1bbc 0000009D 		.4byte	0x9d
 12816 1bc0 02       		.byte	0x2
 12817 1bc1 23       		.byte	0x23
 12818 1bc2 00       		.uleb128 0x0
 12819 1bc3 0A       		.uleb128 0xa
 12820 1bc4 747200   		.string	"tr"
 12821 1bc7 1E       		.byte	0x1e
 12822 1bc8 01EA     		.2byte	0x1ea
 12823 1bca 0000009D 		.4byte	0x9d
 12824 1bce 02       		.byte	0x2
 12825 1bcf 23       		.byte	0x23
 12826 1bd0 04       		.uleb128 0x4
 12827 1bd1 0A       		.uleb128 0xa
 12828 1bd2 626C00   		.string	"bl"
 12829 1bd5 1E       		.byte	0x1e
 12830 1bd6 01EB     		.2byte	0x1eb
 12831 1bd8 0000009D 		.4byte	0x9d
 12832 1bdc 02       		.byte	0x2
 12833 1bdd 23       		.byte	0x23
 12834 1bde 08       		.uleb128 0x8
 12835 1bdf 0A       		.uleb128 0xa
 12836 1be0 627200   		.string	"br"
 12837 1be3 1E       		.byte	0x1e
 12838 1be4 01EC     		.2byte	0x1ec
 12839 1be6 0000009D 		.4byte	0x9d
 12840 1bea 02       		.byte	0x2
 12841 1beb 23       		.byte	0x23
 12842 1bec 0C       		.uleb128 0xc
 12843 1bed 0A       		.uleb128 0xa
 12844 1bee 72746C00 		.string	"rtl"
 12845 1bf2 1E       		.byte	0x1e
 12846 1bf3 01ED     		.2byte	0x1ed
 12847 1bf5 0000007D 		.4byte	0x7d
 12848 1bf9 02       		.byte	0x2
 12849 1bfa 23       		.byte	0x23
 12850 1bfb 10       		.uleb128 0x10
 12851 1bfc 0A       		.uleb128 0xa
 12852 1bfd 72747200 		.string	"rtr"
 12853 1c01 1E       		.byte	0x1e
 12854 1c02 01EE     		.2byte	0x1ee
 12855 1c04 0000007D 		.4byte	0x7d
 12856 1c08 02       		.byte	0x2
 12857 1c09 23       		.byte	0x23
 12858 1c0a 12       		.uleb128 0x12
 12859 1c0b 0A       		.uleb128 0xa
 12860 1c0c 72626C00 		.string	"rbl"
 12861 1c10 1E       		.byte	0x1e
 12862 1c11 01EF     		.2byte	0x1ef
 12863 1c13 0000007D 		.4byte	0x7d
 12864 1c17 02       		.byte	0x2
 12865 1c18 23       		.byte	0x23
 12866 1c19 14       		.uleb128 0x14
 12867 1c1a 0A       		.uleb128 0xa
 12868 1c1b 72627200 		.string	"rbr"
 12869 1c1f 1E       		.byte	0x1e
 12870 1c20 01F0     		.2byte	0x1f0
 12871 1c22 0000007D 		.4byte	0x7d
 12872 1c26 02       		.byte	0x2
 12873 1c27 23       		.byte	0x23
 12874 1c28 16       		.uleb128 0x16
 12875 1c29 0A       		.uleb128 0xa
 12876 1c2a 63746C00 		.string	"ctl"
 12877 1c2e 1E       		.byte	0x1e
 12878 1c2f 01F1     		.2byte	0x1f1
 12879 1c31 00001C80 		.4byte	0x1c80
 12880 1c35 02       		.byte	0x2
 12881 1c36 23       		.byte	0x23
 12882 1c37 18       		.uleb128 0x18
 12883 1c38 0A       		.uleb128 0xa
 12884 1c39 63747200 		.string	"ctr"
 12885 1c3d 1E       		.byte	0x1e
 12886 1c3e 01F2     		.2byte	0x1f2
 12887 1c40 00001C80 		.4byte	0x1c80
 12888 1c44 02       		.byte	0x2
 12889 1c45 23       		.byte	0x23
 12890 1c46 1E       		.uleb128 0x1e
 12891 1c47 0A       		.uleb128 0xa
 12892 1c48 63626C00 		.string	"cbl"
 12893 1c4c 1E       		.byte	0x1e
 12894 1c4d 01F3     		.2byte	0x1f3
 12895 1c4f 00001C80 		.4byte	0x1c80
 12896 1c53 02       		.byte	0x2
 12897 1c54 23       		.byte	0x23
 12898 1c55 24       		.uleb128 0x24
 12899 1c56 0A       		.uleb128 0xa
 12900 1c57 63627200 		.string	"cbr"
 12901 1c5b 1E       		.byte	0x1e
 12902 1c5c 01F4     		.2byte	0x1f4
 12903 1c5e 00001C80 		.4byte	0x1c80
 12904 1c62 02       		.byte	0x2
 12905 1c63 23       		.byte	0x23
 12906 1c64 2A       		.uleb128 0x2a
 12907 1c65 0A       		.uleb128 0xa
 12908 1c66 7800     		.string	"x"
 12909 1c68 1E       		.byte	0x1e
 12910 1c69 01F5     		.2byte	0x1f5
 12911 1c6b 0000009D 		.4byte	0x9d
 12912 1c6f 02       		.byte	0x2
 12913 1c70 23       		.byte	0x23
 12914 1c71 30       		.uleb128 0x30
 12915 1c72 0A       		.uleb128 0xa
 12916 1c73 7900     		.string	"y"
 12917 1c75 1E       		.byte	0x1e
 12918 1c76 01F6     		.2byte	0x1f6
 12919 1c78 0000009D 		.4byte	0x9d
 12920 1c7c 02       		.byte	0x2
 12921 1c7d 23       		.byte	0x23
 12922 1c7e 34       		.uleb128 0x34
 12923 1c7f 00       		.byte	0x0
 12924 1c80 11       		.uleb128 0x11
 12925 1c81 0000007D 		.4byte	0x7d
 12926 1c85 00001C90 		.4byte	0x1c90
 12927 1c89 12       		.uleb128 0x12
 12928 1c8a 000000C5 		.4byte	0xc5
 12929 1c8e 02       		.byte	0x2
 12930 1c8f 00       		.byte	0x0
 12931 1c90 09       		.uleb128 0x9
 12932 1c91 000005D7 		.4byte	.LASF293
 12933 1c95 5C       		.byte	0x5c
 12934 1c96 1E       		.byte	0x1e
 12935 1c97 01FD     		.2byte	0x1fd
 12936 1c99 00001CF2 		.4byte	0x1cf2
 12937 1c9d 2C       		.uleb128 0x2c
 12938 1c9e 00000B7E 		.4byte	.LASF294
 12939 1ca2 58       		.byte	0x58
 12940 1ca3 1E       		.byte	0x1e
 12941 1ca4 0200     		.2byte	0x200
 12942 1ca6 00001CDA 		.4byte	0x1cda
 12943 1caa 1C       		.uleb128 0x1c
 12944 1cab 000003D8 		.4byte	.LASF295
 12945 1caf 1E       		.byte	0x1e
 12946 1cb0 0201     		.2byte	0x201
 12947 1cb2 000019E5 		.4byte	0x19e5
 12948 1cb6 1C       		.uleb128 0x1c
 12949 1cb7 000010DE 		.4byte	.LASF296
 12950 1cbb 1E       		.byte	0x1e
 12951 1cbc 0202     		.2byte	0x202
 12952 1cbe 00001A8E 		.4byte	0x1a8e
 12953 1cc2 2D       		.uleb128 0x2d
 12954 1cc3 67683300 		.string	"gh3"
 12955 1cc7 1E       		.byte	0x1e
 12956 1cc8 0203     		.2byte	0x203
 12957 1cca 00001B32 		.4byte	0x1b32
 12958 1cce 2D       		.uleb128 0x2d
 12959 1ccf 776200   		.string	"wb"
 12960 1cd2 1E       		.byte	0x1e
 12961 1cd3 0204     		.2byte	0x204
 12962 1cd5 00001BA8 		.4byte	0x1ba8
 12963 1cd9 00       		.byte	0x0
 12964 1cda 1B       		.uleb128 0x1b
 12965 1cdb 00000476 		.4byte	.LASF297
 12966 1cdf 1E       		.byte	0x1e
 12967 1ce0 01FE     		.2byte	0x1fe
 12968 1ce2 0000008F 		.4byte	0x8f
 12969 1ce6 02       		.byte	0x2
 12970 1ce7 23       		.byte	0x23
 12971 1ce8 00       		.uleb128 0x0
 12972 1ce9 2E       		.uleb128 0x2e
 12973 1cea 00001C9D 		.4byte	0x1c9d
 12974 1cee 02       		.byte	0x2
 12975 1cef 23       		.byte	0x23
 12976 1cf0 04       		.uleb128 0x4
 12977 1cf1 00       		.byte	0x0
 12978 1cf2 1D       		.uleb128 0x1d
 12979 1cf3 0000008F 		.4byte	0x8f
 12980 1cf7 15       		.uleb128 0x15
 12981 1cf8 00000827 		.4byte	.LASF298
 12982 1cfc 0154     		.2byte	0x154
 12983 1cfe 1F       		.byte	0x1f
 12984 1cff 8F       		.byte	0x8f
 12985 1d00 00001DB0 		.4byte	0x1db0
 12986 1d04 14       		.uleb128 0x14
 12987 1d05 65727200 		.string	"err"
 12988 1d09 1F       		.byte	0x1f
 12989 1d0a 90       		.byte	0x90
 12990 1d0b 00000072 		.4byte	0x72
 12991 1d0f 02       		.byte	0x2
 12992 1d10 23       		.byte	0x23
 12993 1d11 00       		.uleb128 0x0
 12994 1d12 10       		.uleb128 0x10
 12995 1d13 00000BB8 		.4byte	.LASF299
 12996 1d17 1F       		.byte	0x1f
 12997 1d18 92       		.byte	0x92
 12998 1d19 00000048 		.4byte	0x48
 12999 1d1d 02       		.byte	0x2
 13000 1d1e 23       		.byte	0x23
 13001 1d1f 04       		.uleb128 0x4
 13002 1d20 10       		.uleb128 0x10
 13003 1d21 00000A49 		.4byte	.LASF300
 13004 1d25 1F       		.byte	0x1f
 13005 1d26 93       		.byte	0x93
 13006 1d27 00000025 		.4byte	0x25
 13007 1d2b 02       		.byte	0x2
 13008 1d2c 23       		.byte	0x23
 13009 1d2d 08       		.uleb128 0x8
 13010 1d2e 10       		.uleb128 0x10
 13011 1d2f 0000093A 		.4byte	.LASF301
 13012 1d33 1F       		.byte	0x1f
 13013 1d34 95       		.byte	0x95
 13014 1d35 00000048 		.4byte	0x48
 13015 1d39 02       		.byte	0x2
 13016 1d3a 23       		.byte	0x23
 13017 1d3b 0C       		.uleb128 0xc
 13018 1d3c 10       		.uleb128 0x10
 13019 1d3d 00000941 		.4byte	.LASF302
 13020 1d41 1F       		.byte	0x1f
 13021 1d42 96       		.byte	0x96
 13022 1d43 00000048 		.4byte	0x48
 13023 1d47 02       		.byte	0x2
 13024 1d48 23       		.byte	0x23
 13025 1d49 10       		.uleb128 0x10
 13026 1d4a 10       		.uleb128 0x10
 13027 1d4b 00000933 		.4byte	.LASF303
 13028 1d4f 1F       		.byte	0x1f
 13029 1d50 97       		.byte	0x97
 13030 1d51 00000048 		.4byte	0x48
 13031 1d55 02       		.byte	0x2
 13032 1d56 23       		.byte	0x23
 13033 1d57 14       		.uleb128 0x14
 13034 1d58 10       		.uleb128 0x10
 13035 1d59 00000948 		.4byte	.LASF304
 13036 1d5d 1F       		.byte	0x1f
 13037 1d5e 98       		.byte	0x98
 13038 1d5f 00000048 		.4byte	0x48
 13039 1d63 02       		.byte	0x2
 13040 1d64 23       		.byte	0x23
 13041 1d65 18       		.uleb128 0x18
 13042 1d66 14       		.uleb128 0x14
 13043 1d67 697200   		.string	"ir"
 13044 1d6a 1F       		.byte	0x1f
 13045 1d6b 9A       		.byte	0x9a
 13046 1d6c 000017F4 		.4byte	0x17f4
 13047 1d70 02       		.byte	0x2
 13048 1d71 23       		.byte	0x23
 13049 1d72 1C       		.uleb128 0x1c
 13050 1d73 10       		.uleb128 0x10
 13051 1d74 000005AB 		.4byte	.LASF281
 13052 1d78 1F       		.byte	0x1f
 13053 1d79 9B       		.byte	0x9b
 13054 1d7a 000015BE 		.4byte	0x15be
 13055 1d7e 03       		.byte	0x3
 13056 1d7f 23       		.byte	0x23
 13057 1d80 D001     		.uleb128 0xd0
 13058 1d82 10       		.uleb128 0x10
 13059 1d83 0000118B 		.4byte	.LASF282
 13060 1d87 1F       		.byte	0x1f
 13061 1d88 9C       		.byte	0x9c
 13062 1d89 000015F3 		.4byte	0x15f3
 13063 1d8d 03       		.byte	0x3
 13064 1d8e 23       		.byte	0x23
 13065 1d8f D801     		.uleb128 0xd8
 13066 1d91 10       		.uleb128 0x10
 13067 1d92 000011CF 		.4byte	.LASF283
 13068 1d96 1F       		.byte	0x1f
 13069 1d97 9D       		.byte	0x9d
 13070 1d98 0000164C 		.4byte	0x164c
 13071 1d9c 03       		.byte	0x3
 13072 1d9d 23       		.byte	0x23
 13073 1d9e EC01     		.uleb128 0xec
 13074 1da0 14       		.uleb128 0x14
 13075 1da1 65787000 		.string	"exp"
 13076 1da5 1F       		.byte	0x1f
 13077 1da6 9E       		.byte	0x9e
 13078 1da7 00001C90 		.4byte	0x1c90
 13079 1dab 03       		.byte	0x3
 13080 1dac 23       		.byte	0x23
 13081 1dad F801     		.uleb128 0xf8
 13082 1daf 00       		.byte	0x0
 13083 1db0 0C       		.uleb128 0xc
 13084 1db1 00000D3A 		.4byte	.LASF305
 13085 1db5 1F       		.byte	0x1f
 13086 1db6 9F       		.byte	0x9f
 13087 1db7 00001CF7 		.4byte	0x1cf7
 13088 1dbb 29       		.uleb128 0x29
 13089 1dbc 00000BF6 		.4byte	.LASF306
 13090 1dc0 04       		.byte	0x4
 13091 1dc1 20       		.byte	0x20
 13092 1dc2 44       		.byte	0x44
 13093 1dc3 00001DE6 		.4byte	0x1de6
 13094 1dc7 2A       		.uleb128 0x2a
 13095 1dc8 00001209 		.4byte	.LASF307
 13096 1dcc 00       		.sleb128 0
 13097 1dcd 2A       		.uleb128 0x2a
 13098 1dce 00000797 		.4byte	.LASF308
 13099 1dd2 01       		.sleb128 1
 13100 1dd3 2A       		.uleb128 0x2a
 13101 1dd4 00000F35 		.4byte	.LASF309
 13102 1dd8 02       		.sleb128 2
 13103 1dd9 2A       		.uleb128 0x2a
 13104 1dda 000006A1 		.4byte	.LASF310
 13105 1dde 03       		.sleb128 3
 13106 1ddf 2A       		.uleb128 0x2a
 13107 1de0 00000609 		.4byte	.LASF311
 13108 1de4 04       		.sleb128 4
 13109 1de5 00       		.byte	0x0
 13110 1de6 13       		.uleb128 0x13
 13111 1de7 00000637 		.4byte	.LASF312
 13112 1deb 0C       		.byte	0xc
 13113 1dec 20       		.byte	0x20
 13114 1ded 62       		.byte	0x62
 13115 1dee 00001E71 		.4byte	0x1e71
 13116 1df2 10       		.uleb128 0x10
 13117 1df3 00000933 		.4byte	.LASF303
 13118 1df7 20       		.byte	0x20
 13119 1df8 63       		.byte	0x63
 13120 1df9 00000036 		.4byte	0x36
 13121 1dfd 02       		.byte	0x2
 13122 1dfe 23       		.byte	0x23
 13123 1dff 00       		.uleb128 0x0
 13124 1e00 10       		.uleb128 0x10
 13125 1e01 00000948 		.4byte	.LASF304
 13126 1e05 20       		.byte	0x20
 13127 1e06 64       		.byte	0x64
 13128 1e07 00000036 		.4byte	0x36
 13129 1e0b 02       		.byte	0x2
 13130 1e0c 23       		.byte	0x23
 13131 1e0d 02       		.uleb128 0x2
 13132 1e0e 10       		.uleb128 0x10
 13133 1e0f 0000093A 		.4byte	.LASF301
 13134 1e13 20       		.byte	0x20
 13135 1e14 65       		.byte	0x65
 13136 1e15 00000036 		.4byte	0x36
 13137 1e19 02       		.byte	0x2
 13138 1e1a 23       		.byte	0x23
 13139 1e1b 04       		.uleb128 0x4
 13140 1e1c 10       		.uleb128 0x10
 13141 1e1d 00000D0B 		.4byte	.LASF313
 13142 1e21 20       		.byte	0x20
 13143 1e22 66       		.byte	0x66
 13144 1e23 00000061 		.4byte	0x61
 13145 1e27 02       		.byte	0x2
 13146 1e28 23       		.byte	0x23
 13147 1e29 06       		.uleb128 0x6
 13148 1e2a 10       		.uleb128 0x10
 13149 1e2b 00000D12 		.4byte	.LASF314
 13150 1e2f 20       		.byte	0x20
 13151 1e30 67       		.byte	0x67
 13152 1e31 00000061 		.4byte	0x61
 13153 1e35 02       		.byte	0x2
 13154 1e36 23       		.byte	0x23
 13155 1e37 07       		.uleb128 0x7
 13156 1e38 10       		.uleb128 0x10
 13157 1e39 00000A9F 		.4byte	.LASF315
 13158 1e3d 20       		.byte	0x20
 13159 1e3e 68       		.byte	0x68
 13160 1e3f 00000061 		.4byte	0x61
 13161 1e43 02       		.byte	0x2
 13162 1e44 23       		.byte	0x23
 13163 1e45 08       		.uleb128 0x8
 13164 1e46 10       		.uleb128 0x10
 13165 1e47 00000AA9 		.4byte	.LASF316
 13166 1e4b 20       		.byte	0x20
 13167 1e4c 69       		.byte	0x69
 13168 1e4d 00000061 		.4byte	0x61
 13169 1e51 02       		.byte	0x2
 13170 1e52 23       		.byte	0x23
 13171 1e53 09       		.uleb128 0x9
 13172 1e54 10       		.uleb128 0x10
 13173 1e55 00001437 		.4byte	.LASF317
 13174 1e59 20       		.byte	0x20
 13175 1e5a 6A       		.byte	0x6a
 13176 1e5b 00000025 		.4byte	0x25
 13177 1e5f 02       		.byte	0x2
 13178 1e60 23       		.byte	0x23
 13179 1e61 0A       		.uleb128 0xa
 13180 1e62 10       		.uleb128 0x10
 13181 1e63 00001440 		.4byte	.LASF318
 13182 1e67 20       		.byte	0x20
 13183 1e68 6B       		.byte	0x6b
 13184 1e69 00000025 		.4byte	0x25
 13185 1e6d 02       		.byte	0x2
 13186 1e6e 23       		.byte	0x23
 13187 1e6f 0B       		.uleb128 0xb
 13188 1e70 00       		.byte	0x0
 13189 1e71 0C       		.uleb128 0xc
 13190 1e72 000010A9 		.4byte	.LASF319
 13191 1e76 20       		.byte	0x20
 13192 1e77 6C       		.byte	0x6c
 13193 1e78 00001DE6 		.4byte	0x1de6
 13194 1e7c 13       		.uleb128 0x13
 13195 1e7d 00000AE2 		.4byte	.LASF320
 13196 1e81 18       		.byte	0x18
 13197 1e82 20       		.byte	0x20
 13198 1e83 7A       		.byte	0x7a
 13199 1e84 00001FFA 		.4byte	0x1ffa
 13200 1e88 2F       		.uleb128 0x2f
 13201 1e89 000014A0 		.4byte	.LASF321
 13202 1e8d 20       		.byte	0x20
 13203 1e8e 96       		.byte	0x96
 13204 1e8f 00001FFA 		.4byte	0x1ffa
 13205 1e93 02       		.byte	0x2
 13206 1e94 23       		.byte	0x23
 13207 1e95 00       		.uleb128 0x0
 13208 1e96 02       		.byte	0x2
 13209 1e97 2F       		.uleb128 0x2f
 13210 1e98 00000476 		.4byte	.LASF297
 13211 1e9c 20       		.byte	0x20
 13212 1e9d 97       		.byte	0x97
 13213 1e9e 0000008F 		.4byte	0x8f
 13214 1ea2 02       		.byte	0x2
 13215 1ea3 23       		.byte	0x23
 13216 1ea4 04       		.uleb128 0x4
 13217 1ea5 02       		.byte	0x2
 13218 1ea6 2F       		.uleb128 0x2f
 13219 1ea7 0000018E 		.4byte	.LASF322
 13220 1eab 20       		.byte	0x20
 13221 1eac 98       		.byte	0x98
 13222 1ead 00000084 		.4byte	0x84
 13223 1eb1 02       		.byte	0x2
 13224 1eb2 23       		.byte	0x23
 13225 1eb3 08       		.uleb128 0x8
 13226 1eb4 02       		.byte	0x2
 13227 1eb5 2F       		.uleb128 0x2f
 13228 1eb6 00000D19 		.4byte	.LASF323
 13229 1eba 20       		.byte	0x20
 13230 1ebb 99       		.byte	0x99
 13231 1ebc 00000084 		.4byte	0x84
 13232 1ec0 02       		.byte	0x2
 13233 1ec1 23       		.byte	0x23
 13234 1ec2 0C       		.uleb128 0xc
 13235 1ec3 02       		.byte	0x2
 13236 1ec4 2F       		.uleb128 0x2f
 13237 1ec5 00000DFC 		.4byte	.LASF324
 13238 1ec9 20       		.byte	0x20
 13239 1eca 9A       		.byte	0x9a
 13240 1ecb 00000084 		.4byte	0x84
 13241 1ecf 02       		.byte	0x2
 13242 1ed0 23       		.byte	0x23
 13243 1ed1 10       		.uleb128 0x10
 13244 1ed2 02       		.byte	0x2
 13245 1ed3 2F       		.uleb128 0x2f
 13246 1ed4 0000134F 		.4byte	.LASF325
 13247 1ed8 20       		.byte	0x20
 13248 1ed9 9B       		.byte	0x9b
 13249 1eda 000000C8 		.4byte	0xc8
 13250 1ede 02       		.byte	0x2
 13251 1edf 23       		.byte	0x23
 13252 1ee0 14       		.uleb128 0x14
 13253 1ee1 02       		.byte	0x2
 13254 1ee2 25       		.uleb128 0x25
 13255 1ee3 01       		.byte	0x1
 13256 1ee4 00000AE2 		.4byte	.LASF320
 13257 1ee8 20       		.byte	0x20
 13258 1ee9 80       		.byte	0x80
 13259 1eea 01       		.byte	0x1
 13260 1eeb 00001F05 		.4byte	0x1f05
 13261 1eef 30       		.uleb128 0x30
 13262 1ef0 00002005 		.4byte	0x2005
 13263 1ef4 01       		.byte	0x1
 13264 1ef5 17       		.uleb128 0x17
 13265 1ef6 00001FFA 		.4byte	0x1ffa
 13266 1efa 17       		.uleb128 0x17
 13267 1efb 0000008F 		.4byte	0x8f
 13268 1eff 17       		.uleb128 0x17
 13269 1f00 0000008F 		.4byte	0x8f
 13270 1f04 00       		.byte	0x0
 13271 1f05 25       		.uleb128 0x25
 13272 1f06 01       		.byte	0x1
 13273 1f07 00000AE2 		.4byte	.LASF320
 13274 1f0b 20       		.byte	0x20
 13275 1f0c 81       		.byte	0x81
 13276 1f0d 01       		.byte	0x1
 13277 1f0e 00001F2D 		.4byte	0x1f2d
 13278 1f12 30       		.uleb128 0x30
 13279 1f13 00002005 		.4byte	0x2005
 13280 1f17 01       		.byte	0x1
 13281 1f18 17       		.uleb128 0x17
 13282 1f19 00001FFA 		.4byte	0x1ffa
 13283 1f1d 17       		.uleb128 0x17
 13284 1f1e 0000008F 		.4byte	0x8f
 13285 1f22 17       		.uleb128 0x17
 13286 1f23 0000008F 		.4byte	0x8f
 13287 1f27 17       		.uleb128 0x17
 13288 1f28 0000008F 		.4byte	0x8f
 13289 1f2c 00       		.byte	0x0
 13290 1f2d 25       		.uleb128 0x25
 13291 1f2e 01       		.byte	0x1
 13292 1f2f 00000BAE 		.4byte	.LASF326
 13293 1f33 20       		.byte	0x20
 13294 1f34 83       		.byte	0x83
 13295 1f35 01       		.byte	0x1
 13296 1f36 00001F47 		.4byte	0x1f47
 13297 1f3a 30       		.uleb128 0x30
 13298 1f3b 00002005 		.4byte	0x2005
 13299 1f3f 01       		.byte	0x1
 13300 1f40 30       		.uleb128 0x30
 13301 1f41 0000008F 		.4byte	0x8f
 13302 1f45 01       		.byte	0x1
 13303 1f46 00       		.byte	0x0
 13304 1f47 31       		.uleb128 0x31
 13305 1f48 01       		.byte	0x1
 13306 1f49 0000131C 		.4byte	.LASF327
 13307 1f4d 20       		.byte	0x20
 13308 1f4e 85       		.byte	0x85
 13309 1f4f 00000CCA 		.4byte	.LASF329
 13310 1f53 01       		.byte	0x1
 13311 1f54 00001F5F 		.4byte	0x1f5f
 13312 1f58 30       		.uleb128 0x30
 13313 1f59 00002005 		.4byte	0x2005
 13314 1f5d 01       		.byte	0x1
 13315 1f5e 00       		.byte	0x0
 13316 1f5f 31       		.uleb128 0x31
 13317 1f60 01       		.byte	0x1
 13318 1f61 00000792 		.4byte	.LASF328
 13319 1f65 20       		.byte	0x20
 13320 1f66 87       		.byte	0x87
 13321 1f67 000007CC 		.4byte	.LASF330
 13322 1f6b 01       		.byte	0x1
 13323 1f6c 00001F77 		.4byte	0x1f77
 13324 1f70 30       		.uleb128 0x30
 13325 1f71 00002005 		.4byte	0x2005
 13326 1f75 01       		.byte	0x1
 13327 1f76 00       		.byte	0x0
 13328 1f77 31       		.uleb128 0x31
 13329 1f78 01       		.byte	0x1
 13330 1f79 00001360 		.4byte	.LASF331
 13331 1f7d 20       		.byte	0x20
 13332 1f7e 89       		.byte	0x89
 13333 1f7f 00000ED9 		.4byte	.LASF332
 13334 1f83 01       		.byte	0x1
 13335 1f84 00001F8F 		.4byte	0x1f8f
 13336 1f88 30       		.uleb128 0x30
 13337 1f89 00002005 		.4byte	0x2005
 13338 1f8d 01       		.byte	0x1
 13339 1f8e 00       		.byte	0x0
 13340 1f8f 31       		.uleb128 0x31
 13341 1f90 01       		.byte	0x1
 13342 1f91 00000D43 		.4byte	.LASF333
 13343 1f95 20       		.byte	0x20
 13344 1f96 8B       		.byte	0x8b
 13345 1f97 00001217 		.4byte	.LASF334
 13346 1f9b 01       		.byte	0x1
 13347 1f9c 00001FA7 		.4byte	0x1fa7
 13348 1fa0 30       		.uleb128 0x30
 13349 1fa1 00002005 		.4byte	0x2005
 13350 1fa5 01       		.byte	0x1
 13351 1fa6 00       		.byte	0x0
 13352 1fa7 32       		.uleb128 0x32
 13353 1fa8 01       		.byte	0x1
 13354 1fa9 000005CD 		.4byte	.LASF350
 13355 1fad 20       		.byte	0x20
 13356 1fae 8E       		.byte	0x8e
 13357 1faf 000012F5 		.4byte	.LASF352
 13358 1fb3 000000C8 		.4byte	0xc8
 13359 1fb7 01       		.byte	0x1
 13360 1fb8 00001FC3 		.4byte	0x1fc3
 13361 1fbc 30       		.uleb128 0x30
 13362 1fbd 00002005 		.4byte	0x2005
 13363 1fc1 01       		.byte	0x1
 13364 1fc2 00       		.byte	0x0
 13365 1fc3 31       		.uleb128 0x31
 13366 1fc4 01       		.byte	0x1
 13367 1fc5 00000CEE 		.4byte	.LASF335
 13368 1fc9 20       		.byte	0x20
 13369 1fca 91       		.byte	0x91
 13370 1fcb 000004AE 		.4byte	.LASF336
 13371 1fcf 01       		.byte	0x1
 13372 1fd0 00001FE0 		.4byte	0x1fe0
 13373 1fd4 30       		.uleb128 0x30
 13374 1fd5 00002005 		.4byte	0x2005
 13375 1fd9 01       		.byte	0x1
 13376 1fda 17       		.uleb128 0x17
 13377 1fdb 0000008F 		.4byte	0x8f
 13378 1fdf 00       		.byte	0x0
 13379 1fe0 33       		.uleb128 0x33
 13380 1fe1 01       		.byte	0x1
 13381 1fe2 0000002B 		.4byte	.LASF337
 13382 1fe6 20       		.byte	0x20
 13383 1fe7 94       		.byte	0x94
 13384 1fe8 00000B3F 		.4byte	.LASF463
 13385 1fec 01       		.byte	0x1
 13386 1fed 30       		.uleb128 0x30
 13387 1fee 00002005 		.4byte	0x2005
 13388 1ff2 01       		.byte	0x1
 13389 1ff3 17       		.uleb128 0x17
 13390 1ff4 000000C8 		.4byte	0xc8
 13391 1ff8 00       		.byte	0x0
 13392 1ff9 00       		.byte	0x0
 13393 1ffa 05       		.uleb128 0x5
 13394 1ffb 04       		.byte	0x4
 13395 1ffc 00002000 		.4byte	0x2000
 13396 2000 1D       		.uleb128 0x1d
 13397 2001 00000025 		.4byte	0x25
 13398 2005 05       		.uleb128 0x5
 13399 2006 04       		.byte	0x4
 13400 2007 00001E7C 		.4byte	0x1e7c
 13401 200b 15       		.uleb128 0x15
 13402 200c 00000016 		.4byte	.LASF338
 13403 2010 0168     		.2byte	0x168
 13404 2012 20       		.byte	0x20
 13405 2013 A0       		.byte	0xa0
 13406 2014 000021AD 		.4byte	0x21ad
 13407 2018 10       		.uleb128 0x10
 13408 2019 00000476 		.4byte	.LASF297
 13409 201d 20       		.byte	0x20
 13410 201e CC       		.byte	0xcc
 13411 201f 00000025 		.4byte	0x25
 13412 2023 02       		.byte	0x2
 13413 2024 23       		.byte	0x23
 13414 2025 00       		.uleb128 0x0
 13415 2026 10       		.uleb128 0x10
 13416 2027 00000EF5 		.4byte	.LASF339
 13417 202b 20       		.byte	0x20
 13418 202c CD       		.byte	0xcd
 13419 202d 00000084 		.4byte	0x84
 13420 2031 02       		.byte	0x2
 13421 2032 23       		.byte	0x23
 13422 2033 04       		.uleb128 0x4
 13423 2034 10       		.uleb128 0x10
 13424 2035 00000BA2 		.4byte	.LASF340
 13425 2039 20       		.byte	0x20
 13426 203a CE       		.byte	0xce
 13427 203b 00001DB0 		.4byte	0x1db0
 13428 203f 02       		.byte	0x2
 13429 2040 23       		.byte	0x23
 13430 2041 08       		.uleb128 0x8
 13431 2042 14       		.uleb128 0x14
 13432 2043 70616400 		.string	"pad"
 13433 2047 20       		.byte	0x20
 13434 2048 CF       		.byte	0xcf
 13435 2049 00001E71 		.4byte	0x1e71
 13436 204d 03       		.byte	0x3
 13437 204e 23       		.byte	0x23
 13438 204f DC02     		.uleb128 0x15c
 13439 2051 25       		.uleb128 0x25
 13440 2052 01       		.byte	0x1
 13441 2053 00000016 		.4byte	.LASF338
 13442 2057 20       		.byte	0x20
 13443 2058 A3       		.byte	0xa3
 13444 2059 01       		.byte	0x1
 13445 205a 00002065 		.4byte	0x2065
 13446 205e 30       		.uleb128 0x30
 13447 205f 000021AD 		.4byte	0x21ad
 13448 2063 01       		.byte	0x1
 13449 2064 00       		.byte	0x0
 13450 2065 25       		.uleb128 0x25
 13451 2066 01       		.byte	0x1
 13452 2067 00000B24 		.4byte	.LASF341
 13453 206b 20       		.byte	0x20
 13454 206c A5       		.byte	0xa5
 13455 206d 01       		.byte	0x1
 13456 206e 0000207F 		.4byte	0x207f
 13457 2072 30       		.uleb128 0x30
 13458 2073 000021AD 		.4byte	0x21ad
 13459 2077 01       		.byte	0x1
 13460 2078 30       		.uleb128 0x30
 13461 2079 0000008F 		.4byte	0x8f
 13462 207d 01       		.byte	0x1
 13463 207e 00       		.byte	0x0
 13464 207f 31       		.uleb128 0x31
 13465 2080 01       		.byte	0x1
 13466 2081 000002A7 		.4byte	.LASF342
 13467 2085 20       		.byte	0x20
 13468 2086 AA       		.byte	0xaa
 13469 2087 00001262 		.4byte	.LASF343
 13470 208b 01       		.byte	0x1
 13471 208c 000020A6 		.4byte	0x20a6
 13472 2090 30       		.uleb128 0x30
 13473 2091 000021AD 		.4byte	0x21ad
 13474 2095 01       		.byte	0x1
 13475 2096 17       		.uleb128 0x17
 13476 2097 00000084 		.4byte	0x84
 13477 209b 17       		.uleb128 0x17
 13478 209c 00000048 		.4byte	0x48
 13479 20a0 17       		.uleb128 0x17
 13480 20a1 00000036 		.4byte	0x36
 13481 20a5 00       		.byte	0x0
 13482 20a6 31       		.uleb128 0x31
 13483 20a7 01       		.byte	0x1
 13484 20a8 00000C30 		.4byte	.LASF344
 13485 20ac 20       		.byte	0x20
 13486 20ad AF       		.byte	0xaf
 13487 20ae 000003F1 		.4byte	.LASF345
 13488 20b2 01       		.byte	0x1
 13489 20b3 000020CD 		.4byte	0x20cd
 13490 20b7 30       		.uleb128 0x30
 13491 20b8 000021AD 		.4byte	0x21ad
 13492 20bc 01       		.byte	0x1
 13493 20bd 17       		.uleb128 0x17
 13494 20be 00000084 		.4byte	0x84
 13495 20c2 17       		.uleb128 0x17
 13496 20c3 00000048 		.4byte	0x48
 13497 20c7 17       		.uleb128 0x17
 13498 20c8 00000036 		.4byte	0x36
 13499 20cc 00       		.byte	0x0
 13500 20cd 31       		.uleb128 0x31
 13501 20ce 01       		.byte	0x1
 13502 20cf 0000034B 		.4byte	.LASF346
 13503 20d3 20       		.byte	0x20
 13504 20d4 B4       		.byte	0xb4
 13505 20d5 000007E7 		.4byte	.LASF347
 13506 20d9 01       		.byte	0x1
 13507 20da 000020F4 		.4byte	0x20f4
 13508 20de 30       		.uleb128 0x30
 13509 20df 000021AD 		.4byte	0x21ad
 13510 20e3 01       		.byte	0x1
 13511 20e4 17       		.uleb128 0x17
 13512 20e5 00000084 		.4byte	0x84
 13513 20e9 17       		.uleb128 0x17
 13514 20ea 00000048 		.4byte	0x48
 13515 20ee 17       		.uleb128 0x17
 13516 20ef 00000036 		.4byte	0x36
 13517 20f3 00       		.byte	0x0
 13518 20f4 31       		.uleb128 0x31
 13519 20f5 01       		.byte	0x1
 13520 20f6 00000E43 		.4byte	.LASF348
 13521 20fa 20       		.byte	0x20
 13522 20fb B9       		.byte	0xb9
 13523 20fc 0000022D 		.4byte	.LASF349
 13524 2100 01       		.byte	0x1
 13525 2101 0000211B 		.4byte	0x211b
 13526 2105 30       		.uleb128 0x30
 13527 2106 000021AD 		.4byte	0x21ad
 13528 210a 01       		.byte	0x1
 13529 210b 17       		.uleb128 0x17
 13530 210c 00000084 		.4byte	0x84
 13531 2110 17       		.uleb128 0x17
 13532 2111 00000048 		.4byte	0x48
 13533 2115 17       		.uleb128 0x17
 13534 2116 00000036 		.4byte	0x36
 13535 211a 00       		.byte	0x0
 13536 211b 32       		.uleb128 0x32
 13537 211c 01       		.byte	0x1
 13538 211d 000003E6 		.4byte	.LASF351
 13539 2121 20       		.byte	0x20
 13540 2122 BE       		.byte	0xbe
 13541 2123 00000129 		.4byte	.LASF353
 13542 2127 00000061 		.4byte	0x61
 13543 212b 01       		.byte	0x1
 13544 212c 00002141 		.4byte	0x2141
 13545 2130 30       		.uleb128 0x30
 13546 2131 000021AD 		.4byte	0x21ad
 13547 2135 01       		.byte	0x1
 13548 2136 17       		.uleb128 0x17
 13549 2137 00000025 		.4byte	0x25
 13550 213b 17       		.uleb128 0x17
 13551 213c 0000008F 		.4byte	0x8f
 13552 2140 00       		.byte	0x0
 13553 2141 32       		.uleb128 0x32
 13554 2142 01       		.byte	0x1
 13555 2143 00000856 		.4byte	.LASF354
 13556 2147 20       		.byte	0x20
 13557 2148 C1       		.byte	0xc1
 13558 2149 000012D2 		.4byte	.LASF355
 13559 214d 000000C8 		.4byte	0xc8
 13560 2151 01       		.byte	0x1
 13561 2152 0000215D 		.4byte	0x215d
 13562 2156 30       		.uleb128 0x30
 13563 2157 000021AD 		.4byte	0x21ad
 13564 215b 01       		.byte	0x1
 13565 215c 00       		.byte	0x0
 13566 215d 32       		.uleb128 0x32
 13567 215e 01       		.byte	0x1
 13568 215f 00001257 		.4byte	.LASF356
 13569 2163 20       		.byte	0x20
 13570 2164 C4       		.byte	0xc4
 13571 2165 00001152 		.4byte	.LASF357
 13572 2169 000000C8 		.4byte	0xc8
 13573 216d 01       		.byte	0x1
 13574 216e 00002179 		.4byte	0x2179
 13575 2172 30       		.uleb128 0x30
 13576 2173 000021AD 		.4byte	0x21ad
 13577 2177 01       		.byte	0x1
 13578 2178 00       		.byte	0x0
 13579 2179 34       		.uleb128 0x34
 13580 217a 01       		.byte	0x1
 13581 217b 557000   		.string	"Up"
 13582 217e 20       		.byte	0x20
 13583 217f C7       		.byte	0xc7
 13584 2180 00000916 		.4byte	.LASF464
 13585 2184 000000C8 		.4byte	0xc8
 13586 2188 01       		.byte	0x1
 13587 2189 00002194 		.4byte	0x2194
 13588 218d 30       		.uleb128 0x30
 13589 218e 000021AD 		.4byte	0x21ad
 13590 2192 01       		.byte	0x1
 13591 2193 00       		.byte	0x0
 13592 2194 35       		.uleb128 0x35
 13593 2195 01       		.byte	0x1
 13594 2196 0000132F 		.4byte	.LASF358
 13595 219a 20       		.byte	0x20
 13596 219b CA       		.byte	0xca
 13597 219c 00001366 		.4byte	.LASF359
 13598 21a0 000000C8 		.4byte	0xc8
 13599 21a4 01       		.byte	0x1
 13600 21a5 30       		.uleb128 0x30
 13601 21a6 000021AD 		.4byte	0x21ad
 13602 21aa 01       		.byte	0x1
 13603 21ab 00       		.byte	0x0
 13604 21ac 00       		.byte	0x0
 13605 21ad 05       		.uleb128 0x5
 13606 21ae 04       		.byte	0x4
 13607 21af 0000200B 		.4byte	0x200b
 13608 21b3 36       		.uleb128 0x36
 13609 21b4 00000453 		.4byte	.LASF426
 13610 21b8 01       		.byte	0x1
 13611 21b9 09       		.uleb128 0x9
 13612 21ba 00000BFB 		.4byte	.LASF360
 13613 21be 0C       		.byte	0xc
 13614 21bf 20       		.byte	0x20
 13615 21c0 01E5     		.2byte	0x1e5
 13616 21c2 000022C1 		.4byte	0x22c1
 13617 21c6 37       		.uleb128 0x37
 13618 21c7 00000218 		.4byte	.LASF361
 13619 21cb 20       		.byte	0x20
 13620 21cc 01F9     		.2byte	0x1f9
 13621 21ce 00000A56 		.4byte	0xa56
 13622 21d2 02       		.byte	0x2
 13623 21d3 23       		.byte	0x23
 13624 21d4 00       		.uleb128 0x0
 13625 21d5 02       		.byte	0x2
 13626 21d6 37       		.uleb128 0x37
 13627 21d7 000001CC 		.4byte	.LASF362
 13628 21db 20       		.byte	0x20
 13629 21dc 01FA     		.2byte	0x1fa
 13630 21de 0000008F 		.4byte	0x8f
 13631 21e2 02       		.byte	0x2
 13632 21e3 23       		.byte	0x23
 13633 21e4 04       		.uleb128 0x4
 13634 21e5 02       		.byte	0x2
 13635 21e6 37       		.uleb128 0x37
 13636 21e7 00001136 		.4byte	.LASF363
 13637 21eb 20       		.byte	0x20
 13638 21ec 01FB     		.2byte	0x1fb
 13639 21ee 0000008F 		.4byte	0x8f
 13640 21f2 02       		.byte	0x2
 13641 21f3 23       		.byte	0x23
 13642 21f4 08       		.uleb128 0x8
 13643 21f5 02       		.byte	0x2
 13644 21f6 38       		.uleb128 0x38
 13645 21f7 01       		.byte	0x1
 13646 21f8 00000BFB 		.4byte	.LASF360
 13647 21fc 20       		.byte	0x20
 13648 21fd 01EA     		.2byte	0x1ea
 13649 21ff 01       		.byte	0x1
 13650 2200 00002215 		.4byte	0x2215
 13651 2204 30       		.uleb128 0x30
 13652 2205 000022C1 		.4byte	0x22c1
 13653 2209 01       		.byte	0x1
 13654 220a 17       		.uleb128 0x17
 13655 220b 00001FFA 		.4byte	0x1ffa
 13656 220f 17       		.uleb128 0x17
 13657 2210 000000C8 		.4byte	0xc8
 13658 2214 00       		.byte	0x0
 13659 2215 38       		.uleb128 0x38
 13660 2216 01       		.byte	0x1
 13661 2217 00000BFB 		.4byte	.LASF360
 13662 221b 20       		.byte	0x20
 13663 221c 01EB     		.2byte	0x1eb
 13664 221e 01       		.byte	0x1
 13665 221f 00002239 		.4byte	0x2239
 13666 2223 30       		.uleb128 0x30
 13667 2224 000022C1 		.4byte	0x22c1
 13668 2228 01       		.byte	0x1
 13669 2229 17       		.uleb128 0x17
 13670 222a 000007F9 		.4byte	0x7f9
 13671 222e 17       		.uleb128 0x17
 13672 222f 00001FFA 		.4byte	0x1ffa
 13673 2233 17       		.uleb128 0x17
 13674 2234 000000C8 		.4byte	0xc8
 13675 2238 00       		.byte	0x0
 13676 2239 38       		.uleb128 0x38
 13677 223a 01       		.byte	0x1
 13678 223b 00001453 		.4byte	.LASF364
 13679 223f 20       		.byte	0x20
 13680 2240 01ED     		.2byte	0x1ed
 13681 2242 01       		.byte	0x1
 13682 2243 00002254 		.4byte	0x2254
 13683 2247 30       		.uleb128 0x30
 13684 2248 000022C1 		.4byte	0x22c1
 13685 224c 01       		.byte	0x1
 13686 224d 30       		.uleb128 0x30
 13687 224e 0000008F 		.4byte	0x8f
 13688 2252 01       		.byte	0x1
 13689 2253 00       		.byte	0x0
 13690 2254 39       		.uleb128 0x39
 13691 2255 01       		.byte	0x1
 13692 2256 000001F0 		.4byte	.LASF365
 13693 225a 20       		.byte	0x20
 13694 225b 01F0     		.2byte	0x1f0
 13695 225d 00000317 		.4byte	.LASF367
 13696 2261 00000A56 		.4byte	0xa56
 13697 2265 01       		.byte	0x1
 13698 2266 00002271 		.4byte	0x2271
 13699 226a 30       		.uleb128 0x30
 13700 226b 000022C1 		.4byte	0x22c1
 13701 226f 01       		.byte	0x1
 13702 2270 00       		.byte	0x0
 13703 2271 39       		.uleb128 0x39
 13704 2272 01       		.byte	0x1
 13705 2273 000000E1 		.4byte	.LASF366
 13706 2277 20       		.byte	0x20
 13707 2278 01F3     		.2byte	0x1f3
 13708 227a 0000070E 		.4byte	.LASF368
 13709 227e 0000008F 		.4byte	0x8f
 13710 2282 01       		.byte	0x1
 13711 2283 0000228E 		.4byte	0x228e
 13712 2287 30       		.uleb128 0x30
 13713 2288 000022C1 		.4byte	0x22c1
 13714 228c 01       		.byte	0x1
 13715 228d 00       		.byte	0x0
 13716 228e 39       		.uleb128 0x39
 13717 228f 01       		.byte	0x1
 13718 2290 00000C58 		.4byte	.LASF369
 13719 2294 20       		.byte	0x20
 13720 2295 01F6     		.2byte	0x1f6
 13721 2297 00000A1F 		.4byte	.LASF370
 13722 229b 0000008F 		.4byte	0x8f
 13723 229f 01       		.byte	0x1
 13724 22a0 000022AB 		.4byte	0x22ab
 13725 22a4 30       		.uleb128 0x30
 13726 22a5 000022C1 		.4byte	0x22c1
 13727 22a9 01       		.byte	0x1
 13728 22aa 00       		.byte	0x0
 13729 22ab 3A       		.uleb128 0x3a
 13730 22ac 01       		.byte	0x1
 13731 22ad 00000B8F 		.4byte	.LASF371
 13732 22b1 20       		.byte	0x20
 13733 22b2 01F7     		.2byte	0x1f7
 13734 22b4 00000C08 		.4byte	.LASF465
 13735 22b8 01       		.byte	0x1
 13736 22b9 30       		.uleb128 0x30
 13737 22ba 000022C1 		.4byte	0x22c1
 13738 22be 01       		.byte	0x1
 13739 22bf 00       		.byte	0x0
 13740 22c0 00       		.byte	0x0
 13741 22c1 05       		.uleb128 0x5
 13742 22c2 04       		.byte	0x4
 13743 22c3 000021B9 		.4byte	0x21b9
 13744 22c7 18       		.uleb128 0x18
 13745 22c8 00001354 		.4byte	.LASF372
 13746 22cc 3BC8     		.2byte	0x3bc8
 13747 22ce 20       		.byte	0x20
 13748 22cf 030D     		.2byte	0x30d
 13749 22d1 00002304 		.4byte	0x2304
 13750 22d5 1B       		.uleb128 0x1b
 13751 22d6 0000018E 		.4byte	.LASF322
 13752 22da 20       		.byte	0x20
 13753 22db 030E     		.2byte	0x30e
 13754 22dd 0000008F 		.4byte	0x8f
 13755 22e1 02       		.byte	0x2
 13756 22e2 23       		.byte	0x23
 13757 22e3 00       		.uleb128 0x0
 13758 22e4 1B       		.uleb128 0x1b
 13759 22e5 00000ACE 		.4byte	.LASF373
 13760 22e9 20       		.byte	0x20
 13761 22ea 030F     		.2byte	0x30f
 13762 22ec 00002304 		.4byte	0x2304
 13763 22f0 02       		.byte	0x2
 13764 22f1 23       		.byte	0x23
 13765 22f2 04       		.uleb128 0x4
 13766 22f3 1B       		.uleb128 0x1b
 13767 22f4 0000094F 		.4byte	.LASF374
 13768 22f8 20       		.byte	0x20
 13769 22f9 0310     		.2byte	0x310
 13770 22fb 0000231A 		.4byte	0x231a
 13771 22ff 03       		.byte	0x3
 13772 2300 23       		.byte	0x23
 13773 2301 DC4F     		.uleb128 0x27dc
 13774 2303 00       		.byte	0x0
 13775 2304 11       		.uleb128 0x11
 13776 2305 000000B1 		.4byte	0xb1
 13777 2309 0000231A 		.4byte	0x231a
 13778 230d 12       		.uleb128 0x12
 13779 230e 000000C5 		.4byte	0xc5
 13780 2312 A9       		.byte	0xa9
 13781 2313 12       		.uleb128 0x12
 13782 2314 000000C5 		.4byte	0xc5
 13783 2318 3B       		.byte	0x3b
 13784 2319 00       		.byte	0x0
 13785 231a 11       		.uleb128 0x11
 13786 231b 000000B1 		.4byte	0xb1
 13787 231f 00002330 		.4byte	0x2330
 13788 2323 12       		.uleb128 0x12
 13789 2324 000000C5 		.4byte	0xc5
 13790 2328 A9       		.byte	0xa9
 13791 2329 12       		.uleb128 0x12
 13792 232a 000000C5 		.4byte	0xc5
 13793 232e 1D       		.byte	0x1d
 13794 232f 00       		.byte	0x0
 13795 2330 0B       		.uleb128 0xb
 13796 2331 00000D96 		.4byte	.LASF375
 13797 2335 20       		.byte	0x20
 13798 2336 0311     		.2byte	0x311
 13799 2338 000022C7 		.4byte	0x22c7
 13800 233c 3B       		.uleb128 0x3b
 13801 233d 00001006 		.4byte	.LASF411
 13802 2341 01BC     		.2byte	0x1bc
 13803 2343 20       		.byte	0x20
 13804 2344 0315     		.2byte	0x315
 13805 2346 000021B3 		.4byte	0x21b3
 13806 234a 00002749 		.4byte	0x2749
 13807 234e 3C       		.uleb128 0x3c
 13808 234f 000021B3 		.4byte	0x21b3
 13809 2353 02       		.byte	0x2
 13810 2354 23       		.byte	0x23
 13811 2355 00       		.uleb128 0x0
 13812 2356 01       		.byte	0x1
 13813 2357 1B       		.uleb128 0x1b
 13814 2358 00000A07 		.4byte	.LASF376
 13815 235c 20       		.byte	0x20
 13816 235d 0322     		.2byte	0x322
 13817 235f 00002749 		.4byte	0x2749
 13818 2363 03       		.byte	0x3
 13819 2364 23       		.byte	0x23
 13820 2365 9001     		.uleb128 0x90
 13821 2367 37       		.uleb128 0x37
 13822 2368 0000036F 		.4byte	.LASF377
 13823 236c 20       		.byte	0x20
 13824 236d 0324     		.2byte	0x324
 13825 236f 0000008F 		.4byte	0x8f
 13826 2373 03       		.byte	0x3
 13827 2374 23       		.byte	0x23
 13828 2375 B401     		.uleb128 0xb4
 13829 2377 02       		.byte	0x2
 13830 2378 37       		.uleb128 0x37
 13831 2379 0000029C 		.4byte	.LASF378
 13832 237d 20       		.byte	0x20
 13833 237e 0325     		.2byte	0x325
 13834 2380 0000008F 		.4byte	0x8f
 13835 2384 03       		.byte	0x3
 13836 2385 23       		.byte	0x23
 13837 2386 B801     		.uleb128 0xb8
 13838 2388 02       		.byte	0x2
 13839 2389 37       		.uleb128 0x37
 13840 238a 0000147B 		.4byte	.LASF379
 13841 238e 20       		.byte	0x20
 13842 238f 0327     		.2byte	0x327
 13843 2391 00002765 		.4byte	0x2765
 13844 2395 03       		.byte	0x3
 13845 2396 23       		.byte	0x23
 13846 2397 BC01     		.uleb128 0xbc
 13847 2399 02       		.byte	0x2
 13848 239a 37       		.uleb128 0x37
 13849 239b 00000DE8 		.4byte	.LASF380
 13850 239f 20       		.byte	0x20
 13851 23a0 0328     		.2byte	0x328
 13852 23a2 0000276B 		.4byte	0x276b
 13853 23a6 03       		.byte	0x3
 13854 23a7 23       		.byte	0x23
 13855 23a8 C001     		.uleb128 0xc0
 13856 23aa 02       		.byte	0x2
 13857 23ab 37       		.uleb128 0x37
 13858 23ac 000011B6 		.4byte	.LASF381
 13859 23b0 20       		.byte	0x20
 13860 23b1 0329     		.2byte	0x329
 13861 23b3 0000277B 		.4byte	0x277b
 13862 23b7 03       		.byte	0x3
 13863 23b8 23       		.byte	0x23
 13864 23b9 E401     		.uleb128 0xe4
 13865 23bb 02       		.byte	0x2
 13866 23bc 37       		.uleb128 0x37
 13867 23bd 00000E74 		.4byte	.LASF382
 13868 23c1 20       		.byte	0x20
 13869 23c2 032A     		.2byte	0x32a
 13870 23c4 00002749 		.4byte	0x2749
 13871 23c8 03       		.byte	0x3
 13872 23c9 23       		.byte	0x23
 13873 23ca 8802     		.uleb128 0x108
 13874 23cc 02       		.byte	0x2
 13875 23cd 37       		.uleb128 0x37
 13876 23ce 000007C3 		.4byte	.LASF383
 13877 23d2 20       		.byte	0x20
 13878 23d3 032B     		.2byte	0x32b
 13879 23d5 00002797 		.4byte	0x2797
 13880 23d9 03       		.byte	0x3
 13881 23da 23       		.byte	0x23
 13882 23db AC02     		.uleb128 0x12c
 13883 23dd 02       		.byte	0x2
 13884 23de 37       		.uleb128 0x37
 13885 23df 0000042F 		.4byte	.LASF384
 13886 23e3 20       		.byte	0x20
 13887 23e4 032D     		.2byte	0x32d
 13888 23e6 00002791 		.4byte	0x2791
 13889 23ea 03       		.byte	0x3
 13890 23eb 23       		.byte	0x23
 13891 23ec D002     		.uleb128 0x150
 13892 23ee 02       		.byte	0x2
 13893 23ef 37       		.uleb128 0x37
 13894 23f0 00000FF9 		.4byte	.LASF385
 13895 23f4 20       		.byte	0x20
 13896 23f5 032E     		.2byte	0x32e
 13897 23f7 00002791 		.4byte	0x2791
 13898 23fb 03       		.byte	0x3
 13899 23fc 23       		.byte	0x23
 13900 23fd D402     		.uleb128 0x154
 13901 23ff 02       		.byte	0x2
 13902 2400 37       		.uleb128 0x37
 13903 2401 00000148 		.4byte	.LASF386
 13904 2405 20       		.byte	0x20
 13905 2406 032F     		.2byte	0x32f
 13906 2408 00002791 		.4byte	0x2791
 13907 240c 03       		.byte	0x3
 13908 240d 23       		.byte	0x23
 13909 240e D802     		.uleb128 0x158
 13910 2410 02       		.byte	0x2
 13911 2411 37       		.uleb128 0x37
 13912 2412 00000422 		.4byte	.LASF387
 13913 2416 20       		.byte	0x20
 13914 2417 0331     		.2byte	0x331
 13915 2419 000027AD 		.4byte	0x27ad
 13916 241d 03       		.byte	0x3
 13917 241e 23       		.byte	0x23
 13918 241f DC02     		.uleb128 0x15c
 13919 2421 02       		.byte	0x2
 13920 2422 37       		.uleb128 0x37
 13921 2423 000012C1 		.4byte	.LASF388
 13922 2427 20       		.byte	0x20
 13923 2428 0332     		.2byte	0x332
 13924 242a 000027AD 		.4byte	0x27ad
 13925 242e 03       		.byte	0x3
 13926 242f 23       		.byte	0x23
 13927 2430 E002     		.uleb128 0x160
 13928 2432 02       		.byte	0x2
 13929 2433 37       		.uleb128 0x37
 13930 2434 00000694 		.4byte	.LASF389
 13931 2438 20       		.byte	0x20
 13932 2439 0333     		.2byte	0x333
 13933 243b 000027AD 		.4byte	0x27ad
 13934 243f 03       		.byte	0x3
 13935 2440 23       		.byte	0x23
 13936 2441 E402     		.uleb128 0x164
 13937 2443 02       		.byte	0x2
 13938 2444 37       		.uleb128 0x37
 13939 2445 00000668 		.4byte	.LASF390
 13940 2449 20       		.byte	0x20
 13941 244a 0334     		.2byte	0x334
 13942 244c 000027AD 		.4byte	0x27ad
 13943 2450 03       		.byte	0x3
 13944 2451 23       		.byte	0x23
 13945 2452 E802     		.uleb128 0x168
 13946 2454 02       		.byte	0x2
 13947 2455 37       		.uleb128 0x37
 13948 2456 000011EE 		.4byte	.LASF391
 13949 245a 20       		.byte	0x20
 13950 245b 0335     		.2byte	0x335
 13951 245d 000027AD 		.4byte	0x27ad
 13952 2461 03       		.byte	0x3
 13953 2462 23       		.byte	0x23
 13954 2463 EC02     		.uleb128 0x16c
 13955 2465 02       		.byte	0x2
 13956 2466 37       		.uleb128 0x37
 13957 2467 00001055 		.4byte	.LASF392
 13958 246b 20       		.byte	0x20
 13959 246c 0336     		.2byte	0x336
 13960 246e 000027AD 		.4byte	0x27ad
 13961 2472 03       		.byte	0x3
 13962 2473 23       		.byte	0x23
 13963 2474 F002     		.uleb128 0x170
 13964 2476 02       		.byte	0x2
 13965 2477 37       		.uleb128 0x37
 13966 2478 00001120 		.4byte	.LASF393
 13967 247c 20       		.byte	0x20
 13968 247d 0337     		.2byte	0x337
 13969 247f 000027AD 		.4byte	0x27ad
 13970 2483 03       		.byte	0x3
 13971 2484 23       		.byte	0x23
 13972 2485 F402     		.uleb128 0x174
 13973 2487 02       		.byte	0x2
 13974 2488 37       		.uleb128 0x37
 13975 2489 00000443 		.4byte	.LASF394
 13976 248d 20       		.byte	0x20
 13977 248e 0338     		.2byte	0x338
 13978 2490 000027AD 		.4byte	0x27ad
 13979 2494 03       		.byte	0x3
 13980 2495 23       		.byte	0x23
 13981 2496 F802     		.uleb128 0x178
 13982 2498 02       		.byte	0x2
 13983 2499 37       		.uleb128 0x37
 13984 249a 000000EA 		.4byte	.LASF395
 13985 249e 20       		.byte	0x20
 13986 249f 0339     		.2byte	0x339
 13987 24a1 000027AD 		.4byte	0x27ad
 13988 24a5 03       		.byte	0x3
 13989 24a6 23       		.byte	0x23
 13990 24a7 FC02     		.uleb128 0x17c
 13991 24a9 02       		.byte	0x2
 13992 24aa 37       		.uleb128 0x37
 13993 24ab 00000D30 		.4byte	.LASF396
 13994 24af 20       		.byte	0x20
 13995 24b0 033B     		.2byte	0x33b
 13996 24b2 000022C1 		.4byte	0x22c1
 13997 24b6 03       		.byte	0x3
 13998 24b7 23       		.byte	0x23
 13999 24b8 8003     		.uleb128 0x180
 14000 24ba 02       		.byte	0x2
 14001 24bb 37       		.uleb128 0x37
 14002 24bc 00000468 		.4byte	.LASF397
 14003 24c0 20       		.byte	0x20
 14004 24c1 033C     		.2byte	0x33c
 14005 24c3 000022C1 		.4byte	0x22c1
 14006 24c7 03       		.byte	0x3
 14007 24c8 23       		.byte	0x23
 14008 24c9 8403     		.uleb128 0x184
 14009 24cb 02       		.byte	0x2
 14010 24cc 37       		.uleb128 0x37
 14011 24cd 00001395 		.4byte	.LASF398
 14012 24d1 20       		.byte	0x20
 14013 24d2 033D     		.2byte	0x33d
 14014 24d4 000022C1 		.4byte	0x22c1
 14015 24d8 03       		.byte	0x3
 14016 24d9 23       		.byte	0x23
 14017 24da 8803     		.uleb128 0x188
 14018 24dc 02       		.byte	0x2
 14019 24dd 37       		.uleb128 0x37
 14020 24de 0000137D 		.4byte	.LASF399
 14021 24e2 20       		.byte	0x20
 14022 24e3 033E     		.2byte	0x33e
 14023 24e5 000022C1 		.4byte	0x22c1
 14024 24e9 03       		.byte	0x3
 14025 24ea 23       		.byte	0x23
 14026 24eb 8C03     		.uleb128 0x18c
 14027 24ed 02       		.byte	0x2
 14028 24ee 37       		.uleb128 0x37
 14029 24ef 000011FF 		.4byte	.LASF400
 14030 24f3 20       		.byte	0x20
 14031 24f4 033F     		.2byte	0x33f
 14032 24f6 000022C1 		.4byte	0x22c1
 14033 24fa 03       		.byte	0x3
 14034 24fb 23       		.byte	0x23
 14035 24fc 9003     		.uleb128 0x190
 14036 24fe 02       		.byte	0x2
 14037 24ff 37       		.uleb128 0x37
 14038 2500 000006DD 		.4byte	.LASF401
 14039 2504 20       		.byte	0x20
 14040 2505 0340     		.2byte	0x340
 14041 2507 000022C1 		.4byte	0x22c1
 14042 250b 03       		.byte	0x3
 14043 250c 23       		.byte	0x23
 14044 250d 9403     		.uleb128 0x194
 14045 250f 02       		.byte	0x2
 14046 2510 37       		.uleb128 0x37
 14047 2511 00000D6F 		.4byte	.LASF402
 14048 2515 20       		.byte	0x20
 14049 2516 0341     		.2byte	0x341
 14050 2518 000022C1 		.4byte	0x22c1
 14051 251c 03       		.byte	0x3
 14052 251d 23       		.byte	0x23
 14053 251e 9803     		.uleb128 0x198
 14054 2520 02       		.byte	0x2
 14055 2521 37       		.uleb128 0x37
 14056 2522 00000495 		.4byte	.LASF403
 14057 2526 20       		.byte	0x20
 14058 2527 0342     		.2byte	0x342
 14059 2529 000022C1 		.4byte	0x22c1
 14060 252d 03       		.byte	0x3
 14061 252e 23       		.byte	0x23
 14062 252f 9C03     		.uleb128 0x19c
 14063 2531 02       		.byte	0x2
 14064 2532 37       		.uleb128 0x37
 14065 2533 00000EBE 		.4byte	.LASF404
 14066 2537 20       		.byte	0x20
 14067 2538 0343     		.2byte	0x343
 14068 253a 000022C1 		.4byte	0x22c1
 14069 253e 03       		.byte	0x3
 14070 253f 23       		.byte	0x23
 14071 2540 A003     		.uleb128 0x1a0
 14072 2542 02       		.byte	0x2
 14073 2543 37       		.uleb128 0x37
 14074 2544 000012B0 		.4byte	.LASF405
 14075 2548 20       		.byte	0x20
 14076 2549 0344     		.2byte	0x344
 14077 254b 000022C1 		.4byte	0x22c1
 14078 254f 03       		.byte	0x3
 14079 2550 23       		.byte	0x23
 14080 2551 A403     		.uleb128 0x1a4
 14081 2553 02       		.byte	0x2
 14082 2554 37       		.uleb128 0x37
 14083 2555 00000103 		.4byte	.LASF406
 14084 2559 20       		.byte	0x20
 14085 255a 0346     		.2byte	0x346
 14086 255c 00002005 		.4byte	0x2005
 14087 2560 03       		.byte	0x3
 14088 2561 23       		.byte	0x23
 14089 2562 A803     		.uleb128 0x1a8
 14090 2564 02       		.byte	0x2
 14091 2565 37       		.uleb128 0x37
 14092 2566 000006EB 		.4byte	.LASF407
 14093 256a 20       		.byte	0x20
 14094 256b 0347     		.2byte	0x347
 14095 256d 00002005 		.4byte	0x2005
 14096 2571 03       		.byte	0x3
 14097 2572 23       		.byte	0x23
 14098 2573 AC03     		.uleb128 0x1ac
 14099 2575 02       		.byte	0x2
 14100 2576 37       		.uleb128 0x37
 14101 2577 00000A3D 		.4byte	.LASF408
 14102 257b 20       		.byte	0x20
 14103 257c 0348     		.2byte	0x348
 14104 257e 000021AD 		.4byte	0x21ad
 14105 2582 03       		.byte	0x3
 14106 2583 23       		.byte	0x23
 14107 2584 B003     		.uleb128 0x1b0
 14108 2586 02       		.byte	0x2
 14109 2587 37       		.uleb128 0x37
 14110 2588 00000A43 		.4byte	.LASF409
 14111 258c 20       		.byte	0x20
 14112 258d 0349     		.2byte	0x349
 14113 258f 000021AD 		.4byte	0x21ad
 14114 2593 03       		.byte	0x3
 14115 2594 23       		.byte	0x23
 14116 2595 B403     		.uleb128 0x1b4
 14117 2597 02       		.byte	0x2
 14118 2598 37       		.uleb128 0x37
 14119 2599 0000088D 		.4byte	.LASF410
 14120 259d 20       		.byte	0x20
 14121 259e 034A     		.2byte	0x34a
 14122 25a0 000021AD 		.4byte	0x21ad
 14123 25a4 03       		.byte	0x3
 14124 25a5 23       		.byte	0x23
 14125 25a6 B803     		.uleb128 0x1b8
 14126 25a8 02       		.byte	0x2
 14127 25a9 3D       		.uleb128 0x3d
 14128 25aa 01       		.byte	0x1
 14129 25ab 00001006 		.4byte	.LASF411
 14130 25af 01       		.byte	0x1
 14131 25b0 01       		.byte	0x1
 14132 25b1 000025C1 		.4byte	0x25c1
 14133 25b5 30       		.uleb128 0x30
 14134 25b6 000027B3 		.4byte	0x27b3
 14135 25ba 01       		.byte	0x1
 14136 25bb 17       		.uleb128 0x17
 14137 25bc 000027B9 		.4byte	0x27b9
 14138 25c0 00       		.byte	0x0
 14139 25c1 25       		.uleb128 0x25
 14140 25c2 01       		.byte	0x1
 14141 25c3 00001006 		.4byte	.LASF411
 14142 25c7 01       		.byte	0x1
 14143 25c8 17       		.byte	0x17
 14144 25c9 01       		.byte	0x1
 14145 25ca 000025EE 		.4byte	0x25ee
 14146 25ce 30       		.uleb128 0x30
 14147 25cf 000027B3 		.4byte	0x27b3
 14148 25d3 01       		.byte	0x1
 14149 25d4 17       		.uleb128 0x17
 14150 25d5 0000008F 		.4byte	0x8f
 14151 25d9 17       		.uleb128 0x17
 14152 25da 0000008F 		.4byte	0x8f
 14153 25de 17       		.uleb128 0x17
 14154 25df 00002765 		.4byte	0x2765
 14155 25e3 17       		.uleb128 0x17
 14156 25e4 00001FFA 		.4byte	0x1ffa
 14157 25e8 17       		.uleb128 0x17
 14158 25e9 0000008F 		.4byte	0x8f
 14159 25ed 00       		.byte	0x0
 14160 25ee 25       		.uleb128 0x25
 14161 25ef 01       		.byte	0x1
 14162 25f0 00001006 		.4byte	.LASF411
 14163 25f4 01       		.byte	0x1
 14164 25f5 85       		.byte	0x85
 14165 25f6 01       		.byte	0x1
 14166 25f7 00002625 		.4byte	0x2625
 14167 25fb 30       		.uleb128 0x30
 14168 25fc 000027B3 		.4byte	0x27b3
 14169 2600 01       		.byte	0x1
 14170 2601 17       		.uleb128 0x17
 14171 2602 0000008F 		.4byte	0x8f
 14172 2606 17       		.uleb128 0x17
 14173 2607 0000008F 		.4byte	0x8f
 14174 260b 17       		.uleb128 0x17
 14175 260c 00002765 		.4byte	0x2765
 14176 2610 17       		.uleb128 0x17
 14177 2611 000007F9 		.4byte	0x7f9
 14178 2615 17       		.uleb128 0x17
 14179 2616 00001FFA 		.4byte	0x1ffa
 14180 261a 17       		.uleb128 0x17
 14181 261b 0000008F 		.4byte	0x8f
 14182 261f 17       		.uleb128 0x17
 14183 2620 0000008F 		.4byte	0x8f
 14184 2624 00       		.byte	0x0
 14185 2625 25       		.uleb128 0x25
 14186 2626 01       		.byte	0x1
 14187 2627 00000F75 		.4byte	.LASF412
 14188 262b 01       		.byte	0x1
 14189 262c FB       		.byte	0xfb
 14190 262d 01       		.byte	0x1
 14191 262e 0000263F 		.4byte	0x263f
 14192 2632 30       		.uleb128 0x30
 14193 2633 000027B3 		.4byte	0x27b3
 14194 2637 01       		.byte	0x1
 14195 2638 30       		.uleb128 0x30
 14196 2639 0000008F 		.4byte	0x8f
 14197 263d 01       		.byte	0x1
 14198 263e 00       		.byte	0x0
 14199 263f 3E       		.uleb128 0x3e
 14200 2640 01       		.byte	0x1
 14201 2641 00000745 		.4byte	.LASF413
 14202 2645 01       		.byte	0x1
 14203 2646 0122     		.2byte	0x122
 14204 2648 00000FC4 		.4byte	.LASF466
 14205 264c 01       		.byte	0x1
 14206 264d 0000265D 		.4byte	0x265d
 14207 2651 30       		.uleb128 0x30
 14208 2652 000027B3 		.4byte	0x27b3
 14209 2656 01       		.byte	0x1
 14210 2657 17       		.uleb128 0x17
 14211 2658 0000008F 		.4byte	0x8f
 14212 265c 00       		.byte	0x0
 14213 265d 39       		.uleb128 0x39
 14214 265e 01       		.byte	0x1
 14215 265f 000009A2 		.4byte	.LASF414
 14216 2663 01       		.byte	0x1
 14217 2664 0165     		.2byte	0x165
 14218 2666 000008BE 		.4byte	.LASF415
 14219 266a 0000008F 		.4byte	0x8f
 14220 266e 01       		.byte	0x1
 14221 266f 00002684 		.4byte	0x2684
 14222 2673 30       		.uleb128 0x30
 14223 2674 000027B3 		.4byte	0x27b3
 14224 2678 01       		.byte	0x1
 14225 2679 17       		.uleb128 0x17
 14226 267a 0000008F 		.4byte	0x8f
 14227 267e 17       		.uleb128 0x17
 14228 267f 0000008F 		.4byte	0x8f
 14229 2683 00       		.byte	0x0
 14230 2684 39       		.uleb128 0x39
 14231 2685 01       		.byte	0x1
 14232 2686 0000116A 		.4byte	.LASF416
 14233 268a 01       		.byte	0x1
 14234 268b 0141     		.2byte	0x141
 14235 268d 0000015F 		.4byte	.LASF417
 14236 2691 0000008F 		.4byte	0x8f
 14237 2695 01       		.byte	0x1
 14238 2696 000026A1 		.4byte	0x26a1
 14239 269a 30       		.uleb128 0x30
 14240 269b 000027B3 		.4byte	0x27b3
 14241 269f 01       		.byte	0x1
 14242 26a0 00       		.byte	0x0
 14243 26a1 39       		.uleb128 0x39
 14244 26a2 01       		.byte	0x1
 14245 26a3 00000A57 		.4byte	.LASF418
 14246 26a7 01       		.byte	0x1
 14247 26a8 0150     		.2byte	0x150
 14248 26aa 00000086 		.4byte	.LASF419
 14249 26ae 0000008F 		.4byte	0x8f
 14250 26b2 01       		.byte	0x1
 14251 26b3 000026BE 		.4byte	0x26be
 14252 26b7 30       		.uleb128 0x30
 14253 26b8 000027B3 		.4byte	0x27b3
 14254 26bc 01       		.byte	0x1
 14255 26bd 00       		.byte	0x0
 14256 26be 3F       		.uleb128 0x3f
 14257 26bf 01       		.byte	0x1
 14258 26c0 000005E3 		.4byte	.LASF420
 14259 26c4 01       		.byte	0x1
 14260 26c5 0133     		.2byte	0x133
 14261 26c7 00000832 		.4byte	.LASF422
 14262 26cb 01       		.byte	0x1
 14263 26cc 02       		.byte	0x2
 14264 26cd 10       		.byte	0x10
 14265 26ce 03       		.uleb128 0x3
 14266 26cf 0000233C 		.4byte	0x233c
 14267 26d3 01       		.byte	0x1
 14268 26d4 000026DF 		.4byte	0x26df
 14269 26d8 30       		.uleb128 0x30
 14270 26d9 000027B3 		.4byte	0x27b3
 14271 26dd 01       		.byte	0x1
 14272 26de 00       		.byte	0x0
 14273 26df 3F       		.uleb128 0x3f
 14274 26e0 01       		.byte	0x1
 14275 26e1 00000600 		.4byte	.LASF421
 14276 26e5 01       		.byte	0x1
 14277 26e6 0128     		.2byte	0x128
 14278 26e8 000010B1 		.4byte	.LASF423
 14279 26ec 01       		.byte	0x1
 14280 26ed 02       		.byte	0x2
 14281 26ee 10       		.byte	0x10
 14282 26ef 01       		.uleb128 0x1
 14283 26f0 0000233C 		.4byte	0x233c
 14284 26f4 01       		.byte	0x1
 14285 26f5 00002705 		.4byte	0x2705
 14286 26f9 30       		.uleb128 0x30
 14287 26fa 000027B3 		.4byte	0x27b3
 14288 26fe 01       		.byte	0x1
 14289 26ff 17       		.uleb128 0x17
 14290 2700 0000008F 		.4byte	0x8f
 14291 2704 00       		.byte	0x0
 14292 2705 3F       		.uleb128 0x3f
 14293 2706 01       		.byte	0x1
 14294 2707 00000F5F 		.4byte	.LASF424
 14295 270b 01       		.byte	0x1
 14296 270c 0175     		.2byte	0x175
 14297 270e 000000C4 		.4byte	.LASF425
 14298 2712 01       		.byte	0x1
 14299 2713 02       		.byte	0x2
 14300 2714 10       		.byte	0x10
 14301 2715 07       		.uleb128 0x7
 14302 2716 0000233C 		.4byte	0x233c
 14303 271a 01       		.byte	0x1
 14304 271b 00002726 		.4byte	0x2726
 14305 271f 30       		.uleb128 0x30
 14306 2720 000027B3 		.4byte	0x27b3
 14307 2724 01       		.byte	0x1
 14308 2725 00       		.byte	0x0
 14309 2726 40       		.uleb128 0x40
 14310 2727 01       		.byte	0x1
 14311 2728 00000897 		.4byte	.LASF467
 14312 272c 01       		.byte	0x1
 14313 272d 0192     		.2byte	0x192
 14314 272f 00000E0A 		.4byte	.LASF468
 14315 2733 01       		.byte	0x1
 14316 2734 02       		.byte	0x2
 14317 2735 10       		.byte	0x10
 14318 2736 06       		.uleb128 0x6
 14319 2737 0000233C 		.4byte	0x233c
 14320 273b 01       		.byte	0x1
 14321 273c 30       		.uleb128 0x30
 14322 273d 000027B3 		.4byte	0x27b3
 14323 2741 01       		.byte	0x1
 14324 2742 17       		.uleb128 0x17
 14325 2743 000021AD 		.4byte	0x21ad
 14326 2747 00       		.byte	0x0
 14327 2748 00       		.byte	0x0
 14328 2749 11       		.uleb128 0x11
 14329 274a 0000275F 		.4byte	0x275f
 14330 274e 00002759 		.4byte	0x2759
 14331 2752 12       		.uleb128 0x12
 14332 2753 000000C5 		.4byte	0xc5
 14333 2757 08       		.byte	0x8
 14334 2758 00       		.byte	0x0
 14335 2759 36       		.uleb128 0x36
 14336 275a 00000CDE 		.4byte	.LASF427
 14337 275e 01       		.byte	0x1
 14338 275f 05       		.uleb128 0x5
 14339 2760 04       		.byte	0x4
 14340 2761 00002759 		.4byte	0x2759
 14341 2765 05       		.uleb128 0x5
 14342 2766 04       		.byte	0x4
 14343 2767 00002330 		.4byte	0x2330
 14344 276b 11       		.uleb128 0x11
 14345 276c 0000008F 		.4byte	0x8f
 14346 2770 0000277B 		.4byte	0x277b
 14347 2774 12       		.uleb128 0x12
 14348 2775 000000C5 		.4byte	0xc5
 14349 2779 08       		.byte	0x8
 14350 277a 00       		.byte	0x0
 14351 277b 11       		.uleb128 0x11
 14352 277c 00002791 		.4byte	0x2791
 14353 2780 0000278B 		.4byte	0x278b
 14354 2784 12       		.uleb128 0x12
 14355 2785 000000C5 		.4byte	0xc5
 14356 2789 08       		.byte	0x8
 14357 278a 00       		.byte	0x0
 14358 278b 36       		.uleb128 0x36
 14359 278c 00000772 		.4byte	.LASF428
 14360 2790 01       		.byte	0x1
 14361 2791 05       		.uleb128 0x5
 14362 2792 04       		.byte	0x4
 14363 2793 0000278B 		.4byte	0x278b
 14364 2797 11       		.uleb128 0x11
 14365 2798 000027AD 		.4byte	0x27ad
 14366 279c 000027A7 		.4byte	0x27a7
 14367 27a0 12       		.uleb128 0x12
 14368 27a1 000000C5 		.4byte	0xc5
 14369 27a5 08       		.byte	0x8
 14370 27a6 00       		.byte	0x0
 14371 27a7 36       		.uleb128 0x36
 14372 27a8 000007B5 		.4byte	.LASF429
 14373 27ac 01       		.byte	0x1
 14374 27ad 05       		.uleb128 0x5
 14375 27ae 04       		.byte	0x4
 14376 27af 000027A7 		.4byte	0x27a7
 14377 27b3 05       		.uleb128 0x5
 14378 27b4 04       		.byte	0x4
 14379 27b5 0000233C 		.4byte	0x233c
 14380 27b9 41       		.uleb128 0x41
 14381 27ba 04       		.byte	0x4
 14382 27bb 000027BF 		.4byte	0x27bf
 14383 27bf 1D       		.uleb128 0x1d
 14384 27c0 0000233C 		.4byte	0x233c
 14385 27c4 42       		.uleb128 0x42
 14386 27c5 000026DF 		.4byte	0x26df
 14387 27c9 00000000 		.4byte	.LFB801
 14388 27cd 000000C8 		.4byte	.LFE801
 14389 27d1 00000000 		.4byte	.LLST0
 14390 27d5 00002806 		.4byte	0x2806
 14391 27d9 43       		.uleb128 0x43
 14392 27da 000009B4 		.4byte	.LASF430
 14393 27de 00002806 		.4byte	0x2806
 14394 27e2 01       		.byte	0x1
 14395 27e3 0000001F 		.4byte	.LLST1
 14396 27e7 44       		.uleb128 0x44
 14397 27e8 6600     		.string	"f"
 14398 27ea 01       		.byte	0x1
 14399 27eb 0128     		.2byte	0x128
 14400 27ed 0000008F 		.4byte	0x8f
 14401 27f1 00000048 		.4byte	.LLST2
 14402 27f5 45       		.uleb128 0x45
 14403 27f6 00000000 		.4byte	.Ldebug_ranges0+0x0
 14404 27fa 46       		.uleb128 0x46
 14405 27fb 6900     		.string	"i"
 14406 27fd 01       		.byte	0x1
 14407 27fe 012C     		.2byte	0x12c
 14408 2800 0000008F 		.4byte	0x8f
 14409 2804 00       		.byte	0x0
 14410 2805 00       		.byte	0x0
 14411 2806 1D       		.uleb128 0x1d
 14412 2807 000027B3 		.4byte	0x27b3
 14413 280b 42       		.uleb128 0x42
 14414 280c 000026BE 		.4byte	0x26be
 14415 2810 000000C8 		.4byte	.LFB802
 14416 2814 00000150 		.4byte	.LFE802
 14417 2818 00000071 		.4byte	.LLST3
 14418 281c 00002843 		.4byte	0x2843
 14419 2820 43       		.uleb128 0x43
 14420 2821 000009B4 		.4byte	.LASF430
 14421 2825 00002806 		.4byte	0x2806
 14422 2829 01       		.byte	0x1
 14423 282a 00000090 		.4byte	.LLST4
 14424 282e 47       		.uleb128 0x47
 14425 282f 000000FC 		.4byte	.LBB9
 14426 2833 00000138 		.4byte	.LBE9
 14427 2837 46       		.uleb128 0x46
 14428 2838 6900     		.string	"i"
 14429 283a 01       		.byte	0x1
 14430 283b 013B     		.2byte	0x13b
 14431 283d 0000008F 		.4byte	0x8f
 14432 2841 00       		.byte	0x0
 14433 2842 00       		.byte	0x0
 14434 2843 48       		.uleb128 0x48
 14435 2844 0000265D 		.4byte	0x265d
 14436 2848 00000150 		.4byte	.LFB805
 14437 284c 00000198 		.4byte	.LFE805
 14438 2850 01       		.byte	0x1
 14439 2851 51       		.byte	0x51
 14440 2852 00002893 		.4byte	0x2893
 14441 2856 43       		.uleb128 0x43
 14442 2857 000009B4 		.4byte	.LASF430
 14443 285b 00002806 		.4byte	0x2806
 14444 285f 01       		.byte	0x1
 14445 2860 000000AE 		.4byte	.LLST6
 14446 2864 49       		.uleb128 0x49
 14447 2865 00000FED 		.4byte	.LASF431
 14448 2869 01       		.byte	0x1
 14449 286a 0165     		.2byte	0x165
 14450 286c 0000008F 		.4byte	0x8f
 14451 2870 01       		.byte	0x1
 14452 2871 54       		.byte	0x54
 14453 2872 4A       		.uleb128 0x4a
 14454 2873 0000057F 		.4byte	.LASF432
 14455 2877 01       		.byte	0x1
 14456 2878 0165     		.2byte	0x165
 14457 287a 0000008F 		.4byte	0x8f
 14458 287e 000000CC 		.4byte	.LLST7
 14459 2882 4B       		.uleb128 0x4b
 14460 2883 000009CE 		.4byte	.LASF435
 14461 2887 01       		.byte	0x1
 14462 2888 0167     		.2byte	0x167
 14463 288a 0000008F 		.4byte	0x8f
 14464 288e 000000DF 		.4byte	.LLST8
 14465 2892 00       		.byte	0x0
 14466 2893 4C       		.uleb128 0x4c
 14467 2894 00000F0B 		.4byte	.LASF469
 14468 2898 01       		.byte	0x1
 14469 2899 00000198 		.4byte	.LFB811
 14470 289d 000001C0 		.4byte	.LFE811
 14471 28a1 01       		.byte	0x1
 14472 28a2 51       		.byte	0x51
 14473 28a3 000028C4 		.4byte	0x28c4
 14474 28a7 49       		.uleb128 0x49
 14475 28a8 00000382 		.4byte	.LASF433
 14476 28ac 01       		.byte	0x1
 14477 28ad 028D     		.2byte	0x28d
 14478 28af 0000008F 		.4byte	0x8f
 14479 28b3 01       		.byte	0x1
 14480 28b4 53       		.byte	0x53
 14481 28b5 49       		.uleb128 0x49
 14482 28b6 00000640 		.4byte	.LASF434
 14483 28ba 01       		.byte	0x1
 14484 28bb 028D     		.2byte	0x28d
 14485 28bd 0000008F 		.4byte	0x8f
 14486 28c1 01       		.byte	0x1
 14487 28c2 54       		.byte	0x54
 14488 28c3 00       		.byte	0x0
 14489 28c4 4D       		.uleb128 0x4d
 14490 28c5 000004FE 		.4byte	.LASF470
 14491 28c9 01       		.byte	0x1
 14492 28ca 028E     		.2byte	0x28e
 14493 28cc 000001C0 		.4byte	.LFB812
 14494 28d0 000001D0 		.4byte	.LFE812
 14495 28d4 01       		.byte	0x1
 14496 28d5 51       		.byte	0x51
 14497 28d6 42       		.uleb128 0x42
 14498 28d7 000026A1 		.4byte	0x26a1
 14499 28db 000001D0 		.4byte	.LFB804
 14500 28df 00000278 		.4byte	.LFE804
 14501 28e3 000000F2 		.4byte	.LLST11
 14502 28e7 0000291E 		.4byte	0x291e
 14503 28eb 43       		.uleb128 0x43
 14504 28ec 000009B4 		.4byte	.LASF430
 14505 28f0 00002806 		.4byte	0x2806
 14506 28f4 01       		.byte	0x1
 14507 28f5 00000111 		.4byte	.LLST12
 14508 28f9 4B       		.uleb128 0x4b
 14509 28fa 00000A81 		.4byte	.LASF436
 14510 28fe 01       		.byte	0x1
 14511 28ff 0152     		.2byte	0x152
 14512 2901 0000008F 		.4byte	0x8f
 14513 2905 0000013A 		.4byte	.LLST13
 14514 2909 45       		.uleb128 0x45
 14515 290a 00000020 		.4byte	.Ldebug_ranges0+0x20
 14516 290e 4E       		.uleb128 0x4e
 14517 290f 6900     		.string	"i"
 14518 2911 01       		.byte	0x1
 14519 2912 0153     		.2byte	0x153
 14520 2914 0000008F 		.4byte	0x8f
 14521 2918 00000158 		.4byte	.LLST14
 14522 291c 00       		.byte	0x0
 14523 291d 00       		.byte	0x0
 14524 291e 42       		.uleb128 0x42
 14525 291f 00002684 		.4byte	0x2684
 14526 2923 00000278 		.4byte	.LFB803
 14527 2927 00000320 		.4byte	.LFE803
 14528 292b 00000176 		.4byte	.LLST15
 14529 292f 00002966 		.4byte	0x2966
 14530 2933 43       		.uleb128 0x43
 14531 2934 000009B4 		.4byte	.LASF430
 14532 2938 00002806 		.4byte	0x2806
 14533 293c 01       		.byte	0x1
 14534 293d 00000195 		.4byte	.LLST16
 14535 2941 4B       		.uleb128 0x4b
 14536 2942 00000A81 		.4byte	.LASF436
 14537 2946 01       		.byte	0x1
 14538 2947 0143     		.2byte	0x143
 14539 2949 0000008F 		.4byte	0x8f
 14540 294d 000001BE 		.4byte	.LLST17
 14541 2951 45       		.uleb128 0x45
 14542 2952 00000048 		.4byte	.Ldebug_ranges0+0x48
 14543 2956 4E       		.uleb128 0x4e
 14544 2957 6900     		.string	"i"
 14545 2959 01       		.byte	0x1
 14546 295a 0144     		.2byte	0x144
 14547 295c 0000008F 		.4byte	0x8f
 14548 2960 000001DC 		.4byte	.LLST18
 14549 2964 00       		.byte	0x0
 14550 2965 00       		.byte	0x0
 14551 2966 42       		.uleb128 0x42
 14552 2967 0000263F 		.4byte	0x263f
 14553 296b 00000320 		.4byte	.LFB800
 14554 296f 0000038C 		.4byte	.LFE800
 14555 2973 000001FA 		.4byte	.LLST19
 14556 2977 000029A8 		.4byte	0x29a8
 14557 297b 43       		.uleb128 0x43
 14558 297c 000009B4 		.4byte	.LASF430
 14559 2980 00002806 		.4byte	0x2806
 14560 2984 01       		.byte	0x1
 14561 2985 00000219 		.4byte	.LLST20
 14562 2989 44       		.uleb128 0x44
 14563 298a 7800     		.string	"x"
 14564 298c 01       		.byte	0x1
 14565 298d 0122     		.2byte	0x122
 14566 298f 0000008F 		.4byte	0x8f
 14567 2993 00000237 		.4byte	.LLST21
 14568 2997 45       		.uleb128 0x45
 14569 2998 00000070 		.4byte	.Ldebug_ranges0+0x70
 14570 299c 46       		.uleb128 0x46
 14571 299d 6900     		.string	"i"
 14572 299f 01       		.byte	0x1
 14573 29a0 0124     		.2byte	0x124
 14574 29a2 0000008F 		.4byte	0x8f
 14575 29a6 00       		.byte	0x0
 14576 29a7 00       		.byte	0x0
 14577 29a8 42       		.uleb128 0x42
 14578 29a9 00002726 		.4byte	0x2726
 14579 29ad 0000038C 		.4byte	.LFB807
 14580 29b1 00000CF8 		.4byte	.LFE807
 14581 29b5 00000255 		.4byte	.LLST22
 14582 29b9 00002AA2 		.4byte	0x2aa2
 14583 29bd 43       		.uleb128 0x43
 14584 29be 000009B4 		.4byte	.LASF430
 14585 29c2 00002806 		.4byte	0x2806
 14586 29c6 01       		.byte	0x1
 14587 29c7 00000275 		.4byte	.LLST23
 14588 29cb 44       		.uleb128 0x44
 14589 29cc 7400     		.string	"t"
 14590 29ce 01       		.byte	0x1
 14591 29cf 0192     		.2byte	0x192
 14592 29d1 000021AD 		.4byte	0x21ad
 14593 29d5 000002A9 		.4byte	.LLST24
 14594 29d9 4B       		.uleb128 0x4b
 14595 29da 00000189 		.4byte	.LASF437
 14596 29de 01       		.byte	0x1
 14597 29df 0193     		.2byte	0x193
 14598 29e1 0000008F 		.4byte	0x8f
 14599 29e5 000002DD 		.4byte	.LLST25
 14600 29e9 4B       		.uleb128 0x4b
 14601 29ea 0000146E 		.4byte	.LASF438
 14602 29ee 01       		.byte	0x1
 14603 29ef 0193     		.2byte	0x193
 14604 29f1 0000008F 		.4byte	0x8f
 14605 29f5 0000031C 		.4byte	.LLST26
 14606 29f9 4B       		.uleb128 0x4b
 14607 29fa 00000C3F 		.4byte	.LASF439
 14608 29fe 01       		.byte	0x1
 14609 29ff 0193     		.2byte	0x193
 14610 2a01 0000008F 		.4byte	0x8f
 14611 2a05 00000371 		.4byte	.LLST27
 14612 2a09 4F       		.uleb128 0x4f
 14613 2a0a 0000064B 		.4byte	.LASF440
 14614 2a0e 01       		.byte	0x1
 14615 2a0f 01B0     		.2byte	0x1b0
 14616 2a11 0000009D 		.4byte	0x9d
 14617 2a15 50       		.uleb128 0x50
 14618 2a16 00000090 		.4byte	.Ldebug_ranges0+0x90
 14619 2a1a 00002A2D 		.4byte	0x2a2d
 14620 2a1e 4E       		.uleb128 0x4e
 14621 2a1f 6900     		.string	"i"
 14622 2a21 01       		.byte	0x1
 14623 2a22 01BD     		.2byte	0x1bd
 14624 2a24 0000008F 		.4byte	0x8f
 14625 2a28 0000038F 		.4byte	.LLST28
 14626 2a2c 00       		.byte	0x0
 14627 2a2d 45       		.uleb128 0x45
 14628 2a2e 000000B0 		.4byte	.Ldebug_ranges0+0xb0
 14629 2a32 4B       		.uleb128 0x4b
 14630 2a33 0000059F 		.4byte	.LASF441
 14631 2a37 01       		.byte	0x1
 14632 2a38 0246     		.2byte	0x246
 14633 2a3a 0000008F 		.4byte	0x8f
 14634 2a3e 000003EF 		.4byte	.LLST29
 14635 2a42 50       		.uleb128 0x50
 14636 2a43 000000E0 		.4byte	.Ldebug_ranges0+0xe0
 14637 2a47 00002A68 		.4byte	0x2a68
 14638 2a4b 46       		.uleb128 0x46
 14639 2a4c 636E7400 		.string	"cnt"
 14640 2a50 01       		.byte	0x1
 14641 2a51 0201     		.2byte	0x201
 14642 2a53 00000025 		.4byte	0x25
 14643 2a57 4B       		.uleb128 0x4b
 14644 2a58 000012A3 		.4byte	.LASF442
 14645 2a5c 01       		.byte	0x1
 14646 2a5d 0201     		.2byte	0x201
 14647 2a5f 00000025 		.4byte	0x25
 14648 2a63 00000402 		.4byte	.LLST30
 14649 2a67 00       		.byte	0x0
 14650 2a68 50       		.uleb128 0x50
 14651 2a69 000000F8 		.4byte	.Ldebug_ranges0+0xf8
 14652 2a6d 00002A8E 		.4byte	0x2a8e
 14653 2a71 46       		.uleb128 0x46
 14654 2a72 636E7400 		.string	"cnt"
 14655 2a76 01       		.byte	0x1
 14656 2a77 0225     		.2byte	0x225
 14657 2a79 00000025 		.4byte	0x25
 14658 2a7d 4B       		.uleb128 0x4b
 14659 2a7e 000012A3 		.4byte	.LASF442
 14660 2a82 01       		.byte	0x1
 14661 2a83 0225     		.2byte	0x225
 14662 2a85 00000025 		.4byte	0x25
 14663 2a89 0000042B 		.4byte	.LLST31
 14664 2a8d 00       		.byte	0x0
 14665 2a8e 45       		.uleb128 0x45
 14666 2a8f 00000110 		.4byte	.Ldebug_ranges0+0x110
 14667 2a93 4F       		.uleb128 0x4f
 14668 2a94 00000E88 		.4byte	.LASF443
 14669 2a98 01       		.byte	0x1
 14670 2a99 0236     		.2byte	0x236
 14671 2a9b 0000008F 		.4byte	0x8f
 14672 2a9f 00       		.byte	0x0
 14673 2aa0 00       		.byte	0x0
 14674 2aa1 00       		.byte	0x0
 14675 2aa2 42       		.uleb128 0x42
 14676 2aa3 00002705 		.4byte	0x2705
 14677 2aa7 00000CF8 		.4byte	.LFB806
 14678 2aab 00000E50 		.4byte	.LFE806
 14679 2aaf 0000045F 		.4byte	.LLST32
 14680 2ab3 00002AEA 		.4byte	0x2aea
 14681 2ab7 43       		.uleb128 0x43
 14682 2ab8 000009B4 		.4byte	.LASF430
 14683 2abc 00002806 		.4byte	0x2806
 14684 2ac0 01       		.byte	0x1
 14685 2ac1 0000047E 		.4byte	.LLST33
 14686 2ac5 4B       		.uleb128 0x4b
 14687 2ac6 00000189 		.4byte	.LASF437
 14688 2aca 01       		.byte	0x1
 14689 2acb 017C     		.2byte	0x17c
 14690 2acd 0000008F 		.4byte	0x8f
 14691 2ad1 000004B2 		.4byte	.LLST34
 14692 2ad5 47       		.uleb128 0x47
 14693 2ad6 00000D54 		.4byte	.LBB53
 14694 2ada 00000DC8 		.4byte	.LBE53
 14695 2ade 46       		.uleb128 0x46
 14696 2adf 6900     		.string	"i"
 14697 2ae1 01       		.byte	0x1
 14698 2ae2 017E     		.2byte	0x17e
 14699 2ae4 0000008F 		.4byte	0x8f
 14700 2ae8 00       		.byte	0x0
 14701 2ae9 00       		.byte	0x0
 14702 2aea 51       		.uleb128 0x51
 14703 2aeb 00002625 		.4byte	0x2625
 14704 2aef 00       		.byte	0x0
 14705 2af0 00002B09 		.4byte	0x2b09
 14706 2af4 52       		.uleb128 0x52
 14707 2af5 000009B4 		.4byte	.LASF430
 14708 2af9 00002806 		.4byte	0x2806
 14709 2afd 01       		.byte	0x1
 14710 2afe 52       		.uleb128 0x52
 14711 2aff 00001299 		.4byte	.LASF444
 14712 2b03 00001CF2 		.4byte	0x1cf2
 14713 2b07 01       		.byte	0x1
 14714 2b08 00       		.byte	0x0
 14715 2b09 53       		.uleb128 0x53
 14716 2b0a 00002AEA 		.4byte	0x2aea
 14717 2b0e 00000E50 		.4byte	.LFB799
 14718 2b12 000011C8 		.4byte	.LFE799
 14719 2b16 000004D0 		.4byte	.LLST35
 14720 2b1a 00002B37 		.4byte	0x2b37
 14721 2b1e 54       		.uleb128 0x54
 14722 2b1f 00002AF4 		.4byte	0x2af4
 14723 2b23 000004EF 		.4byte	.LLST36
 14724 2b27 47       		.uleb128 0x47
 14725 2b28 00000F2C 		.4byte	.LBB56
 14726 2b2c 00000FAC 		.4byte	.LBE56
 14727 2b30 55       		.uleb128 0x55
 14728 2b31 00000523 		.4byte	.LLST37
 14729 2b35 00       		.byte	0x0
 14730 2b36 00       		.byte	0x0
 14731 2b37 53       		.uleb128 0x53
 14732 2b38 00002AEA 		.4byte	0x2aea
 14733 2b3c 000011C8 		.4byte	.LFB798
 14734 2b40 00001540 		.4byte	.LFE798
 14735 2b44 00000541 		.4byte	.LLST38
 14736 2b48 00002B65 		.4byte	0x2b65
 14737 2b4c 54       		.uleb128 0x54
 14738 2b4d 00002AF4 		.4byte	0x2af4
 14739 2b51 00000560 		.4byte	.LLST39
 14740 2b55 47       		.uleb128 0x47
 14741 2b56 000012A4 		.4byte	.LBB57
 14742 2b5a 00001324 		.4byte	.LBE57
 14743 2b5e 55       		.uleb128 0x55
 14744 2b5f 00000594 		.4byte	.LLST40
 14745 2b63 00       		.byte	0x0
 14746 2b64 00       		.byte	0x0
 14747 2b65 51       		.uleb128 0x51
 14748 2b66 000025EE 		.4byte	0x25ee
 14749 2b6a 00       		.byte	0x0
 14750 2b6b 00002BC1 		.4byte	0x2bc1
 14751 2b6f 52       		.uleb128 0x52
 14752 2b70 000009B4 		.4byte	.LASF430
 14753 2b74 00002806 		.4byte	0x2806
 14754 2b78 01       		.byte	0x1
 14755 2b79 56       		.uleb128 0x56
 14756 2b7a 7700     		.string	"w"
 14757 2b7c 01       		.byte	0x1
 14758 2b7d 85       		.byte	0x85
 14759 2b7e 0000008F 		.4byte	0x8f
 14760 2b82 56       		.uleb128 0x56
 14761 2b83 6800     		.string	"h"
 14762 2b85 01       		.byte	0x1
 14763 2b86 85       		.byte	0x85
 14764 2b87 0000008F 		.4byte	0x8f
 14765 2b8b 56       		.uleb128 0x56
 14766 2b8c 6C00     		.string	"l"
 14767 2b8e 01       		.byte	0x1
 14768 2b8f 85       		.byte	0x85
 14769 2b90 00002765 		.4byte	0x2765
 14770 2b94 57       		.uleb128 0x57
 14771 2b95 00000883 		.4byte	.LASF445
 14772 2b99 01       		.byte	0x1
 14773 2b9a 85       		.byte	0x85
 14774 2b9b 000007F9 		.4byte	0x7f9
 14775 2b9f 57       		.uleb128 0x57
 14776 2ba0 0000056C 		.4byte	.LASF446
 14777 2ba4 01       		.byte	0x1
 14778 2ba5 85       		.byte	0x85
 14779 2ba6 00001FFA 		.4byte	0x1ffa
 14780 2baa 57       		.uleb128 0x57
 14781 2bab 000000BB 		.4byte	.LASF447
 14782 2baf 01       		.byte	0x1
 14783 2bb0 85       		.byte	0x85
 14784 2bb1 0000008F 		.4byte	0x8f
 14785 2bb5 57       		.uleb128 0x57
 14786 2bb6 00000BF0 		.4byte	.LASF448
 14787 2bba 01       		.byte	0x1
 14788 2bbb 85       		.byte	0x85
 14789 2bbc 0000008F 		.4byte	0x8f
 14790 2bc0 00       		.byte	0x0
 14791 2bc1 53       		.uleb128 0x53
 14792 2bc2 00002B65 		.4byte	0x2b65
 14793 2bc6 00001540 		.4byte	.LFB796
 14794 2bca 00001E60 		.4byte	.LFE796
 14795 2bce 000005B2 		.4byte	.LLST41
 14796 2bd2 00002C42 		.4byte	0x2c42
 14797 2bd6 54       		.uleb128 0x54
 14798 2bd7 00002B6F 		.4byte	0x2b6f
 14799 2bdb 000005D2 		.4byte	.LLST42
 14800 2bdf 54       		.uleb128 0x54
 14801 2be0 00002B79 		.4byte	0x2b79
 14802 2be4 000005FB 		.4byte	.LLST43
 14803 2be8 54       		.uleb128 0x54
 14804 2be9 00002B82 		.4byte	0x2b82
 14805 2bed 00000619 		.4byte	.LLST44
 14806 2bf1 54       		.uleb128 0x54
 14807 2bf2 00002B8B 		.4byte	0x2b8b
 14808 2bf6 0000064D 		.4byte	.LLST45
 14809 2bfa 54       		.uleb128 0x54
 14810 2bfb 00002B94 		.4byte	0x2b94
 14811 2bff 0000066B 		.4byte	.LLST46
 14812 2c03 54       		.uleb128 0x54
 14813 2c04 00002B9F 		.4byte	0x2b9f
 14814 2c08 0000069F 		.4byte	.LLST47
 14815 2c0c 54       		.uleb128 0x54
 14816 2c0d 00002BAA 		.4byte	0x2baa
 14817 2c11 000006C8 		.4byte	.LLST48
 14818 2c15 54       		.uleb128 0x54
 14819 2c16 00002BB5 		.4byte	0x2bb5
 14820 2c1a 000006E6 		.4byte	.LLST49
 14821 2c1e 45       		.uleb128 0x45
 14822 2c1f 00000128 		.4byte	.Ldebug_ranges0+0x128
 14823 2c23 58       		.uleb128 0x58
 14824 2c24 03       		.byte	0x3
 14825 2c25 91       		.byte	0x91
 14826 2c26 E07E     		.sleb128 -160
 14827 2c28 47       		.uleb128 0x47
 14828 2c29 00001748 		.4byte	.LBB62
 14829 2c2d 000018D4 		.4byte	.LBE62
 14830 2c31 55       		.uleb128 0x55
 14831 2c32 0000071A 		.4byte	.LLST50
 14832 2c36 59       		.uleb128 0x59
 14833 2c37 00001748 		.4byte	.LBB63
 14834 2c3b 000018C0 		.4byte	.LBE63
 14835 2c3f 00       		.byte	0x0
 14836 2c40 00       		.byte	0x0
 14837 2c41 00       		.byte	0x0
 14838 2c42 53       		.uleb128 0x53
 14839 2c43 00002B65 		.4byte	0x2b65
 14840 2c47 00001E60 		.4byte	.LFB795
 14841 2c4b 00002780 		.4byte	.LFE795
 14842 2c4f 00000743 		.4byte	.LLST51
 14843 2c53 00002CC3 		.4byte	0x2cc3
 14844 2c57 54       		.uleb128 0x54
 14845 2c58 00002B6F 		.4byte	0x2b6f
 14846 2c5c 00000763 		.4byte	.LLST52
 14847 2c60 54       		.uleb128 0x54
 14848 2c61 00002B79 		.4byte	0x2b79
 14849 2c65 0000078C 		.4byte	.LLST53
 14850 2c69 54       		.uleb128 0x54
 14851 2c6a 00002B82 		.4byte	0x2b82
 14852 2c6e 000007AA 		.4byte	.LLST54
 14853 2c72 54       		.uleb128 0x54
 14854 2c73 00002B8B 		.4byte	0x2b8b
 14855 2c77 000007DE 		.4byte	.LLST55
 14856 2c7b 54       		.uleb128 0x54
 14857 2c7c 00002B94 		.4byte	0x2b94
 14858 2c80 000007FC 		.4byte	.LLST56
 14859 2c84 54       		.uleb128 0x54
 14860 2c85 00002B9F 		.4byte	0x2b9f
 14861 2c89 00000830 		.4byte	.LLST57
 14862 2c8d 54       		.uleb128 0x54
 14863 2c8e 00002BAA 		.4byte	0x2baa
 14864 2c92 00000859 		.4byte	.LLST58
 14865 2c96 54       		.uleb128 0x54
 14866 2c97 00002BB5 		.4byte	0x2bb5
 14867 2c9b 00000877 		.4byte	.LLST59
 14868 2c9f 45       		.uleb128 0x45
 14869 2ca0 00000150 		.4byte	.Ldebug_ranges0+0x150
 14870 2ca4 58       		.uleb128 0x58
 14871 2ca5 03       		.byte	0x3
 14872 2ca6 91       		.byte	0x91
 14873 2ca7 E07E     		.sleb128 -160
 14874 2ca9 47       		.uleb128 0x47
 14875 2caa 00002068 		.4byte	.LBB70
 14876 2cae 000021F4 		.4byte	.LBE70
 14877 2cb2 55       		.uleb128 0x55
 14878 2cb3 000008AB 		.4byte	.LLST60
 14879 2cb7 59       		.uleb128 0x59
 14880 2cb8 00002068 		.4byte	.LBB71
 14881 2cbc 000021E0 		.4byte	.LBE71
 14882 2cc0 00       		.byte	0x0
 14883 2cc1 00       		.byte	0x0
 14884 2cc2 00       		.byte	0x0
 14885 2cc3 51       		.uleb128 0x51
 14886 2cc4 000025C1 		.4byte	0x25c1
 14887 2cc8 00       		.byte	0x0
 14888 2cc9 00002D09 		.4byte	0x2d09
 14889 2ccd 52       		.uleb128 0x52
 14890 2cce 000009B4 		.4byte	.LASF430
 14891 2cd2 00002806 		.4byte	0x2806
 14892 2cd6 01       		.byte	0x1
 14893 2cd7 56       		.uleb128 0x56
 14894 2cd8 7700     		.string	"w"
 14895 2cda 01       		.byte	0x1
 14896 2cdb 17       		.byte	0x17
 14897 2cdc 0000008F 		.4byte	0x8f
 14898 2ce0 56       		.uleb128 0x56
 14899 2ce1 6800     		.string	"h"
 14900 2ce3 01       		.byte	0x1
 14901 2ce4 17       		.byte	0x17
 14902 2ce5 0000008F 		.4byte	0x8f
 14903 2ce9 56       		.uleb128 0x56
 14904 2cea 6C00     		.string	"l"
 14905 2cec 01       		.byte	0x1
 14906 2ced 17       		.byte	0x17
 14907 2cee 00002765 		.4byte	0x2765
 14908 2cf2 57       		.uleb128 0x57
 14909 2cf3 0000056C 		.4byte	.LASF446
 14910 2cf7 01       		.byte	0x1
 14911 2cf8 17       		.byte	0x17
 14912 2cf9 00001FFA 		.4byte	0x1ffa
 14913 2cfd 57       		.uleb128 0x57
 14914 2cfe 000000BB 		.4byte	.LASF447
 14915 2d02 01       		.byte	0x1
 14916 2d03 17       		.byte	0x17
 14917 2d04 0000008F 		.4byte	0x8f
 14918 2d08 00       		.byte	0x0
 14919 2d09 53       		.uleb128 0x53
 14920 2d0a 00002CC3 		.4byte	0x2cc3
 14921 2d0e 00002780 		.4byte	.LFB793
 14922 2d12 00002FCC 		.4byte	.LFE793
 14923 2d16 000008D4 		.4byte	.LLST61
 14924 2d1a 00002D6D 		.4byte	0x2d6d
 14925 2d1e 54       		.uleb128 0x54
 14926 2d1f 00002CCD 		.4byte	0x2ccd
 14927 2d23 000008F3 		.4byte	.LLST62
 14928 2d27 54       		.uleb128 0x54
 14929 2d28 00002CD7 		.4byte	0x2cd7
 14930 2d2c 0000091C 		.4byte	.LLST63
 14931 2d30 54       		.uleb128 0x54
 14932 2d31 00002CE0 		.4byte	0x2ce0
 14933 2d35 00000950 		.4byte	.LLST64
 14934 2d39 54       		.uleb128 0x54
 14935 2d3a 00002CE9 		.4byte	0x2ce9
 14936 2d3e 0000096E 		.4byte	.LLST65
 14937 2d42 54       		.uleb128 0x54
 14938 2d43 00002CF2 		.4byte	0x2cf2
 14939 2d47 000009A2 		.4byte	.LLST66
 14940 2d4b 54       		.uleb128 0x54
 14941 2d4c 00002CFD 		.4byte	0x2cfd
 14942 2d50 000009D6 		.4byte	.LLST67
 14943 2d54 47       		.uleb128 0x47
 14944 2d55 00002930 		.4byte	.LBB75
 14945 2d59 00002AC8 		.4byte	.LBE75
 14946 2d5d 55       		.uleb128 0x55
 14947 2d5e 000009F4 		.4byte	.LLST68
 14948 2d62 59       		.uleb128 0x59
 14949 2d63 00002930 		.4byte	.LBB76
 14950 2d67 00002AB4 		.4byte	.LBE76
 14951 2d6b 00       		.byte	0x0
 14952 2d6c 00       		.byte	0x0
 14953 2d6d 53       		.uleb128 0x53
 14954 2d6e 00002CC3 		.4byte	0x2cc3
 14955 2d72 00002FCC 		.4byte	.LFB792
 14956 2d76 00003818 		.4byte	.LFE792
 14957 2d7a 00000A28 		.4byte	.LLST69
 14958 2d7e 00002DD1 		.4byte	0x2dd1
 14959 2d82 54       		.uleb128 0x54
 14960 2d83 00002CCD 		.4byte	0x2ccd
 14961 2d87 00000A47 		.4byte	.LLST70
 14962 2d8b 54       		.uleb128 0x54
 14963 2d8c 00002CD7 		.4byte	0x2cd7
 14964 2d90 00000A70 		.4byte	.LLST71
 14965 2d94 54       		.uleb128 0x54
 14966 2d95 00002CE0 		.4byte	0x2ce0
 14967 2d99 00000AA4 		.4byte	.LLST72
 14968 2d9d 54       		.uleb128 0x54
 14969 2d9e 00002CE9 		.4byte	0x2ce9
 14970 2da2 00000AC2 		.4byte	.LLST73
 14971 2da6 54       		.uleb128 0x54
 14972 2da7 00002CF2 		.4byte	0x2cf2
 14973 2dab 00000AF6 		.4byte	.LLST74
 14974 2daf 54       		.uleb128 0x54
 14975 2db0 00002CFD 		.4byte	0x2cfd
 14976 2db4 00000B2A 		.4byte	.LLST75
 14977 2db8 47       		.uleb128 0x47
 14978 2db9 0000317C 		.4byte	.LBB79
 14979 2dbd 00003314 		.4byte	.LBE79
 14980 2dc1 55       		.uleb128 0x55
 14981 2dc2 00000B48 		.4byte	.LLST76
 14982 2dc6 59       		.uleb128 0x59
 14983 2dc7 0000317C 		.4byte	.LBB80
 14984 2dcb 00003300 		.4byte	.LBE80
 14985 2dcf 00       		.byte	0x0
 14986 2dd0 00       		.byte	0x0
 14987 2dd1 5A       		.uleb128 0x5a
 14988 2dd2 00000049 		.4byte	.LASF449
 14989 2dd6 02       		.byte	0x2
 14990 2dd7 DC       		.byte	0xdc
 14991 2dd8 00002DE2 		.4byte	0x2de2
 14992 2ddc 05       		.byte	0x5
 14993 2ddd 03       		.byte	0x3
 14994 2dde 00000000 		.4byte	ftgxWhite
 14995 2de2 1D       		.uleb128 0x1d
 14996 2de3 00000113 		.4byte	0x113
 14997 2de7 11       		.uleb128 0x11
 14998 2de8 00000025 		.4byte	0x25
 14999 2dec 00002DF2 		.4byte	0x2df2
 15000 2df0 5B       		.uleb128 0x5b
 15001 2df1 00       		.byte	0x0
 15002 2df2 5C       		.uleb128 0x5c
 15003 2df3 00000657 		.4byte	.LASF450
 15004 2df7 21       		.byte	0x21
 15005 2df8 26       		.byte	0x26
 15006 2df9 00002DE7 		.4byte	0x2de7
 15007 2dfd 01       		.byte	0x1
 15008 2dfe 01       		.byte	0x1
 15009 2dff 5C       		.uleb128 0x5c
 15010 2e00 00000033 		.4byte	.LASF451
 15011 2e04 21       		.byte	0x21
 15012 2e05 27       		.byte	0x27
 15013 2e06 00002E0C 		.4byte	0x2e0c
 15014 2e0a 01       		.byte	0x1
 15015 2e0b 01       		.byte	0x1
 15016 2e0c 1D       		.uleb128 0x1d
 15017 2e0d 00000048 		.4byte	0x48
 15018 2e11 5C       		.uleb128 0x5c
 15019 2e12 000013A4 		.4byte	.LASF452
 15020 2e16 21       		.byte	0x21
 15021 2e17 95       		.byte	0x95
 15022 2e18 00002DE7 		.4byte	0x2de7
 15023 2e1c 01       		.byte	0x1
 15024 2e1d 01       		.byte	0x1
 15025 2e1e 5C       		.uleb128 0x5c
 15026 2e1f 00000F43 		.4byte	.LASF453
 15027 2e23 21       		.byte	0x21
 15028 2e24 98       		.byte	0x98
 15029 2e25 00002DE7 		.4byte	0x2de7
 15030 2e29 01       		.byte	0x1
 15031 2e2a 01       		.byte	0x1
 15032 2e2b 5C       		.uleb128 0x5c
 15033 2e2c 0000086D 		.4byte	.LASF454
 15034 2e30 21       		.byte	0x21
 15035 2e31 9B       		.byte	0x9b
 15036 2e32 00002DE7 		.4byte	0x2de7
 15037 2e36 01       		.byte	0x1
 15038 2e37 01       		.byte	0x1
 15039 2e38 5C       		.uleb128 0x5c
 15040 2e39 0000123F 		.4byte	.LASF455
 15041 2e3d 21       		.byte	0x21
 15042 2e3e A1       		.byte	0xa1
 15043 2e3f 00002DE7 		.4byte	0x2de7
 15044 2e43 01       		.byte	0x1
 15045 2e44 01       		.byte	0x1
 15046 2e45 5C       		.uleb128 0x5c
 15047 2e46 00000ABC 		.4byte	.LASF456
 15048 2e4a 21       		.byte	0x21
 15049 2e4b A7       		.byte	0xa7
 15050 2e4c 00002DE7 		.4byte	0x2de7
 15051 2e50 01       		.byte	0x1
 15052 2e51 01       		.byte	0x1
 15053 2e52 5A       		.uleb128 0x5a
 15054 2e53 00000BD8 		.4byte	.LASF457
 15055 2e57 01       		.byte	0x1
 15056 2e58 13       		.byte	0x13
 15057 2e59 0000008F 		.4byte	0x8f
 15058 2e5d 05       		.byte	0x5
 15059 2e5e 03       		.byte	0x3
 15060 2e5f 0000000C 		.4byte	scrollbaron
 15061 2e63 5A       		.uleb128 0x5a
 15062 2e64 00001288 		.4byte	.LASF458
 15063 2e68 01       		.byte	0x1
 15064 2e69 13       		.byte	0x13
 15065 2e6a 0000008F 		.4byte	0x8f
 15066 2e6e 05       		.byte	0x5
 15067 2e6f 03       		.byte	0x3
 15068 2e70 00000008 		.4byte	startat
 15069 2e74 5A       		.uleb128 0x5a
 15070 2e75 000008F7 		.4byte	.LASF459
 15071 2e79 01       		.byte	0x1
 15072 2e7a 13       		.byte	0x13
 15073 2e7b 0000008F 		.4byte	0x8f
 15074 2e7f 05       		.byte	0x5
 15075 2e80 03       		.byte	0x3
 15076 2e81 00000004 		.4byte	loaded
 15077 2e85 00       		.byte	0x0
 15078              		.section	.debug_abbrev
 15079 0000 01       		.uleb128 0x1
 15080 0001 11       		.uleb128 0x11
 15081 0002 01       		.byte	0x1
 15082 0003 25       		.uleb128 0x25
 15083 0004 0E       		.uleb128 0xe
 15084 0005 13       		.uleb128 0x13
 15085 0006 0B       		.uleb128 0xb
 15086 0007 03       		.uleb128 0x3
 15087 0008 0E       		.uleb128 0xe
 15088 0009 1B       		.uleb128 0x1b
 15089 000a 0E       		.uleb128 0xe
 15090 000b 11       		.uleb128 0x11
 15091 000c 01       		.uleb128 0x1
 15092 000d 12       		.uleb128 0x12
 15093 000e 01       		.uleb128 0x1
 15094 000f 10       		.uleb128 0x10
 15095 0010 06       		.uleb128 0x6
 15096 0011 00       		.byte	0x0
 15097 0012 00       		.byte	0x0
 15098 0013 02       		.uleb128 0x2
 15099 0014 16       		.uleb128 0x16
 15100 0015 00       		.byte	0x0
 15101 0016 03       		.uleb128 0x3
 15102 0017 08       		.uleb128 0x8
 15103 0018 3A       		.uleb128 0x3a
 15104 0019 0B       		.uleb128 0xb
 15105 001a 3B       		.uleb128 0x3b
 15106 001b 0B       		.uleb128 0xb
 15107 001c 49       		.uleb128 0x49
 15108 001d 13       		.uleb128 0x13
 15109 001e 00       		.byte	0x0
 15110 001f 00       		.byte	0x0
 15111 0020 03       		.uleb128 0x3
 15112 0021 24       		.uleb128 0x24
 15113 0022 00       		.byte	0x0
 15114 0023 0B       		.uleb128 0xb
 15115 0024 0B       		.uleb128 0xb
 15116 0025 3E       		.uleb128 0x3e
 15117 0026 0B       		.uleb128 0xb
 15118 0027 03       		.uleb128 0x3
 15119 0028 0E       		.uleb128 0xe
 15120 0029 00       		.byte	0x0
 15121 002a 00       		.byte	0x0
 15122 002b 04       		.uleb128 0x4
 15123 002c 24       		.uleb128 0x24
 15124 002d 00       		.byte	0x0
 15125 002e 0B       		.uleb128 0xb
 15126 002f 0B       		.uleb128 0xb
 15127 0030 3E       		.uleb128 0x3e
 15128 0031 0B       		.uleb128 0xb
 15129 0032 03       		.uleb128 0x3
 15130 0033 08       		.uleb128 0x8
 15131 0034 00       		.byte	0x0
 15132 0035 00       		.byte	0x0
 15133 0036 05       		.uleb128 0x5
 15134 0037 0F       		.uleb128 0xf
 15135 0038 00       		.byte	0x0
 15136 0039 0B       		.uleb128 0xb
 15137 003a 0B       		.uleb128 0xb
 15138 003b 49       		.uleb128 0x49
 15139 003c 13       		.uleb128 0x13
 15140 003d 00       		.byte	0x0
 15141 003e 00       		.byte	0x0
 15142 003f 06       		.uleb128 0x6
 15143 0040 15       		.uleb128 0x15
 15144 0041 00       		.byte	0x0
 15145 0042 00       		.byte	0x0
 15146 0043 00       		.byte	0x0
 15147 0044 07       		.uleb128 0x7
 15148 0045 24       		.uleb128 0x24
 15149 0046 00       		.byte	0x0
 15150 0047 0B       		.uleb128 0xb
 15151 0048 0B       		.uleb128 0xb
 15152 0049 3E       		.uleb128 0x3e
 15153 004a 0B       		.uleb128 0xb
 15154 004b 00       		.byte	0x0
 15155 004c 00       		.byte	0x0
 15156 004d 08       		.uleb128 0x8
 15157 004e 0F       		.uleb128 0xf
 15158 004f 00       		.byte	0x0
 15159 0050 0B       		.uleb128 0xb
 15160 0051 0B       		.uleb128 0xb
 15161 0052 00       		.byte	0x0
 15162 0053 00       		.byte	0x0
 15163 0054 09       		.uleb128 0x9
 15164 0055 13       		.uleb128 0x13
 15165 0056 01       		.byte	0x1
 15166 0057 03       		.uleb128 0x3
 15167 0058 0E       		.uleb128 0xe
 15168 0059 0B       		.uleb128 0xb
 15169 005a 0B       		.uleb128 0xb
 15170 005b 3A       		.uleb128 0x3a
 15171 005c 0B       		.uleb128 0xb
 15172 005d 3B       		.uleb128 0x3b
 15173 005e 05       		.uleb128 0x5
 15174 005f 01       		.uleb128 0x1
 15175 0060 13       		.uleb128 0x13
 15176 0061 00       		.byte	0x0
 15177 0062 00       		.byte	0x0
 15178 0063 0A       		.uleb128 0xa
 15179 0064 0D       		.uleb128 0xd
 15180 0065 00       		.byte	0x0
 15181 0066 03       		.uleb128 0x3
 15182 0067 08       		.uleb128 0x8
 15183 0068 3A       		.uleb128 0x3a
 15184 0069 0B       		.uleb128 0xb
 15185 006a 3B       		.uleb128 0x3b
 15186 006b 05       		.uleb128 0x5
 15187 006c 49       		.uleb128 0x49
 15188 006d 13       		.uleb128 0x13
 15189 006e 38       		.uleb128 0x38
 15190 006f 0A       		.uleb128 0xa
 15191 0070 00       		.byte	0x0
 15192 0071 00       		.byte	0x0
 15193 0072 0B       		.uleb128 0xb
 15194 0073 16       		.uleb128 0x16
 15195 0074 00       		.byte	0x0
 15196 0075 03       		.uleb128 0x3
 15197 0076 0E       		.uleb128 0xe
 15198 0077 3A       		.uleb128 0x3a
 15199 0078 0B       		.uleb128 0xb
 15200 0079 3B       		.uleb128 0x3b
 15201 007a 05       		.uleb128 0x5
 15202 007b 49       		.uleb128 0x49
 15203 007c 13       		.uleb128 0x13
 15204 007d 00       		.byte	0x0
 15205 007e 00       		.byte	0x0
 15206 007f 0C       		.uleb128 0xc
 15207 0080 16       		.uleb128 0x16
 15208 0081 00       		.byte	0x0
 15209 0082 03       		.uleb128 0x3
 15210 0083 0E       		.uleb128 0xe
 15211 0084 3A       		.uleb128 0x3a
 15212 0085 0B       		.uleb128 0xb
 15213 0086 3B       		.uleb128 0x3b
 15214 0087 0B       		.uleb128 0xb
 15215 0088 49       		.uleb128 0x49
 15216 0089 13       		.uleb128 0x13
 15217 008a 00       		.byte	0x0
 15218 008b 00       		.byte	0x0
 15219 008c 0D       		.uleb128 0xd
 15220 008d 13       		.uleb128 0x13
 15221 008e 01       		.byte	0x1
 15222 008f 03       		.uleb128 0x3
 15223 0090 08       		.uleb128 0x8
 15224 0091 0B       		.uleb128 0xb
 15225 0092 0B       		.uleb128 0xb
 15226 0093 3A       		.uleb128 0x3a
 15227 0094 0B       		.uleb128 0xb
 15228 0095 3B       		.uleb128 0x3b
 15229 0096 0B       		.uleb128 0xb
 15230 0097 01       		.uleb128 0x1
 15231 0098 13       		.uleb128 0x13
 15232 0099 00       		.byte	0x0
 15233 009a 00       		.byte	0x0
 15234 009b 0E       		.uleb128 0xe
 15235 009c 17       		.uleb128 0x17
 15236 009d 01       		.byte	0x1
 15237 009e 03       		.uleb128 0x3
 15238 009f 08       		.uleb128 0x8
 15239 00a0 0B       		.uleb128 0xb
 15240 00a1 0B       		.uleb128 0xb
 15241 00a2 3A       		.uleb128 0x3a
 15242 00a3 0B       		.uleb128 0xb
 15243 00a4 3B       		.uleb128 0x3b
 15244 00a5 0B       		.uleb128 0xb
 15245 00a6 01       		.uleb128 0x1
 15246 00a7 13       		.uleb128 0x13
 15247 00a8 00       		.byte	0x0
 15248 00a9 00       		.byte	0x0
 15249 00aa 0F       		.uleb128 0xf
 15250 00ab 0D       		.uleb128 0xd
 15251 00ac 00       		.byte	0x0
 15252 00ad 03       		.uleb128 0x3
 15253 00ae 0E       		.uleb128 0xe
 15254 00af 3A       		.uleb128 0x3a
 15255 00b0 0B       		.uleb128 0xb
 15256 00b1 3B       		.uleb128 0x3b
 15257 00b2 0B       		.uleb128 0xb
 15258 00b3 49       		.uleb128 0x49
 15259 00b4 13       		.uleb128 0x13
 15260 00b5 00       		.byte	0x0
 15261 00b6 00       		.byte	0x0
 15262 00b7 10       		.uleb128 0x10
 15263 00b8 0D       		.uleb128 0xd
 15264 00b9 00       		.byte	0x0
 15265 00ba 03       		.uleb128 0x3
 15266 00bb 0E       		.uleb128 0xe
 15267 00bc 3A       		.uleb128 0x3a
 15268 00bd 0B       		.uleb128 0xb
 15269 00be 3B       		.uleb128 0x3b
 15270 00bf 0B       		.uleb128 0xb
 15271 00c0 49       		.uleb128 0x49
 15272 00c1 13       		.uleb128 0x13
 15273 00c2 38       		.uleb128 0x38
 15274 00c3 0A       		.uleb128 0xa
 15275 00c4 00       		.byte	0x0
 15276 00c5 00       		.byte	0x0
 15277 00c6 11       		.uleb128 0x11
 15278 00c7 01       		.uleb128 0x1
 15279 00c8 01       		.byte	0x1
 15280 00c9 49       		.uleb128 0x49
 15281 00ca 13       		.uleb128 0x13
 15282 00cb 01       		.uleb128 0x1
 15283 00cc 13       		.uleb128 0x13
 15284 00cd 00       		.byte	0x0
 15285 00ce 00       		.byte	0x0
 15286 00cf 12       		.uleb128 0x12
 15287 00d0 21       		.uleb128 0x21
 15288 00d1 00       		.byte	0x0
 15289 00d2 49       		.uleb128 0x49
 15290 00d3 13       		.uleb128 0x13
 15291 00d4 2F       		.uleb128 0x2f
 15292 00d5 0B       		.uleb128 0xb
 15293 00d6 00       		.byte	0x0
 15294 00d7 00       		.byte	0x0
 15295 00d8 13       		.uleb128 0x13
 15296 00d9 13       		.uleb128 0x13
 15297 00da 01       		.byte	0x1
 15298 00db 03       		.uleb128 0x3
 15299 00dc 0E       		.uleb128 0xe
 15300 00dd 0B       		.uleb128 0xb
 15301 00de 0B       		.uleb128 0xb
 15302 00df 3A       		.uleb128 0x3a
 15303 00e0 0B       		.uleb128 0xb
 15304 00e1 3B       		.uleb128 0x3b
 15305 00e2 0B       		.uleb128 0xb
 15306 00e3 01       		.uleb128 0x1
 15307 00e4 13       		.uleb128 0x13
 15308 00e5 00       		.byte	0x0
 15309 00e6 00       		.byte	0x0
 15310 00e7 14       		.uleb128 0x14
 15311 00e8 0D       		.uleb128 0xd
 15312 00e9 00       		.byte	0x0
 15313 00ea 03       		.uleb128 0x3
 15314 00eb 08       		.uleb128 0x8
 15315 00ec 3A       		.uleb128 0x3a
 15316 00ed 0B       		.uleb128 0xb
 15317 00ee 3B       		.uleb128 0x3b
 15318 00ef 0B       		.uleb128 0xb
 15319 00f0 49       		.uleb128 0x49
 15320 00f1 13       		.uleb128 0x13
 15321 00f2 38       		.uleb128 0x38
 15322 00f3 0A       		.uleb128 0xa
 15323 00f4 00       		.byte	0x0
 15324 00f5 00       		.byte	0x0
 15325 00f6 15       		.uleb128 0x15
 15326 00f7 13       		.uleb128 0x13
 15327 00f8 01       		.byte	0x1
 15328 00f9 03       		.uleb128 0x3
 15329 00fa 0E       		.uleb128 0xe
 15330 00fb 0B       		.uleb128 0xb
 15331 00fc 05       		.uleb128 0x5
 15332 00fd 3A       		.uleb128 0x3a
 15333 00fe 0B       		.uleb128 0xb
 15334 00ff 3B       		.uleb128 0x3b
 15335 0100 0B       		.uleb128 0xb
 15336 0101 01       		.uleb128 0x1
 15337 0102 13       		.uleb128 0x13
 15338 0103 00       		.byte	0x0
 15339 0104 00       		.byte	0x0
 15340 0105 16       		.uleb128 0x16
 15341 0106 15       		.uleb128 0x15
 15342 0107 01       		.byte	0x1
 15343 0108 49       		.uleb128 0x49
 15344 0109 13       		.uleb128 0x13
 15345 010a 01       		.uleb128 0x1
 15346 010b 13       		.uleb128 0x13
 15347 010c 00       		.byte	0x0
 15348 010d 00       		.byte	0x0
 15349 010e 17       		.uleb128 0x17
 15350 010f 05       		.uleb128 0x5
 15351 0110 00       		.byte	0x0
 15352 0111 49       		.uleb128 0x49
 15353 0112 13       		.uleb128 0x13
 15354 0113 00       		.byte	0x0
 15355 0114 00       		.byte	0x0
 15356 0115 18       		.uleb128 0x18
 15357 0116 13       		.uleb128 0x13
 15358 0117 01       		.byte	0x1
 15359 0118 03       		.uleb128 0x3
 15360 0119 0E       		.uleb128 0xe
 15361 011a 0B       		.uleb128 0xb
 15362 011b 05       		.uleb128 0x5
 15363 011c 3A       		.uleb128 0x3a
 15364 011d 0B       		.uleb128 0xb
 15365 011e 3B       		.uleb128 0x3b
 15366 011f 05       		.uleb128 0x5
 15367 0120 01       		.uleb128 0x1
 15368 0121 13       		.uleb128 0x13
 15369 0122 00       		.byte	0x0
 15370 0123 00       		.byte	0x0
 15371 0124 19       		.uleb128 0x19
 15372 0125 17       		.uleb128 0x17
 15373 0126 01       		.byte	0x1
 15374 0127 03       		.uleb128 0x3
 15375 0128 08       		.uleb128 0x8
 15376 0129 0B       		.uleb128 0xb
 15377 012a 0B       		.uleb128 0xb
 15378 012b 3A       		.uleb128 0x3a
 15379 012c 0B       		.uleb128 0xb
 15380 012d 3B       		.uleb128 0x3b
 15381 012e 05       		.uleb128 0x5
 15382 012f 01       		.uleb128 0x1
 15383 0130 13       		.uleb128 0x13
 15384 0131 00       		.byte	0x0
 15385 0132 00       		.byte	0x0
 15386 0133 1A       		.uleb128 0x1a
 15387 0134 13       		.uleb128 0x13
 15388 0135 01       		.byte	0x1
 15389 0136 03       		.uleb128 0x3
 15390 0137 08       		.uleb128 0x8
 15391 0138 0B       		.uleb128 0xb
 15392 0139 0B       		.uleb128 0xb
 15393 013a 3A       		.uleb128 0x3a
 15394 013b 0B       		.uleb128 0xb
 15395 013c 3B       		.uleb128 0x3b
 15396 013d 05       		.uleb128 0x5
 15397 013e 01       		.uleb128 0x1
 15398 013f 13       		.uleb128 0x13
 15399 0140 00       		.byte	0x0
 15400 0141 00       		.byte	0x0
 15401 0142 1B       		.uleb128 0x1b
 15402 0143 0D       		.uleb128 0xd
 15403 0144 00       		.byte	0x0
 15404 0145 03       		.uleb128 0x3
 15405 0146 0E       		.uleb128 0xe
 15406 0147 3A       		.uleb128 0x3a
 15407 0148 0B       		.uleb128 0xb
 15408 0149 3B       		.uleb128 0x3b
 15409 014a 05       		.uleb128 0x5
 15410 014b 49       		.uleb128 0x49
 15411 014c 13       		.uleb128 0x13
 15412 014d 38       		.uleb128 0x38
 15413 014e 0A       		.uleb128 0xa
 15414 014f 00       		.byte	0x0
 15415 0150 00       		.byte	0x0
 15416 0151 1C       		.uleb128 0x1c
 15417 0152 0D       		.uleb128 0xd
 15418 0153 00       		.byte	0x0
 15419 0154 03       		.uleb128 0x3
 15420 0155 0E       		.uleb128 0xe
 15421 0156 3A       		.uleb128 0x3a
 15422 0157 0B       		.uleb128 0xb
 15423 0158 3B       		.uleb128 0x3b
 15424 0159 05       		.uleb128 0x5
 15425 015a 49       		.uleb128 0x49
 15426 015b 13       		.uleb128 0x13
 15427 015c 00       		.byte	0x0
 15428 015d 00       		.byte	0x0
 15429 015e 1D       		.uleb128 0x1d
 15430 015f 26       		.uleb128 0x26
 15431 0160 00       		.byte	0x0
 15432 0161 49       		.uleb128 0x49
 15433 0162 13       		.uleb128 0x13
 15434 0163 00       		.byte	0x0
 15435 0164 00       		.byte	0x0
 15436 0165 1E       		.uleb128 0x1e
 15437 0166 15       		.uleb128 0x15
 15438 0167 01       		.byte	0x1
 15439 0168 01       		.uleb128 0x1
 15440 0169 13       		.uleb128 0x13
 15441 016a 00       		.byte	0x0
 15442 016b 00       		.byte	0x0
 15443 016c 1F       		.uleb128 0x1f
 15444 016d 26       		.uleb128 0x26
 15445 016e 00       		.byte	0x0
 15446 016f 00       		.byte	0x0
 15447 0170 00       		.byte	0x0
 15448 0171 20       		.uleb128 0x20
 15449 0172 39       		.uleb128 0x39
 15450 0173 01       		.byte	0x1
 15451 0174 03       		.uleb128 0x3
 15452 0175 08       		.uleb128 0x8
 15453 0176 3A       		.uleb128 0x3a
 15454 0177 0B       		.uleb128 0xb
 15455 0178 3B       		.uleb128 0x3b
 15456 0179 0B       		.uleb128 0xb
 15457 017a 01       		.uleb128 0x1
 15458 017b 13       		.uleb128 0x13
 15459 017c 00       		.byte	0x0
 15460 017d 00       		.byte	0x0
 15461 017e 21       		.uleb128 0x21
 15462 017f 08       		.uleb128 0x8
 15463 0180 00       		.byte	0x0
 15464 0181 3A       		.uleb128 0x3a
 15465 0182 0B       		.uleb128 0xb
 15466 0183 3B       		.uleb128 0x3b
 15467 0184 0B       		.uleb128 0xb
 15468 0185 18       		.uleb128 0x18
 15469 0186 13       		.uleb128 0x13
 15470 0187 00       		.byte	0x0
 15471 0188 00       		.byte	0x0
 15472 0189 22       		.uleb128 0x22
 15473 018a 39       		.uleb128 0x39
 15474 018b 00       		.byte	0x0
 15475 018c 03       		.uleb128 0x3
 15476 018d 0E       		.uleb128 0xe
 15477 018e 3A       		.uleb128 0x3a
 15478 018f 0B       		.uleb128 0xb
 15479 0190 3B       		.uleb128 0x3b
 15480 0191 0B       		.uleb128 0xb
 15481 0192 00       		.byte	0x0
 15482 0193 00       		.byte	0x0
 15483 0194 23       		.uleb128 0x23
 15484 0195 2E       		.uleb128 0x2e
 15485 0196 01       		.byte	0x1
 15486 0197 3F       		.uleb128 0x3f
 15487 0198 0C       		.uleb128 0xc
 15488 0199 03       		.uleb128 0x3
 15489 019a 0E       		.uleb128 0xe
 15490 019b 3A       		.uleb128 0x3a
 15491 019c 0B       		.uleb128 0xb
 15492 019d 3B       		.uleb128 0x3b
 15493 019e 0B       		.uleb128 0xb
 15494 019f 49       		.uleb128 0x49
 15495 01a0 13       		.uleb128 0x13
 15496 01a1 3C       		.uleb128 0x3c
 15497 01a2 0C       		.uleb128 0xc
 15498 01a3 01       		.uleb128 0x1
 15499 01a4 13       		.uleb128 0x13
 15500 01a5 00       		.byte	0x0
 15501 01a6 00       		.byte	0x0
 15502 01a7 24       		.uleb128 0x24
 15503 01a8 2E       		.uleb128 0x2e
 15504 01a9 01       		.byte	0x1
 15505 01aa 3F       		.uleb128 0x3f
 15506 01ab 0C       		.uleb128 0xc
 15507 01ac 03       		.uleb128 0x3
 15508 01ad 08       		.uleb128 0x8
 15509 01ae 3A       		.uleb128 0x3a
 15510 01af 0B       		.uleb128 0xb
 15511 01b0 3B       		.uleb128 0x3b
 15512 01b1 0B       		.uleb128 0xb
 15513 01b2 49       		.uleb128 0x49
 15514 01b3 13       		.uleb128 0x13
 15515 01b4 3C       		.uleb128 0x3c
 15516 01b5 0C       		.uleb128 0xc
 15517 01b6 01       		.uleb128 0x1
 15518 01b7 13       		.uleb128 0x13
 15519 01b8 00       		.byte	0x0
 15520 01b9 00       		.byte	0x0
 15521 01ba 25       		.uleb128 0x25
 15522 01bb 2E       		.uleb128 0x2e
 15523 01bc 01       		.byte	0x1
 15524 01bd 3F       		.uleb128 0x3f
 15525 01be 0C       		.uleb128 0xc
 15526 01bf 03       		.uleb128 0x3
 15527 01c0 0E       		.uleb128 0xe
 15528 01c1 3A       		.uleb128 0x3a
 15529 01c2 0B       		.uleb128 0xb
 15530 01c3 3B       		.uleb128 0x3b
 15531 01c4 0B       		.uleb128 0xb
 15532 01c5 3C       		.uleb128 0x3c
 15533 01c6 0C       		.uleb128 0xc
 15534 01c7 01       		.uleb128 0x1
 15535 01c8 13       		.uleb128 0x13
 15536 01c9 00       		.byte	0x0
 15537 01ca 00       		.byte	0x0
 15538 01cb 26       		.uleb128 0x26
 15539 01cc 2E       		.uleb128 0x2e
 15540 01cd 00       		.byte	0x0
 15541 01ce 3F       		.uleb128 0x3f
 15542 01cf 0C       		.uleb128 0xc
 15543 01d0 03       		.uleb128 0x3
 15544 01d1 0E       		.uleb128 0xe
 15545 01d2 3A       		.uleb128 0x3a
 15546 01d3 0B       		.uleb128 0xb
 15547 01d4 3B       		.uleb128 0x3b
 15548 01d5 0B       		.uleb128 0xb
 15549 01d6 49       		.uleb128 0x49
 15550 01d7 13       		.uleb128 0x13
 15551 01d8 3C       		.uleb128 0x3c
 15552 01d9 0C       		.uleb128 0xc
 15553 01da 00       		.byte	0x0
 15554 01db 00       		.byte	0x0
 15555 01dc 27       		.uleb128 0x27
 15556 01dd 39       		.uleb128 0x39
 15557 01de 01       		.byte	0x1
 15558 01df 03       		.uleb128 0x3
 15559 01e0 0E       		.uleb128 0xe
 15560 01e1 3A       		.uleb128 0x3a
 15561 01e2 0B       		.uleb128 0xb
 15562 01e3 3B       		.uleb128 0x3b
 15563 01e4 0B       		.uleb128 0xb
 15564 01e5 01       		.uleb128 0x1
 15565 01e6 13       		.uleb128 0x13
 15566 01e7 00       		.byte	0x0
 15567 01e8 00       		.byte	0x0
 15568 01e9 28       		.uleb128 0x28
 15569 01ea 3A       		.uleb128 0x3a
 15570 01eb 00       		.byte	0x0
 15571 01ec 3A       		.uleb128 0x3a
 15572 01ed 0B       		.uleb128 0xb
 15573 01ee 3B       		.uleb128 0x3b
 15574 01ef 0B       		.uleb128 0xb
 15575 01f0 18       		.uleb128 0x18
 15576 01f1 13       		.uleb128 0x13
 15577 01f2 00       		.byte	0x0
 15578 01f3 00       		.byte	0x0
 15579 01f4 29       		.uleb128 0x29
 15580 01f5 04       		.uleb128 0x4
 15581 01f6 01       		.byte	0x1
 15582 01f7 03       		.uleb128 0x3
 15583 01f8 0E       		.uleb128 0xe
 15584 01f9 0B       		.uleb128 0xb
 15585 01fa 0B       		.uleb128 0xb
 15586 01fb 3A       		.uleb128 0x3a
 15587 01fc 0B       		.uleb128 0xb
 15588 01fd 3B       		.uleb128 0x3b
 15589 01fe 0B       		.uleb128 0xb
 15590 01ff 01       		.uleb128 0x1
 15591 0200 13       		.uleb128 0x13
 15592 0201 00       		.byte	0x0
 15593 0202 00       		.byte	0x0
 15594 0203 2A       		.uleb128 0x2a
 15595 0204 28       		.uleb128 0x28
 15596 0205 00       		.byte	0x0
 15597 0206 03       		.uleb128 0x3
 15598 0207 0E       		.uleb128 0xe
 15599 0208 1C       		.uleb128 0x1c
 15600 0209 0D       		.uleb128 0xd
 15601 020a 00       		.byte	0x0
 15602 020b 00       		.byte	0x0
 15603 020c 2B       		.uleb128 0x2b
 15604 020d 04       		.uleb128 0x4
 15605 020e 01       		.byte	0x1
 15606 020f 03       		.uleb128 0x3
 15607 0210 0E       		.uleb128 0xe
 15608 0211 0B       		.uleb128 0xb
 15609 0212 0B       		.uleb128 0xb
 15610 0213 3A       		.uleb128 0x3a
 15611 0214 0B       		.uleb128 0xb
 15612 0215 3B       		.uleb128 0x3b
 15613 0216 05       		.uleb128 0x5
 15614 0217 01       		.uleb128 0x1
 15615 0218 13       		.uleb128 0x13
 15616 0219 00       		.byte	0x0
 15617 021a 00       		.byte	0x0
 15618 021b 2C       		.uleb128 0x2c
 15619 021c 17       		.uleb128 0x17
 15620 021d 01       		.byte	0x1
 15621 021e 03       		.uleb128 0x3
 15622 021f 0E       		.uleb128 0xe
 15623 0220 0B       		.uleb128 0xb
 15624 0221 0B       		.uleb128 0xb
 15625 0222 3A       		.uleb128 0x3a
 15626 0223 0B       		.uleb128 0xb
 15627 0224 3B       		.uleb128 0x3b
 15628 0225 05       		.uleb128 0x5
 15629 0226 01       		.uleb128 0x1
 15630 0227 13       		.uleb128 0x13
 15631 0228 00       		.byte	0x0
 15632 0229 00       		.byte	0x0
 15633 022a 2D       		.uleb128 0x2d
 15634 022b 0D       		.uleb128 0xd
 15635 022c 00       		.byte	0x0
 15636 022d 03       		.uleb128 0x3
 15637 022e 08       		.uleb128 0x8
 15638 022f 3A       		.uleb128 0x3a
 15639 0230 0B       		.uleb128 0xb
 15640 0231 3B       		.uleb128 0x3b
 15641 0232 05       		.uleb128 0x5
 15642 0233 49       		.uleb128 0x49
 15643 0234 13       		.uleb128 0x13
 15644 0235 00       		.byte	0x0
 15645 0236 00       		.byte	0x0
 15646 0237 2E       		.uleb128 0x2e
 15647 0238 0D       		.uleb128 0xd
 15648 0239 00       		.byte	0x0
 15649 023a 49       		.uleb128 0x49
 15650 023b 13       		.uleb128 0x13
 15651 023c 38       		.uleb128 0x38
 15652 023d 0A       		.uleb128 0xa
 15653 023e 00       		.byte	0x0
 15654 023f 00       		.byte	0x0
 15655 0240 2F       		.uleb128 0x2f
 15656 0241 0D       		.uleb128 0xd
 15657 0242 00       		.byte	0x0
 15658 0243 03       		.uleb128 0x3
 15659 0244 0E       		.uleb128 0xe
 15660 0245 3A       		.uleb128 0x3a
 15661 0246 0B       		.uleb128 0xb
 15662 0247 3B       		.uleb128 0x3b
 15663 0248 0B       		.uleb128 0xb
 15664 0249 49       		.uleb128 0x49
 15665 024a 13       		.uleb128 0x13
 15666 024b 38       		.uleb128 0x38
 15667 024c 0A       		.uleb128 0xa
 15668 024d 32       		.uleb128 0x32
 15669 024e 0B       		.uleb128 0xb
 15670 024f 00       		.byte	0x0
 15671 0250 00       		.byte	0x0
 15672 0251 30       		.uleb128 0x30
 15673 0252 05       		.uleb128 0x5
 15674 0253 00       		.byte	0x0
 15675 0254 49       		.uleb128 0x49
 15676 0255 13       		.uleb128 0x13
 15677 0256 34       		.uleb128 0x34
 15678 0257 0C       		.uleb128 0xc
 15679 0258 00       		.byte	0x0
 15680 0259 00       		.byte	0x0
 15681 025a 31       		.uleb128 0x31
 15682 025b 2E       		.uleb128 0x2e
 15683 025c 01       		.byte	0x1
 15684 025d 3F       		.uleb128 0x3f
 15685 025e 0C       		.uleb128 0xc
 15686 025f 03       		.uleb128 0x3
 15687 0260 0E       		.uleb128 0xe
 15688 0261 3A       		.uleb128 0x3a
 15689 0262 0B       		.uleb128 0xb
 15690 0263 3B       		.uleb128 0x3b
 15691 0264 0B       		.uleb128 0xb
 15692 0265 8740     		.uleb128 0x2007
 15693 0267 0E       		.uleb128 0xe
 15694 0268 3C       		.uleb128 0x3c
 15695 0269 0C       		.uleb128 0xc
 15696 026a 01       		.uleb128 0x1
 15697 026b 13       		.uleb128 0x13
 15698 026c 00       		.byte	0x0
 15699 026d 00       		.byte	0x0
 15700 026e 32       		.uleb128 0x32
 15701 026f 2E       		.uleb128 0x2e
 15702 0270 01       		.byte	0x1
 15703 0271 3F       		.uleb128 0x3f
 15704 0272 0C       		.uleb128 0xc
 15705 0273 03       		.uleb128 0x3
 15706 0274 0E       		.uleb128 0xe
 15707 0275 3A       		.uleb128 0x3a
 15708 0276 0B       		.uleb128 0xb
 15709 0277 3B       		.uleb128 0x3b
 15710 0278 0B       		.uleb128 0xb
 15711 0279 8740     		.uleb128 0x2007
 15712 027b 0E       		.uleb128 0xe
 15713 027c 49       		.uleb128 0x49
 15714 027d 13       		.uleb128 0x13
 15715 027e 3C       		.uleb128 0x3c
 15716 027f 0C       		.uleb128 0xc
 15717 0280 01       		.uleb128 0x1
 15718 0281 13       		.uleb128 0x13
 15719 0282 00       		.byte	0x0
 15720 0283 00       		.byte	0x0
 15721 0284 33       		.uleb128 0x33
 15722 0285 2E       		.uleb128 0x2e
 15723 0286 01       		.byte	0x1
 15724 0287 3F       		.uleb128 0x3f
 15725 0288 0C       		.uleb128 0xc
 15726 0289 03       		.uleb128 0x3
 15727 028a 0E       		.uleb128 0xe
 15728 028b 3A       		.uleb128 0x3a
 15729 028c 0B       		.uleb128 0xb
 15730 028d 3B       		.uleb128 0x3b
 15731 028e 0B       		.uleb128 0xb
 15732 028f 8740     		.uleb128 0x2007
 15733 0291 0E       		.uleb128 0xe
 15734 0292 3C       		.uleb128 0x3c
 15735 0293 0C       		.uleb128 0xc
 15736 0294 00       		.byte	0x0
 15737 0295 00       		.byte	0x0
 15738 0296 34       		.uleb128 0x34
 15739 0297 2E       		.uleb128 0x2e
 15740 0298 01       		.byte	0x1
 15741 0299 3F       		.uleb128 0x3f
 15742 029a 0C       		.uleb128 0xc
 15743 029b 03       		.uleb128 0x3
 15744 029c 08       		.uleb128 0x8
 15745 029d 3A       		.uleb128 0x3a
 15746 029e 0B       		.uleb128 0xb
 15747 029f 3B       		.uleb128 0x3b
 15748 02a0 0B       		.uleb128 0xb
 15749 02a1 8740     		.uleb128 0x2007
 15750 02a3 0E       		.uleb128 0xe
 15751 02a4 49       		.uleb128 0x49
 15752 02a5 13       		.uleb128 0x13
 15753 02a6 3C       		.uleb128 0x3c
 15754 02a7 0C       		.uleb128 0xc
 15755 02a8 01       		.uleb128 0x1
 15756 02a9 13       		.uleb128 0x13
 15757 02aa 00       		.byte	0x0
 15758 02ab 00       		.byte	0x0
 15759 02ac 35       		.uleb128 0x35
 15760 02ad 2E       		.uleb128 0x2e
 15761 02ae 01       		.byte	0x1
 15762 02af 3F       		.uleb128 0x3f
 15763 02b0 0C       		.uleb128 0xc
 15764 02b1 03       		.uleb128 0x3
 15765 02b2 0E       		.uleb128 0xe
 15766 02b3 3A       		.uleb128 0x3a
 15767 02b4 0B       		.uleb128 0xb
 15768 02b5 3B       		.uleb128 0x3b
 15769 02b6 0B       		.uleb128 0xb
 15770 02b7 8740     		.uleb128 0x2007
 15771 02b9 0E       		.uleb128 0xe
 15772 02ba 49       		.uleb128 0x49
 15773 02bb 13       		.uleb128 0x13
 15774 02bc 3C       		.uleb128 0x3c
 15775 02bd 0C       		.uleb128 0xc
 15776 02be 00       		.byte	0x0
 15777 02bf 00       		.byte	0x0
 15778 02c0 36       		.uleb128 0x36
 15779 02c1 13       		.uleb128 0x13
 15780 02c2 00       		.byte	0x0
 15781 02c3 03       		.uleb128 0x3
 15782 02c4 0E       		.uleb128 0xe
 15783 02c5 3C       		.uleb128 0x3c
 15784 02c6 0C       		.uleb128 0xc
 15785 02c7 00       		.byte	0x0
 15786 02c8 00       		.byte	0x0
 15787 02c9 37       		.uleb128 0x37
 15788 02ca 0D       		.uleb128 0xd
 15789 02cb 00       		.byte	0x0
 15790 02cc 03       		.uleb128 0x3
 15791 02cd 0E       		.uleb128 0xe
 15792 02ce 3A       		.uleb128 0x3a
 15793 02cf 0B       		.uleb128 0xb
 15794 02d0 3B       		.uleb128 0x3b
 15795 02d1 05       		.uleb128 0x5
 15796 02d2 49       		.uleb128 0x49
 15797 02d3 13       		.uleb128 0x13
 15798 02d4 38       		.uleb128 0x38
 15799 02d5 0A       		.uleb128 0xa
 15800 02d6 32       		.uleb128 0x32
 15801 02d7 0B       		.uleb128 0xb
 15802 02d8 00       		.byte	0x0
 15803 02d9 00       		.byte	0x0
 15804 02da 38       		.uleb128 0x38
 15805 02db 2E       		.uleb128 0x2e
 15806 02dc 01       		.byte	0x1
 15807 02dd 3F       		.uleb128 0x3f
 15808 02de 0C       		.uleb128 0xc
 15809 02df 03       		.uleb128 0x3
 15810 02e0 0E       		.uleb128 0xe
 15811 02e1 3A       		.uleb128 0x3a
 15812 02e2 0B       		.uleb128 0xb
 15813 02e3 3B       		.uleb128 0x3b
 15814 02e4 05       		.uleb128 0x5
 15815 02e5 3C       		.uleb128 0x3c
 15816 02e6 0C       		.uleb128 0xc
 15817 02e7 01       		.uleb128 0x1
 15818 02e8 13       		.uleb128 0x13
 15819 02e9 00       		.byte	0x0
 15820 02ea 00       		.byte	0x0
 15821 02eb 39       		.uleb128 0x39
 15822 02ec 2E       		.uleb128 0x2e
 15823 02ed 01       		.byte	0x1
 15824 02ee 3F       		.uleb128 0x3f
 15825 02ef 0C       		.uleb128 0xc
 15826 02f0 03       		.uleb128 0x3
 15827 02f1 0E       		.uleb128 0xe
 15828 02f2 3A       		.uleb128 0x3a
 15829 02f3 0B       		.uleb128 0xb
 15830 02f4 3B       		.uleb128 0x3b
 15831 02f5 05       		.uleb128 0x5
 15832 02f6 8740     		.uleb128 0x2007
 15833 02f8 0E       		.uleb128 0xe
 15834 02f9 49       		.uleb128 0x49
 15835 02fa 13       		.uleb128 0x13
 15836 02fb 3C       		.uleb128 0x3c
 15837 02fc 0C       		.uleb128 0xc
 15838 02fd 01       		.uleb128 0x1
 15839 02fe 13       		.uleb128 0x13
 15840 02ff 00       		.byte	0x0
 15841 0300 00       		.byte	0x0
 15842 0301 3A       		.uleb128 0x3a
 15843 0302 2E       		.uleb128 0x2e
 15844 0303 01       		.byte	0x1
 15845 0304 3F       		.uleb128 0x3f
 15846 0305 0C       		.uleb128 0xc
 15847 0306 03       		.uleb128 0x3
 15848 0307 0E       		.uleb128 0xe
 15849 0308 3A       		.uleb128 0x3a
 15850 0309 0B       		.uleb128 0xb
 15851 030a 3B       		.uleb128 0x3b
 15852 030b 05       		.uleb128 0x5
 15853 030c 8740     		.uleb128 0x2007
 15854 030e 0E       		.uleb128 0xe
 15855 030f 3C       		.uleb128 0x3c
 15856 0310 0C       		.uleb128 0xc
 15857 0311 00       		.byte	0x0
 15858 0312 00       		.byte	0x0
 15859 0313 3B       		.uleb128 0x3b
 15860 0314 13       		.uleb128 0x13
 15861 0315 01       		.byte	0x1
 15862 0316 03       		.uleb128 0x3
 15863 0317 0E       		.uleb128 0xe
 15864 0318 0B       		.uleb128 0xb
 15865 0319 05       		.uleb128 0x5
 15866 031a 3A       		.uleb128 0x3a
 15867 031b 0B       		.uleb128 0xb
 15868 031c 3B       		.uleb128 0x3b
 15869 031d 05       		.uleb128 0x5
 15870 031e 1D       		.uleb128 0x1d
 15871 031f 13       		.uleb128 0x13
 15872 0320 01       		.uleb128 0x1
 15873 0321 13       		.uleb128 0x13
 15874 0322 00       		.byte	0x0
 15875 0323 00       		.byte	0x0
 15876 0324 3C       		.uleb128 0x3c
 15877 0325 1C       		.uleb128 0x1c
 15878 0326 00       		.byte	0x0
 15879 0327 49       		.uleb128 0x49
 15880 0328 13       		.uleb128 0x13
 15881 0329 38       		.uleb128 0x38
 15882 032a 0A       		.uleb128 0xa
 15883 032b 32       		.uleb128 0x32
 15884 032c 0B       		.uleb128 0xb
 15885 032d 00       		.byte	0x0
 15886 032e 00       		.byte	0x0
 15887 032f 3D       		.uleb128 0x3d
 15888 0330 2E       		.uleb128 0x2e
 15889 0331 01       		.byte	0x1
 15890 0332 3F       		.uleb128 0x3f
 15891 0333 0C       		.uleb128 0xc
 15892 0334 03       		.uleb128 0x3
 15893 0335 0E       		.uleb128 0xe
 15894 0336 34       		.uleb128 0x34
 15895 0337 0C       		.uleb128 0xc
 15896 0338 3C       		.uleb128 0x3c
 15897 0339 0C       		.uleb128 0xc
 15898 033a 01       		.uleb128 0x1
 15899 033b 13       		.uleb128 0x13
 15900 033c 00       		.byte	0x0
 15901 033d 00       		.byte	0x0
 15902 033e 3E       		.uleb128 0x3e
 15903 033f 2E       		.uleb128 0x2e
 15904 0340 01       		.byte	0x1
 15905 0341 3F       		.uleb128 0x3f
 15906 0342 0C       		.uleb128 0xc
 15907 0343 03       		.uleb128 0x3
 15908 0344 0E       		.uleb128 0xe
 15909 0345 3A       		.uleb128 0x3a
 15910 0346 0B       		.uleb128 0xb
 15911 0347 3B       		.uleb128 0x3b
 15912 0348 05       		.uleb128 0x5
 15913 0349 8740     		.uleb128 0x2007
 15914 034b 0E       		.uleb128 0xe
 15915 034c 3C       		.uleb128 0x3c
 15916 034d 0C       		.uleb128 0xc
 15917 034e 01       		.uleb128 0x1
 15918 034f 13       		.uleb128 0x13
 15919 0350 00       		.byte	0x0
 15920 0351 00       		.byte	0x0
 15921 0352 3F       		.uleb128 0x3f
 15922 0353 2E       		.uleb128 0x2e
 15923 0354 01       		.byte	0x1
 15924 0355 3F       		.uleb128 0x3f
 15925 0356 0C       		.uleb128 0xc
 15926 0357 03       		.uleb128 0x3
 15927 0358 0E       		.uleb128 0xe
 15928 0359 3A       		.uleb128 0x3a
 15929 035a 0B       		.uleb128 0xb
 15930 035b 3B       		.uleb128 0x3b
 15931 035c 05       		.uleb128 0x5
 15932 035d 8740     		.uleb128 0x2007
 15933 035f 0E       		.uleb128 0xe
 15934 0360 4C       		.uleb128 0x4c
 15935 0361 0B       		.uleb128 0xb
 15936 0362 4D       		.uleb128 0x4d
 15937 0363 0A       		.uleb128 0xa
 15938 0364 1D       		.uleb128 0x1d
 15939 0365 13       		.uleb128 0x13
 15940 0366 3C       		.uleb128 0x3c
 15941 0367 0C       		.uleb128 0xc
 15942 0368 01       		.uleb128 0x1
 15943 0369 13       		.uleb128 0x13
 15944 036a 00       		.byte	0x0
 15945 036b 00       		.byte	0x0
 15946 036c 40       		.uleb128 0x40
 15947 036d 2E       		.uleb128 0x2e
 15948 036e 01       		.byte	0x1
 15949 036f 3F       		.uleb128 0x3f
 15950 0370 0C       		.uleb128 0xc
 15951 0371 03       		.uleb128 0x3
 15952 0372 0E       		.uleb128 0xe
 15953 0373 3A       		.uleb128 0x3a
 15954 0374 0B       		.uleb128 0xb
 15955 0375 3B       		.uleb128 0x3b
 15956 0376 05       		.uleb128 0x5
 15957 0377 8740     		.uleb128 0x2007
 15958 0379 0E       		.uleb128 0xe
 15959 037a 4C       		.uleb128 0x4c
 15960 037b 0B       		.uleb128 0xb
 15961 037c 4D       		.uleb128 0x4d
 15962 037d 0A       		.uleb128 0xa
 15963 037e 1D       		.uleb128 0x1d
 15964 037f 13       		.uleb128 0x13
 15965 0380 3C       		.uleb128 0x3c
 15966 0381 0C       		.uleb128 0xc
 15967 0382 00       		.byte	0x0
 15968 0383 00       		.byte	0x0
 15969 0384 41       		.uleb128 0x41
 15970 0385 10       		.uleb128 0x10
 15971 0386 00       		.byte	0x0
 15972 0387 0B       		.uleb128 0xb
 15973 0388 0B       		.uleb128 0xb
 15974 0389 49       		.uleb128 0x49
 15975 038a 13       		.uleb128 0x13
 15976 038b 00       		.byte	0x0
 15977 038c 00       		.byte	0x0
 15978 038d 42       		.uleb128 0x42
 15979 038e 2E       		.uleb128 0x2e
 15980 038f 01       		.byte	0x1
 15981 0390 47       		.uleb128 0x47
 15982 0391 13       		.uleb128 0x13
 15983 0392 11       		.uleb128 0x11
 15984 0393 01       		.uleb128 0x1
 15985 0394 12       		.uleb128 0x12
 15986 0395 01       		.uleb128 0x1
 15987 0396 40       		.uleb128 0x40
 15988 0397 06       		.uleb128 0x6
 15989 0398 01       		.uleb128 0x1
 15990 0399 13       		.uleb128 0x13
 15991 039a 00       		.byte	0x0
 15992 039b 00       		.byte	0x0
 15993 039c 43       		.uleb128 0x43
 15994 039d 05       		.uleb128 0x5
 15995 039e 00       		.byte	0x0
 15996 039f 03       		.uleb128 0x3
 15997 03a0 0E       		.uleb128 0xe
 15998 03a1 49       		.uleb128 0x49
 15999 03a2 13       		.uleb128 0x13
 16000 03a3 34       		.uleb128 0x34
 16001 03a4 0C       		.uleb128 0xc
 16002 03a5 02       		.uleb128 0x2
 16003 03a6 06       		.uleb128 0x6
 16004 03a7 00       		.byte	0x0
 16005 03a8 00       		.byte	0x0
 16006 03a9 44       		.uleb128 0x44
 16007 03aa 05       		.uleb128 0x5
 16008 03ab 00       		.byte	0x0
 16009 03ac 03       		.uleb128 0x3
 16010 03ad 08       		.uleb128 0x8
 16011 03ae 3A       		.uleb128 0x3a
 16012 03af 0B       		.uleb128 0xb
 16013 03b0 3B       		.uleb128 0x3b
 16014 03b1 05       		.uleb128 0x5
 16015 03b2 49       		.uleb128 0x49
 16016 03b3 13       		.uleb128 0x13
 16017 03b4 02       		.uleb128 0x2
 16018 03b5 06       		.uleb128 0x6
 16019 03b6 00       		.byte	0x0
 16020 03b7 00       		.byte	0x0
 16021 03b8 45       		.uleb128 0x45
 16022 03b9 0B       		.uleb128 0xb
 16023 03ba 01       		.byte	0x1
 16024 03bb 55       		.uleb128 0x55
 16025 03bc 06       		.uleb128 0x6
 16026 03bd 00       		.byte	0x0
 16027 03be 00       		.byte	0x0
 16028 03bf 46       		.uleb128 0x46
 16029 03c0 34       		.uleb128 0x34
 16030 03c1 00       		.byte	0x0
 16031 03c2 03       		.uleb128 0x3
 16032 03c3 08       		.uleb128 0x8
 16033 03c4 3A       		.uleb128 0x3a
 16034 03c5 0B       		.uleb128 0xb
 16035 03c6 3B       		.uleb128 0x3b
 16036 03c7 05       		.uleb128 0x5
 16037 03c8 49       		.uleb128 0x49
 16038 03c9 13       		.uleb128 0x13
 16039 03ca 00       		.byte	0x0
 16040 03cb 00       		.byte	0x0
 16041 03cc 47       		.uleb128 0x47
 16042 03cd 0B       		.uleb128 0xb
 16043 03ce 01       		.byte	0x1
 16044 03cf 11       		.uleb128 0x11
 16045 03d0 01       		.uleb128 0x1
 16046 03d1 12       		.uleb128 0x12
 16047 03d2 01       		.uleb128 0x1
 16048 03d3 00       		.byte	0x0
 16049 03d4 00       		.byte	0x0
 16050 03d5 48       		.uleb128 0x48
 16051 03d6 2E       		.uleb128 0x2e
 16052 03d7 01       		.byte	0x1
 16053 03d8 47       		.uleb128 0x47
 16054 03d9 13       		.uleb128 0x13
 16055 03da 11       		.uleb128 0x11
 16056 03db 01       		.uleb128 0x1
 16057 03dc 12       		.uleb128 0x12
 16058 03dd 01       		.uleb128 0x1
 16059 03de 40       		.uleb128 0x40
 16060 03df 0A       		.uleb128 0xa
 16061 03e0 01       		.uleb128 0x1
 16062 03e1 13       		.uleb128 0x13
 16063 03e2 00       		.byte	0x0
 16064 03e3 00       		.byte	0x0
 16065 03e4 49       		.uleb128 0x49
 16066 03e5 05       		.uleb128 0x5
 16067 03e6 00       		.byte	0x0
 16068 03e7 03       		.uleb128 0x3
 16069 03e8 0E       		.uleb128 0xe
 16070 03e9 3A       		.uleb128 0x3a
 16071 03ea 0B       		.uleb128 0xb
 16072 03eb 3B       		.uleb128 0x3b
 16073 03ec 05       		.uleb128 0x5
 16074 03ed 49       		.uleb128 0x49
 16075 03ee 13       		.uleb128 0x13
 16076 03ef 02       		.uleb128 0x2
 16077 03f0 0A       		.uleb128 0xa
 16078 03f1 00       		.byte	0x0
 16079 03f2 00       		.byte	0x0
 16080 03f3 4A       		.uleb128 0x4a
 16081 03f4 05       		.uleb128 0x5
 16082 03f5 00       		.byte	0x0
 16083 03f6 03       		.uleb128 0x3
 16084 03f7 0E       		.uleb128 0xe
 16085 03f8 3A       		.uleb128 0x3a
 16086 03f9 0B       		.uleb128 0xb
 16087 03fa 3B       		.uleb128 0x3b
 16088 03fb 05       		.uleb128 0x5
 16089 03fc 49       		.uleb128 0x49
 16090 03fd 13       		.uleb128 0x13
 16091 03fe 02       		.uleb128 0x2
 16092 03ff 06       		.uleb128 0x6
 16093 0400 00       		.byte	0x0
 16094 0401 00       		.byte	0x0
 16095 0402 4B       		.uleb128 0x4b
 16096 0403 34       		.uleb128 0x34
 16097 0404 00       		.byte	0x0
 16098 0405 03       		.uleb128 0x3
 16099 0406 0E       		.uleb128 0xe
 16100 0407 3A       		.uleb128 0x3a
 16101 0408 0B       		.uleb128 0xb
 16102 0409 3B       		.uleb128 0x3b
 16103 040a 05       		.uleb128 0x5
 16104 040b 49       		.uleb128 0x49
 16105 040c 13       		.uleb128 0x13
 16106 040d 02       		.uleb128 0x2
 16107 040e 06       		.uleb128 0x6
 16108 040f 00       		.byte	0x0
 16109 0410 00       		.byte	0x0
 16110 0411 4C       		.uleb128 0x4c
 16111 0412 2E       		.uleb128 0x2e
 16112 0413 01       		.byte	0x1
 16113 0414 03       		.uleb128 0x3
 16114 0415 0E       		.uleb128 0xe
 16115 0416 34       		.uleb128 0x34
 16116 0417 0C       		.uleb128 0xc
 16117 0418 11       		.uleb128 0x11
 16118 0419 01       		.uleb128 0x1
 16119 041a 12       		.uleb128 0x12
 16120 041b 01       		.uleb128 0x1
 16121 041c 40       		.uleb128 0x40
 16122 041d 0A       		.uleb128 0xa
 16123 041e 01       		.uleb128 0x1
 16124 041f 13       		.uleb128 0x13
 16125 0420 00       		.byte	0x0
 16126 0421 00       		.byte	0x0
 16127 0422 4D       		.uleb128 0x4d
 16128 0423 2E       		.uleb128 0x2e
 16129 0424 00       		.byte	0x0
 16130 0425 03       		.uleb128 0x3
 16131 0426 0E       		.uleb128 0xe
 16132 0427 3A       		.uleb128 0x3a
 16133 0428 0B       		.uleb128 0xb
 16134 0429 3B       		.uleb128 0x3b
 16135 042a 05       		.uleb128 0x5
 16136 042b 11       		.uleb128 0x11
 16137 042c 01       		.uleb128 0x1
 16138 042d 12       		.uleb128 0x12
 16139 042e 01       		.uleb128 0x1
 16140 042f 40       		.uleb128 0x40
 16141 0430 0A       		.uleb128 0xa
 16142 0431 00       		.byte	0x0
 16143 0432 00       		.byte	0x0
 16144 0433 4E       		.uleb128 0x4e
 16145 0434 34       		.uleb128 0x34
 16146 0435 00       		.byte	0x0
 16147 0436 03       		.uleb128 0x3
 16148 0437 08       		.uleb128 0x8
 16149 0438 3A       		.uleb128 0x3a
 16150 0439 0B       		.uleb128 0xb
 16151 043a 3B       		.uleb128 0x3b
 16152 043b 05       		.uleb128 0x5
 16153 043c 49       		.uleb128 0x49
 16154 043d 13       		.uleb128 0x13
 16155 043e 02       		.uleb128 0x2
 16156 043f 06       		.uleb128 0x6
 16157 0440 00       		.byte	0x0
 16158 0441 00       		.byte	0x0
 16159 0442 4F       		.uleb128 0x4f
 16160 0443 34       		.uleb128 0x34
 16161 0444 00       		.byte	0x0
 16162 0445 03       		.uleb128 0x3
 16163 0446 0E       		.uleb128 0xe
 16164 0447 3A       		.uleb128 0x3a
 16165 0448 0B       		.uleb128 0xb
 16166 0449 3B       		.uleb128 0x3b
 16167 044a 05       		.uleb128 0x5
 16168 044b 49       		.uleb128 0x49
 16169 044c 13       		.uleb128 0x13
 16170 044d 00       		.byte	0x0
 16171 044e 00       		.byte	0x0
 16172 044f 50       		.uleb128 0x50
 16173 0450 0B       		.uleb128 0xb
 16174 0451 01       		.byte	0x1
 16175 0452 55       		.uleb128 0x55
 16176 0453 06       		.uleb128 0x6
 16177 0454 01       		.uleb128 0x1
 16178 0455 13       		.uleb128 0x13
 16179 0456 00       		.byte	0x0
 16180 0457 00       		.byte	0x0
 16181 0458 51       		.uleb128 0x51
 16182 0459 2E       		.uleb128 0x2e
 16183 045a 01       		.byte	0x1
 16184 045b 47       		.uleb128 0x47
 16185 045c 13       		.uleb128 0x13
 16186 045d 20       		.uleb128 0x20
 16187 045e 0B       		.uleb128 0xb
 16188 045f 01       		.uleb128 0x1
 16189 0460 13       		.uleb128 0x13
 16190 0461 00       		.byte	0x0
 16191 0462 00       		.byte	0x0
 16192 0463 52       		.uleb128 0x52
 16193 0464 05       		.uleb128 0x5
 16194 0465 00       		.byte	0x0
 16195 0466 03       		.uleb128 0x3
 16196 0467 0E       		.uleb128 0xe
 16197 0468 49       		.uleb128 0x49
 16198 0469 13       		.uleb128 0x13
 16199 046a 34       		.uleb128 0x34
 16200 046b 0C       		.uleb128 0xc
 16201 046c 00       		.byte	0x0
 16202 046d 00       		.byte	0x0
 16203 046e 53       		.uleb128 0x53
 16204 046f 2E       		.uleb128 0x2e
 16205 0470 01       		.byte	0x1
 16206 0471 31       		.uleb128 0x31
 16207 0472 13       		.uleb128 0x13
 16208 0473 11       		.uleb128 0x11
 16209 0474 01       		.uleb128 0x1
 16210 0475 12       		.uleb128 0x12
 16211 0476 01       		.uleb128 0x1
 16212 0477 40       		.uleb128 0x40
 16213 0478 06       		.uleb128 0x6
 16214 0479 01       		.uleb128 0x1
 16215 047a 13       		.uleb128 0x13
 16216 047b 00       		.byte	0x0
 16217 047c 00       		.byte	0x0
 16218 047d 54       		.uleb128 0x54
 16219 047e 05       		.uleb128 0x5
 16220 047f 00       		.byte	0x0
 16221 0480 31       		.uleb128 0x31
 16222 0481 13       		.uleb128 0x13
 16223 0482 02       		.uleb128 0x2
 16224 0483 06       		.uleb128 0x6
 16225 0484 00       		.byte	0x0
 16226 0485 00       		.byte	0x0
 16227 0486 55       		.uleb128 0x55
 16228 0487 34       		.uleb128 0x34
 16229 0488 00       		.byte	0x0
 16230 0489 02       		.uleb128 0x2
 16231 048a 06       		.uleb128 0x6
 16232 048b 00       		.byte	0x0
 16233 048c 00       		.byte	0x0
 16234 048d 56       		.uleb128 0x56
 16235 048e 05       		.uleb128 0x5
 16236 048f 00       		.byte	0x0
 16237 0490 03       		.uleb128 0x3
 16238 0491 08       		.uleb128 0x8
 16239 0492 3A       		.uleb128 0x3a
 16240 0493 0B       		.uleb128 0xb
 16241 0494 3B       		.uleb128 0x3b
 16242 0495 0B       		.uleb128 0xb
 16243 0496 49       		.uleb128 0x49
 16244 0497 13       		.uleb128 0x13
 16245 0498 00       		.byte	0x0
 16246 0499 00       		.byte	0x0
 16247 049a 57       		.uleb128 0x57
 16248 049b 05       		.uleb128 0x5
 16249 049c 00       		.byte	0x0
 16250 049d 03       		.uleb128 0x3
 16251 049e 0E       		.uleb128 0xe
 16252 049f 3A       		.uleb128 0x3a
 16253 04a0 0B       		.uleb128 0xb
 16254 04a1 3B       		.uleb128 0x3b
 16255 04a2 0B       		.uleb128 0xb
 16256 04a3 49       		.uleb128 0x49
 16257 04a4 13       		.uleb128 0x13
 16258 04a5 00       		.byte	0x0
 16259 04a6 00       		.byte	0x0
 16260 04a7 58       		.uleb128 0x58
 16261 04a8 34       		.uleb128 0x34
 16262 04a9 00       		.byte	0x0
 16263 04aa 02       		.uleb128 0x2
 16264 04ab 0A       		.uleb128 0xa
 16265 04ac 00       		.byte	0x0
 16266 04ad 00       		.byte	0x0
 16267 04ae 59       		.uleb128 0x59
 16268 04af 0B       		.uleb128 0xb
 16269 04b0 00       		.byte	0x0
 16270 04b1 11       		.uleb128 0x11
 16271 04b2 01       		.uleb128 0x1
 16272 04b3 12       		.uleb128 0x12
 16273 04b4 01       		.uleb128 0x1
 16274 04b5 00       		.byte	0x0
 16275 04b6 00       		.byte	0x0
 16276 04b7 5A       		.uleb128 0x5a
 16277 04b8 34       		.uleb128 0x34
 16278 04b9 00       		.byte	0x0
 16279 04ba 03       		.uleb128 0x3
 16280 04bb 0E       		.uleb128 0xe
 16281 04bc 3A       		.uleb128 0x3a
 16282 04bd 0B       		.uleb128 0xb
 16283 04be 3B       		.uleb128 0x3b
 16284 04bf 0B       		.uleb128 0xb
 16285 04c0 49       		.uleb128 0x49
 16286 04c1 13       		.uleb128 0x13
 16287 04c2 02       		.uleb128 0x2
 16288 04c3 0A       		.uleb128 0xa
 16289 04c4 00       		.byte	0x0
 16290 04c5 00       		.byte	0x0
 16291 04c6 5B       		.uleb128 0x5b
 16292 04c7 21       		.uleb128 0x21
 16293 04c8 00       		.byte	0x0
 16294 04c9 00       		.byte	0x0
 16295 04ca 00       		.byte	0x0
 16296 04cb 5C       		.uleb128 0x5c
 16297 04cc 34       		.uleb128 0x34
 16298 04cd 00       		.byte	0x0
 16299 04ce 03       		.uleb128 0x3
 16300 04cf 0E       		.uleb128 0xe
 16301 04d0 3A       		.uleb128 0x3a
 16302 04d1 0B       		.uleb128 0xb
 16303 04d2 3B       		.uleb128 0x3b
 16304 04d3 0B       		.uleb128 0xb
 16305 04d4 49       		.uleb128 0x49
 16306 04d5 13       		.uleb128 0x13
 16307 04d6 3F       		.uleb128 0x3f
 16308 04d7 0C       		.uleb128 0xc
 16309 04d8 3C       		.uleb128 0x3c
 16310 04d9 0C       		.uleb128 0xc
 16311 04da 00       		.byte	0x0
 16312 04db 00       		.byte	0x0
 16313 04dc 00       		.byte	0x0
 16314              		.section	.debug_pubnames,"",@progbits
 16315 0000 0000020A 		.4byte	0x20a
 16316 0004 0002     		.2byte	0x2
 16317 0006 00000000 		.4byte	.Ldebug_info0
 16318 000a 00002E86 		.4byte	0x2e86
 16319 000e 000027C4 		.4byte	0x27c4
 16320 0012 4775694F 		.string	"GuiOptionBrowser::SetFocus"
 16320      7074696F 
 16320      6E42726F 
 16320      77736572 
 16320      3A3A5365 
 16321 002d 0000280B 		.4byte	0x280b
 16322 0031 4775694F 		.string	"GuiOptionBrowser::ResetState"
 16322      7074696F 
 16322      6E42726F 
 16322      77736572 
 16322      3A3A5265 
 16323 004e 00002843 		.4byte	0x2843
 16324 0052 4775694F 		.string	"GuiOptionBrowser::FindMenuItem"
 16324      7074696F 
 16324      6E42726F 
 16324      77736572 
 16324      3A3A4669 
 16325 0071 000028D6 		.4byte	0x28d6
 16326 0075 4775694F 		.string	"GuiOptionBrowser::GetSelectedOption"
 16326      7074696F 
 16326      6E42726F 
 16326      77736572 
 16326      3A3A4765 
 16327 0099 0000291E 		.4byte	0x291e
 16328 009d 4775694F 		.string	"GuiOptionBrowser::GetClickedOption"
 16328      7074696F 
 16328      6E42726F 
 16328      77736572 
 16328      3A3A4765 
 16329 00c0 00002966 		.4byte	0x2966
 16330 00c4 4775694F 		.string	"GuiOptionBrowser::SetCol2Position"
 16330      7074696F 
 16330      6E42726F 
 16330      77736572 
 16330      3A3A5365 
 16331 00e6 000029A8 		.4byte	0x29a8
 16332 00ea 4775694F 		.string	"GuiOptionBrowser::Update"
 16332      7074696F 
 16332      6E42726F 
 16332      77736572 
 16332      3A3A5570 
 16333 0103 00002AA2 		.4byte	0x2aa2
 16334 0107 4775694F 		.string	"GuiOptionBrowser::Draw"
 16334      7074696F 
 16334      6E42726F 
 16334      77736572 
 16334      3A3A4472 
 16335 011e 00002B09 		.4byte	0x2b09
 16336 0122 4775694F 		.string	"GuiOptionBrowser::~GuiOptionBrowser"
 16336      7074696F 
 16336      6E42726F 
 16336      77736572 
 16336      3A3A7E47 
 16337 0146 00002B37 		.4byte	0x2b37
 16338 014a 4775694F 		.string	"GuiOptionBrowser::~GuiOptionBrowser"
 16338      7074696F 
 16338      6E42726F 
 16338      77736572 
 16338      3A3A7E47 
 16339 016e 00002BC1 		.4byte	0x2bc1
 16340 0172 4775694F 		.string	"GuiOptionBrowser::GuiOptionBrowser"
 16340      7074696F 
 16340      6E42726F 
 16340      77736572 
 16340      3A3A4775 
 16341 0195 00002C42 		.4byte	0x2c42
 16342 0199 4775694F 		.string	"GuiOptionBrowser::GuiOptionBrowser"
 16342      7074696F 
 16342      6E42726F 
 16342      77736572 
 16342      3A3A4775 
 16343 01bc 00002D09 		.4byte	0x2d09
 16344 01c0 4775694F 		.string	"GuiOptionBrowser::GuiOptionBrowser"
 16344      7074696F 
 16344      6E42726F 
 16344      77736572 
 16344      3A3A4775 
 16345 01e3 00002D6D 		.4byte	0x2d6d
 16346 01e7 4775694F 		.string	"GuiOptionBrowser::GuiOptionBrowser"
 16346      7074696F 
 16346      6E42726F 
 16346      77736572 
 16346      3A3A4775 
 16347 020a 00000000 		.4byte	0x0
 16348              		.section	.debug_aranges,"",@progbits
 16349 0000 0000001C 		.4byte	0x1c
 16350 0004 0002     		.2byte	0x2
 16351 0006 00000000 		.4byte	.Ldebug_info0
 16352 000a 04       		.byte	0x4
 16353 000b 00       		.byte	0x0
 16354 000c 0000     		.2byte	0x0
 16355 000e 0000     		.2byte	0x0
 16356 0010 00000000 		.4byte	.Ltext0
 16357 0014 00003818 		.4byte	.Letext0-.Ltext0
 16358 0018 00000000 		.4byte	0x0
 16359 001c 00000000 		.4byte	0x0
 16360              		.section	.debug_ranges,"",@progbits
 16361              	.Ldebug_ranges0:
 16362 0000 0000001C 		.4byte	.LBB5-.Ltext0
 16363 0004 00000020 		.4byte	.LBE5-.Ltext0
 16364 0008 00000030 		.4byte	.LBB3-.Ltext0
 16365 000c 00000060 		.4byte	.LBE3-.Ltext0
 16366 0010 00000024 		.4byte	.LBB4-.Ltext0
 16367 0014 0000002C 		.4byte	.LBE4-.Ltext0
 16368 0018 00000000 		.4byte	0x0
 16369 001c 00000000 		.4byte	0x0
 16370 0020 000001F4 		.4byte	.LBB13-.Ltext0
 16371 0024 00000214 		.4byte	.LBE13-.Ltext0
 16372 0028 0000025C 		.4byte	.LBB15-.Ltext0
 16373 002c 00000260 		.4byte	.LBE15-.Ltext0
 16374 0030 00000234 		.4byte	.LBB12-.Ltext0
 16375 0034 00000258 		.4byte	.LBE12-.Ltext0
 16376 0038 00000218 		.4byte	.LBB14-.Ltext0
 16377 003c 0000021C 		.4byte	.LBE14-.Ltext0
 16378 0040 00000000 		.4byte	0x0
 16379 0044 00000000 		.4byte	0x0
 16380 0048 0000029C 		.4byte	.LBB21-.Ltext0
 16381 004c 000002BC 		.4byte	.LBE21-.Ltext0
 16382 0050 00000304 		.4byte	.LBB23-.Ltext0
 16383 0054 00000308 		.4byte	.LBE23-.Ltext0
 16384 0058 000002DC 		.4byte	.LBB20-.Ltext0
 16385 005c 00000300 		.4byte	.LBE20-.Ltext0
 16386 0060 000002C0 		.4byte	.LBB22-.Ltext0
 16387 0064 000002C4 		.4byte	.LBE22-.Ltext0
 16388 0068 00000000 		.4byte	0x0
 16389 006c 00000000 		.4byte	0x0
 16390 0070 00000328 		.4byte	.LBB29-.Ltext0
 16391 0074 0000032C 		.4byte	.LBE29-.Ltext0
 16392 0078 00000348 		.4byte	.LBB30-.Ltext0
 16393 007c 00000370 		.4byte	.LBE30-.Ltext0
 16394 0080 00000340 		.4byte	.LBB28-.Ltext0
 16395 0084 00000344 		.4byte	.LBE28-.Ltext0
 16396 0088 00000000 		.4byte	0x0
 16397 008c 00000000 		.4byte	0x0
 16398 0090 00000478 		.4byte	.LBB35-.Ltext0
 16399 0094 00000558 		.4byte	.LBE35-.Ltext0
 16400 0098 000006C8 		.4byte	.LBB36-.Ltext0
 16401 009c 00000750 		.4byte	.LBE36-.Ltext0
 16402 00a0 00000628 		.4byte	.LBB34-.Ltext0
 16403 00a4 00000670 		.4byte	.LBE34-.Ltext0
 16404 00a8 00000000 		.4byte	0x0
 16405 00ac 00000000 		.4byte	0x0
 16406 00b0 00000750 		.4byte	.LBB37-.Ltext0
 16407 00b4 00000854 		.4byte	.LBE37-.Ltext0
 16408 00b8 00000C90 		.4byte	.LBB47-.Ltext0
 16409 00bc 00000CF8 		.4byte	.LBE47-.Ltext0
 16410 00c0 00000BC8 		.4byte	.LBB46-.Ltext0
 16411 00c4 00000C3C 		.4byte	.LBE46-.Ltext0
 16412 00c8 00000A8C 		.4byte	.LBB45-.Ltext0
 16413 00cc 00000BB0 		.4byte	.LBE45-.Ltext0
 16414 00d0 000008AC 		.4byte	.LBB44-.Ltext0
 16415 00d4 000009F4 		.4byte	.LBE44-.Ltext0
 16416 00d8 00000000 		.4byte	0x0
 16417 00dc 00000000 		.4byte	0x0
 16418 00e0 000008AC 		.4byte	.LBB39-.Ltext0
 16419 00e4 00000964 		.4byte	.LBE39-.Ltext0
 16420 00e8 00000BC8 		.4byte	.LBB38-.Ltext0
 16421 00ec 00000C3C 		.4byte	.LBE38-.Ltext0
 16422 00f0 00000000 		.4byte	0x0
 16423 00f4 00000000 		.4byte	0x0
 16424 00f8 000007B0 		.4byte	.LBB40-.Ltext0
 16425 00fc 00000854 		.4byte	.LBE40-.Ltext0
 16426 0100 00000C90 		.4byte	.LBB42-.Ltext0
 16427 0104 00000CE4 		.4byte	.LBE42-.Ltext0
 16428 0108 00000000 		.4byte	0x0
 16429 010c 00000000 		.4byte	0x0
 16430 0110 00000ABC 		.4byte	.LBB41-.Ltext0
 16431 0114 00000B7C 		.4byte	.LBE41-.Ltext0
 16432 0118 00000CE4 		.4byte	.LBB43-.Ltext0
 16433 011c 00000CF8 		.4byte	.LBE43-.Ltext0
 16434 0120 00000000 		.4byte	0x0
 16435 0124 00000000 		.4byte	0x0
 16436 0128 0000159C 		.4byte	.LBB61-.Ltext0
 16437 012c 000015A0 		.4byte	.LBE61-.Ltext0
 16438 0130 00001908 		.4byte	.LBB64-.Ltext0
 16439 0134 00001DE0 		.4byte	.LBE64-.Ltext0
 16440 0138 000015AC 		.4byte	.LBB59-.Ltext0
 16441 013c 000018D4 		.4byte	.LBE59-.Ltext0
 16442 0140 000015A4 		.4byte	.LBB60-.Ltext0
 16443 0144 000015A8 		.4byte	.LBE60-.Ltext0
 16444 0148 00000000 		.4byte	0x0
 16445 014c 00000000 		.4byte	0x0
 16446 0150 00001EBC 		.4byte	.LBB69-.Ltext0
 16447 0154 00001EC0 		.4byte	.LBE69-.Ltext0
 16448 0158 00002228 		.4byte	.LBB72-.Ltext0
 16449 015c 00002700 		.4byte	.LBE72-.Ltext0
 16450 0160 00001ECC 		.4byte	.LBB67-.Ltext0
 16451 0164 000021F4 		.4byte	.LBE67-.Ltext0
 16452 0168 00001EC4 		.4byte	.LBB68-.Ltext0
 16453 016c 00001EC8 		.4byte	.LBE68-.Ltext0
 16454 0170 00000000 		.4byte	0x0
 16455 0174 00000000 		.4byte	0x0
 16456              		.section	.debug_str,"MS",@progbits,1
 16457              	.LASF156:
 16458 0000 6C636F6E 		.string	"lconv"
 16458      7600
 16459              	.LASF180:
 16460 0006 72657365 		.string	"reserved"
 16460      72766564 
 16460      00
 16461              	.LASF120:
 16462 000f 746D5F73 		.string	"tm_sec"
 16462      656300
 16463              	.LASF338:
 16464 0016 47756954 		.string	"GuiTrigger"
 16464      72696767 
 16464      657200
 16465              	.LASF266:
 16466 0021 6572726F 		.string	"error_cnt"
 16466      725F636E 
 16466      7400
 16467              	.LASF337:
 16468 002b 5365744C 		.string	"SetLoop"
 16468      6F6F7000 
 16469              	.LASF451:
 16470 0033 62757474 		.string	"button_click_pcm_size"
 16470      6F6E5F63 
 16470      6C69636B 
 16470      5F70636D 
 16470      5F73697A 
 16471              	.LASF449:
 16472 0049 66746778 		.string	"ftgxWhite"
 16472      57686974 
 16472      6500
 16473              	.LASF184:
 16474 0053 66706F73 		.string	"fpos_t"
 16474      5F7400
 16475              	.LASF43:
 16476 005a 5F617465 		.string	"_atexit"
 16476      78697400 
 16477              	.LASF272:
 16478 0062 6A6F7973 		.string	"joystick_t"
 16478      7469636B 
 16478      5F7400
 16479              	.LASF222:
 16480 006d 5F5F676E 		.string	"__gnu_cxx"
 16480      755F6378 
 16480      7800
 16481              	.LASF41:
 16482 0077 5F666E74 		.string	"_fntypes"
 16482      79706573 
 16482      00
 16483              	.LASF252:
 16484 0080 616E676C 		.string	"angle"
 16484      6500
 16485              	.LASF419:
 16486 0086 5F5A4E31 		.string	"_ZN16GuiOptionBrowser17GetSelectedOptionEv"
 16486      36477569 
 16486      4F707469 
 16486      6F6E4272 
 16486      6F777365 
 16487              	.LASF91:
 16488 00b1 5F696E63 		.string	"_inc"
 16488      00
 16489              	.LASF44:
 16490 00b6 5F696E64 		.string	"_ind"
 16490      00
 16491              	.LASF447:
 16492 00bb 7363726F 		.string	"scrollon"
 16492      6C6C6F6E 
 16492      00
 16493              	.LASF425:
 16494 00c4 5F5A4E31 		.string	"_ZN16GuiOptionBrowser4DrawEv"
 16494      36477569 
 16494      4F707469 
 16494      6F6E4272 
 16494      6F777365 
 16495              	.LASF366:
 16496 00e1 47657457 		.string	"GetWidth"
 16496      69647468 
 16496      00
 16497              	.LASF395:
 16498 00ea 7363726F 		.string	"scrollbarBoxOverImg"
 16498      6C6C6261 
 16498      72426F78 
 16498      4F766572 
 16498      496D6700 
 16499              	.LASF187:
 16500 00fe 66656F66 		.string	"feof"
 16500      00
 16501              	.LASF406:
 16502 0103 62746E53 		.string	"btnSoundOver"
 16502      6F756E64 
 16502      4F766572 
 16502      00
 16503              	.LASF181:
 16504 0110 6F766572 		.string	"overflow_arg_area"
 16504      666C6F77 
 16504      5F617267 
 16504      5F617265 
 16504      6100
 16505              	.LASF119:
 16506 0122 74696D65 		.string	"time_t"
 16506      5F7400
 16507              	.LASF353:
 16508 0129 5F5A4E31 		.string	"_ZN10GuiTrigger10WPAD_StickEhi"
 16508      30477569 
 16508      54726967 
 16508      67657231 
 16508      30575041 
 16509              	.LASF386:
 16510 0148 7363726F 		.string	"scrollbarBoxBtn"
 16510      6C6C6261 
 16510      72426F78 
 16510      42746E00 
 16511              	.LASF50:
 16512 0158 5F666C61 		.string	"_flags"
 16512      677300
 16513              	.LASF417:
 16514 015f 5F5A4E31 		.string	"_ZN16GuiOptionBrowser16GetClickedOptionEv"
 16514      36477569 
 16514      4F707469 
 16514      6F6E4272 
 16514      6F777365 
 16515              	.LASF437:
 16516 0189 6E657874 		.string	"next"
 16516      00
 16517              	.LASF322:
 16518 018e 6C656E67 		.string	"length"
 16518      746800
 16519              	.LASF182:
 16520 0195 7265675F 		.string	"reg_save_area"
 16520      73617665 
 16520      5F617265 
 16520      6100
 16521              	.LASF101:
 16522 01a3 5F637674 		.string	"_cvtlen"
 16522      6C656E00 
 16523              	.LASF255:
 16524 01ab 69725F70 		.string	"ir_position_t"
 16524      6F736974 
 16524      696F6E5F 
 16524      7400
 16525              	.LASF105:
 16526 01b9 5F736967 		.string	"_sig_func"
 16526      5F66756E 
 16526      6300
 16527              	.LASF128:
 16528 01c3 746D5F69 		.string	"tm_isdst"
 16528      73647374 
 16528      00
 16529              	.LASF362:
 16530 01cc 68656967 		.string	"height"
 16530      687400
 16531              	.LASF159:
 16532 01d3 67726F75 		.string	"grouping"
 16532      70696E67 
 16532      00
 16533              	.LASF63:
 16534 01dc 5F6C6F63 		.string	"_lock"
 16534      6B00
 16535              	.LASF59:
 16536 01e2 5F6E6275 		.string	"_nbuf"
 16536      6600
 16537              	.LASF86:
 16538 01e8 5F756E75 		.string	"_unused"
 16538      73656400 
 16539              	.LASF365:
 16540 01f0 47657449 		.string	"GetImage"
 16540      6D616765 
 16540      00
 16541              	.LASF10:
 16542 01f9 626F6F6C 		.string	"bool"
 16542      00
 16543              	.LASF245:
 16544 01fe 76697369 		.string	"visible"
 16544      626C6500 
 16545              	.LASF139:
 16546 0206 61746F69 		.string	"atoi"
 16546      00
 16547              	.LASF140:
 16548 020b 61746F6C 		.string	"atol"
 16548      00
 16549              	.LASF132:
 16550 0210 73747263 		.string	"strcoll"
 16550      6F6C6C00 
 16551              	.LASF361:
 16552 0218 64617461 		.string	"data"
 16552      00
 16553              	.LASF94:
 16554 021d 5F637572 		.string	"_current_locale"
 16554      72656E74 
 16554      5F6C6F63 
 16554      616C6500 
 16555              	.LASF349:
 16556 022d 5F5A4E31 		.string	"_ZN10GuiTrigger27SetButtonOnlyInFocusTriggerEijt"
 16556      30477569 
 16556      54726967 
 16556      67657232 
 16556      37536574 
 16557              	.LASF223:
 16558 025e 5F5F6465 		.string	"__debug"
 16558      62756700 
 16559              	.LASF115:
 16560 0266 5F616464 		.string	"_add"
 16560      00
 16561              	.LASF160:
 16562 026b 696E745F 		.string	"int_curr_symbol"
 16562      63757272 
 16562      5F73796D 
 16562      626F6C00 
 16563              	.LASF175:
 16564 027b 7365746C 		.string	"setlocale"
 16564      6F63616C 
 16564      6500
 16565              	.LASF462:
 16566 0285 643A5C5C 		.string	"d:\\\\code\\\\dasdd\\\\build"
 16566      636F6465 
 16566      5C5C6461 
 16566      7364645C 
 16566      5C627569 
 16567              	.LASF378:
 16568 029c 6C697374 		.string	"listOffset"
 16568      4F666673 
 16568      657400
 16569              	.LASF342:
 16570 02a7 53657453 		.string	"SetSimpleTrigger"
 16570      696D706C 
 16570      65547269 
 16570      67676572 
 16570      00
 16571              	.LASF226:
 16572 02b8 57494955 		.string	"WIIUSE_IR_ABOVE"
 16572      53455F49 
 16572      525F4142 
 16572      4F564500 
 16573              	.LASF279:
 16574 02c8 62746E73 		.string	"btns_held"
 16574      5F68656C 
 16574      6400
 16575              	.LASF258:
 16576 02d2 57494955 		.string	"WIIUSE_ASPECT_16_9"
 16576      53455F41 
 16576      53504543 
 16576      545F3136 
 16576      5F3900
 16577              	.LASF52:
 16578 02e5 5F6C6266 		.string	"_lbfsize"
 16578      73697A65 
 16578      00
 16579              	.LASF179:
 16580 02ee 5F5F7661 		.string	"__va_list_tag"
 16580      5F6C6973 
 16580      745F7461 
 16580      6700
 16581              	.LASF249:
 16582 02fc 646F7473 		.string	"dots"
 16582      00
 16583              	.LASF62:
 16584 0301 5F646174 		.string	"_data"
 16584      6100
 16585              	.LASF148:
 16586 0307 66726565 		.string	"free"
 16586      00
 16587              	.LASF288:
 16588 030c 6C5F7368 		.string	"l_shoulder"
 16588      6F756C64 
 16588      657200
 16589              	.LASF367:
 16590 0317 5F5A4E31 		.string	"_ZN12GuiImageData8GetImageEv"
 16590      32477569 
 16590      496D6167 
 16590      65446174 
 16590      61384765 
 16591              	.LASF251:
 16592 0334 726F745F 		.string	"rot_dots"
 16592      646F7473 
 16592      00
 16593              	.LASF204:
 16594 033d 72656E61 		.string	"rename"
 16594      6D6500
 16595              	.LASF64:
 16596 0344 5F726565 		.string	"_reent"
 16596      6E7400
 16597              	.LASF346:
 16598 034b 53657442 		.string	"SetButtonOnlyTrigger"
 16598      7574746F 
 16598      6E4F6E6C 
 16598      79547269 
 16598      67676572 
 16599              	.LASF219:
 16600 0360 6C6F6361 		.string	"localtime"
 16600      6C74696D 
 16600      6500
 16601              	.LASF107:
 16602 036a 5F5F7366 		.string	"__sf"
 16602      00
 16603              	.LASF377:
 16604 036f 73656C65 		.string	"selectedItem"
 16604      63746564 
 16604      4974656D 
 16604      00
 16605              	.LASF47:
 16606 037c 5F626173 		.string	"_base"
 16606      6500
 16607              	.LASF433:
 16608 0382 5F5F696E 		.string	"__initialize_p"
 16608      69746961 
 16608      6C697A65 
 16608      5F7000
 16609              	.LASF194:
 16610 0391 66726561 		.string	"fread"
 16610      6400
 16611              	.LASF280:
 16612 0397 62746E73 		.string	"btns_released"
 16612      5F72656C 
 16612      65617365 
 16612      6400
 16613              	.LASF167:
 16614 03a5 696E745F 		.string	"int_frac_digits"
 16614      66726163 
 16614      5F646967 
 16614      69747300 
 16615              	.LASF73:
 16616 03b5 5F6D6274 		.string	"_mbtowc_state"
 16616      6F77635F 
 16616      73746174 
 16616      6500
 16617              	.LASF235:
 16618 03c3 615F726F 		.string	"a_roll"
 16618      6C6C00
 16619              	.LASF158:
 16620 03ca 74686F75 		.string	"thousands_sep"
 16620      73616E64 
 16620      735F7365 
 16620      7000
 16621              	.LASF295:
 16622 03d8 6E756E63 		.string	"nunchuk"
 16622      68756B00 
 16623              	.LASF192:
 16624 03e0 66676574 		.string	"fgets"
 16624      7300
 16625              	.LASF351:
 16626 03e6 57504144 		.string	"WPAD_Stick"
 16626      5F537469 
 16626      636B00
 16627              	.LASF345:
 16628 03f1 5F5A4E31 		.string	"_ZN10GuiTrigger14SetHeldTriggerEijt"
 16628      30477569 
 16628      54726967 
 16628      67657231 
 16628      34536574 
 16629              	.LASF195:
 16630 0415 6672656F 		.string	"freopen"
 16630      70656E00 
 16631              	.LASF28:
 16632 041d 5F5F746D 		.string	"__tm"
 16632      00
 16633              	.LASF387:
 16634 0422 62674F70 		.string	"bgOptionsImg"
 16634      74696F6E 
 16634      73496D67 
 16634      00
 16635              	.LASF384:
 16636 042f 6172726F 		.string	"arrowUpBtn"
 16636      77557042 
 16636      746E00
 16637              	.LASF244:
 16638 043a 69725F64 		.string	"ir_dot_t"
 16638      6F745F74 
 16638      00
 16639              	.LASF394:
 16640 0443 7363726F 		.string	"scrollbarBoxImg"
 16640      6C6C6261 
 16640      72426F78 
 16640      496D6700 
 16641              	.LASF426:
 16642 0453 47756945 		.string	"GuiElement"
 16642      6C656D65 
 16642      6E7400
 16643              	.LASF36:
 16644 045e 5F5F746D 		.string	"__tm_yday"
 16644      5F796461 
 16644      7900
 16645              	.LASF397:
 16646 0468 62674F70 		.string	"bgOptionsOver"
 16646      74696F6E 
 16646      734F7665 
 16646      7200
 16647              	.LASF297:
 16648 0476 74797065 		.string	"type"
 16648      00
 16649              	.LASF233:
 16650 047b 726F6C6C 		.string	"roll"
 16650      00
 16651              	.LASF224:
 16652 0480 5F5F676E 		.string	"__gnu_debug"
 16652      755F6465 
 16652      62756700 
 16653              	.LASF242:
 16654 048c 73745F70 		.string	"st_pitch"
 16654      69746368 
 16654      00
 16655              	.LASF403:
 16656 0495 6172726F 		.string	"arrowUpOver"
 16656      7755704F 
 16656      76657200 
 16657              	.LASF65:
 16658 04a1 5F756E75 		.string	"_unused_rand"
 16658      7365645F 
 16658      72616E64 
 16658      00
 16659              	.LASF336:
 16660 04ae 5F5A4E38 		.string	"_ZN8GuiSound9SetVolumeEi"
 16660      47756953 
 16660      6F756E64 
 16660      39536574 
 16660      566F6C75 
 16661              	.LASF248:
 16662 04c7 73625F74 		.string	"sb_t"
 16662      00
 16663              	.LASF238:
 16664 04cc 61636365 		.string	"accel_t"
 16664      6C5F7400 
 16665              	.LASF161:
 16666 04d4 63757272 		.string	"currency_symbol"
 16666      656E6379 
 16666      5F73796D 
 16666      626F6C00 
 16667              	.LASF98:
 16668 04e4 5F726573 		.string	"_result_k"
 16668      756C745F 
 16668      6B00
 16669              	.LASF90:
 16670 04ee 5F737464 		.string	"_stderr"
 16670      65727200 
 16671              	.LASF97:
 16672 04f6 5F726573 		.string	"_result"
 16672      756C7400 
 16673              	.LASF470:
 16674 04fe 5F474C4F 		.string	"_GLOBAL__I__ZN16GuiOptionBrowserC2EiiP11_optionlistPKhi"
 16674      42414C5F 
 16674      5F495F5F 
 16674      5A4E3136 
 16674      4775694F 
 16675              	.LASF40:
 16676 0536 5F64736F 		.string	"_dso_handle"
 16676      5F68616E 
 16676      646C6500 
 16677              	.LASF178:
 16678 0542 5F5F676E 		.string	"__gnuc_va_list"
 16678      75635F76 
 16678      615F6C69 
 16678      737400
 16679              	.LASF268:
 16680 0551 76616C69 		.string	"valid"
 16680      6400
 16681              	.LASF35:
 16682 0557 5F5F746D 		.string	"__tm_wday"
 16682      5F776461 
 16682      7900
 16683              	.LASF37:
 16684 0561 5F5F746D 		.string	"__tm_isdst"
 16684      5F697364 
 16684      737400
 16685              	.LASF446:
 16686 056c 696D6167 		.string	"imagebg"
 16686      65626700 
 16687              	.LASF287:
 16688 0574 725F7368 		.string	"r_shoulder"
 16688      6F756C64 
 16688      657200
 16689              	.LASF432:
 16690 057f 64697265 		.string	"direction"
 16690      6374696F 
 16690      6E00
 16691              	.LASF0:
 16692 0589 756E7369 		.string	"unsigned char"
 16692      676E6564 
 16692      20636861 
 16692      7200
 16693              	.LASF89:
 16694 0597 5F737464 		.string	"_stdout"
 16694      6F757400 
 16695              	.LASF441:
 16696 059f 706F7369 		.string	"positionbar"
 16696      74696F6E 
 16696      62617200 
 16697              	.LASF281:
 16698 05ab 61636365 		.string	"accel"
 16698      6C00
 16699              	.LASF80:
 16700 05b1 5F6D6273 		.string	"_mbsrtowcs_state"
 16700      72746F77 
 16700      63735F73 
 16700      74617465 
 16700      00
 16701              	.LASF27:
 16702 05c2 5F776473 		.string	"_wds"
 16702      00
 16703              	.LASF7:
 16704 05c7 666C6F61 		.string	"float"
 16704      7400
 16705              	.LASF350:
 16706 05cd 4973506C 		.string	"IsPlaying"
 16706      6179696E 
 16706      6700
 16707              	.LASF293:
 16708 05d7 65787061 		.string	"expansion_t"
 16708      6E73696F 
 16708      6E5F7400 
 16709              	.LASF420:
 16710 05e3 52657365 		.string	"ResetState"
 16710      74537461 
 16710      746500
 16711              	.LASF256:
 16712 05ee 61737065 		.string	"aspect_t"
 16712      63745F74 
 16712      00
 16713              	.LASF237:
 16714 05f7 67666F72 		.string	"gforce_t"
 16714      63655F74 
 16714      00
 16715              	.LASF421:
 16716 0600 53657446 		.string	"SetFocus"
 16716      6F637573 
 16716      00
 16717              	.LASF311:
 16718 0609 53544154 		.string	"STATE_DISABLED"
 16718      455F4449 
 16718      5341424C 
 16718      454400
 16719              	.LASF48:
 16720 0618 5F73697A 		.string	"_size"
 16720      6500
 16721              	.LASF291:
 16722 061e 7768616D 		.string	"whammy_bar"
 16722      6D795F62 
 16722      617200
 16723              	.LASF55:
 16724 0629 5F777269 		.string	"_write"
 16724      746500
 16725              	.LASF206:
 16726 0630 73657462 		.string	"setbuf"
 16726      756600
 16727              	.LASF312:
 16728 0637 5F706164 		.string	"_paddata"
 16728      64617461 
 16728      00
 16729              	.LASF434:
 16730 0640 5F5F7072 		.string	"__priority"
 16730      696F7269 
 16730      747900
 16731              	.LASF440:
 16732 064b 7363726F 		.string	"scrolldelay"
 16732      6C6C6465 
 16732      6C617900 
 16733              	.LASF450:
 16734 0657 62757474 		.string	"button_click_pcm"
 16734      6F6E5F63 
 16734      6C69636B 
 16734      5F70636D 
 16734      00
 16735              	.LASF390:
 16736 0668 6172726F 		.string	"arrowDownImg"
 16736      77446F77 
 16736      6E496D67 
 16736      00
 16737              	.LASF34:
 16738 0675 5F5F746D 		.string	"__tm_year"
 16738      5F796561 
 16738      7200
 16739              	.LASF205:
 16740 067f 72657769 		.string	"rewind"
 16740      6E6400
 16741              	.LASF236:
 16742 0686 615F7069 		.string	"a_pitch"
 16742      74636800 
 16743              	.LASF114:
 16744 068e 5F6D756C 		.string	"_mult"
 16744      7400
 16745              	.LASF389:
 16746 0694 7363726F 		.string	"scrollbarImg"
 16746      6C6C6261 
 16746      72496D67 
 16746      00
 16747              	.LASF310:
 16748 06a1 53544154 		.string	"STATE_HELD"
 16748      455F4845 
 16748      4C4400
 16749              	.LASF137:
 16750 06ac 61746578 		.string	"atexit"
 16750      697400
 16751              	.LASF78:
 16752 06b3 5F6D6272 		.string	"_mbrlen_state"
 16752      6C656E5F 
 16752      73746174 
 16752      6500
 16753              	.LASF166:
 16754 06c1 6E656761 		.string	"negative_sign"
 16754      74697665 
 16754      5F736967 
 16754      6E00
 16755              	.LASF250:
 16756 06cf 6163635F 		.string	"acc_dots"
 16756      646F7473 
 16756      00
 16757              	.LASF270:
 16758 06d8 76726573 		.string	"vres"
 16758      00
 16759              	.LASF401:
 16760 06dd 6172726F 		.string	"arrowDownOver"
 16760      77446F77 
 16760      6E4F7665 
 16760      7200
 16761              	.LASF407:
 16762 06eb 62746E53 		.string	"btnSoundClick"
 16762      6F756E64 
 16762      436C6963 
 16762      6B00
 16763              	.LASF198:
 16764 06f9 6674656C 		.string	"ftell"
 16764      6C00
 16765              	.LASF211:
 16766 06ff 76615F6C 		.string	"va_list"
 16766      69737400 
 16767              	.LASF88:
 16768 0707 5F737464 		.string	"_stdin"
 16768      696E00
 16769              	.LASF368:
 16770 070e 5F5A4E31 		.string	"_ZN12GuiImageData8GetWidthEv"
 16770      32477569 
 16770      496D6167 
 16770      65446174 
 16770      61384765 
 16771              	.LASF85:
 16772 072b 5F6E6D61 		.string	"_nmalloc"
 16772      6C6C6F63 
 16772      00
 16773              	.LASF275:
 16774 0734 61636365 		.string	"accel_calib"
 16774      6C5F6361 
 16774      6C696200 
 16775              	.LASF246:
 16776 0740 73697A65 		.string	"size"
 16776      00
 16777              	.LASF413:
 16778 0745 53657443 		.string	"SetCol2Position"
 16778      6F6C3250 
 16778      6F736974 
 16778      696F6E00 
 16779              	.LASF263:
 16780 0755 73656E73 		.string	"sensorbar"
 16780      6F726261 
 16780      7200
 16781              	.LASF183:
 16782 075f 46494C45 		.string	"FILE"
 16782      00
 16783              	.LASF212:
 16784 0764 636C6F63 		.string	"clock"
 16784      6B00
 16785              	.LASF216:
 16786 076a 61736374 		.string	"asctime"
 16786      696D6500 
 16787              	.LASF428:
 16788 0772 47756942 		.string	"GuiButton"
 16788      7574746F 
 16788      6E00
 16789              	.LASF116:
 16790 077c 73697A65 		.string	"size_t"
 16790      5F7400
 16791              	.LASF68:
 16792 0783 5F6C6F63 		.string	"_localtime_buf"
 16792      616C7469 
 16792      6D655F62 
 16792      756600
 16793              	.LASF328:
 16794 0792 53746F70 		.string	"Stop"
 16794      00
 16795              	.LASF308:
 16796 0797 53544154 		.string	"STATE_SELECTED"
 16796      455F5345 
 16796      4C454354 
 16796      454400
 16797              	.LASF218:
 16798 07a6 676D7469 		.string	"gmtime"
 16798      6D6500
 16799              	.LASF18:
 16800 07ad 5F5F636F 		.string	"__count"
 16800      756E7400 
 16801              	.LASF429:
 16802 07b5 47756949 		.string	"GuiImage"
 16802      6D616765 
 16802      00
 16803              	.LASF130:
 16804 07be 71756F74 		.string	"quot"
 16804      00
 16805              	.LASF383:
 16806 07c3 6F707469 		.string	"optionBg"
 16806      6F6E4267 
 16806      00
 16807              	.LASF330:
 16808 07cc 5F5A4E38 		.string	"_ZN8GuiSound4StopEv"
 16808      47756953 
 16808      6F756E64 
 16808      3453746F 
 16808      70457600 
 16809              	.LASF269:
 16810 07e0 61737065 		.string	"aspect"
 16810      637400
 16811              	.LASF347:
 16812 07e7 5F5A4E31 		.string	"_ZN10GuiTrigger20SetButtonOnlyTriggerEijt"
 16812      30477569 
 16812      54726967 
 16812      67657232 
 16812      30536574 
 16813              	.LASF202:
 16814 0811 70657272 		.string	"perror"
 16814      6F7200
 16815              	.LASF102:
 16816 0818 5F637674 		.string	"_cvtbuf"
 16816      62756600 
 16817              	.LASF247:
 16818 0820 66646F74 		.string	"fdot_t"
 16818      5F7400
 16819              	.LASF298:
 16820 0827 5F777061 		.string	"_wpad_data"
 16820      645F6461 
 16820      746100
 16821              	.LASF422:
 16822 0832 5F5A4E31 		.string	"_ZN16GuiOptionBrowser10ResetStateEv"
 16822      36477569 
 16822      4F707469 
 16822      6F6E4272 
 16822      6F777365 
 16823              	.LASF354:
 16824 0856 4C656674 		.string	"Left"
 16824      00
 16825              	.LASF163:
 16826 085b 6D6F6E5F 		.string	"mon_thousands_sep"
 16826      74686F75 
 16826      73616E64 
 16826      735F7365 
 16826      7000
 16827              	.LASF454:
 16828 086d 7363726F 		.string	"scrollbar_arrowup_png"
 16828      6C6C6261 
 16828      725F6172 
 16828      726F7775 
 16828      705F706E 
 16829              	.LASF445:
 16830 0883 7468656D 		.string	"themePath"
 16830      65506174 
 16830      6800
 16831              	.LASF410:
 16832 088d 74726967 		.string	"trigHeldA"
 16832      48656C64 
 16832      4100
 16833              	.LASF467:
 16834 0897 55706461 		.string	"Update"
 16834      746500
 16835              	.LASF17:
 16836 089e 5F5F7763 		.string	"__wchb"
 16836      686200
 16837              	.LASF79:
 16838 08a5 5F6D6272 		.string	"_mbrtowc_state"
 16838      746F7763 
 16838      5F737461 
 16838      746500
 16839              	.LASF31:
 16840 08b4 5F5F746D 		.string	"__tm_hour"
 16840      5F686F75 
 16840      7200
 16841              	.LASF415:
 16842 08be 5F5A4E31 		.string	"_ZN16GuiOptionBrowser12FindMenuItemEii"
 16842      36477569 
 16842      4F707469 
 16842      6F6E4272 
 16842      6F777365 
 16843              	.LASF14:
 16844 08e5 77696E74 		.string	"wint_t"
 16844      5F7400
 16845              	.LASF144:
 16846 08ec 6D626C65 		.string	"mblen"
 16846      6E00
 16847              	.LASF103:
 16848 08f2 5F6E6577 		.string	"_new"
 16848      00
 16849              	.LASF459:
 16850 08f7 6C6F6164 		.string	"loaded"
 16850      656400
 16851              	.LASF110:
 16852 08fe 5F6E696F 		.string	"_niobs"
 16852      627300
 16853              	.LASF87:
 16854 0905 5F657272 		.string	"_errno"
 16854      6E6F00
 16855              	.LASF32:
 16856 090c 5F5F746D 		.string	"__tm_mday"
 16856      5F6D6461 
 16856      7900
 16857              	.LASF464:
 16858 0916 5F5A4E31 		.string	"_ZN10GuiTrigger2UpEv"
 16858      30477569 
 16858      54726967 
 16858      67657232 
 16858      55704576 
 16859              	.LASF39:
 16860 092b 5F666E61 		.string	"_fnargs"
 16860      72677300 
 16861              	.LASF303:
 16862 0933 62746E73 		.string	"btns_d"
 16862      5F6400
 16863              	.LASF301:
 16864 093a 62746E73 		.string	"btns_h"
 16864      5F6800
 16865              	.LASF302:
 16866 0941 62746E73 		.string	"btns_l"
 16866      5F6C00
 16867              	.LASF304:
 16868 0948 62746E73 		.string	"btns_u"
 16868      5F7500
 16869              	.LASF374:
 16870 094f 76616C75 		.string	"value"
 16870      6500
 16871              	.LASF460:
 16872 0955 474E5520 		.string	"GNU C++ 4.2.4 (devkitPPC release 15)"
 16872      432B2B20 
 16872      342E322E 
 16872      34202864 
 16872      65766B69 
 16873              	.LASF24:
 16874 097a 5F6E6578 		.string	"_next"
 16874      7400
 16875              	.LASF76:
 16876 0980 5F736967 		.string	"_signal_buf"
 16876      6E616C5F 
 16876      62756600 
 16877              	.LASF157:
 16878 098c 64656369 		.string	"decimal_point"
 16878      6D616C5F 
 16878      706F696E 
 16878      7400
 16879              	.LASF53:
 16880 099a 5F636F6F 		.string	"_cookie"
 16880      6B696500 
 16881              	.LASF414:
 16882 09a2 46696E64 		.string	"FindMenuItem"
 16882      4D656E75 
 16882      4974656D 
 16882      00
 16883              	.LASF83:
 16884 09af 2E5F3130 		.string	"._10"
 16884      00
 16885              	.LASF430:
 16886 09b4 74686973 		.string	"this"
 16886      00
 16887              	.LASF186:
 16888 09b9 66636C6F 		.string	"fclose"
 16888      736500
 16889              	.LASF234:
 16890 09c0 70697463 		.string	"pitch"
 16890      6800
 16891              	.LASF154:
 16892 09c6 73747274 		.string	"strtoul"
 16892      6F756C00 
 16893              	.LASF435:
 16894 09ce 6E657874 		.string	"nextItem"
 16894      4974656D 
 16894      00
 16895              	.LASF168:
 16896 09d7 66726163 		.string	"frac_digits"
 16896      5F646967 
 16896      69747300 
 16897              	.LASF135:
 16898 09e3 73747265 		.string	"strerror"
 16898      72726F72 
 16898      00
 16899              	.LASF133:
 16900 09ec 73747278 		.string	"strxfrm"
 16900      66726D00 
 16901              	.LASF129:
 16902 09f4 2E5F3233 		.string	"._23"
 16902      00
 16903              	.LASF131:
 16904 09f9 2E5F3234 		.string	"._24"
 16904      00
 16905              	.LASF29:
 16906 09fe 5F5F746D 		.string	"__tm_sec"
 16906      5F736563 
 16906      00
 16907              	.LASF376:
 16908 0a07 6F707469 		.string	"optionVal"
 16908      6F6E5661 
 16908      6C00
 16909              	.LASF38:
 16910 0a11 5F6F6E5F 		.string	"_on_exit_args"
 16910      65786974 
 16910      5F617267 
 16910      7300
 16911              	.LASF370:
 16912 0a1f 5F5A4E31 		.string	"_ZN12GuiImageData9GetHeightEv"
 16912      32477569 
 16912      496D6167 
 16912      65446174 
 16912      61394765 
 16913              	.LASF408:
 16914 0a3d 74726967 		.string	"trigA"
 16914      4100
 16915              	.LASF409:
 16916 0a43 74726967 		.string	"trigB"
 16916      4200
 16917              	.LASF300:
 16918 0a49 62617474 		.string	"battery_level"
 16918      6572795F 
 16918      6C657665 
 16918      6C00
 16919              	.LASF418:
 16920 0a57 47657453 		.string	"GetSelectedOption"
 16920      656C6563 
 16920      7465644F 
 16920      7074696F 
 16920      6E00
 16921              	.LASF81:
 16922 0a69 5F776372 		.string	"_wcrtomb_state"
 16922      746F6D62 
 16922      5F737461 
 16922      746500
 16923              	.LASF33:
 16924 0a78 5F5F746D 		.string	"__tm_mon"
 16924      5F6D6F6E 
 16924      00
 16925              	.LASF436:
 16926 0a81 666F756E 		.string	"found"
 16926      6400
 16927              	.LASF231:
 16928 0a87 76656333 		.string	"vec3w_t"
 16928      775F7400 
 16929              	.LASF227:
 16930 0a8f 57494955 		.string	"WIIUSE_IR_BELOW"
 16930      53455F49 
 16930      525F4245 
 16930      4C4F5700 
 16931              	.LASF315:
 16932 0a9f 73756273 		.string	"substickX"
 16932      7469636B 
 16932      5800
 16933              	.LASF316:
 16934 0aa9 73756273 		.string	"substickY"
 16934      7469636B 
 16934      5900
 16935              	.LASF185:
 16936 0ab3 636C6561 		.string	"clearerr"
 16936      72657272 
 16936      00
 16937              	.LASF456:
 16938 0abc 7363726F 		.string	"scrollbar_box_png"
 16938      6C6C6261 
 16938      725F626F 
 16938      785F706E 
 16938      6700
 16939              	.LASF373:
 16940 0ace 6E616D65 		.string	"name"
 16940      00
 16941              	.LASF172:
 16942 0ad3 6E5F7365 		.string	"n_sep_by_space"
 16942      705F6279 
 16942      5F737061 
 16942      636500
 16943              	.LASF320:
 16944 0ae2 47756953 		.string	"GuiSound"
 16944      6F756E64 
 16944      00
 16945              	.LASF210:
 16946 0aeb 756E6765 		.string	"ungetc"
 16946      746300
 16947              	.LASF121:
 16948 0af2 746D5F6D 		.string	"tm_min"
 16948      696E00
 16949              	.LASF21:
 16950 0af9 5F5F554C 		.string	"__ULong"
 16950      6F6E6700 
 16951              	.LASF259:
 16952 0b01 69725F74 		.string	"ir_t"
 16952      00
 16953              	.LASF274:
 16954 0b06 6E756E63 		.string	"nunchuk_t"
 16954      68756B5F 
 16954      7400
 16955              	.LASF151:
 16956 0b10 7372616E 		.string	"srand"
 16956      6400
 16957              	.LASF169:
 16958 0b16 705F6373 		.string	"p_cs_precedes"
 16958      5F707265 
 16958      63656465 
 16958      7300
 16959              	.LASF341:
 16960 0b24 7E477569 		.string	"~GuiTrigger"
 16960      54726967 
 16960      67657200 
 16961              	.LASF284:
 16962 0b30 636C6173 		.string	"classic_ctrl_t"
 16962      7369635F 
 16962      6374726C 
 16962      5F7400
 16963              	.LASF463:
 16964 0b3f 5F5A4E38 		.string	"_ZN8GuiSound7SetLoopEb"
 16964      47756953 
 16964      6F756E64 
 16964      37536574 
 16964      4C6F6F70 
 16965              	.LASF164:
 16966 0b56 6D6F6E5F 		.string	"mon_grouping"
 16966      67726F75 
 16966      70696E67 
 16966      00
 16967              	.LASF190:
 16968 0b63 66676574 		.string	"fgetc"
 16968      6300
 16969              	.LASF66:
 16970 0b69 5F737472 		.string	"_strtok_last"
 16970      746F6B5F 
 16970      6C617374 
 16970      00
 16971              	.LASF118:
 16972 0b76 636C6F63 		.string	"clock_t"
 16972      6B5F7400 
 16973              	.LASF294:
 16974 0b7e 2E5F3630 		.string	"._60"
 16974      00
 16975              	.LASF113:
 16976 0b83 5F736565 		.string	"_seed"
 16976      6400
 16977              	.LASF56:
 16978 0b89 5F736565 		.string	"_seek"
 16978      6B00
 16979              	.LASF371:
 16980 0b8f 50726570 		.string	"Prepare4Widescreen"
 16980      61726534 
 16980      57696465 
 16980      73637265 
 16980      656E00
 16981              	.LASF340:
 16982 0ba2 77706164 		.string	"wpad"
 16982      00
 16983              	.LASF155:
 16984 0ba7 73797374 		.string	"system"
 16984      656D00
 16985              	.LASF326:
 16986 0bae 7E477569 		.string	"~GuiSound"
 16986      536F756E 
 16986      6400
 16987              	.LASF299:
 16988 0bb8 64617461 		.string	"data_present"
 16988      5F707265 
 16988      73656E74 
 16988      00
 16989              	.LASF1:
 16990 0bc5 73686F72 		.string	"short unsigned int"
 16990      7420756E 
 16990      7369676E 
 16990      65642069 
 16990      6E7400
 16991              	.LASF457:
 16992 0bd8 7363726F 		.string	"scrollbaron"
 16992      6C6C6261 
 16992      726F6E00 
 16993              	.LASF4:
 16994 0be4 7369676E 		.string	"signed char"
 16994      65642063 
 16994      68617200 
 16995              	.LASF448:
 16996 0bf0 73746172 		.string	"start"
 16996      7400
 16997              	.LASF306:
 16998 0bf6 2E5F3735 		.string	"._75"
 16998      00
 16999              	.LASF360:
 17000 0bfb 47756949 		.string	"GuiImageData"
 17000      6D616765 
 17000      44617461 
 17000      00
 17001              	.LASF465:
 17002 0c08 5F5A4E31 		.string	"_ZN12GuiImageData18Prepare4WidescreenEv"
 17002      32477569 
 17002      496D6167 
 17002      65446174 
 17002      61313850 
 17003              	.LASF344:
 17004 0c30 53657448 		.string	"SetHeldTrigger"
 17004      656C6454 
 17004      72696767 
 17004      657200
 17005              	.LASF439:
 17006 0c3f 6C616E67 		.string	"lang"
 17006      00
 17007              	.LASF15:
 17008 0c44 5F67785F 		.string	"_gx_color"
 17008      636F6C6F 
 17008      7200
 17009              	.LASF100:
 17010 0c4e 5F667265 		.string	"_freelist"
 17010      656C6973 
 17010      7400
 17011              	.LASF369:
 17012 0c58 47657448 		.string	"GetHeight"
 17012      65696768 
 17012      7400
 17013              	.LASF126:
 17014 0c62 746D5F77 		.string	"tm_wday"
 17014      64617900 
 17015              	.LASF265:
 17016 0c6a 736D6F6F 		.string	"smooth_valid"
 17016      74685F76 
 17016      616C6964 
 17016      00
 17017              	.LASF146:
 17018 0c77 77636861 		.string	"wchar_t"
 17018      725F7400 
 17019              	.LASF61:
 17020 0c7f 5F6F6666 		.string	"_offset"
 17020      73657400 
 17021              	.LASF277:
 17022 0c87 62746E73 		.string	"btns"
 17022      00
 17023              	.LASF261:
 17024 0c8c 73746174 		.string	"state"
 17024      6500
 17025              	.LASF46:
 17026 0c92 5F5F7362 		.string	"__sbuf"
 17026      756600
 17027              	.LASF145:
 17028 0c99 6D627374 		.string	"mbstowcs"
 17028      6F776373 
 17028      00
 17029              	.LASF75:
 17030 0ca2 5F6C3634 		.string	"_l64a_buf"
 17030      615F6275 
 17030      6600
 17031              	.LASF208:
 17032 0cac 746D7066 		.string	"tmpfile"
 17032      696C6500 
 17033              	.LASF221:
 17034 0cb4 6D627374 		.string	"mbstate_t"
 17034      6174655F 
 17034      7400
 17035              	.LASF174:
 17036 0cbe 6E5F7369 		.string	"n_sign_posn"
 17036      676E5F70 
 17036      6F736E00 
 17037              	.LASF329:
 17038 0cca 5F5A4E38 		.string	"_ZN8GuiSound4PlayEv"
 17038      47756953 
 17038      6F756E64 
 17038      34506C61 
 17038      79457600 
 17039              	.LASF427:
 17040 0cde 47756954 		.string	"GuiText"
 17040      65787400 
 17041              	.LASF127:
 17042 0ce6 746D5F79 		.string	"tm_yday"
 17042      64617900 
 17043              	.LASF335:
 17044 0cee 53657456 		.string	"SetVolume"
 17044      6F6C756D 
 17044      6500
 17045              	.LASF67:
 17046 0cf8 5F617363 		.string	"_asctime_buf"
 17046      74696D65 
 17046      5F627566 
 17046      00
 17047              	.LASF16:
 17048 0d05 5F5F7763 		.string	"__wch"
 17048      6800
 17049              	.LASF313:
 17050 0d0b 73746963 		.string	"stickX"
 17050      6B5800
 17051              	.LASF314:
 17052 0d12 73746963 		.string	"stickY"
 17052      6B5900
 17053              	.LASF323:
 17054 0d19 766F6963 		.string	"voice"
 17054      6500
 17055              	.LASF82:
 17056 0d1f 5F776373 		.string	"_wcsrtombs_state"
 17056      72746F6D 
 17056      62735F73 
 17056      74617465 
 17056      00
 17057              	.LASF396:
 17058 0d30 62674F70 		.string	"bgOptions"
 17058      74696F6E 
 17058      7300
 17059              	.LASF305:
 17060 0d3a 57504144 		.string	"WPADData"
 17060      44617461 
 17060      00
 17061              	.LASF333:
 17062 0d43 52657375 		.string	"Resume"
 17062      6D6500
 17063              	.LASF203:
 17064 0d4a 72656D6F 		.string	"remove"
 17064      766500
 17065              	.LASF124:
 17066 0d51 746D5F6D 		.string	"tm_mon"
 17066      6F6E00
 17067              	.LASF13:
 17068 0d58 5F4C4F43 		.string	"_LOCK_RECURSIVE_T"
 17068      4B5F5245 
 17068      43555253 
 17068      4956455F 
 17068      5400
 17069              	.LASF215:
 17070 0d6a 74696D65 		.string	"time"
 17070      00
 17071              	.LASF402:
 17072 0d6f 6172726F 		.string	"arrowUp"
 17072      77557000 
 17073              	.LASF117:
 17074 0d77 6C6F6E67 		.string	"long int"
 17074      20696E74 
 17074      00
 17075              	.LASF191:
 17076 0d80 66676574 		.string	"fgetpos"
 17076      706F7300 
 17077              	.LASF74:
 17078 0d88 5F776374 		.string	"_wctomb_state"
 17078      6F6D625F 
 17078      73746174 
 17078      6500
 17079              	.LASF375:
 17080 0d96 4F707469 		.string	"OptionList"
 17080      6F6E4C69 
 17080      737400
 17081              	.LASF125:
 17082 0da1 746D5F79 		.string	"tm_year"
 17082      65617200 
 17083              	.LASF199:
 17084 0da9 67657463 		.string	"getc"
 17084      00
 17085              	.LASF111:
 17086 0dae 5F696F62 		.string	"_iobs"
 17086      7300
 17087              	.LASF92:
 17088 0db4 5F656D65 		.string	"_emergency"
 17088      7267656E 
 17088      637900
 17089              	.LASF138:
 17090 0dbf 61746F66 		.string	"atof"
 17090      00
 17091              	.LASF84:
 17092 0dc4 5F6E6578 		.string	"_nextf"
 17092      746600
 17093              	.LASF70:
 17094 0dcb 5F72616E 		.string	"_rand_next"
 17094      645F6E65 
 17094      787400
 17095              	.LASF162:
 17096 0dd6 6D6F6E5F 		.string	"mon_decimal_point"
 17096      64656369 
 17096      6D616C5F 
 17096      706F696E 
 17096      7400
 17097              	.LASF380:
 17098 0de8 6F707469 		.string	"optionIndex"
 17098      6F6E496E 
 17098      64657800 
 17099              	.LASF25:
 17100 0df4 5F6D6178 		.string	"_maxwds"
 17100      77647300 
 17101              	.LASF324:
 17102 0dfc 766F6C75 		.string	"volume"
 17102      6D6500
 17103              	.LASF152:
 17104 0e03 73747274 		.string	"strtod"
 17104      6F6400
 17105              	.LASF468:
 17106 0e0a 5F5A4E31 		.string	"_ZN16GuiOptionBrowser6UpdateEP10GuiTrigger"
 17106      36477569 
 17106      4F707469 
 17106      6F6E4272 
 17106      6F777365 
 17107              	.LASF134:
 17108 0e35 73747274 		.string	"strtok"
 17108      6F6B00
 17109              	.LASF153:
 17110 0e3c 73747274 		.string	"strtol"
 17110      6F6C00
 17111              	.LASF348:
 17112 0e43 53657442 		.string	"SetButtonOnlyInFocusTrigger"
 17112      7574746F 
 17112      6E4F6E6C 
 17112      79496E46 
 17112      6F637573 
 17113              	.LASF243:
 17114 0e5f 73745F61 		.string	"st_alpha"
 17114      6C706861 
 17114      00
 17115              	.LASF225:
 17116 0e68 6C6F6E67 		.string	"long double"
 17116      20646F75 
 17116      626C6500 
 17117              	.LASF382:
 17118 0e74 6F707469 		.string	"optionTxt"
 17118      6F6E5478 
 17118      7400
 17119              	.LASF253:
 17120 0e7e 6F66665F 		.string	"off_angle"
 17120      616E676C 
 17120      6500
 17121              	.LASF443:
 17122 0e88 706F7369 		.string	"position"
 17122      74696F6E 
 17122      00
 17123              	.LASF170:
 17124 0e91 705F7365 		.string	"p_sep_by_space"
 17124      705F6279 
 17124      5F737061 
 17124      636500
 17125              	.LASF22:
 17126 0ea0 6C6F6E67 		.string	"long unsigned int"
 17126      20756E73 
 17126      69676E65 
 17126      6420696E 
 17126      7400
 17127              	.LASF292:
 17128 0eb2 7769695F 		.string	"wii_board_t"
 17128      626F6172 
 17128      645F7400 
 17129              	.LASF404:
 17130 0ebe 7363726F 		.string	"scrollbarBox"
 17130      6C6C6261 
 17130      72426F78 
 17130      00
 17131              	.LASF209:
 17132 0ecb 746D706E 		.string	"tmpnam"
 17132      616D00
 17133              	.LASF188:
 17134 0ed2 66657272 		.string	"ferror"
 17134      6F7200
 17135              	.LASF332:
 17136 0ed9 5F5A4E38 		.string	"_ZN8GuiSound5PauseEv"
 17136      47756953 
 17136      6F756E64 
 17136      35506175 
 17136      73654576 
 17137              	.LASF57:
 17138 0eee 5F636C6F 		.string	"_close"
 17138      736500
 17139              	.LASF339:
 17140 0ef5 6368616E 		.string	"chan"
 17140      00
 17141              	.LASF9:
 17142 0efa 63686172 		.string	"char"
 17142      00
 17143              	.LASF240:
 17144 0eff 63616C5F 		.string	"cal_g"
 17144      6700
 17145              	.LASF109:
 17146 0f05 5F676C75 		.string	"_glue"
 17146      6500
 17147              	.LASF469:
 17148 0f0b 5F5F7374 		.string	"__static_initialization_and_destruction_0"
 17148      61746963 
 17148      5F696E69 
 17148      7469616C 
 17148      697A6174 
 17149              	.LASF309:
 17150 0f35 53544154 		.string	"STATE_CLICKED"
 17150      455F434C 
 17150      49434B45 
 17150      4400
 17151              	.LASF453:
 17152 0f43 7363726F 		.string	"scrollbar_png"
 17152      6C6C6261 
 17152      725F706E 
 17152      6700
 17153              	.LASF254:
 17154 0f51 73636F72 		.string	"score"
 17154      6500
 17155              	.LASF150:
 17156 0f57 7265616C 		.string	"realloc"
 17156      6C6F6300 
 17157              	.LASF424:
 17158 0f5f 44726177 		.string	"Draw"
 17158      00
 17159              	.LASF23:
 17160 0f64 5F426967 		.string	"_Bigint"
 17160      696E7400 
 17161              	.LASF213:
 17162 0f6c 64696666 		.string	"difftime"
 17162      74696D65 
 17162      00
 17163              	.LASF412:
 17164 0f75 7E477569 		.string	"~GuiOptionBrowser"
 17164      4F707469 
 17164      6F6E4272 
 17164      6F777365 
 17164      7200
 17165              	.LASF104:
 17166 0f87 5F617465 		.string	"_atexit0"
 17166      78697430 
 17166      00
 17167              	.LASF11:
 17168 0f90 4758436F 		.string	"GXColor"
 17168      6C6F7200 
 17169              	.LASF122:
 17170 0f98 746D5F68 		.string	"tm_hour"
 17170      6F757200 
 17171              	.LASF77:
 17172 0fa0 5F676574 		.string	"_getdate_err"
 17172      64617465 
 17172      5F657272 
 17172      00
 17173              	.LASF239:
 17174 0fad 63616C5F 		.string	"cal_zero"
 17174      7A65726F 
 17174      00
 17175              	.LASF196:
 17176 0fb6 66736565 		.string	"fseek"
 17176      6B00
 17177              	.LASF141:
 17178 0fbc 62736561 		.string	"bsearch"
 17178      72636800 
 17179              	.LASF466:
 17180 0fc4 5F5A4E31 		.string	"_ZN16GuiOptionBrowser15SetCol2PositionEi"
 17180      36477569 
 17180      4F707469 
 17180      6F6E4272 
 17180      6F777365 
 17181              	.LASF431:
 17182 0fed 63757272 		.string	"currentItem"
 17182      656E7449 
 17182      74656D00 
 17183              	.LASF385:
 17184 0ff9 6172726F 		.string	"arrowDownBtn"
 17184      77446F77 
 17184      6E42746E 
 17184      00
 17185              	.LASF411:
 17186 1006 4775694F 		.string	"GuiOptionBrowser"
 17186      7074696F 
 17186      6E42726F 
 17186      77736572 
 17186      00
 17187              	.LASF123:
 17188 1017 746D5F6D 		.string	"tm_mday"
 17188      64617900 
 17189              	.LASF60:
 17190 101f 5F626C6B 		.string	"_blksize"
 17190      73697A65 
 17190      00
 17191              	.LASF58:
 17192 1028 5F756275 		.string	"_ubuf"
 17192      6600
 17193              	.LASF72:
 17194 102e 5F6D626C 		.string	"_mblen_state"
 17194      656E5F73 
 17194      74617465 
 17194      00
 17195              	.LASF106:
 17196 103b 5F5F7367 		.string	"__sglue"
 17196      6C756500 
 17197              	.LASF197:
 17198 1043 66736574 		.string	"fsetpos"
 17198      706F7300 
 17199              	.LASF96:
 17200 104b 5F5F636C 		.string	"__cleanup"
 17200      65616E75 
 17200      7000
 17201              	.LASF392:
 17202 1055 6172726F 		.string	"arrowUpImg"
 17202      77557049 
 17202      6D6700
 17203              	.LASF267:
 17204 1060 676C6974 		.string	"glitch_cnt"
 17204      63685F63 
 17204      6E7400
 17205              	.LASF12:
 17206 106b 5F66706F 		.string	"_fpos_t"
 17206      735F7400 
 17207              	.LASF51:
 17208 1073 5F66696C 		.string	"_file"
 17208      6500
 17209              	.LASF232:
 17210 1079 6F726965 		.string	"orient_t"
 17210      6E745F74 
 17210      00
 17211              	.LASF143:
 17212 1082 6C646976 		.string	"ldiv"
 17212      00
 17213              	.LASF49:
 17214 1087 5F5F7346 		.string	"__sFILE"
 17214      494C4500 
 17215              	.LASF285:
 17216 108f 72735F72 		.string	"rs_raw"
 17216      617700
 17217              	.LASF8:
 17218 1096 646F7562 		.string	"double"
 17218      6C6500
 17219              	.LASF45:
 17220 109d 5F666E73 		.string	"_fns"
 17220      00
 17221              	.LASF108:
 17222 10a2 5F5F4649 		.string	"__FILE"
 17222      4C4500
 17223              	.LASF319:
 17224 10a9 50414444 		.string	"PADData"
 17224      61746100 
 17225              	.LASF423:
 17226 10b1 5F5A4E31 		.string	"_ZN16GuiOptionBrowser8SetFocusEi"
 17226      36477569 
 17226      4F707469 
 17226      6F6E4272 
 17226      6F777365 
 17227              	.LASF217:
 17228 10d2 6374696D 		.string	"ctime"
 17228      6500
 17229              	.LASF149:
 17230 10d8 71736F72 		.string	"qsort"
 17230      7400
 17231              	.LASF296:
 17232 10de 636C6173 		.string	"classic"
 17232      73696300 
 17233              	.LASF19:
 17234 10e6 5F5F7661 		.string	"__value"
 17234      6C756500 
 17235              	.LASF278:
 17236 10ee 62746E73 		.string	"btns_last"
 17236      5F6C6173 
 17236      7400
 17237              	.LASF42:
 17238 10f8 5F69735F 		.string	"_is_cxa"
 17238      63786100 
 17239              	.LASF264:
 17240 1100 64697374 		.string	"distance"
 17240      616E6365 
 17240      00
 17241              	.LASF99:
 17242 1109 5F703573 		.string	"_p5s"
 17242      00
 17243              	.LASF257:
 17244 110e 57494955 		.string	"WIIUSE_ASPECT_4_3"
 17244      53455F41 
 17244      53504543 
 17244      545F345F 
 17244      3300
 17245              	.LASF393:
 17246 1120 6172726F 		.string	"arrowUpOverImg"
 17246      7755704F 
 17246      76657249 
 17246      6D6700
 17247              	.LASF290:
 17248 112f 77625F72 		.string	"wb_raw"
 17248      617700
 17249              	.LASF363:
 17250 1136 77696474 		.string	"width"
 17250      6800
 17251              	.LASF165:
 17252 113c 706F7369 		.string	"positive_sign"
 17252      74697665 
 17252      5F736967 
 17252      6E00
 17253              	.LASF207:
 17254 114a 73657476 		.string	"setvbuf"
 17254      62756600 
 17255              	.LASF357:
 17256 1152 5F5A4E31 		.string	"_ZN10GuiTrigger5RightEv"
 17256      30477569 
 17256      54726967 
 17256      67657235 
 17256      52696768 
 17257              	.LASF416:
 17258 116a 47657443 		.string	"GetClickedOption"
 17258      6C69636B 
 17258      65644F70 
 17258      74696F6E 
 17258      00
 17259              	.LASF220:
 17260 117b 73747266 		.string	"strftime"
 17260      74696D65 
 17260      00
 17261              	.LASF147:
 17262 1184 6D62746F 		.string	"mbtowc"
 17262      776300
 17263              	.LASF282:
 17264 118b 6F726965 		.string	"orient"
 17264      6E7400
 17265              	.LASF3:
 17266 1192 6C6F6E67 		.string	"long long unsigned int"
 17266      206C6F6E 
 17266      6720756E 
 17266      7369676E 
 17266      65642069 
 17267              	.LASF228:
 17268 11a9 75627974 		.string	"ubyte"
 17268      6500
 17269              	.LASF271:
 17270 11af 6F666673 		.string	"offset"
 17270      657400
 17271              	.LASF381:
 17272 11b6 6F707469 		.string	"optionBtn"
 17272      6F6E4274 
 17272      6E00
 17273              	.LASF69:
 17274 11c0 5F67616D 		.string	"_gamma_signgam"
 17274      6D615F73 
 17274      69676E67 
 17274      616D00
 17275              	.LASF283:
 17276 11cf 67666F72 		.string	"gforce"
 17276      636500
 17277              	.LASF93:
 17278 11d6 5F637572 		.string	"_current_category"
 17278      72656E74 
 17278      5F636174 
 17278      65676F72 
 17278      7900
 17279              	.LASF193:
 17280 11e8 666F7065 		.string	"fopen"
 17280      6E00
 17281              	.LASF391:
 17282 11ee 6172726F 		.string	"arrowDownOverImg"
 17282      77446F77 
 17282      6E4F7665 
 17282      72496D67 
 17282      00
 17283              	.LASF400:
 17284 11ff 6172726F 		.string	"arrowDown"
 17284      77446F77 
 17284      6E00
 17285              	.LASF307:
 17286 1209 53544154 		.string	"STATE_DEFAULT"
 17286      455F4445 
 17286      4641554C 
 17286      5400
 17287              	.LASF334:
 17288 1217 5F5A4E38 		.string	"_ZN8GuiSound6ResumeEv"
 17288      47756953 
 17288      6F756E64 
 17288      36526573 
 17288      756D6545 
 17289              	.LASF142:
 17290 122d 67657465 		.string	"getenv"
 17290      6E7600
 17291              	.LASF95:
 17292 1234 5F5F7364 		.string	"__sdidinit"
 17292      6964696E 
 17292      697400
 17293              	.LASF455:
 17294 123f 7363726F 		.string	"scrollbar_arrowdown_png"
 17294      6C6C6261 
 17294      725F6172 
 17294      726F7764 
 17294      6F776E5F 
 17295              	.LASF356:
 17296 1257 52696768 		.string	"Right"
 17296      7400
 17297              	.LASF176:
 17298 125d 72616E64 		.string	"rand"
 17298      00
 17299              	.LASF343:
 17300 1262 5F5A4E31 		.string	"_ZN10GuiTrigger16SetSimpleTriggerEijt"
 17300      30477569 
 17300      54726967 
 17300      67657231 
 17300      36536574 
 17301              	.LASF458:
 17302 1288 73746172 		.string	"startat"
 17302      74617400 
 17303              	.LASF20:
 17304 1290 5F666C6F 		.string	"_flock_t"
 17304      636B5F74 
 17304      00
 17305              	.LASF444:
 17306 1299 5F5F696E 		.string	"__in_chrg"
 17306      5F636872 
 17306      6700
 17307              	.LASF442:
 17308 12a3 62757474 		.string	"buttons"
 17308      6F6E7300 
 17309              	.LASF201:
 17310 12ab 67657473 		.string	"gets"
 17310      00
 17311              	.LASF405:
 17312 12b0 7363726F 		.string	"scrollbarBoxOver"
 17312      6C6C6261 
 17312      72426F78 
 17312      4F766572 
 17312      00
 17313              	.LASF388:
 17314 12c1 62674F70 		.string	"bgOptionsOverImg"
 17314      74696F6E 
 17314      734F7665 
 17314      72496D67 
 17314      00
 17315              	.LASF355:
 17316 12d2 5F5A4E31 		.string	"_ZN10GuiTrigger4LeftEv"
 17316      30477569 
 17316      54726967 
 17316      67657234 
 17316      4C656674 
 17317              	.LASF173:
 17318 12e9 705F7369 		.string	"p_sign_posn"
 17318      676E5F70 
 17318      6F736E00 
 17319              	.LASF352:
 17320 12f5 5F5A4E38 		.string	"_ZN8GuiSound9IsPlayingEv"
 17320      47756953 
 17320      6F756E64 
 17320      39497350 
 17320      6C617969 
 17321              	.LASF6:
 17322 130e 6C6F6E67 		.string	"long long int"
 17322      206C6F6E 
 17322      6720696E 
 17322      7400
 17323              	.LASF327:
 17324 131c 506C6179 		.string	"Play"
 17324      00
 17325              	.LASF273:
 17326 1321 63656E74 		.string	"center"
 17326      657200
 17327              	.LASF214:
 17328 1328 6D6B7469 		.string	"mktime"
 17328      6D6500
 17329              	.LASF358:
 17330 132f 446F776E 		.string	"Down"
 17330      00
 17331              	.LASF200:
 17332 1334 67657463 		.string	"getchar"
 17332      68617200 
 17333              	.LASF262:
 17334 133c 7261775F 		.string	"raw_valid"
 17334      76616C69 
 17334      6400
 17335              	.LASF260:
 17336 1346 6E756D5F 		.string	"num_dots"
 17336      646F7473 
 17336      00
 17337              	.LASF325:
 17338 134f 6C6F6F70 		.string	"loop"
 17338      00
 17339              	.LASF372:
 17340 1354 5F6F7074 		.string	"_optionlist"
 17340      696F6E6C 
 17340      69737400 
 17341              	.LASF331:
 17342 1360 50617573 		.string	"Pause"
 17342      6500
 17343              	.LASF359:
 17344 1366 5F5A4E31 		.string	"_ZN10GuiTrigger4DownEv"
 17344      30477569 
 17344      54726967 
 17344      67657234 
 17344      446F776E 
 17345              	.LASF399:
 17346 137d 7363726F 		.string	"scrollbar"
 17346      6C6C6261 
 17346      7200
 17347              	.LASF171:
 17348 1387 6E5F6373 		.string	"n_cs_precedes"
 17348      5F707265 
 17348      63656465 
 17348      7300
 17349              	.LASF398:
 17350 1395 62674F70 		.string	"bgOptionsEntry"
 17350      74696F6E 
 17350      73456E74 
 17350      727900
 17351              	.LASF452:
 17352 13a4 62675F6F 		.string	"bg_options_entry_png"
 17352      7074696F 
 17352      6E735F65 
 17352      6E747279 
 17352      5F706E67 
 17353              	.LASF177:
 17354 13b9 6C6F6361 		.string	"localeconv"
 17354      6C65636F 
 17354      6E7600
 17355              	.LASF241:
 17356 13c4 73745F72 		.string	"st_roll"
 17356      6F6C6C00 
 17357              	.LASF26:
 17358 13cc 5F736967 		.string	"_sign"
 17358      6E00
 17359              	.LASF30:
 17360 13d2 5F5F746D 		.string	"__tm_min"
 17360      5F6D696E 
 17360      00
 17361              	.LASF2:
 17362 13db 756E7369 		.string	"unsigned int"
 17362      676E6564 
 17362      20696E74 
 17362      00
 17363              	.LASF71:
 17364 13e8 5F723438 		.string	"_r48"
 17364      00
 17365              	.LASF229:
 17366 13ed 75776F72 		.string	"uword"
 17366      6400
 17367              	.LASF461:
 17368 13f3 643A2F63 		.string	"d:/code/dasdd/source/libwiigui/gui_optionbrowser.cpp"
 17368      6F64652F 
 17368      64617364 
 17368      642F736F 
 17368      75726365 
 17369              	.LASF189:
 17370 1428 66666C75 		.string	"fflush"
 17370      736800
 17371              	.LASF230:
 17372 142f 76656332 		.string	"vec2b_t"
 17372      625F7400 
 17373              	.LASF317:
 17374 1437 74726967 		.string	"triggerL"
 17374      6765724C 
 17374      00
 17375              	.LASF318:
 17376 1440 74726967 		.string	"triggerR"
 17376      67657252 
 17376      00
 17377              	.LASF5:
 17378 1449 73686F72 		.string	"short int"
 17378      7420696E 
 17378      7400
 17379              	.LASF364:
 17380 1453 7E477569 		.string	"~GuiImageData"
 17380      496D6167 
 17380      65446174 
 17380      6100
 17381              	.LASF286:
 17382 1461 6C735F72 		.string	"ls_raw"
 17382      617700
 17383              	.LASF54:
 17384 1468 5F726561 		.string	"_read"
 17384      6400
 17385              	.LASF438:
 17386 146e 70726576 		.string	"prev"
 17386      00
 17387              	.LASF112:
 17388 1473 5F72616E 		.string	"_rand48"
 17388      64343800 
 17389              	.LASF379:
 17390 147b 6F707469 		.string	"options"
 17390      6F6E7300 
 17391              	.LASF289:
 17392 1483 67756974 		.string	"guitar_hero_3_t"
 17392      61725F68 
 17392      65726F5F 
 17392      335F7400 
 17393              	.LASF136:
 17394 1493 6D656D63 		.string	"memchr"
 17394      687200
 17395              	.LASF276:
 17396 149a 666C6167 		.string	"flags"
 17396      7300
 17397              	.LASF321:
 17398 14a0 736F756E 		.string	"sound"
 17398      6400
 17399              		.ident	"GCC: (GNU) 4.2.4 (devkitPPC release 15)"
